ARM GAS  C:\Users\Xuleo\AppData\Local\Temp\ccwFMfmR.s 			page 1


   1              		.cpu cortex-m33
   2              		.arch armv8-m.main
   3              		.fpu fpv5-sp-d16
   4              		.arch_extension dsp
   5              		.eabi_attribute 27, 1
   6              		.eabi_attribute 28, 1
   7              		.eabi_attribute 20, 1
   8              		.eabi_attribute 21, 1
   9              		.eabi_attribute 23, 3
  10              		.eabi_attribute 24, 1
  11              		.eabi_attribute 25, 1
  12              		.eabi_attribute 26, 1
  13              		.eabi_attribute 30, 1
  14              		.eabi_attribute 34, 1
  15              		.eabi_attribute 18, 4
  16              		.file	"adc.c"
  17              		.text
  18              	.Ltext0:
  19              		.cfi_sections	.debug_frame
  20              		.file 1 "Core/Src/adc.c"
  21              		.section	.text.MX_ADC2_Init,"ax",%progbits
  22              		.align	1
  23              		.global	MX_ADC2_Init
  24              		.syntax unified
  25              		.thumb
  26              		.thumb_func
  28              	MX_ADC2_Init:
  29              	.LFB356:
   1:Core/Src/adc.c **** /* USER CODE BEGIN Header */
   2:Core/Src/adc.c **** /**
   3:Core/Src/adc.c ****   ******************************************************************************
   4:Core/Src/adc.c ****   * @file    adc.c
   5:Core/Src/adc.c ****   * @brief   This file provides code for the configuration
   6:Core/Src/adc.c ****   *          of the ADC instances.
   7:Core/Src/adc.c ****   ******************************************************************************
   8:Core/Src/adc.c ****   * @attention
   9:Core/Src/adc.c ****   *
  10:Core/Src/adc.c ****   * Copyright (c) 2026 STMicroelectronics.
  11:Core/Src/adc.c ****   * All rights reserved.
  12:Core/Src/adc.c ****   *
  13:Core/Src/adc.c ****   * This software is licensed under terms that can be found in the LICENSE file
  14:Core/Src/adc.c ****   * in the root directory of this software component.
  15:Core/Src/adc.c ****   * If no LICENSE file comes with this software, it is provided AS-IS.
  16:Core/Src/adc.c ****   *
  17:Core/Src/adc.c ****   ******************************************************************************
  18:Core/Src/adc.c ****   */
  19:Core/Src/adc.c **** /* USER CODE END Header */
  20:Core/Src/adc.c **** /* Includes ------------------------------------------------------------------*/
  21:Core/Src/adc.c **** #include "adc.h"
  22:Core/Src/adc.c **** 
  23:Core/Src/adc.c **** /* USER CODE BEGIN 0 */
  24:Core/Src/adc.c **** 
  25:Core/Src/adc.c **** /* USER CODE END 0 */
  26:Core/Src/adc.c **** 
  27:Core/Src/adc.c **** ADC_HandleTypeDef hadc2;
  28:Core/Src/adc.c **** DMA_HandleTypeDef handle_GPDMA1_Channel2;
  29:Core/Src/adc.c **** 
ARM GAS  C:\Users\Xuleo\AppData\Local\Temp\ccwFMfmR.s 			page 2


  30:Core/Src/adc.c **** /* ADC2 init function */
  31:Core/Src/adc.c **** void MX_ADC2_Init(void)
  32:Core/Src/adc.c **** {
  30              		.loc 1 32 1 view -0
  31              		.cfi_startproc
  32              		@ args = 0, pretend = 0, frame = 32
  33              		@ frame_needed = 0, uses_anonymous_args = 0
  34 0000 00B5     		push	{lr}
  35              	.LCFI0:
  36              		.cfi_def_cfa_offset 4
  37              		.cfi_offset 14, -4
  38 0002 89B0     		sub	sp, sp, #36
  39              	.LCFI1:
  40              		.cfi_def_cfa_offset 40
  33:Core/Src/adc.c **** 
  34:Core/Src/adc.c ****   /* USER CODE BEGIN ADC2_Init 0 */
  35:Core/Src/adc.c **** 
  36:Core/Src/adc.c ****   /* USER CODE END ADC2_Init 0 */
  37:Core/Src/adc.c **** 
  38:Core/Src/adc.c ****   ADC_ChannelConfTypeDef sConfig = {0};
  41              		.loc 1 38 3 view .LVU1
  42              		.loc 1 38 26 is_stmt 0 view .LVU2
  43 0004 2022     		movs	r2, #32
  44 0006 0021     		movs	r1, #0
  45 0008 6846     		mov	r0, sp
  46 000a FFF7FEFF 		bl	memset
  47              	.LVL0:
  39:Core/Src/adc.c **** 
  40:Core/Src/adc.c ****   /* USER CODE BEGIN ADC2_Init 1 */
  41:Core/Src/adc.c **** 
  42:Core/Src/adc.c ****   /* USER CODE END ADC2_Init 1 */
  43:Core/Src/adc.c **** 
  44:Core/Src/adc.c ****   /** Common config
  45:Core/Src/adc.c ****   */
  46:Core/Src/adc.c ****   hadc2.Instance = ADC2;
  48              		.loc 1 46 3 is_stmt 1 view .LVU3
  49              		.loc 1 46 18 is_stmt 0 view .LVU4
  50 000e 1A48     		ldr	r0, .L7
  51 0010 1A4B     		ldr	r3, .L7+4
  52 0012 0360     		str	r3, [r0]
  47:Core/Src/adc.c ****   hadc2.Init.ClockPrescaler = ADC_CLOCK_ASYNC_DIV4;
  53              		.loc 1 47 3 is_stmt 1 view .LVU5
  54              		.loc 1 47 29 is_stmt 0 view .LVU6
  55 0014 4FF40023 		mov	r3, #524288
  56 0018 4360     		str	r3, [r0, #4]
  48:Core/Src/adc.c ****   hadc2.Init.Resolution = ADC_RESOLUTION_12B;
  57              		.loc 1 48 3 is_stmt 1 view .LVU7
  58              		.loc 1 48 25 is_stmt 0 view .LVU8
  59 001a 0023     		movs	r3, #0
  60 001c 8360     		str	r3, [r0, #8]
  49:Core/Src/adc.c ****   hadc2.Init.DataAlign = ADC_DATAALIGN_RIGHT;
  61              		.loc 1 49 3 is_stmt 1 view .LVU9
  62              		.loc 1 49 24 is_stmt 0 view .LVU10
  63 001e C360     		str	r3, [r0, #12]
  50:Core/Src/adc.c ****   hadc2.Init.ScanConvMode = ADC_SCAN_DISABLE;
  64              		.loc 1 50 3 is_stmt 1 view .LVU11
  65              		.loc 1 50 27 is_stmt 0 view .LVU12
ARM GAS  C:\Users\Xuleo\AppData\Local\Temp\ccwFMfmR.s 			page 3


  66 0020 0361     		str	r3, [r0, #16]
  51:Core/Src/adc.c ****   hadc2.Init.EOCSelection = ADC_EOC_SINGLE_CONV;
  67              		.loc 1 51 3 is_stmt 1 view .LVU13
  68              		.loc 1 51 27 is_stmt 0 view .LVU14
  69 0022 0422     		movs	r2, #4
  70 0024 4261     		str	r2, [r0, #20]
  52:Core/Src/adc.c ****   hadc2.Init.LowPowerAutoWait = DISABLE;
  71              		.loc 1 52 3 is_stmt 1 view .LVU15
  72              		.loc 1 52 31 is_stmt 0 view .LVU16
  73 0026 0376     		strb	r3, [r0, #24]
  53:Core/Src/adc.c ****   hadc2.Init.ContinuousConvMode = ENABLE;
  74              		.loc 1 53 3 is_stmt 1 view .LVU17
  75              		.loc 1 53 33 is_stmt 0 view .LVU18
  76 0028 0122     		movs	r2, #1
  77 002a 4276     		strb	r2, [r0, #25]
  54:Core/Src/adc.c ****   hadc2.Init.NbrOfConversion = 1;
  78              		.loc 1 54 3 is_stmt 1 view .LVU19
  79              		.loc 1 54 30 is_stmt 0 view .LVU20
  80 002c C261     		str	r2, [r0, #28]
  55:Core/Src/adc.c ****   hadc2.Init.DiscontinuousConvMode = DISABLE;
  81              		.loc 1 55 3 is_stmt 1 view .LVU21
  82              		.loc 1 55 36 is_stmt 0 view .LVU22
  83 002e 80F82030 		strb	r3, [r0, #32]
  56:Core/Src/adc.c ****   hadc2.Init.ExternalTrigConv = ADC_SOFTWARE_START;
  84              		.loc 1 56 3 is_stmt 1 view .LVU23
  85              		.loc 1 56 31 is_stmt 0 view .LVU24
  86 0032 8362     		str	r3, [r0, #40]
  57:Core/Src/adc.c ****   hadc2.Init.ExternalTrigConvEdge = ADC_EXTERNALTRIGCONVEDGE_NONE;
  87              		.loc 1 57 3 is_stmt 1 view .LVU25
  88              		.loc 1 57 35 is_stmt 0 view .LVU26
  89 0034 C362     		str	r3, [r0, #44]
  58:Core/Src/adc.c ****   hadc2.Init.DMAContinuousRequests = ENABLE;
  90              		.loc 1 58 3 is_stmt 1 view .LVU27
  91              		.loc 1 58 36 is_stmt 0 view .LVU28
  92 0036 80F83420 		strb	r2, [r0, #52]
  59:Core/Src/adc.c ****   hadc2.Init.SamplingMode = ADC_SAMPLING_MODE_NORMAL;
  93              		.loc 1 59 3 is_stmt 1 view .LVU29
  94              		.loc 1 59 27 is_stmt 0 view .LVU30
  95 003a 0363     		str	r3, [r0, #48]
  60:Core/Src/adc.c ****   hadc2.Init.Overrun = ADC_OVR_DATA_PRESERVED;
  96              		.loc 1 60 3 is_stmt 1 view .LVU31
  97              		.loc 1 60 22 is_stmt 0 view .LVU32
  98 003c 8363     		str	r3, [r0, #56]
  61:Core/Src/adc.c ****   hadc2.Init.OversamplingMode = DISABLE;
  99              		.loc 1 61 3 is_stmt 1 view .LVU33
 100              		.loc 1 61 31 is_stmt 0 view .LVU34
 101 003e 80F83C30 		strb	r3, [r0, #60]
  62:Core/Src/adc.c ****   if (HAL_ADC_Init(&hadc2) != HAL_OK)
 102              		.loc 1 62 3 is_stmt 1 view .LVU35
 103              		.loc 1 62 7 is_stmt 0 view .LVU36
 104 0042 FFF7FEFF 		bl	HAL_ADC_Init
 105              	.LVL1:
 106              		.loc 1 62 6 discriminator 1 view .LVU37
 107 0046 88B9     		cbnz	r0, .L5
 108              	.L2:
  63:Core/Src/adc.c ****   {
  64:Core/Src/adc.c ****     Error_Handler();
ARM GAS  C:\Users\Xuleo\AppData\Local\Temp\ccwFMfmR.s 			page 4


  65:Core/Src/adc.c ****   }
  66:Core/Src/adc.c **** 
  67:Core/Src/adc.c ****   /** Configure Regular Channel
  68:Core/Src/adc.c ****   */
  69:Core/Src/adc.c ****   sConfig.Channel = ADC_CHANNEL_0;
 109              		.loc 1 69 3 is_stmt 1 view .LVU38
 110              		.loc 1 69 19 is_stmt 0 view .LVU39
 111 0048 0123     		movs	r3, #1
 112 004a 0093     		str	r3, [sp]
  70:Core/Src/adc.c ****   sConfig.Rank = ADC_REGULAR_RANK_1;
 113              		.loc 1 70 3 is_stmt 1 view .LVU40
 114              		.loc 1 70 16 is_stmt 0 view .LVU41
 115 004c 0623     		movs	r3, #6
 116 004e 0193     		str	r3, [sp, #4]
  71:Core/Src/adc.c ****   sConfig.SamplingTime = ADC_SAMPLETIME_2CYCLES_5;
 117              		.loc 1 71 3 is_stmt 1 view .LVU42
 118              		.loc 1 71 24 is_stmt 0 view .LVU43
 119 0050 0023     		movs	r3, #0
 120 0052 0293     		str	r3, [sp, #8]
  72:Core/Src/adc.c ****   sConfig.SingleDiff = ADC_SINGLE_ENDED;
 121              		.loc 1 72 3 is_stmt 1 view .LVU44
 122              		.loc 1 72 22 is_stmt 0 view .LVU45
 123 0054 7F22     		movs	r2, #127
 124 0056 0392     		str	r2, [sp, #12]
  73:Core/Src/adc.c ****   sConfig.OffsetNumber = ADC_OFFSET_NONE;
 125              		.loc 1 73 3 is_stmt 1 view .LVU46
 126              		.loc 1 73 24 is_stmt 0 view .LVU47
 127 0058 0422     		movs	r2, #4
 128 005a 0492     		str	r2, [sp, #16]
  74:Core/Src/adc.c ****   sConfig.Offset = 0;
 129              		.loc 1 74 3 is_stmt 1 view .LVU48
 130              		.loc 1 74 18 is_stmt 0 view .LVU49
 131 005c 0593     		str	r3, [sp, #20]
  75:Core/Src/adc.c ****   if (HAL_ADC_ConfigChannel(&hadc2, &sConfig) != HAL_OK)
 132              		.loc 1 75 3 is_stmt 1 view .LVU50
 133              		.loc 1 75 7 is_stmt 0 view .LVU51
 134 005e 6946     		mov	r1, sp
 135 0060 0548     		ldr	r0, .L7
 136 0062 FFF7FEFF 		bl	HAL_ADC_ConfigChannel
 137              	.LVL2:
 138              		.loc 1 75 6 discriminator 1 view .LVU52
 139 0066 20B9     		cbnz	r0, .L6
 140              	.L1:
  76:Core/Src/adc.c ****   {
  77:Core/Src/adc.c ****     Error_Handler();
  78:Core/Src/adc.c ****   }
  79:Core/Src/adc.c ****   /* USER CODE BEGIN ADC2_Init 2 */
  80:Core/Src/adc.c **** 
  81:Core/Src/adc.c ****   /* USER CODE END ADC2_Init 2 */
  82:Core/Src/adc.c **** 
  83:Core/Src/adc.c **** }
 141              		.loc 1 83 1 view .LVU53
 142 0068 09B0     		add	sp, sp, #36
 143              	.LCFI2:
 144              		.cfi_remember_state
 145              		.cfi_def_cfa_offset 4
 146              		@ sp needed
ARM GAS  C:\Users\Xuleo\AppData\Local\Temp\ccwFMfmR.s 			page 5


 147 006a 00BD     		pop	{pc}
 148              	.L5:
 149              	.LCFI3:
 150              		.cfi_restore_state
  64:Core/Src/adc.c ****   }
 151              		.loc 1 64 5 is_stmt 1 view .LVU54
 152 006c FFF7FEFF 		bl	Error_Handler
 153              	.LVL3:
 154 0070 EAE7     		b	.L2
 155              	.L6:
  77:Core/Src/adc.c ****   }
 156              		.loc 1 77 5 view .LVU55
 157 0072 FFF7FEFF 		bl	Error_Handler
 158              	.LVL4:
 159              		.loc 1 83 1 is_stmt 0 view .LVU56
 160 0076 F7E7     		b	.L1
 161              	.L8:
 162              		.align	2
 163              	.L7:
 164 0078 00000000 		.word	hadc2
 165 007c 00810242 		.word	1107460352
 166              		.cfi_endproc
 167              	.LFE356:
 169              		.section	.text.HAL_ADC_MspInit,"ax",%progbits
 170              		.align	1
 171              		.global	HAL_ADC_MspInit
 172              		.syntax unified
 173              		.thumb
 174              		.thumb_func
 176              	HAL_ADC_MspInit:
 177              	.LVL5:
 178              	.LFB357:
  84:Core/Src/adc.c **** 
  85:Core/Src/adc.c **** void HAL_ADC_MspInit(ADC_HandleTypeDef* adcHandle)
  86:Core/Src/adc.c **** {
 179              		.loc 1 86 1 is_stmt 1 view -0
 180              		.cfi_startproc
 181              		@ args = 0, pretend = 0, frame = 240
 182              		@ frame_needed = 0, uses_anonymous_args = 0
 183              		.loc 1 86 1 is_stmt 0 view .LVU58
 184 0000 70B5     		push	{r4, r5, r6, lr}
 185              	.LCFI4:
 186              		.cfi_def_cfa_offset 16
 187              		.cfi_offset 4, -16
 188              		.cfi_offset 5, -12
 189              		.cfi_offset 6, -8
 190              		.cfi_offset 14, -4
 191 0002 BCB0     		sub	sp, sp, #240
 192              	.LCFI5:
 193              		.cfi_def_cfa_offset 256
 194 0004 0446     		mov	r4, r0
  87:Core/Src/adc.c **** 
  88:Core/Src/adc.c ****   GPIO_InitTypeDef GPIO_InitStruct = {0};
 195              		.loc 1 88 3 is_stmt 1 view .LVU59
 196              		.loc 1 88 20 is_stmt 0 view .LVU60
 197 0006 0021     		movs	r1, #0
 198 0008 3791     		str	r1, [sp, #220]
ARM GAS  C:\Users\Xuleo\AppData\Local\Temp\ccwFMfmR.s 			page 6


 199 000a 3891     		str	r1, [sp, #224]
 200 000c 3991     		str	r1, [sp, #228]
 201 000e 3A91     		str	r1, [sp, #232]
 202 0010 3B91     		str	r1, [sp, #236]
  89:Core/Src/adc.c ****   RCC_PeriphCLKInitTypeDef PeriphClkInitStruct = {0};
 203              		.loc 1 89 3 is_stmt 1 view .LVU61
 204              		.loc 1 89 28 is_stmt 0 view .LVU62
 205 0012 D022     		movs	r2, #208
 206 0014 02A8     		add	r0, sp, #8
 207              	.LVL6:
 208              		.loc 1 89 28 view .LVU63
 209 0016 FFF7FEFF 		bl	memset
 210              	.LVL7:
  90:Core/Src/adc.c ****   if(adcHandle->Instance==ADC2)
 211              		.loc 1 90 3 is_stmt 1 view .LVU64
 212              		.loc 1 90 15 is_stmt 0 view .LVU65
 213 001a 2268     		ldr	r2, [r4]
 214              		.loc 1 90 5 view .LVU66
 215 001c 2B4B     		ldr	r3, .L17
 216 001e 9A42     		cmp	r2, r3
 217 0020 01D0     		beq	.L14
 218              	.L9:
  91:Core/Src/adc.c ****   {
  92:Core/Src/adc.c ****   /* USER CODE BEGIN ADC2_MspInit 0 */
  93:Core/Src/adc.c **** 
  94:Core/Src/adc.c ****   /* USER CODE END ADC2_MspInit 0 */
  95:Core/Src/adc.c **** 
  96:Core/Src/adc.c ****   /** Initializes the peripherals clock
  97:Core/Src/adc.c ****   */
  98:Core/Src/adc.c ****     PeriphClkInitStruct.PeriphClockSelection = RCC_PERIPHCLK_ADCDAC;
  99:Core/Src/adc.c ****     PeriphClkInitStruct.AdcDacClockSelection = RCC_ADCDACCLKSOURCE_HCLK;
 100:Core/Src/adc.c ****     if (HAL_RCCEx_PeriphCLKConfig(&PeriphClkInitStruct) != HAL_OK)
 101:Core/Src/adc.c ****     {
 102:Core/Src/adc.c ****       Error_Handler();
 103:Core/Src/adc.c ****     }
 104:Core/Src/adc.c **** 
 105:Core/Src/adc.c ****     /* ADC2 clock enable */
 106:Core/Src/adc.c ****     __HAL_RCC_ADC_CLK_ENABLE();
 107:Core/Src/adc.c **** 
 108:Core/Src/adc.c ****     __HAL_RCC_GPIOA_CLK_ENABLE();
 109:Core/Src/adc.c ****     /**ADC2 GPIO Configuration
 110:Core/Src/adc.c ****     PA0     ------> ADC2_INP0
 111:Core/Src/adc.c ****     */
 112:Core/Src/adc.c ****     GPIO_InitStruct.Pin = GPIO_PIN_0;
 113:Core/Src/adc.c ****     GPIO_InitStruct.Mode = GPIO_MODE_ANALOG;
 114:Core/Src/adc.c ****     GPIO_InitStruct.Pull = GPIO_NOPULL;
 115:Core/Src/adc.c ****     HAL_GPIO_Init(GPIOA, &GPIO_InitStruct);
 116:Core/Src/adc.c **** 
 117:Core/Src/adc.c ****     /* ADC2 DMA Init */
 118:Core/Src/adc.c ****     /* GPDMA1_REQUEST_ADC2 Init */
 119:Core/Src/adc.c ****     handle_GPDMA1_Channel2.Instance = GPDMA1_Channel2;
 120:Core/Src/adc.c ****     handle_GPDMA1_Channel2.Init.Request = GPDMA1_REQUEST_ADC2;
 121:Core/Src/adc.c ****     handle_GPDMA1_Channel2.Init.BlkHWRequest = DMA_BREQ_SINGLE_BURST;
 122:Core/Src/adc.c ****     handle_GPDMA1_Channel2.Init.Direction = DMA_PERIPH_TO_MEMORY;
 123:Core/Src/adc.c ****     handle_GPDMA1_Channel2.Init.SrcInc = DMA_SINC_FIXED;
 124:Core/Src/adc.c ****     handle_GPDMA1_Channel2.Init.DestInc = DMA_DINC_INCREMENTED;
 125:Core/Src/adc.c ****     handle_GPDMA1_Channel2.Init.SrcDataWidth = DMA_SRC_DATAWIDTH_BYTE;
ARM GAS  C:\Users\Xuleo\AppData\Local\Temp\ccwFMfmR.s 			page 7


 126:Core/Src/adc.c ****     handle_GPDMA1_Channel2.Init.DestDataWidth = DMA_DEST_DATAWIDTH_BYTE;
 127:Core/Src/adc.c ****     handle_GPDMA1_Channel2.Init.Priority = DMA_LOW_PRIORITY_LOW_WEIGHT;
 128:Core/Src/adc.c ****     handle_GPDMA1_Channel2.Init.SrcBurstLength = 1;
 129:Core/Src/adc.c ****     handle_GPDMA1_Channel2.Init.DestBurstLength = 1;
 130:Core/Src/adc.c ****     handle_GPDMA1_Channel2.Init.TransferAllocatedPort = DMA_SRC_ALLOCATED_PORT0|DMA_DEST_ALLOCATED_
 131:Core/Src/adc.c ****     handle_GPDMA1_Channel2.Init.TransferEventMode = DMA_TCEM_BLOCK_TRANSFER;
 132:Core/Src/adc.c ****     handle_GPDMA1_Channel2.Init.Mode = DMA_NORMAL;
 133:Core/Src/adc.c ****     if (HAL_DMA_Init(&handle_GPDMA1_Channel2) != HAL_OK)
 134:Core/Src/adc.c ****     {
 135:Core/Src/adc.c ****       Error_Handler();
 136:Core/Src/adc.c ****     }
 137:Core/Src/adc.c **** 
 138:Core/Src/adc.c ****     __HAL_LINKDMA(adcHandle, DMA_Handle, handle_GPDMA1_Channel2);
 139:Core/Src/adc.c **** 
 140:Core/Src/adc.c ****     if (HAL_DMA_ConfigChannelAttributes(&handle_GPDMA1_Channel2, DMA_CHANNEL_NPRIV) != HAL_OK)
 141:Core/Src/adc.c ****     {
 142:Core/Src/adc.c ****       Error_Handler();
 143:Core/Src/adc.c ****     }
 144:Core/Src/adc.c **** 
 145:Core/Src/adc.c ****   /* USER CODE BEGIN ADC2_MspInit 1 */
 146:Core/Src/adc.c **** 
 147:Core/Src/adc.c ****   /* USER CODE END ADC2_MspInit 1 */
 148:Core/Src/adc.c ****   }
 149:Core/Src/adc.c **** }
 219              		.loc 1 149 1 view .LVU67
 220 0022 3CB0     		add	sp, sp, #240
 221              	.LCFI6:
 222              		.cfi_remember_state
 223              		.cfi_def_cfa_offset 16
 224              		@ sp needed
 225 0024 70BD     		pop	{r4, r5, r6, pc}
 226              	.LVL8:
 227              	.L14:
 228              	.LCFI7:
 229              		.cfi_restore_state
  98:Core/Src/adc.c ****     PeriphClkInitStruct.AdcDacClockSelection = RCC_ADCDACCLKSOURCE_HCLK;
 230              		.loc 1 98 5 is_stmt 1 view .LVU68
  98:Core/Src/adc.c ****     PeriphClkInitStruct.AdcDacClockSelection = RCC_ADCDACCLKSOURCE_HCLK;
 231              		.loc 1 98 46 is_stmt 0 view .LVU69
 232 0026 4FF40012 		mov	r2, #2097152
 233 002a 0023     		movs	r3, #0
 234 002c CDE90223 		strd	r2, [sp, #8]
  99:Core/Src/adc.c ****     if (HAL_RCCEx_PeriphCLKConfig(&PeriphClkInitStruct) != HAL_OK)
 235              		.loc 1 99 5 is_stmt 1 view .LVU70
 100:Core/Src/adc.c ****     {
 236              		.loc 1 100 5 view .LVU71
 100:Core/Src/adc.c ****     {
 237              		.loc 1 100 9 is_stmt 0 view .LVU72
 238 0030 02A8     		add	r0, sp, #8
 239 0032 FFF7FEFF 		bl	HAL_RCCEx_PeriphCLKConfig
 240              	.LVL9:
 100:Core/Src/adc.c ****     {
 241              		.loc 1 100 8 discriminator 1 view .LVU73
 242 0036 0028     		cmp	r0, #0
 243 0038 42D1     		bne	.L15
 244              	.L11:
 106:Core/Src/adc.c **** 
ARM GAS  C:\Users\Xuleo\AppData\Local\Temp\ccwFMfmR.s 			page 8


 245              		.loc 1 106 5 is_stmt 1 view .LVU74
 246              	.LBB2:
 106:Core/Src/adc.c **** 
 247              		.loc 1 106 5 view .LVU75
 106:Core/Src/adc.c **** 
 248              		.loc 1 106 5 view .LVU76
 249 003a 254B     		ldr	r3, .L17+4
 250 003c D3F88C20 		ldr	r2, [r3, #140]
 251 0040 42F48062 		orr	r2, r2, #1024
 252 0044 C3F88C20 		str	r2, [r3, #140]
 106:Core/Src/adc.c **** 
 253              		.loc 1 106 5 view .LVU77
 254 0048 D3F88C20 		ldr	r2, [r3, #140]
 255 004c 02F48062 		and	r2, r2, #1024
 256 0050 0092     		str	r2, [sp]
 106:Core/Src/adc.c **** 
 257              		.loc 1 106 5 view .LVU78
 258 0052 009A     		ldr	r2, [sp]
 259              	.LBE2:
 106:Core/Src/adc.c **** 
 260              		.loc 1 106 5 view .LVU79
 108:Core/Src/adc.c ****     /**ADC2 GPIO Configuration
 261              		.loc 1 108 5 view .LVU80
 262              	.LBB3:
 108:Core/Src/adc.c ****     /**ADC2 GPIO Configuration
 263              		.loc 1 108 5 view .LVU81
 108:Core/Src/adc.c ****     /**ADC2 GPIO Configuration
 264              		.loc 1 108 5 view .LVU82
 265 0054 D3F88C20 		ldr	r2, [r3, #140]
 266 0058 42F00102 		orr	r2, r2, #1
 267 005c C3F88C20 		str	r2, [r3, #140]
 108:Core/Src/adc.c ****     /**ADC2 GPIO Configuration
 268              		.loc 1 108 5 view .LVU83
 269 0060 D3F88C30 		ldr	r3, [r3, #140]
 270 0064 03F00103 		and	r3, r3, #1
 271 0068 0193     		str	r3, [sp, #4]
 108:Core/Src/adc.c ****     /**ADC2 GPIO Configuration
 272              		.loc 1 108 5 view .LVU84
 273 006a 019B     		ldr	r3, [sp, #4]
 274              	.LBE3:
 108:Core/Src/adc.c ****     /**ADC2 GPIO Configuration
 275              		.loc 1 108 5 view .LVU85
 112:Core/Src/adc.c ****     GPIO_InitStruct.Mode = GPIO_MODE_ANALOG;
 276              		.loc 1 112 5 view .LVU86
 112:Core/Src/adc.c ****     GPIO_InitStruct.Mode = GPIO_MODE_ANALOG;
 277              		.loc 1 112 25 is_stmt 0 view .LVU87
 278 006c 0126     		movs	r6, #1
 279 006e 3796     		str	r6, [sp, #220]
 113:Core/Src/adc.c ****     GPIO_InitStruct.Pull = GPIO_NOPULL;
 280              		.loc 1 113 5 is_stmt 1 view .LVU88
 113:Core/Src/adc.c ****     GPIO_InitStruct.Pull = GPIO_NOPULL;
 281              		.loc 1 113 26 is_stmt 0 view .LVU89
 282 0070 0323     		movs	r3, #3
 283 0072 3893     		str	r3, [sp, #224]
 114:Core/Src/adc.c ****     HAL_GPIO_Init(GPIOA, &GPIO_InitStruct);
 284              		.loc 1 114 5 is_stmt 1 view .LVU90
 114:Core/Src/adc.c ****     HAL_GPIO_Init(GPIOA, &GPIO_InitStruct);
ARM GAS  C:\Users\Xuleo\AppData\Local\Temp\ccwFMfmR.s 			page 9


 285              		.loc 1 114 26 is_stmt 0 view .LVU91
 286 0074 0025     		movs	r5, #0
 287 0076 3995     		str	r5, [sp, #228]
 115:Core/Src/adc.c **** 
 288              		.loc 1 115 5 is_stmt 1 view .LVU92
 289 0078 37A9     		add	r1, sp, #220
 290 007a 1648     		ldr	r0, .L17+8
 291 007c FFF7FEFF 		bl	HAL_GPIO_Init
 292              	.LVL10:
 119:Core/Src/adc.c ****     handle_GPDMA1_Channel2.Init.Request = GPDMA1_REQUEST_ADC2;
 293              		.loc 1 119 5 view .LVU93
 119:Core/Src/adc.c ****     handle_GPDMA1_Channel2.Init.Request = GPDMA1_REQUEST_ADC2;
 294              		.loc 1 119 37 is_stmt 0 view .LVU94
 295 0080 1548     		ldr	r0, .L17+12
 296 0082 164B     		ldr	r3, .L17+16
 297 0084 0360     		str	r3, [r0]
 120:Core/Src/adc.c ****     handle_GPDMA1_Channel2.Init.BlkHWRequest = DMA_BREQ_SINGLE_BURST;
 298              		.loc 1 120 5 is_stmt 1 view .LVU95
 120:Core/Src/adc.c ****     handle_GPDMA1_Channel2.Init.BlkHWRequest = DMA_BREQ_SINGLE_BURST;
 299              		.loc 1 120 41 is_stmt 0 view .LVU96
 300 0086 4660     		str	r6, [r0, #4]
 121:Core/Src/adc.c ****     handle_GPDMA1_Channel2.Init.Direction = DMA_PERIPH_TO_MEMORY;
 301              		.loc 1 121 5 is_stmt 1 view .LVU97
 121:Core/Src/adc.c ****     handle_GPDMA1_Channel2.Init.Direction = DMA_PERIPH_TO_MEMORY;
 302              		.loc 1 121 46 is_stmt 0 view .LVU98
 303 0088 8560     		str	r5, [r0, #8]
 122:Core/Src/adc.c ****     handle_GPDMA1_Channel2.Init.SrcInc = DMA_SINC_FIXED;
 304              		.loc 1 122 5 is_stmt 1 view .LVU99
 122:Core/Src/adc.c ****     handle_GPDMA1_Channel2.Init.SrcInc = DMA_SINC_FIXED;
 305              		.loc 1 122 43 is_stmt 0 view .LVU100
 306 008a C560     		str	r5, [r0, #12]
 123:Core/Src/adc.c ****     handle_GPDMA1_Channel2.Init.DestInc = DMA_DINC_INCREMENTED;
 307              		.loc 1 123 5 is_stmt 1 view .LVU101
 123:Core/Src/adc.c ****     handle_GPDMA1_Channel2.Init.DestInc = DMA_DINC_INCREMENTED;
 308              		.loc 1 123 40 is_stmt 0 view .LVU102
 309 008c 0561     		str	r5, [r0, #16]
 124:Core/Src/adc.c ****     handle_GPDMA1_Channel2.Init.SrcDataWidth = DMA_SRC_DATAWIDTH_BYTE;
 310              		.loc 1 124 5 is_stmt 1 view .LVU103
 124:Core/Src/adc.c ****     handle_GPDMA1_Channel2.Init.SrcDataWidth = DMA_SRC_DATAWIDTH_BYTE;
 311              		.loc 1 124 41 is_stmt 0 view .LVU104
 312 008e 4FF40023 		mov	r3, #524288
 313 0092 4361     		str	r3, [r0, #20]
 125:Core/Src/adc.c ****     handle_GPDMA1_Channel2.Init.DestDataWidth = DMA_DEST_DATAWIDTH_BYTE;
 314              		.loc 1 125 5 is_stmt 1 view .LVU105
 125:Core/Src/adc.c ****     handle_GPDMA1_Channel2.Init.DestDataWidth = DMA_DEST_DATAWIDTH_BYTE;
 315              		.loc 1 125 46 is_stmt 0 view .LVU106
 316 0094 8561     		str	r5, [r0, #24]
 126:Core/Src/adc.c ****     handle_GPDMA1_Channel2.Init.Priority = DMA_LOW_PRIORITY_LOW_WEIGHT;
 317              		.loc 1 126 5 is_stmt 1 view .LVU107
 126:Core/Src/adc.c ****     handle_GPDMA1_Channel2.Init.Priority = DMA_LOW_PRIORITY_LOW_WEIGHT;
 318              		.loc 1 126 47 is_stmt 0 view .LVU108
 319 0096 C561     		str	r5, [r0, #28]
 127:Core/Src/adc.c ****     handle_GPDMA1_Channel2.Init.SrcBurstLength = 1;
 320              		.loc 1 127 5 is_stmt 1 view .LVU109
 127:Core/Src/adc.c ****     handle_GPDMA1_Channel2.Init.SrcBurstLength = 1;
 321              		.loc 1 127 42 is_stmt 0 view .LVU110
 322 0098 0562     		str	r5, [r0, #32]
ARM GAS  C:\Users\Xuleo\AppData\Local\Temp\ccwFMfmR.s 			page 10


 128:Core/Src/adc.c ****     handle_GPDMA1_Channel2.Init.DestBurstLength = 1;
 323              		.loc 1 128 5 is_stmt 1 view .LVU111
 128:Core/Src/adc.c ****     handle_GPDMA1_Channel2.Init.DestBurstLength = 1;
 324              		.loc 1 128 48 is_stmt 0 view .LVU112
 325 009a 4662     		str	r6, [r0, #36]
 129:Core/Src/adc.c ****     handle_GPDMA1_Channel2.Init.TransferAllocatedPort = DMA_SRC_ALLOCATED_PORT0|DMA_DEST_ALLOCATED_
 326              		.loc 1 129 5 is_stmt 1 view .LVU113
 129:Core/Src/adc.c ****     handle_GPDMA1_Channel2.Init.TransferAllocatedPort = DMA_SRC_ALLOCATED_PORT0|DMA_DEST_ALLOCATED_
 327              		.loc 1 129 49 is_stmt 0 view .LVU114
 328 009c 8662     		str	r6, [r0, #40]
 130:Core/Src/adc.c ****     handle_GPDMA1_Channel2.Init.TransferEventMode = DMA_TCEM_BLOCK_TRANSFER;
 329              		.loc 1 130 5 is_stmt 1 view .LVU115
 130:Core/Src/adc.c ****     handle_GPDMA1_Channel2.Init.TransferEventMode = DMA_TCEM_BLOCK_TRANSFER;
 330              		.loc 1 130 55 is_stmt 0 view .LVU116
 331 009e C562     		str	r5, [r0, #44]
 131:Core/Src/adc.c ****     handle_GPDMA1_Channel2.Init.Mode = DMA_NORMAL;
 332              		.loc 1 131 5 is_stmt 1 view .LVU117
 131:Core/Src/adc.c ****     handle_GPDMA1_Channel2.Init.Mode = DMA_NORMAL;
 333              		.loc 1 131 51 is_stmt 0 view .LVU118
 334 00a0 0563     		str	r5, [r0, #48]
 132:Core/Src/adc.c ****     if (HAL_DMA_Init(&handle_GPDMA1_Channel2) != HAL_OK)
 335              		.loc 1 132 5 is_stmt 1 view .LVU119
 132:Core/Src/adc.c ****     if (HAL_DMA_Init(&handle_GPDMA1_Channel2) != HAL_OK)
 336              		.loc 1 132 38 is_stmt 0 view .LVU120
 337 00a2 4563     		str	r5, [r0, #52]
 133:Core/Src/adc.c ****     {
 338              		.loc 1 133 5 is_stmt 1 view .LVU121
 133:Core/Src/adc.c ****     {
 339              		.loc 1 133 9 is_stmt 0 view .LVU122
 340 00a4 FFF7FEFF 		bl	HAL_DMA_Init
 341              	.LVL11:
 133:Core/Src/adc.c ****     {
 342              		.loc 1 133 8 discriminator 1 view .LVU123
 343 00a8 68B9     		cbnz	r0, .L16
 344              	.L12:
 138:Core/Src/adc.c **** 
 345              		.loc 1 138 5 is_stmt 1 view .LVU124
 138:Core/Src/adc.c **** 
 346              		.loc 1 138 5 view .LVU125
 347 00aa 0B48     		ldr	r0, .L17+12
 348 00ac 2065     		str	r0, [r4, #80]
 138:Core/Src/adc.c **** 
 349              		.loc 1 138 5 view .LVU126
 350 00ae C465     		str	r4, [r0, #92]
 138:Core/Src/adc.c **** 
 351              		.loc 1 138 5 view .LVU127
 140:Core/Src/adc.c ****     {
 352              		.loc 1 140 5 view .LVU128
 140:Core/Src/adc.c ****     {
 353              		.loc 1 140 9 is_stmt 0 view .LVU129
 354 00b0 1021     		movs	r1, #16
 355 00b2 FFF7FEFF 		bl	HAL_DMA_ConfigChannelAttributes
 356              	.LVL12:
 140:Core/Src/adc.c ****     {
 357              		.loc 1 140 8 discriminator 1 view .LVU130
 358 00b6 0028     		cmp	r0, #0
 359 00b8 B3D0     		beq	.L9
ARM GAS  C:\Users\Xuleo\AppData\Local\Temp\ccwFMfmR.s 			page 11


 142:Core/Src/adc.c ****     }
 360              		.loc 1 142 7 is_stmt 1 view .LVU131
 361 00ba FFF7FEFF 		bl	Error_Handler
 362              	.LVL13:
 363              		.loc 1 149 1 is_stmt 0 view .LVU132
 364 00be B0E7     		b	.L9
 365              	.L15:
 102:Core/Src/adc.c ****     }
 366              		.loc 1 102 7 is_stmt 1 view .LVU133
 367 00c0 FFF7FEFF 		bl	Error_Handler
 368              	.LVL14:
 369 00c4 B9E7     		b	.L11
 370              	.L16:
 135:Core/Src/adc.c ****     }
 371              		.loc 1 135 7 view .LVU134
 372 00c6 FFF7FEFF 		bl	Error_Handler
 373              	.LVL15:
 374 00ca EEE7     		b	.L12
 375              	.L18:
 376              		.align	2
 377              	.L17:
 378 00cc 00810242 		.word	1107460352
 379 00d0 000C0244 		.word	1140984832
 380 00d4 00000242 		.word	1107427328
 381 00d8 00000000 		.word	handle_GPDMA1_Channel2
 382 00dc 50010240 		.word	1073873232
 383              		.cfi_endproc
 384              	.LFE357:
 386              		.section	.text.HAL_ADC_MspDeInit,"ax",%progbits
 387              		.align	1
 388              		.global	HAL_ADC_MspDeInit
 389              		.syntax unified
 390              		.thumb
 391              		.thumb_func
 393              	HAL_ADC_MspDeInit:
 394              	.LVL16:
 395              	.LFB358:
 150:Core/Src/adc.c **** 
 151:Core/Src/adc.c **** void HAL_ADC_MspDeInit(ADC_HandleTypeDef* adcHandle)
 152:Core/Src/adc.c **** {
 396              		.loc 1 152 1 view -0
 397              		.cfi_startproc
 398              		@ args = 0, pretend = 0, frame = 0
 399              		@ frame_needed = 0, uses_anonymous_args = 0
 153:Core/Src/adc.c **** 
 154:Core/Src/adc.c ****   if(adcHandle->Instance==ADC2)
 400              		.loc 1 154 3 view .LVU136
 401              		.loc 1 154 15 is_stmt 0 view .LVU137
 402 0000 0268     		ldr	r2, [r0]
 403              		.loc 1 154 5 view .LVU138
 404 0002 0A4B     		ldr	r3, .L26
 405 0004 9A42     		cmp	r2, r3
 406 0006 00D0     		beq	.L25
 407 0008 7047     		bx	lr
 408              	.L25:
 152:Core/Src/adc.c **** 
 409              		.loc 1 152 1 view .LVU139
ARM GAS  C:\Users\Xuleo\AppData\Local\Temp\ccwFMfmR.s 			page 12


 410 000a 10B5     		push	{r4, lr}
 411              	.LCFI8:
 412              		.cfi_def_cfa_offset 8
 413              		.cfi_offset 4, -8
 414              		.cfi_offset 14, -4
 415 000c 0446     		mov	r4, r0
 155:Core/Src/adc.c ****   {
 156:Core/Src/adc.c ****   /* USER CODE BEGIN ADC2_MspDeInit 0 */
 157:Core/Src/adc.c **** 
 158:Core/Src/adc.c ****   /* USER CODE END ADC2_MspDeInit 0 */
 159:Core/Src/adc.c ****     /* Peripheral clock disable */
 160:Core/Src/adc.c ****     __HAL_RCC_ADC_CLK_DISABLE();
 416              		.loc 1 160 5 is_stmt 1 view .LVU140
 417 000e 084A     		ldr	r2, .L26+4
 418 0010 D2F88C30 		ldr	r3, [r2, #140]
 419 0014 23F48063 		bic	r3, r3, #1024
 420 0018 C2F88C30 		str	r3, [r2, #140]
 161:Core/Src/adc.c **** 
 162:Core/Src/adc.c ****     /**ADC2 GPIO Configuration
 163:Core/Src/adc.c ****     PA0     ------> ADC2_INP0
 164:Core/Src/adc.c ****     */
 165:Core/Src/adc.c ****     HAL_GPIO_DeInit(GPIOA, GPIO_PIN_0);
 421              		.loc 1 165 5 view .LVU141
 422 001c 0121     		movs	r1, #1
 423 001e 0548     		ldr	r0, .L26+8
 424              	.LVL17:
 425              		.loc 1 165 5 is_stmt 0 view .LVU142
 426 0020 FFF7FEFF 		bl	HAL_GPIO_DeInit
 427              	.LVL18:
 166:Core/Src/adc.c **** 
 167:Core/Src/adc.c ****     /* ADC2 DMA DeInit */
 168:Core/Src/adc.c ****     HAL_DMA_DeInit(adcHandle->DMA_Handle);
 428              		.loc 1 168 5 is_stmt 1 view .LVU143
 429 0024 206D     		ldr	r0, [r4, #80]
 430 0026 FFF7FEFF 		bl	HAL_DMA_DeInit
 431              	.LVL19:
 169:Core/Src/adc.c ****   /* USER CODE BEGIN ADC2_MspDeInit 1 */
 170:Core/Src/adc.c **** 
 171:Core/Src/adc.c ****   /* USER CODE END ADC2_MspDeInit 1 */
 172:Core/Src/adc.c ****   }
 173:Core/Src/adc.c **** }
 432              		.loc 1 173 1 is_stmt 0 view .LVU144
 433 002a 10BD     		pop	{r4, pc}
 434              	.LVL20:
 435              	.L27:
 436              		.loc 1 173 1 view .LVU145
 437              		.align	2
 438              	.L26:
 439 002c 00810242 		.word	1107460352
 440 0030 000C0244 		.word	1140984832
 441 0034 00000242 		.word	1107427328
 442              		.cfi_endproc
 443              	.LFE358:
 445              		.global	handle_GPDMA1_Channel2
 446              		.section	.bss.handle_GPDMA1_Channel2,"aw",%nobits
 447              		.align	2
 450              	handle_GPDMA1_Channel2:
ARM GAS  C:\Users\Xuleo\AppData\Local\Temp\ccwFMfmR.s 			page 13


 451 0000 00000000 		.space	120
 451      00000000 
 451      00000000 
 451      00000000 
 451      00000000 
 452              		.global	hadc2
 453              		.section	.bss.hadc2,"aw",%nobits
 454              		.align	2
 457              	hadc2:
 458 0000 00000000 		.space	104
 458      00000000 
 458      00000000 
 458      00000000 
 458      00000000 
 459              		.text
 460              	.Letext0:
 461              		.file 2 "C:/thirdpartyLibs/arm-gnu-toolchain-15.2/arm-none-eabi/include/machine/_default_types.h"
 462              		.file 3 "C:/thirdpartyLibs/arm-gnu-toolchain-15.2/arm-none-eabi/include/sys/_stdint.h"
 463              		.file 4 "Drivers/CMSIS/Device/ST/STM32H5xx/Include/stm32h523xx.h"
 464              		.file 5 "Drivers/CMSIS/Device/ST/STM32H5xx/Include/stm32h5xx.h"
 465              		.file 6 "Drivers/STM32H5xx_HAL_Driver/Inc/stm32h5xx_hal_def.h"
 466              		.file 7 "Drivers/STM32H5xx_HAL_Driver/Inc/stm32h5xx_hal_rcc_ex.h"
 467              		.file 8 "Drivers/STM32H5xx_HAL_Driver/Inc/stm32h5xx_hal_gpio.h"
 468              		.file 9 "Drivers/STM32H5xx_HAL_Driver/Inc/stm32h5xx_hal_dma.h"
 469              		.file 10 "Drivers/STM32H5xx_HAL_Driver/Inc/stm32h5xx_hal_dma_ex.h"
 470              		.file 11 "Drivers/STM32H5xx_HAL_Driver/Inc/stm32h5xx_hal_adc.h"
 471              		.file 12 "Core/Inc/adc.h"
 472              		.file 13 "Core/Inc/main.h"
 473              		.file 14 "<built-in>"
ARM GAS  C:\Users\Xuleo\AppData\Local\Temp\ccwFMfmR.s 			page 14

