ARM GAS  C:\Users\Xuleo\AppData\Local\Temp\ccMjlGmm.s 			page 1


   1              		.cpu cortex-m33
   2              		.arch armv8-m.main
   3              		.fpu fpv5-sp-d16
   4              		.arch_extension dsp
   5              		.eabi_attribute 27, 1
   6              		.eabi_attribute 28, 1
   7              		.eabi_attribute 20, 1
   8              		.eabi_attribute 21, 1
   9              		.eabi_attribute 23, 3
  10              		.eabi_attribute 24, 1
  11              		.eabi_attribute 25, 1
  12              		.eabi_attribute 26, 1
  13              		.eabi_attribute 30, 1
  14              		.eabi_attribute 34, 1
  15              		.eabi_attribute 18, 4
  16              		.file	"application.c"
  17              		.text
  18              	.Ltext0:
  19              		.cfi_sections	.debug_frame
  20              		.file 1 "./Application/Src/application.c"
  21              		.section	.text.parsing_song_buffer_to_struct,"ax",%progbits
  22              		.align	1
  23              		.global	parsing_song_buffer_to_struct
  24              		.syntax unified
  25              		.thumb
  26              		.thumb_func
  28              	parsing_song_buffer_to_struct:
  29              	.LVL0:
  30              	.LFB359:
   1:./Application/Src/application.c **** #include <application.h>
   2:./Application/Src/application.c **** 
   3:./Application/Src/application.c **** uint8_t rx_message_buffer[128] = {0}; // DMA circular buffer
   4:./Application/Src/application.c **** uint8_t rx_message[256] = {0}; // accumulation buffer for complete messages
   5:./Application/Src/application.c **** uint16_t rx_message_index = 0; // current write position in rx_message
   6:./Application/Src/application.c **** int old_buffer_index = 0;
   7:./Application/Src/application.c **** int rx_complete = 0;
   8:./Application/Src/application.c **** int rx_valid = 0;
   9:./Application/Src/application.c **** volatile int uart_binary_mode = 0; // 1 = skip \n detection (binary file transfer)
  10:./Application/Src/application.c **** 
  11:./Application/Src/application.c **** // ram
  12:./Application/Src/application.c **** volatile int redirect_to_ram = 0; // flag to indicate whether the incoming song data should be writ
  13:./Application/Src/application.c **** volatile int ram_rx_started = 0;  // 1 = start sentinel received, accumulating
  14:./Application/Src/application.c **** volatile int ram_rx_complete = 0; // 1 = end sentinel received, ready to parse
  15:./Application/Src/application.c **** volatile uint32_t ram_rx_offset = 0; // byte offset into song_ram during accumulation
  16:./Application/Src/application.c **** __ALIGN_BEGIN float rx_data[5500] __ALIGN_END;
  17:./Application/Src/application.c **** __ALIGN_BEGIN float song_ram[365][14] __ALIGN_END; // receive buffer for RAM song transfer (20440 b
  18:./Application/Src/application.c **** VOFA_REPORT vofa; // transmit via usb
  19:./Application/Src/application.c **** 
  20:./Application/Src/application.c **** ChordEvent_t chord_events[MAX_CHORD_EVENTS] = {0}; // store the whole song, max 100 chords
  21:./Application/Src/application.c **** 
  22:./Application/Src/application.c **** void parsing_song_buffer_to_struct(float src[][14], ChordEvent_t *dst) {
  31              		.loc 1 22 72 view -0
  32              		.cfi_startproc
  33              		@ args = 0, pretend = 0, frame = 0
  34              		@ frame_needed = 0, uses_anonymous_args = 0
  35              		.loc 1 22 72 is_stmt 0 view .LVU1
  36 0000 30B5     		push	{r4, r5, lr}
ARM GAS  C:\Users\Xuleo\AppData\Local\Temp\ccMjlGmm.s 			page 2


  37              	.LCFI0:
  38              		.cfi_def_cfa_offset 12
  39              		.cfi_offset 4, -12
  40              		.cfi_offset 5, -8
  41              		.cfi_offset 14, -4
  42 0002 0446     		mov	r4, r0
  43 0004 0D46     		mov	r5, r1
  23:./Application/Src/application.c ****     for (int i = 0; i < MAX_CHORD_EVENTS; i++) {
  44              		.loc 1 23 5 is_stmt 1 view .LVU2
  45              	.LBB2:
  46              		.loc 1 23 10 view .LVU3
  47              	.LVL1:
  48              		.loc 1 23 14 is_stmt 0 view .LVU4
  49 0006 4FF0000E 		mov	lr, #0
  50              		.loc 1 23 5 view .LVU5
  51 000a 20E0     		b	.L2
  52              	.LVL2:
  53              	.L4:
  54              	.LBB3:
  24:./Application/Src/application.c ****         dst[i].positions[0] = src[i][0];
  25:./Application/Src/application.c ****         dst[i].positions[1] = src[i][1];
  26:./Application/Src/application.c ****         for (int j = 0; j < MAX_CHORD_NOTES; j++) {
  27:./Application/Src/application.c ****             dst[i].pressed[j] = (src[i][2 + j] != 0.0f);
  55              		.loc 1 27 13 is_stmt 1 view .LVU6
  56              		.loc 1 27 43 is_stmt 0 view .LVU7
  57 000c 9A1C     		adds	r2, r3, #2
  58              		.loc 1 27 40 view .LVU8
  59 000e 0CEB8202 		add	r2, ip, r2, lsl #2
  60 0012 D2ED007A 		vldr.32	s15, [r2]
  61              		.loc 1 27 13 view .LVU9
  62 0016 F5EE407A 		vcmp.f32	s15, #0
  63 001a F1EE10FA 		vmrs	APSR_nzcv, FPSCR
  64 001e 14BF     		ite	ne
  65 0020 0121     		movne	r1, #1
  66 0022 0021     		moveq	r1, #0
  67              		.loc 1 27 31 view .LVU10
  68 0024 C218     		adds	r2, r0, r3
  69 0026 1172     		strb	r1, [r2, #8]
  26:./Application/Src/application.c ****             dst[i].pressed[j] = (src[i][2 + j] != 0.0f);
  70              		.loc 1 26 47 is_stmt 1 discriminator 3 view .LVU11
  71 0028 0133     		adds	r3, r3, #1
  72              	.LVL3:
  73              	.L3:
  26:./Application/Src/application.c ****             dst[i].pressed[j] = (src[i][2 + j] != 0.0f);
  74              		.loc 1 26 27 discriminator 1 view .LVU12
  75 002a 092B     		cmp	r3, #9
  76 002c EEDD     		ble	.L4
  77              	.LBE3:
  28:./Application/Src/application.c ****         }
  29:./Application/Src/application.c ****         dst[i].duration_ms = (uint16_t)src[i][12];
  78              		.loc 1 29 9 view .LVU13
  79              		.loc 1 29 46 is_stmt 0 view .LVU14
  80 002e DCED0C7A 		vldr.32	s15, [ip, #48]
  81              		.loc 1 29 30 view .LVU15
  82 0032 FCEEE77A 		vcvt.u32.f32	s15, s15
  83              		.loc 1 29 28 view .LVU16
  84 0036 17EE903A 		vmov	r3, s15	@ int
ARM GAS  C:\Users\Xuleo\AppData\Local\Temp\ccMjlGmm.s 			page 3


  85              	.LVL4:
  86              		.loc 1 29 28 view .LVU17
  87 003a 4382     		strh	r3, [r0, #18]	@ movhi
  30:./Application/Src/application.c ****         dst[i].delay_to_next_ms = (uint16_t)src[i][13];
  88              		.loc 1 30 9 is_stmt 1 view .LVU18
  89              		.loc 1 30 51 is_stmt 0 view .LVU19
  90 003c DCED0D7A 		vldr.32	s15, [ip, #52]
  91              		.loc 1 30 35 view .LVU20
  92 0040 FCEEE77A 		vcvt.u32.f32	s15, s15
  93              		.loc 1 30 33 view .LVU21
  94 0044 17EE903A 		vmov	r3, s15	@ int
  95 0048 8382     		strh	r3, [r0, #20]	@ movhi
  23:./Application/Src/application.c ****         dst[i].positions[0] = src[i][0];
  96              		.loc 1 23 44 is_stmt 1 discriminator 2 view .LVU22
  97 004a 0EF1010E 		add	lr, lr, #1
  98              	.LVL5:
  99              	.L2:
  23:./Application/Src/application.c ****         dst[i].positions[0] = src[i][0];
 100              		.loc 1 23 23 discriminator 1 view .LVU23
 101 004e BEF5B67F 		cmp	lr, #364
 102 0052 0FDC     		bgt	.L7
  24:./Application/Src/application.c ****         dst[i].positions[1] = src[i][1];
 103              		.loc 1 24 9 view .LVU24
  24:./Application/Src/application.c ****         dst[i].positions[1] = src[i][1];
 104              		.loc 1 24 34 is_stmt 0 view .LVU25
 105 0054 CEEBCE0C 		rsb	ip, lr, lr, lsl #3
 106 0058 04EBCC0C 		add	ip, r4, ip, lsl #3
  24:./Application/Src/application.c ****         dst[i].positions[1] = src[i][1];
 107              		.loc 1 24 12 view .LVU26
 108 005c 0EEB4E00 		add	r0, lr, lr, lsl #1
 109 0060 05EBC000 		add	r0, r5, r0, lsl #3
  24:./Application/Src/application.c ****         dst[i].positions[1] = src[i][1];
 110              		.loc 1 24 37 view .LVU27
 111 0064 DCF80030 		ldr	r3, [ip]	@ float
  24:./Application/Src/application.c ****         dst[i].positions[1] = src[i][1];
 112              		.loc 1 24 29 view .LVU28
 113 0068 0360     		str	r3, [r0]	@ float
  25:./Application/Src/application.c ****         for (int j = 0; j < MAX_CHORD_NOTES; j++) {
 114              		.loc 1 25 9 is_stmt 1 view .LVU29
  25:./Application/Src/application.c ****         for (int j = 0; j < MAX_CHORD_NOTES; j++) {
 115              		.loc 1 25 37 is_stmt 0 view .LVU30
 116 006a DCF80430 		ldr	r3, [ip, #4]	@ float
  25:./Application/Src/application.c ****         for (int j = 0; j < MAX_CHORD_NOTES; j++) {
 117              		.loc 1 25 29 view .LVU31
 118 006e 4360     		str	r3, [r0, #4]	@ float
  26:./Application/Src/application.c ****             dst[i].pressed[j] = (src[i][2 + j] != 0.0f);
 119              		.loc 1 26 9 is_stmt 1 view .LVU32
 120              	.LBB4:
  26:./Application/Src/application.c ****             dst[i].pressed[j] = (src[i][2 + j] != 0.0f);
 121              		.loc 1 26 14 view .LVU33
 122              	.LVL6:
  26:./Application/Src/application.c ****             dst[i].pressed[j] = (src[i][2 + j] != 0.0f);
 123              		.loc 1 26 18 is_stmt 0 view .LVU34
 124 0070 0023     		movs	r3, #0
  26:./Application/Src/application.c ****             dst[i].pressed[j] = (src[i][2 + j] != 0.0f);
 125              		.loc 1 26 9 view .LVU35
 126 0072 DAE7     		b	.L3
ARM GAS  C:\Users\Xuleo\AppData\Local\Temp\ccMjlGmm.s 			page 4


 127              	.LVL7:
 128              	.L7:
  26:./Application/Src/application.c ****             dst[i].pressed[j] = (src[i][2 + j] != 0.0f);
 129              		.loc 1 26 9 view .LVU36
 130              	.LBE4:
 131              	.LBE2:
  31:./Application/Src/application.c ****     }
  32:./Application/Src/application.c **** }
 132              		.loc 1 32 1 view .LVU37
 133 0074 30BD     		pop	{r4, r5, pc}
 134              		.loc 1 32 1 view .LVU38
 135              		.cfi_endproc
 136              	.LFE359:
 138              		.section	.text.homing_procedure,"ax",%progbits
 139              		.align	1
 140              		.global	homing_procedure
 141              		.syntax unified
 142              		.thumb
 143              		.thumb_func
 145              	homing_procedure:
 146              	.LFB360:
  33:./Application/Src/application.c **** 
  34:./Application/Src/application.c **** void homing_procedure(void) {
 147              		.loc 1 34 29 is_stmt 1 view -0
 148              		.cfi_startproc
 149              		@ args = 0, pretend = 0, frame = 0
 150              		@ frame_needed = 0, uses_anonymous_args = 0
 151              		@ link register save eliminated.
  35:./Application/Src/application.c ****     // TODO: implement homing procedure
  36:./Application/Src/application.c **** }
 152              		.loc 1 36 1 view .LVU40
 153 0000 7047     		bx	lr
 154              		.cfi_endproc
 155              	.LFE360:
 157              		.global	chord_events
 158              		.section	.bss.chord_events,"aw",%nobits
 159              		.align	2
 162              	chord_events:
 163 0000 00000000 		.space	8760
 163      00000000 
 163      00000000 
 163      00000000 
 163      00000000 
 164              		.global	vofa
 165              		.section	.bss.vofa,"aw",%nobits
 166              		.align	2
 169              	vofa:
 170 0000 00000000 		.space	44
 170      00000000 
 170      00000000 
 170      00000000 
 170      00000000 
 171              		.global	song_ram
 172              		.section	.bss.song_ram,"aw",%nobits
 173              		.align	2
 176              	song_ram:
 177 0000 00000000 		.space	20440
ARM GAS  C:\Users\Xuleo\AppData\Local\Temp\ccMjlGmm.s 			page 5


 177      00000000 
 177      00000000 
 177      00000000 
 177      00000000 
 178              		.global	rx_data
 179              		.section	.bss.rx_data,"aw",%nobits
 180              		.align	2
 183              	rx_data:
 184 0000 00000000 		.space	22000
 184      00000000 
 184      00000000 
 184      00000000 
 184      00000000 
 185              		.global	ram_rx_offset
 186              		.section	.bss.ram_rx_offset,"aw",%nobits
 187              		.align	2
 190              	ram_rx_offset:
 191 0000 00000000 		.space	4
 192              		.global	ram_rx_complete
 193              		.section	.bss.ram_rx_complete,"aw",%nobits
 194              		.align	2
 197              	ram_rx_complete:
 198 0000 00000000 		.space	4
 199              		.global	ram_rx_started
 200              		.section	.bss.ram_rx_started,"aw",%nobits
 201              		.align	2
 204              	ram_rx_started:
 205 0000 00000000 		.space	4
 206              		.global	redirect_to_ram
 207              		.section	.bss.redirect_to_ram,"aw",%nobits
 208              		.align	2
 211              	redirect_to_ram:
 212 0000 00000000 		.space	4
 213              		.global	uart_binary_mode
 214              		.section	.bss.uart_binary_mode,"aw",%nobits
 215              		.align	2
 218              	uart_binary_mode:
 219 0000 00000000 		.space	4
 220              		.global	rx_valid
 221              		.section	.bss.rx_valid,"aw",%nobits
 222              		.align	2
 225              	rx_valid:
 226 0000 00000000 		.space	4
 227              		.global	rx_complete
 228              		.section	.bss.rx_complete,"aw",%nobits
 229              		.align	2
 232              	rx_complete:
 233 0000 00000000 		.space	4
 234              		.global	old_buffer_index
 235              		.section	.bss.old_buffer_index,"aw",%nobits
 236              		.align	2
 239              	old_buffer_index:
 240 0000 00000000 		.space	4
 241              		.global	rx_message_index
 242              		.section	.bss.rx_message_index,"aw",%nobits
 243              		.align	1
 246              	rx_message_index:
ARM GAS  C:\Users\Xuleo\AppData\Local\Temp\ccMjlGmm.s 			page 6


 247 0000 0000     		.space	2
 248              		.global	rx_message
 249              		.section	.bss.rx_message,"aw",%nobits
 250              		.align	2
 253              	rx_message:
 254 0000 00000000 		.space	256
 254      00000000 
 254      00000000 
 254      00000000 
 254      00000000 
 255              		.global	rx_message_buffer
 256              		.section	.bss.rx_message_buffer,"aw",%nobits
 257              		.align	2
 260              	rx_message_buffer:
 261 0000 00000000 		.space	128
 261      00000000 
 261      00000000 
 261      00000000 
 261      00000000 
 262              		.text
 263              	.Letext0:
 264              		.file 2 "C:/thirdpartyLibs/arm-gnu-toolchain-15.2/arm-none-eabi/include/machine/_default_types.h"
 265              		.file 3 "C:/thirdpartyLibs/arm-gnu-toolchain-15.2/arm-none-eabi/include/sys/_stdint.h"
 266              		.file 4 "Application/Inc/application.h"
ARM GAS  C:\Users\Xuleo\AppData\Local\Temp\ccMjlGmm.s 			page 7


DEFINED SYMBOLS
                            *ABS*:00000000 application.c
C:\Users\Xuleo\AppData\Local\Temp\ccMjlGmm.s:22     .text.parsing_song_buffer_to_struct:00000000 $t
C:\Users\Xuleo\AppData\Local\Temp\ccMjlGmm.s:28     .text.parsing_song_buffer_to_struct:00000000 parsing_song_buffer_to_struct
C:\Users\Xuleo\AppData\Local\Temp\ccMjlGmm.s:139    .text.homing_procedure:00000000 $t
C:\Users\Xuleo\AppData\Local\Temp\ccMjlGmm.s:145    .text.homing_procedure:00000000 homing_procedure
C:\Users\Xuleo\AppData\Local\Temp\ccMjlGmm.s:162    .bss.chord_events:00000000 chord_events
C:\Users\Xuleo\AppData\Local\Temp\ccMjlGmm.s:159    .bss.chord_events:00000000 $d
C:\Users\Xuleo\AppData\Local\Temp\ccMjlGmm.s:169    .bss.vofa:00000000 vofa
C:\Users\Xuleo\AppData\Local\Temp\ccMjlGmm.s:166    .bss.vofa:00000000 $d
C:\Users\Xuleo\AppData\Local\Temp\ccMjlGmm.s:176    .bss.song_ram:00000000 song_ram
C:\Users\Xuleo\AppData\Local\Temp\ccMjlGmm.s:173    .bss.song_ram:00000000 $d
C:\Users\Xuleo\AppData\Local\Temp\ccMjlGmm.s:183    .bss.rx_data:00000000 rx_data
C:\Users\Xuleo\AppData\Local\Temp\ccMjlGmm.s:180    .bss.rx_data:00000000 $d
C:\Users\Xuleo\AppData\Local\Temp\ccMjlGmm.s:190    .bss.ram_rx_offset:00000000 ram_rx_offset
C:\Users\Xuleo\AppData\Local\Temp\ccMjlGmm.s:187    .bss.ram_rx_offset:00000000 $d
C:\Users\Xuleo\AppData\Local\Temp\ccMjlGmm.s:197    .bss.ram_rx_complete:00000000 ram_rx_complete
C:\Users\Xuleo\AppData\Local\Temp\ccMjlGmm.s:194    .bss.ram_rx_complete:00000000 $d
C:\Users\Xuleo\AppData\Local\Temp\ccMjlGmm.s:204    .bss.ram_rx_started:00000000 ram_rx_started
C:\Users\Xuleo\AppData\Local\Temp\ccMjlGmm.s:201    .bss.ram_rx_started:00000000 $d
C:\Users\Xuleo\AppData\Local\Temp\ccMjlGmm.s:211    .bss.redirect_to_ram:00000000 redirect_to_ram
C:\Users\Xuleo\AppData\Local\Temp\ccMjlGmm.s:208    .bss.redirect_to_ram:00000000 $d
C:\Users\Xuleo\AppData\Local\Temp\ccMjlGmm.s:218    .bss.uart_binary_mode:00000000 uart_binary_mode
C:\Users\Xuleo\AppData\Local\Temp\ccMjlGmm.s:215    .bss.uart_binary_mode:00000000 $d
C:\Users\Xuleo\AppData\Local\Temp\ccMjlGmm.s:225    .bss.rx_valid:00000000 rx_valid
C:\Users\Xuleo\AppData\Local\Temp\ccMjlGmm.s:222    .bss.rx_valid:00000000 $d
C:\Users\Xuleo\AppData\Local\Temp\ccMjlGmm.s:232    .bss.rx_complete:00000000 rx_complete
C:\Users\Xuleo\AppData\Local\Temp\ccMjlGmm.s:229    .bss.rx_complete:00000000 $d
C:\Users\Xuleo\AppData\Local\Temp\ccMjlGmm.s:239    .bss.old_buffer_index:00000000 old_buffer_index
C:\Users\Xuleo\AppData\Local\Temp\ccMjlGmm.s:236    .bss.old_buffer_index:00000000 $d
C:\Users\Xuleo\AppData\Local\Temp\ccMjlGmm.s:246    .bss.rx_message_index:00000000 rx_message_index
C:\Users\Xuleo\AppData\Local\Temp\ccMjlGmm.s:243    .bss.rx_message_index:00000000 $d
C:\Users\Xuleo\AppData\Local\Temp\ccMjlGmm.s:253    .bss.rx_message:00000000 rx_message
C:\Users\Xuleo\AppData\Local\Temp\ccMjlGmm.s:250    .bss.rx_message:00000000 $d
C:\Users\Xuleo\AppData\Local\Temp\ccMjlGmm.s:260    .bss.rx_message_buffer:00000000 rx_message_buffer
C:\Users\Xuleo\AppData\Local\Temp\ccMjlGmm.s:257    .bss.rx_message_buffer:00000000 $d

NO UNDEFINED SYMBOLS
