ARM GAS  C:\Users\Xuleo\AppData\Local\Temp\ccX6ZriQ.s 			page 1


   1              		.cpu cortex-m33
   2              		.arch armv8-m.main
   3              		.fpu fpv4-sp-d16
   4              		.arch_extension dsp
   5              		.eabi_attribute 27, 1
   6              		.eabi_attribute 28, 1
   7              		.eabi_attribute 20, 1
   8              		.eabi_attribute 21, 1
   9              		.eabi_attribute 23, 3
  10              		.eabi_attribute 24, 1
  11              		.eabi_attribute 25, 1
  12              		.eabi_attribute 26, 1
  13              		.eabi_attribute 30, 1
  14              		.eabi_attribute 34, 1
  15              		.eabi_attribute 18, 4
  16              		.file	"application.c"
  17              		.text
  18              	.Ltext0:
  19              		.cfi_sections	.debug_frame
  20              		.file 1 "./Application/Src/application.c"
  21              		.section	.text.which_hand,"ax",%progbits
  22              		.align	1
  23              		.global	which_hand
  24              		.syntax unified
  25              		.thumb
  26              		.thumb_func
  28              	which_hand:
  29              	.LVL0:
  30              	.LFB160:
   1:./Application/Src/application.c **** #include <application.h>
   2:./Application/Src/application.c **** #include <encoder.h>
   3:./Application/Src/application.c **** 
   4:./Application/Src/application.c **** uint8_t rx_buffer[128];
   5:./Application/Src/application.c **** uint8_t DMA_target_location[128];
   6:./Application/Src/application.c **** int32_t encoder_read_result;
   7:./Application/Src/application.c **** float encoder_old_position_cm;
   8:./Application/Src/application.c **** float target_position_cm;
   9:./Application/Src/application.c **** volatile float current_velocity_cm_s;  // updated in ISR, read in main loop
  10:./Application/Src/application.c **** volatile float current_distance_cm;    // updated in ISR, read in main loop
  11:./Application/Src/application.c **** VOFA_REPORT vofa; // transmit via usb
  12:./Application/Src/application.c **** volatile uint32_t time_counter = 0;
  13:./Application/Src/application.c **** volatile int is_moving = 0;
  14:./Application/Src/application.c **** volatile int is_blocked = 0;
  15:./Application/Src/application.c **** 
  16:./Application/Src/application.c **** // make a song that has chord nodes:
  17:./Application/Src/application.c **** // test song: 15 chords, left hand only with varying positions and durations
  18:./Application/Src/application.c **** // left hand range: ~5cm to ~49cm (after adding LEFT_HAND_SIZE/2)
  19:./Application/Src/application.c **** Song_t piano_song[MAX_CHORD_EVENTS] = {
  20:./Application/Src/application.c ****     // {{num_notes, {positions...}, duration_ms, delay_to_next}}
  21:./Application/Src/application.c ****     {{1, {10.0f, 0.0f, 0.0f, 0.0f, 0.0f, 0.0f, 0.0f, 0.0f, 0.0f, 0.0f}, 200, 100}},  // target: 15c
  22:./Application/Src/application.c ****     {{1, {20.0f, 0.0f, 0.0f, 0.0f, 0.0f, 0.0f, 0.0f, 0.0f, 0.0f, 0.0f}, 200, 100}},  // target: 25c
  23:./Application/Src/application.c ****     {{1, {30.0f, 0.0f, 0.0f, 0.0f, 0.0f, 0.0f, 0.0f, 0.0f, 0.0f, 0.0f}, 200, 100}},  // target: 35c
  24:./Application/Src/application.c ****     {{1, {40.0f, 0.0f, 0.0f, 0.0f, 0.0f, 0.0f, 0.0f, 0.0f, 0.0f, 0.0f}, 200, 100}},  // target: 45c
  25:./Application/Src/application.c ****     {{1, {44.0f, 0.0f, 0.0f, 0.0f, 0.0f, 0.0f, 0.0f, 0.0f, 0.0f, 0.0f}, 300, 100}},  // target: 49c
  26:./Application/Src/application.c ****     {{1, {35.0f, 0.0f, 0.0f, 0.0f, 0.0f, 0.0f, 0.0f, 0.0f, 0.0f, 0.0f}, 150, 100}},  // target: 40c
  27:./Application/Src/application.c ****     {{1, {25.0f, 0.0f, 0.0f, 0.0f, 0.0f, 0.0f, 0.0f, 0.0f, 0.0f, 0.0f}, 150, 100}},  // target: 30c
  28:./Application/Src/application.c ****     {{1, {15.0f, 0.0f, 0.0f, 0.0f, 0.0f, 0.0f, 0.0f, 0.0f, 0.0f, 0.0f}, 150, 100}},  // target: 20c
ARM GAS  C:\Users\Xuleo\AppData\Local\Temp\ccX6ZriQ.s 			page 2


  29:./Application/Src/application.c ****     {{1, { 5.0f, 0.0f, 0.0f, 0.0f, 0.0f, 0.0f, 0.0f, 0.0f, 0.0f, 0.0f}, 300, 100}},  // target: 10c
  30:./Application/Src/application.c ****     {{2, {10.0f, 20.0f, 0.0f, 0.0f, 0.0f, 0.0f, 0.0f, 0.0f, 0.0f, 0.0f}, 250, 100}}, // target: 15c
  31:./Application/Src/application.c ****     {{2, {25.0f, 35.0f, 0.0f, 0.0f, 0.0f, 0.0f, 0.0f, 0.0f, 0.0f, 0.0f}, 250, 100}}, // target: 30c
  32:./Application/Src/application.c ****     {{3, {15.0f, 25.0f, 35.0f, 0.0f, 0.0f, 0.0f, 0.0f, 0.0f, 0.0f, 0.0f}, 200, 100}},// target: 20c
  33:./Application/Src/application.c ****     {{1, {40.0f, 0.0f, 0.0f, 0.0f, 0.0f, 0.0f, 0.0f, 0.0f, 0.0f, 0.0f}, 400, 100}},  // target: 45c
  34:./Application/Src/application.c ****     {{1, {20.0f, 0.0f, 0.0f, 0.0f, 0.0f, 0.0f, 0.0f, 0.0f, 0.0f, 0.0f}, 400, 100}},  // target: 25c
  35:./Application/Src/application.c ****     {{1, {10.0f, 0.0f, 0.0f, 0.0f, 0.0f, 0.0f, 0.0f, 0.0f, 0.0f, 0.0f}, 500, 100}}   // target: 15c
  36:./Application/Src/application.c ****     // remaining entries are zero-initialized
  37:./Application/Src/application.c **** };
  38:./Application/Src/application.c **** 
  39:./Application/Src/application.c **** 
  40:./Application/Src/application.c **** int which_hand(ChordEvent_t* this_note){
  31              		.loc 1 40 40 view -0
  32              		.cfi_startproc
  33              		@ args = 0, pretend = 0, frame = 0
  34              		@ frame_needed = 0, uses_anonymous_args = 0
  35              		@ link register save eliminated.
  36              		.loc 1 40 40 is_stmt 0 view .LVU1
  37 0000 0246     		mov	r2, r0
  41:./Application/Src/application.c ****     // check the array whether it has 
  42:./Application/Src/application.c ****     int left_flag = 0;
  38              		.loc 1 42 5 is_stmt 1 view .LVU2
  39              	.LVL1:
  43:./Application/Src/application.c ****     int right_flag = 0;
  40              		.loc 1 43 5 view .LVU3
  44:./Application/Src/application.c ****     for (int i=0; i < 5; i++){
  41              		.loc 1 44 5 view .LVU4
  42              	.LBB2:
  43              		.loc 1 44 10 view .LVU5
  44              		.loc 1 44 14 is_stmt 0 view .LVU6
  45 0002 0023     		movs	r3, #0
  46              	.LBE2:
  42:./Application/Src/application.c ****     int right_flag = 0;
  47              		.loc 1 42 9 view .LVU7
  48 0004 9C46     		mov	ip, r3
  49              	.LBB3:
  50              		.loc 1 44 5 view .LVU8
  51 0006 00E0     		b	.L2
  52              	.LVL2:
  53              	.L3:
  54              		.loc 1 44 27 is_stmt 1 discriminator 2 view .LVU9
  55 0008 0133     		adds	r3, r3, #1
  56              	.LVL3:
  57              	.L2:
  58              		.loc 1 44 21 discriminator 1 view .LVU10
  59 000a 042B     		cmp	r3, #4
  60 000c 0BDC     		bgt	.L14
  45:./Application/Src/application.c ****         if (this_note->positions[i]!=0){
  61              		.loc 1 45 9 view .LVU11
  62              		.loc 1 45 33 is_stmt 0 view .LVU12
  63 000e 02EB8301 		add	r1, r2, r3, lsl #2
  64 0012 D1ED017A 		vldr.32	s15, [r1, #4]
  65              		.loc 1 45 12 view .LVU13
  66 0016 F5EE407A 		vcmp.f32	s15, #0
  67 001a F1EE10FA 		vmrs	APSR_nzcv, FPSCR
  68 001e F3D0     		beq	.L3
  46:./Application/Src/application.c ****             left_flag = 1;
ARM GAS  C:\Users\Xuleo\AppData\Local\Temp\ccX6ZriQ.s 			page 3


  69              		.loc 1 46 23 view .LVU14
  70 0020 4FF0010C 		mov	ip, #1
  71              	.LVL4:
  72              		.loc 1 46 23 view .LVU15
  73 0024 F0E7     		b	.L3
  74              	.LVL5:
  75              	.L14:
  76              		.loc 1 46 23 view .LVU16
  77              	.LBE3:
  78              	.LBB4:
  47:./Application/Src/application.c ****         }
  48:./Application/Src/application.c ****     }
  49:./Application/Src/application.c **** 
  50:./Application/Src/application.c ****     for (int i=5; i < 10; i++){
  79              		.loc 1 50 14 view .LVU17
  80 0026 0523     		movs	r3, #5
  81              	.LVL6:
  82              		.loc 1 50 14 view .LVU18
  83              	.LBE4:
  43:./Application/Src/application.c ****     for (int i=0; i < 5; i++){
  84              		.loc 1 43 9 view .LVU19
  85 0028 0020     		movs	r0, #0
  86              	.LVL7:
  43:./Application/Src/application.c ****     for (int i=0; i < 5; i++){
  87              		.loc 1 43 9 view .LVU20
  88 002a 00E0     		b	.L5
  89              	.LVL8:
  90              	.L6:
  91              	.LBB5:
  92              		.loc 1 50 28 is_stmt 1 discriminator 2 view .LVU21
  93 002c 0133     		adds	r3, r3, #1
  94              	.LVL9:
  95              	.L5:
  96              		.loc 1 50 21 discriminator 1 view .LVU22
  97 002e 092B     		cmp	r3, #9
  98 0030 0ADC     		bgt	.L15
  51:./Application/Src/application.c ****         if (this_note->positions[i]!=0){
  99              		.loc 1 51 9 view .LVU23
 100              		.loc 1 51 33 is_stmt 0 view .LVU24
 101 0032 02EB8301 		add	r1, r2, r3, lsl #2
 102 0036 D1ED017A 		vldr.32	s15, [r1, #4]
 103              		.loc 1 51 12 view .LVU25
 104 003a F5EE407A 		vcmp.f32	s15, #0
 105 003e F1EE10FA 		vmrs	APSR_nzcv, FPSCR
 106 0042 F3D0     		beq	.L6
  52:./Application/Src/application.c ****             right_flag = 1;
 107              		.loc 1 52 24 view .LVU26
 108 0044 0120     		movs	r0, #1
 109              	.LVL10:
 110              		.loc 1 52 24 view .LVU27
 111 0046 F1E7     		b	.L6
 112              	.LVL11:
 113              	.L15:
 114              		.loc 1 52 24 view .LVU28
 115              	.LBE5:
  53:./Application/Src/application.c ****         }
  54:./Application/Src/application.c ****     }
ARM GAS  C:\Users\Xuleo\AppData\Local\Temp\ccX6ZriQ.s 			page 4


  55:./Application/Src/application.c **** 
  56:./Application/Src/application.c ****     if (left_flag == 1 && right_flag == 0){
 116              		.loc 1 56 5 is_stmt 1 view .LVU29
 117              		.loc 1 56 8 is_stmt 0 view .LVU30
 118 0048 BCF1000F 		cmp	ip, #0
 119 004c 09D1     		bne	.L16
 120              	.L8:
  57:./Application/Src/application.c ****         return 0;
  58:./Application/Src/application.c ****     } else if (left_flag == 0 && right_flag == 1){
 121              		.loc 1 58 12 is_stmt 1 view .LVU31
 122              		.loc 1 58 15 is_stmt 0 view .LVU32
 123 004e BCF1000F 		cmp	ip, #0
 124 0052 01D1     		bne	.L10
 125              		.loc 1 58 31 discriminator 1 view .LVU33
 126 0054 0128     		cmp	r0, #1
 127 0056 08D0     		beq	.L1
 128              	.L10:
  59:./Application/Src/application.c ****         return 1;
  60:./Application/Src/application.c ****     } else if (left_flag & right_flag) {
 129              		.loc 1 60 12 is_stmt 1 view .LVU34
 130              		.loc 1 60 15 is_stmt 0 view .LVU35
 131 0058 1CEA000F 		tst	ip, r0
 132 005c 04D0     		beq	.L13
  61:./Application/Src/application.c ****         return 2;
 133              		.loc 1 61 16 view .LVU36
 134 005e 0220     		movs	r0, #2
 135              	.LVL12:
 136              		.loc 1 61 16 view .LVU37
 137 0060 7047     		bx	lr
 138              	.LVL13:
 139              	.L16:
  56:./Application/Src/application.c ****         return 0;
 140              		.loc 1 56 24 discriminator 1 view .LVU38
 141 0062 0028     		cmp	r0, #0
 142 0064 F3D1     		bne	.L8
 143 0066 00E0     		b	.L1
 144              	.L13:
  62:./Application/Src/application.c ****     } else { // no hands
  63:./Application/Src/application.c ****         return 3;
 145              		.loc 1 63 16 view .LVU39
 146 0068 0320     		movs	r0, #3
 147              	.LVL14:
 148              	.L1:
  64:./Application/Src/application.c ****     }
  65:./Application/Src/application.c **** }
 149              		.loc 1 65 1 view .LVU40
 150 006a 7047     		bx	lr
 151              		.cfi_endproc
 152              	.LFE160:
 154              		.section	.text.locate_hand,"ax",%progbits
 155              		.align	1
 156              		.global	locate_hand
 157              		.syntax unified
 158              		.thumb
 159              		.thumb_func
 161              	locate_hand:
 162              	.LVL15:
ARM GAS  C:\Users\Xuleo\AppData\Local\Temp\ccX6ZriQ.s 			page 5


 163              	.LFB161:
  66:./Application/Src/application.c **** 
  67:./Application/Src/application.c **** // all value should expected larger than 0, left should have range: PIANO_THRESHOLD - LEFT_HAND_SIZ
  68:./Application/Src/application.c **** // homing algo
  69:./Application/Src/application.c **** void locate_hand(ChordEvent_t* this_note, float hand_pos[2], int which_hand) {
 164              		.loc 1 69 78 is_stmt 1 view -0
 165              		.cfi_startproc
 166              		@ args = 0, pretend = 0, frame = 0
 167              		@ frame_needed = 0, uses_anonymous_args = 0
 168              		@ link register save eliminated.
  70:./Application/Src/application.c ****     hand_pos[0] = 0.0f;
 169              		.loc 1 70 5 view .LVU42
 170              		.loc 1 70 17 is_stmt 0 view .LVU43
 171 0000 0023     		movs	r3, #0
 172 0002 0B60     		str	r3, [r1]	@ float
  71:./Application/Src/application.c ****     hand_pos[1] = 0.0f;
 173              		.loc 1 71 5 is_stmt 1 view .LVU44
 174              		.loc 1 71 17 is_stmt 0 view .LVU45
 175 0004 4B60     		str	r3, [r1, #4]	@ float
  72:./Application/Src/application.c **** 
  73:./Application/Src/application.c ****     // index 3 means
  74:./Application/Src/application.c ****     if (which_hand == 3) {
 176              		.loc 1 74 5 is_stmt 1 view .LVU46
 177              		.loc 1 74 8 is_stmt 0 view .LVU47
 178 0006 032A     		cmp	r2, #3
 179 0008 30D0     		beq	.L17
  75:./Application/Src/application.c ****         return;
  76:./Application/Src/application.c ****     }
  77:./Application/Src/application.c **** 
  78:./Application/Src/application.c ****     // left hand: index 0 to 4
  79:./Application/Src/application.c ****     if (which_hand == 0 || which_hand == 2) {
 180              		.loc 1 79 5 is_stmt 1 view .LVU48
 181              		.loc 1 79 8 is_stmt 0 view .LVU49
 182 000a CAB1     		cbz	r2, .L31
 183              		.loc 1 79 25 discriminator 1 view .LVU50
 184 000c 022A     		cmp	r2, #2
 185 000e 2AD1     		bne	.L20
 186 0010 0023     		movs	r3, #0
 187 0012 9FED2B7A 		vldr.32	s14, .L41
 188 0016 00E0     		b	.L22
 189              	.LVL16:
 190              	.L21:
 191              	.LBB6:
 192              	.LBB7:
  80:./Application/Src/application.c ****         float min_value = 1e9f;
  81:./Application/Src/application.c ****         for (int i = 0; i < 5; i++) {
 193              		.loc 1 81 33 is_stmt 1 discriminator 2 view .LVU51
 194 0018 0133     		adds	r3, r3, #1
 195              	.LVL17:
 196              	.L22:
 197              		.loc 1 81 27 discriminator 1 view .LVU52
 198 001a 042B     		cmp	r3, #4
 199 001c 14DC     		bgt	.L38
  82:./Application/Src/application.c ****             if (this_note->positions[i] != 0.0f && this_note->positions[i] < min_value) {
 200              		.loc 1 82 13 view .LVU53
 201              		.loc 1 82 37 is_stmt 0 view .LVU54
 202 001e 00EB830C 		add	ip, r0, r3, lsl #2
ARM GAS  C:\Users\Xuleo\AppData\Local\Temp\ccX6ZriQ.s 			page 6


 203 0022 DCED017A 		vldr.32	s15, [ip, #4]
 204              		.loc 1 82 16 view .LVU55
 205 0026 F5EE407A 		vcmp.f32	s15, #0
 206 002a F1EE10FA 		vmrs	APSR_nzcv, FPSCR
 207 002e F3D0     		beq	.L21
 208              		.loc 1 82 49 discriminator 1 view .LVU56
 209 0030 F4EEC77A 		vcmpe.f32	s15, s14
 210 0034 F1EE10FA 		vmrs	APSR_nzcv, FPSCR
 211 0038 EED5     		bpl	.L21
  83:./Application/Src/application.c ****                 min_value = this_note->positions[i];
 212              		.loc 1 83 27 view .LVU57
 213 003a B0EE677A 		vmov.f32	s14, s15
 214              	.LVL18:
 215              		.loc 1 83 27 view .LVU58
 216 003e EBE7     		b	.L21
 217              	.LVL19:
 218              	.L31:
 219              		.loc 1 83 27 view .LVU59
 220              	.LBE7:
 221              	.LBE6:
 222 0040 1346     		mov	r3, r2
 223 0042 9FED1F7A 		vldr.32	s14, .L41
 224 0046 E8E7     		b	.L22
 225              	.LVL20:
 226              	.L38:
 227              	.LBB8:
  84:./Application/Src/application.c ****             }
  85:./Application/Src/application.c ****         }
  86:./Application/Src/application.c ****         float left_pos = min_value;
 228              		.loc 1 86 9 is_stmt 1 view .LVU60
  87:./Application/Src/application.c ****         // clamp to avoid collision at threshold
  88:./Application/Src/application.c ****         hand_pos[0] = (left_pos + LEFT_HAND_SIZE / 2.0f > PIANO_THRESHOLD) ? PIANO_THRESHOLD - LEFT
 229              		.loc 1 88 9 view .LVU61
 230              		.loc 1 88 33 is_stmt 0 view .LVU62
 231 0048 F1EE047A 		vmov.f32	s15, #5.0e+0
 232 004c 37EE277A 		vadd.f32	s14, s14, s15
 233              	.LVL21:
 234              		.loc 1 88 118 view .LVU63
 235 0050 DFED1C7A 		vldr.32	s15, .L41+4
 236 0054 B4EEE77A 		vcmpe.f32	s14, s15
 237 0058 F1EE10FA 		vmrs	APSR_nzcv, FPSCR
 238 005c 01DD     		ble	.L24
 239              		.loc 1 88 118 discriminator 1 view .LVU64
 240 005e 9FED1A7A 		vldr.32	s14, .L41+8
 241              	.L24:
 242              		.loc 1 88 21 discriminator 4 view .LVU65
 243 0062 81ED007A 		vstr.32	s14, [r1]
 244              	.LVL22:
 245              	.L20:
 246              		.loc 1 88 21 discriminator 4 view .LVU66
 247              	.LBE8:
  89:./Application/Src/application.c ****     }
  90:./Application/Src/application.c **** 
  91:./Application/Src/application.c ****     // right hand: index 5 to 9
  92:./Application/Src/application.c ****     if (which_hand == 1 || which_hand == 2) {
 248              		.loc 1 92 5 is_stmt 1 view .LVU67
 249              		.loc 1 92 25 is_stmt 0 view .LVU68
ARM GAS  C:\Users\Xuleo\AppData\Local\Temp\ccX6ZriQ.s 			page 7


 250 0066 013A     		subs	r2, r2, #1
 251              	.LVL23:
 252              		.loc 1 92 8 view .LVU69
 253 0068 012A     		cmp	r2, #1
 254 006a 14D9     		bls	.L39
 255              	.LVL24:
 256              	.L17:
  93:./Application/Src/application.c ****         float max_value = -1e9f;
  94:./Application/Src/application.c ****         for (int i = 5; i < 10; i++) {
  95:./Application/Src/application.c ****             if (this_note->positions[i] != 0.0f && this_note->positions[i] > max_value) {
  96:./Application/Src/application.c ****                 max_value = this_note->positions[i];
  97:./Application/Src/application.c ****             }
  98:./Application/Src/application.c ****         }
  99:./Application/Src/application.c ****         float right_pos = max_value;
 100:./Application/Src/application.c ****         // clamp to avoid collision at threshold
 101:./Application/Src/application.c ****         hand_pos[1] = (right_pos - RIGHT_HAND_SIZE / 2.0f < PIANO_THRESHOLD) ? PIANO_THRESHOLD + RI
 102:./Application/Src/application.c ****     }
 103:./Application/Src/application.c **** }
 257              		.loc 1 103 1 view .LVU70
 258 006c 7047     		bx	lr
 259              	.LVL25:
 260              	.L27:
 261              	.LBB9:
 262              	.LBB10:
  94:./Application/Src/application.c ****             if (this_note->positions[i] != 0.0f && this_note->positions[i] > max_value) {
 263              		.loc 1 94 34 is_stmt 1 discriminator 2 view .LVU71
 264 006e 0133     		adds	r3, r3, #1
 265              	.LVL26:
 266              	.L26:
  94:./Application/Src/application.c ****             if (this_note->positions[i] != 0.0f && this_note->positions[i] > max_value) {
 267              		.loc 1 94 27 discriminator 1 view .LVU72
 268 0070 092B     		cmp	r3, #9
 269 0072 14DC     		bgt	.L40
  95:./Application/Src/application.c ****                 max_value = this_note->positions[i];
 270              		.loc 1 95 13 view .LVU73
  95:./Application/Src/application.c ****                 max_value = this_note->positions[i];
 271              		.loc 1 95 37 is_stmt 0 view .LVU74
 272 0074 00EB8302 		add	r2, r0, r3, lsl #2
 273 0078 D2ED017A 		vldr.32	s15, [r2, #4]
  95:./Application/Src/application.c ****                 max_value = this_note->positions[i];
 274              		.loc 1 95 16 view .LVU75
 275 007c F5EE407A 		vcmp.f32	s15, #0
 276 0080 F1EE10FA 		vmrs	APSR_nzcv, FPSCR
 277 0084 F3D0     		beq	.L27
  95:./Application/Src/application.c ****                 max_value = this_note->positions[i];
 278              		.loc 1 95 49 discriminator 1 view .LVU76
 279 0086 F4EEC77A 		vcmpe.f32	s15, s14
 280 008a F1EE10FA 		vmrs	APSR_nzcv, FPSCR
 281 008e EEDD     		ble	.L27
  96:./Application/Src/application.c ****             }
 282              		.loc 1 96 27 view .LVU77
 283 0090 B0EE677A 		vmov.f32	s14, s15
 284              	.LVL27:
  96:./Application/Src/application.c ****             }
 285              		.loc 1 96 27 view .LVU78
 286 0094 EBE7     		b	.L27
 287              	.LVL28:
ARM GAS  C:\Users\Xuleo\AppData\Local\Temp\ccX6ZriQ.s 			page 8


 288              	.L39:
  94:./Application/Src/application.c ****             if (this_note->positions[i] != 0.0f && this_note->positions[i] > max_value) {
 289              		.loc 1 94 18 view .LVU79
 290 0096 0523     		movs	r3, #5
 291              	.LBE10:
  93:./Application/Src/application.c ****         for (int i = 5; i < 10; i++) {
 292              		.loc 1 93 15 view .LVU80
 293 0098 9FED0C7A 		vldr.32	s14, .L41+12
 294 009c E8E7     		b	.L26
 295              	.LVL29:
 296              	.L40:
  99:./Application/Src/application.c ****         // clamp to avoid collision at threshold
 297              		.loc 1 99 9 is_stmt 1 view .LVU81
 101:./Application/Src/application.c ****     }
 298              		.loc 1 101 9 view .LVU82
 101:./Application/Src/application.c ****     }
 299              		.loc 1 101 34 is_stmt 0 view .LVU83
 300 009e F1EE047A 		vmov.f32	s15, #5.0e+0
 301 00a2 37EE677A 		vsub.f32	s14, s14, s15
 302              	.LVL30:
 101:./Application/Src/application.c ****     }
 303              		.loc 1 101 121 view .LVU84
 304 00a6 DFED077A 		vldr.32	s15, .L41+4
 305 00aa B4EEE77A 		vcmpe.f32	s14, s15
 306 00ae F1EE10FA 		vmrs	APSR_nzcv, FPSCR
 307 00b2 01D5     		bpl	.L29
 101:./Application/Src/application.c ****     }
 308              		.loc 1 101 121 discriminator 1 view .LVU85
 309 00b4 9FED067A 		vldr.32	s14, .L41+16
 310              	.L29:
 101:./Application/Src/application.c ****     }
 311              		.loc 1 101 21 discriminator 4 view .LVU86
 312 00b8 81ED017A 		vstr.32	s14, [r1, #4]
 313 00bc D6E7     		b	.L17
 314              	.L42:
 315 00be 00BF     		.align	2
 316              	.L41:
 317 00c0 286B6E4E 		.word	1315859240
 318 00c4 00005842 		.word	1113063424
 319 00c8 00004442 		.word	1111752704
 320 00cc 286B6ECE 		.word	-831624408
 321 00d0 00006C42 		.word	1114374144
 322              	.LBE9:
 323              		.cfi_endproc
 324              	.LFE161:
 326              		.section	.text.pid_cycle,"ax",%progbits
 327              		.align	1
 328              		.global	pid_cycle
 329              		.syntax unified
 330              		.thumb
 331              		.thumb_func
 333              	pid_cycle:
 334              	.LVL31:
 335              	.LFB163:
 104:./Application/Src/application.c **** 
 105:./Application/Src/application.c **** // using the for loop to traversal, call function to start playing the song
 106:./Application/Src/application.c **** void traversal_song(Song_t* entire_song){
ARM GAS  C:\Users\Xuleo\AppData\Local\Temp\ccX6ZriQ.s 			page 9


 107:./Application/Src/application.c ****     // the entire song chords might be smaller than given length
 108:./Application/Src/application.c ****     for (int i = 0; i < MAX_CHORD_EVENTS; i++){
 109:./Application/Src/application.c ****         // if detect empty notes - means end - break loop 
 110:./Application/Src/application.c ****         if (entire_song[i].event.num_notes == 0) {
 111:./Application/Src/application.c ****             break;
 112:./Application/Src/application.c ****         }
 113:./Application/Src/application.c ****         // otherwise, we deal with the song
 114:./Application/Src/application.c ****         float hand_pos[2];
 115:./Application/Src/application.c ****         int hand = which_hand(&entire_song[i].event);
 116:./Application/Src/application.c ****         locate_hand(&entire_song[i].event, hand_pos, hand);
 117:./Application/Src/application.c ****         // set target position from parsed data:
 118:./Application/Src/application.c ****         target_position_cm = hand_pos[0];
 119:./Application/Src/application.c ****         // solenoid logic:
 120:./Application/Src/application.c ****         /*
 121:./Application/Src/application.c ****         if (is_moving == 0) { // means stop
 122:./Application/Src/application.c ****             push_solenoid();
 123:./Application/Src/application.c ****         }
 124:./Application/Src/application.c ****         
 125:./Application/Src/application.c ****         */
 126:./Application/Src/application.c ****         wait_ms(entire_song[i].event.duration_ms);
 127:./Application/Src/application.c ****     }
 128:./Application/Src/application.c **** }
 129:./Application/Src/application.c **** 
 130:./Application/Src/application.c **** void pid_cycle(PID_t* target_system, float error, const float dt){
 336              		.loc 1 130 66 is_stmt 1 view -0
 337              		.cfi_startproc
 338              		@ args = 0, pretend = 0, frame = 0
 339              		@ frame_needed = 0, uses_anonymous_args = 0
 340              		@ link register save eliminated.
 131:./Application/Src/application.c ****     float derivative = (error - target_system->last_error) / dt;
 341              		.loc 1 131 5 view .LVU88
 342              		.loc 1 131 46 is_stmt 0 view .LVU89
 343 0000 D0ED057A 		vldr.32	s15, [r0, #20]
 344              		.loc 1 131 31 view .LVU90
 345 0004 70EE677A 		vsub.f32	s15, s0, s15
 346              		.loc 1 131 11 view .LVU91
 347 0008 C7EEA06A 		vdiv.f32	s13, s15, s1
 348              	.LVL32:
 132:./Application/Src/application.c ****     
 133:./Application/Src/application.c ****     target_system->Integral += error*dt;
 349              		.loc 1 133 5 is_stmt 1 view .LVU92
 350              		.loc 1 133 18 is_stmt 0 view .LVU93
 351 000c D0ED047A 		vldr.32	s15, [r0, #16]
 352              		.loc 1 133 37 view .LVU94
 353 0010 60EE200A 		vmul.f32	s1, s0, s1
 354              	.LVL33:
 355              		.loc 1 133 29 view .LVU95
 356 0014 77EEA07A 		vadd.f32	s15, s15, s1
 357 0018 C0ED047A 		vstr.32	s15, [r0, #16]
 134:./Application/Src/application.c ****     // bound the integral
 135:./Application/Src/application.c ****     if (target_system->Integral > target_system->Integral_max){
 358              		.loc 1 135 5 is_stmt 1 view .LVU96
 359              		.loc 1 135 48 is_stmt 0 view .LVU97
 360 001c 90ED037A 		vldr.32	s14, [r0, #12]
 361              		.loc 1 135 8 view .LVU98
 362 0020 F4EEC77A 		vcmpe.f32	s15, s14
 363 0024 F1EE10FA 		vmrs	APSR_nzcv, FPSCR
ARM GAS  C:\Users\Xuleo\AppData\Local\Temp\ccX6ZriQ.s 			page 10


 364 0028 18DD     		ble	.L50
 136:./Application/Src/application.c ****         target_system->Integral = target_system->Integral_max;
 365              		.loc 1 136 9 is_stmt 1 view .LVU99
 366              		.loc 1 136 33 is_stmt 0 view .LVU100
 367 002a 80ED047A 		vstr.32	s14, [r0, #16]
 368              	.L46:
 137:./Application/Src/application.c ****     } else if (target_system->Integral < -target_system->Integral_max) {
 138:./Application/Src/application.c ****         target_system->Integral = -target_system->Integral_max;
 139:./Application/Src/application.c ****     }
 140:./Application/Src/application.c ****     // controller output here
 141:./Application/Src/application.c ****     // if (error > 5.0f || error < -5.0f) {
 142:./Application/Src/application.c ****     //     target_system->output = target_system->Kp * error + target_system->Kd * derivative;
 143:./Application/Src/application.c ****     //     target_system->Integral = 0.0f;
 144:./Application/Src/application.c ****     // } else {
 145:./Application/Src/application.c ****     //     target_system->output = target_system->Kp * error + target_system->Ki * target_system->I
 146:./Application/Src/application.c ****     // }
 147:./Application/Src/application.c ****     target_system->output = target_system->Kp * error + target_system->Ki * target_system->Integral
 369              		.loc 1 147 5 is_stmt 1 view .LVU101
 370              		.loc 1 147 42 is_stmt 0 view .LVU102
 371 002e D0ED007A 		vldr.32	s15, [r0]
 372              		.loc 1 147 47 view .LVU103
 373 0032 67EE807A 		vmul.f32	s15, s15, s0
 374              		.loc 1 147 70 view .LVU104
 375 0036 90ED017A 		vldr.32	s14, [r0, #4]
 376              		.loc 1 147 90 view .LVU105
 377 003a 90ED046A 		vldr.32	s12, [r0, #16]
 378              		.loc 1 147 75 view .LVU106
 379 003e 27EE067A 		vmul.f32	s14, s14, s12
 380              		.loc 1 147 55 view .LVU107
 381 0042 77EE877A 		vadd.f32	s15, s15, s14
 382              		.loc 1 147 116 view .LVU108
 383 0046 90ED027A 		vldr.32	s14, [r0, #8]
 384              		.loc 1 147 121 view .LVU109
 385 004a 27EE267A 		vmul.f32	s14, s14, s13
 386              		.loc 1 147 101 view .LVU110
 387 004e 77EE877A 		vadd.f32	s15, s15, s14
 388              		.loc 1 147 27 view .LVU111
 389 0052 C0ED067A 		vstr.32	s15, [r0, #24]
 148:./Application/Src/application.c ****     target_system->last_error = error;
 390              		.loc 1 148 5 is_stmt 1 view .LVU112
 391              		.loc 1 148 31 is_stmt 0 view .LVU113
 392 0056 80ED050A 		vstr.32	s0, [r0, #20]
 149:./Application/Src/application.c **** }
 393              		.loc 1 149 1 view .LVU114
 394 005a 7047     		bx	lr
 395              	.L50:
 137:./Application/Src/application.c ****     } else if (target_system->Integral < -target_system->Integral_max) {
 396              		.loc 1 137 12 is_stmt 1 view .LVU115
 137:./Application/Src/application.c ****     } else if (target_system->Integral < -target_system->Integral_max) {
 397              		.loc 1 137 42 is_stmt 0 view .LVU116
 398 005c B1EE477A 		vneg.f32	s14, s14
 137:./Application/Src/application.c ****     } else if (target_system->Integral < -target_system->Integral_max) {
 399              		.loc 1 137 15 view .LVU117
 400 0060 F4EEC77A 		vcmpe.f32	s15, s14
 401 0064 F1EE10FA 		vmrs	APSR_nzcv, FPSCR
 402 0068 E1D5     		bpl	.L46
 138:./Application/Src/application.c ****     }
ARM GAS  C:\Users\Xuleo\AppData\Local\Temp\ccX6ZriQ.s 			page 11


 403              		.loc 1 138 9 is_stmt 1 view .LVU118
 138:./Application/Src/application.c ****     }
 404              		.loc 1 138 33 is_stmt 0 view .LVU119
 405 006a 80ED047A 		vstr.32	s14, [r0, #16]
 406 006e DEE7     		b	.L46
 407              		.cfi_endproc
 408              	.LFE163:
 410              		.section	.text.wait_ms,"ax",%progbits
 411              		.align	1
 412              		.global	wait_ms
 413              		.syntax unified
 414              		.thumb
 415              		.thumb_func
 417              	wait_ms:
 418              	.LVL34:
 419              	.LFB164:
 150:./Application/Src/application.c **** 
 151:./Application/Src/application.c **** // PID struct for the motor
 152:./Application/Src/application.c **** PID_t debug_motor = {
 153:./Application/Src/application.c ****     .Kp = 8.0f,
 154:./Application/Src/application.c ****     .Ki = 1.0f,
 155:./Application/Src/application.c ****     .Kd = 0.0f, //0.001
 156:./Application/Src/application.c ****     .Integral_max = 200000000.0f // 0.5
 157:./Application/Src/application.c **** };
 158:./Application/Src/application.c **** 
 159:./Application/Src/application.c **** void wait_ms(uint32_t ms){
 420              		.loc 1 159 26 is_stmt 1 view -0
 421              		.cfi_startproc
 422              		@ args = 0, pretend = 0, frame = 0
 423              		@ frame_needed = 0, uses_anonymous_args = 0
 424              		@ link register save eliminated.
 160:./Application/Src/application.c ****     uint32_t start = time_counter;
 425              		.loc 1 160 5 view .LVU121
 426              		.loc 1 160 14 is_stmt 0 view .LVU122
 427 0000 034B     		ldr	r3, .L53
 428 0002 1A68     		ldr	r2, [r3]
 429              	.LVL35:
 161:./Application/Src/application.c ****     while (time_counter - start < ms);
 430              		.loc 1 161 5 is_stmt 1 view .LVU123
 431              	.L52:
 432              		.loc 1 161 33 discriminator 1 view .LVU124
 433              		.loc 1 161 25 is_stmt 0 discriminator 1 view .LVU125
 434 0004 024B     		ldr	r3, .L53
 435 0006 1B68     		ldr	r3, [r3]
 436 0008 9B1A     		subs	r3, r3, r2
 437              		.loc 1 161 33 discriminator 1 view .LVU126
 438 000a 8342     		cmp	r3, r0
 439 000c FAD3     		bcc	.L52
 162:./Application/Src/application.c **** }
 440              		.loc 1 162 1 view .LVU127
 441 000e 7047     		bx	lr
 442              	.L54:
 443              		.align	2
 444              	.L53:
 445 0010 00000000 		.word	time_counter
 446              		.cfi_endproc
 447              	.LFE164:
ARM GAS  C:\Users\Xuleo\AppData\Local\Temp\ccX6ZriQ.s 			page 12


 449              		.section	.text.traversal_song,"ax",%progbits
 450              		.align	1
 451              		.global	traversal_song
 452              		.syntax unified
 453              		.thumb
 454              		.thumb_func
 456              	traversal_song:
 457              	.LVL36:
 458              	.LFB162:
 106:./Application/Src/application.c ****     // the entire song chords might be smaller than given length
 459              		.loc 1 106 41 is_stmt 1 view -0
 460              		.cfi_startproc
 461              		@ args = 0, pretend = 0, frame = 8
 462              		@ frame_needed = 0, uses_anonymous_args = 0
 106:./Application/Src/application.c ****     // the entire song chords might be smaller than given length
 463              		.loc 1 106 41 is_stmt 0 view .LVU129
 464 0000 70B5     		push	{r4, r5, r6, lr}
 465              	.LCFI0:
 466              		.cfi_def_cfa_offset 16
 467              		.cfi_offset 4, -16
 468              		.cfi_offset 5, -12
 469              		.cfi_offset 6, -8
 470              		.cfi_offset 14, -4
 471 0002 82B0     		sub	sp, sp, #8
 472              	.LCFI1:
 473              		.cfi_def_cfa_offset 24
 474 0004 0646     		mov	r6, r0
 108:./Application/Src/application.c ****         // if detect empty notes - means end - break loop 
 475              		.loc 1 108 5 is_stmt 1 view .LVU130
 476              	.LBB11:
 108:./Application/Src/application.c ****         // if detect empty notes - means end - break loop 
 477              		.loc 1 108 10 view .LVU131
 478              	.LVL37:
 108:./Application/Src/application.c ****         // if detect empty notes - means end - break loop 
 479              		.loc 1 108 14 is_stmt 0 view .LVU132
 480 0006 0025     		movs	r5, #0
 481              	.LVL38:
 482              	.L56:
 108:./Application/Src/application.c ****         // if detect empty notes - means end - break loop 
 483              		.loc 1 108 23 is_stmt 1 discriminator 1 view .LVU133
 484 0008 632D     		cmp	r5, #99
 485 000a 16DC     		bgt	.L55
 486              	.LBB12:
 110:./Application/Src/application.c ****             break;
 487              		.loc 1 110 9 view .LVU134
 110:./Application/Src/application.c ****             break;
 488              		.loc 1 110 24 is_stmt 0 view .LVU135
 489 000c 05EB4504 		add	r4, r5, r5, lsl #1
 490 0010 2301     		lsls	r3, r4, #4
 491 0012 06EB0414 		add	r4, r6, r4, lsl #4
 110:./Application/Src/application.c ****             break;
 492              		.loc 1 110 33 view .LVU136
 493 0016 F35C     		ldrb	r3, [r6, r3]	@ zero_extendqisi2
 110:./Application/Src/application.c ****             break;
 494              		.loc 1 110 12 view .LVU137
 495 0018 7BB1     		cbz	r3, .L55
 114:./Application/Src/application.c ****         int hand = which_hand(&entire_song[i].event);
ARM GAS  C:\Users\Xuleo\AppData\Local\Temp\ccX6ZriQ.s 			page 13


 496              		.loc 1 114 9 is_stmt 1 view .LVU138
 115:./Application/Src/application.c ****         locate_hand(&entire_song[i].event, hand_pos, hand);
 497              		.loc 1 115 9 view .LVU139
 115:./Application/Src/application.c ****         locate_hand(&entire_song[i].event, hand_pos, hand);
 498              		.loc 1 115 20 is_stmt 0 view .LVU140
 499 001a 2046     		mov	r0, r4
 500 001c FFF7FEFF 		bl	which_hand
 501              	.LVL39:
 502 0020 0246     		mov	r2, r0
 503              	.LVL40:
 116:./Application/Src/application.c ****         // set target position from parsed data:
 504              		.loc 1 116 9 is_stmt 1 view .LVU141
 505 0022 6946     		mov	r1, sp
 506 0024 2046     		mov	r0, r4
 507              	.LVL41:
 116:./Application/Src/application.c ****         // set target position from parsed data:
 508              		.loc 1 116 9 is_stmt 0 view .LVU142
 509 0026 FFF7FEFF 		bl	locate_hand
 510              	.LVL42:
 118:./Application/Src/application.c ****         // solenoid logic:
 511              		.loc 1 118 9 is_stmt 1 view .LVU143
 118:./Application/Src/application.c ****         // solenoid logic:
 512              		.loc 1 118 28 is_stmt 0 view .LVU144
 513 002a 009A     		ldr	r2, [sp]	@ float
 514 002c 044B     		ldr	r3, .L61
 515 002e 1A60     		str	r2, [r3]	@ float
 126:./Application/Src/application.c ****     }
 516              		.loc 1 126 9 is_stmt 1 view .LVU145
 517 0030 A08D     		ldrh	r0, [r4, #44]
 518 0032 FFF7FEFF 		bl	wait_ms
 519              	.LVL43:
 520              	.LBE12:
 108:./Application/Src/application.c ****         // if detect empty notes - means end - break loop 
 521              		.loc 1 108 44 discriminator 2 view .LVU146
 522 0036 0135     		adds	r5, r5, #1
 523              	.LVL44:
 108:./Application/Src/application.c ****         // if detect empty notes - means end - break loop 
 524              		.loc 1 108 44 is_stmt 0 discriminator 2 view .LVU147
 525 0038 E6E7     		b	.L56
 526              	.LVL45:
 527              	.L55:
 108:./Application/Src/application.c ****         // if detect empty notes - means end - break loop 
 528              		.loc 1 108 44 discriminator 2 view .LVU148
 529              	.LBE11:
 128:./Application/Src/application.c **** 
 530              		.loc 1 128 1 view .LVU149
 531 003a 02B0     		add	sp, sp, #8
 532              	.LCFI2:
 533              		.cfi_def_cfa_offset 16
 534              		@ sp needed
 535 003c 70BD     		pop	{r4, r5, r6, pc}
 536              	.LVL46:
 537              	.L62:
 128:./Application/Src/application.c **** 
 538              		.loc 1 128 1 view .LVU150
 539 003e 00BF     		.align	2
 540              	.L61:
ARM GAS  C:\Users\Xuleo\AppData\Local\Temp\ccX6ZriQ.s 			page 14


 541 0040 00000000 		.word	target_position_cm
 542              		.cfi_endproc
 543              	.LFE162:
 545              		.section	.text.controller_init,"ax",%progbits
 546              		.align	1
 547              		.global	controller_init
 548              		.syntax unified
 549              		.thumb
 550              		.thumb_func
 552              	controller_init:
 553              	.LFB165:
 163:./Application/Src/application.c **** 
 164:./Application/Src/application.c **** // do controller here
 165:./Application/Src/application.c **** void controller_init(void){
 554              		.loc 1 165 27 is_stmt 1 view -0
 555              		.cfi_startproc
 556              		@ args = 0, pretend = 0, frame = 0
 557              		@ frame_needed = 0, uses_anonymous_args = 0
 558 0000 10B5     		push	{r4, lr}
 559              	.LCFI3:
 560              		.cfi_def_cfa_offset 8
 561              		.cfi_offset 4, -8
 562              		.cfi_offset 14, -4
 166:./Application/Src/application.c ****     memset(&vofa, 0, sizeof(vofa));
 563              		.loc 1 166 5 view .LVU152
 564 0002 0C4C     		ldr	r4, .L65
 565 0004 2C22     		movs	r2, #44
 566 0006 0021     		movs	r1, #0
 567 0008 2046     		mov	r0, r4
 568 000a FFF7FEFF 		bl	memset
 569              	.LVL47:
 167:./Application/Src/application.c ****     vofa.vofaTail[0] = 0x00;
 570              		.loc 1 167 5 view .LVU153
 168:./Application/Src/application.c ****     vofa.vofaTail[1] = 0x00;
 571              		.loc 1 168 5 view .LVU154
 169:./Application/Src/application.c ****     vofa.vofaTail[2] = 0x80;
 572              		.loc 1 169 5 view .LVU155
 573              		.loc 1 169 22 is_stmt 0 view .LVU156
 574 000e 8023     		movs	r3, #128
 575 0010 84F82A30 		strb	r3, [r4, #42]
 170:./Application/Src/application.c ****     vofa.vofaTail[3] = 0x7f;
 576              		.loc 1 170 5 is_stmt 1 view .LVU157
 577              		.loc 1 170 22 is_stmt 0 view .LVU158
 578 0014 7F23     		movs	r3, #127
 579 0016 84F82B30 		strb	r3, [r4, #43]
 171:./Application/Src/application.c **** 
 172:./Application/Src/application.c ****     // initialize PID value
 173:./Application/Src/application.c ****     target_position_cm = 0.0f;
 580              		.loc 1 173 5 is_stmt 1 view .LVU159
 581              		.loc 1 173 24 is_stmt 0 view .LVU160
 582 001a 0023     		movs	r3, #0
 583 001c 064A     		ldr	r2, .L65+4
 584 001e 1360     		str	r3, [r2]	@ float
 174:./Application/Src/application.c ****     debug_motor.Integral = 0.0f;
 585              		.loc 1 174 5 is_stmt 1 view .LVU161
 586              		.loc 1 174 26 is_stmt 0 view .LVU162
 587 0020 064A     		ldr	r2, .L65+8
ARM GAS  C:\Users\Xuleo\AppData\Local\Temp\ccX6ZriQ.s 			page 15


 588 0022 1361     		str	r3, [r2, #16]	@ float
 175:./Application/Src/application.c ****     debug_motor.last_error = 0.0f;
 589              		.loc 1 175 5 is_stmt 1 view .LVU163
 590              		.loc 1 175 28 is_stmt 0 view .LVU164
 591 0024 5361     		str	r3, [r2, #20]	@ float
 176:./Application/Src/application.c ****     debug_motor.output = 0.0f;
 592              		.loc 1 176 5 is_stmt 1 view .LVU165
 593              		.loc 1 176 24 is_stmt 0 view .LVU166
 594 0026 9361     		str	r3, [r2, #24]	@ float
 177:./Application/Src/application.c **** 
 178:./Application/Src/application.c ****     // initialize PWM outputs to 0 - no movement at startup
 179:./Application/Src/application.c ****     __HAL_TIM_SET_COMPARE(&htim3, TIM_CHANNEL_1, 0);
 595              		.loc 1 179 5 is_stmt 1 view .LVU167
 596 0028 054B     		ldr	r3, .L65+12
 597 002a 1B68     		ldr	r3, [r3]
 598 002c 0022     		movs	r2, #0
 599 002e 5A63     		str	r2, [r3, #52]
 180:./Application/Src/application.c ****     __HAL_TIM_SET_COMPARE(&htim3, TIM_CHANNEL_2, 0);
 600              		.loc 1 180 5 view .LVU168
 601 0030 9A63     		str	r2, [r3, #56]
 181:./Application/Src/application.c **** }
 602              		.loc 1 181 1 is_stmt 0 view .LVU169
 603 0032 10BD     		pop	{r4, pc}
 604              	.L66:
 605              		.align	2
 606              	.L65:
 607 0034 00000000 		.word	vofa
 608 0038 00000000 		.word	target_position_cm
 609 003c 00000000 		.word	debug_motor
 610 0040 00000000 		.word	htim3
 611              		.cfi_endproc
 612              	.LFE165:
 614              		.section	.text.controller_step,"ax",%progbits
 615              		.align	1
 616              		.global	controller_step
 617              		.syntax unified
 618              		.thumb
 619              		.thumb_func
 621              	controller_step:
 622              	.LVL48:
 623              	.LFB166:
 182:./Application/Src/application.c **** 
 183:./Application/Src/application.c **** // DO NOT USE SPRINT, PRINT IN THIS FUNCTION
 184:./Application/Src/application.c **** // what have done: make some variable global and send
 185:./Application/Src/application.c **** void controller_step(const float dt){
 624              		.loc 1 185 37 is_stmt 1 view -0
 625              		.cfi_startproc
 626              		@ args = 0, pretend = 0, frame = 8
 627              		@ frame_needed = 0, uses_anonymous_args = 0
 628              		.loc 1 185 37 is_stmt 0 view .LVU171
 629 0000 30B5     		push	{r4, r5, lr}
 630              	.LCFI4:
 631              		.cfi_def_cfa_offset 12
 632              		.cfi_offset 4, -12
 633              		.cfi_offset 5, -8
 634              		.cfi_offset 14, -4
 635 0002 2DED028B 		vpush.64	{d8}
ARM GAS  C:\Users\Xuleo\AppData\Local\Temp\ccX6ZriQ.s 			page 16


 636              	.LCFI5:
 637              		.cfi_def_cfa_offset 20
 638              		.cfi_offset 80, -20
 639              		.cfi_offset 81, -16
 640 0006 83B0     		sub	sp, sp, #12
 641              	.LCFI6:
 642              		.cfi_def_cfa_offset 32
 643 0008 B0EE408A 		vmov.f32	s16, s0
 644 000c F0EE408A 		vmov.f32	s17, s0
 186:./Application/Src/application.c ****     uint32_t direction;
 645              		.loc 1 186 5 is_stmt 1 view .LVU172
 187:./Application/Src/application.c **** 
 188:./Application/Src/application.c ****     encoder_read_value(&htim8, &encoder_read_result, &direction);
 646              		.loc 1 188 5 view .LVU173
 647 0010 534C     		ldr	r4, .L88
 648 0012 01AA     		add	r2, sp, #4
 649 0014 2146     		mov	r1, r4
 650 0016 5348     		ldr	r0, .L88+4
 651 0018 FFF7FEFF 		bl	encoder_read_value
 652              	.LVL49:
 189:./Application/Src/application.c ****     current_distance_cm = encoder_parse_distance_cm(encoder_read_result);
 653              		.loc 1 189 5 view .LVU174
 654              		.loc 1 189 27 is_stmt 0 view .LVU175
 655 001c 2068     		ldr	r0, [r4]
 656 001e FFF7FEFF 		bl	encoder_parse_distance_cm
 657              	.LVL50:
 658              		.loc 1 189 25 discriminator 1 view .LVU176
 659 0022 514C     		ldr	r4, .L88+8
 660 0024 84ED000A 		vstr.32	s0, [r4]
 190:./Application/Src/application.c ****     vofa.val[0] = current_distance_cm;
 661              		.loc 1 190 5 is_stmt 1 view .LVU177
 662              		.loc 1 190 17 is_stmt 0 view .LVU178
 663 0028 2368     		ldr	r3, [r4]	@ float
 664 002a 504D     		ldr	r5, .L88+12
 665 002c 2B60     		str	r3, [r5]	@ float
 191:./Application/Src/application.c ****     current_velocity_cm_s = encoder_calc_speed_cm_s(current_distance_cm, dt);
 666              		.loc 1 191 5 is_stmt 1 view .LVU179
 667              		.loc 1 191 29 is_stmt 0 view .LVU180
 668 002e 94ED000A 		vldr.32	s0, [r4]
 669 0032 F0EE480A 		vmov.f32	s1, s16
 670 0036 FFF7FEFF 		bl	encoder_calc_speed_cm_s
 671              	.LVL51:
 672              		.loc 1 191 27 discriminator 1 view .LVU181
 673 003a 4D4B     		ldr	r3, .L88+16
 674 003c 83ED000A 		vstr.32	s0, [r3]
 192:./Application/Src/application.c **** 
 193:./Application/Src/application.c ****     // position control - test pid - using step input - input via bluetooth
 194:./Application/Src/application.c ****     float error = target_position_cm - current_distance_cm;
 675              		.loc 1 194 5 is_stmt 1 view .LVU182
 676              		.loc 1 194 38 is_stmt 0 view .LVU183
 677 0040 4C4B     		ldr	r3, .L88+20
 678 0042 D3ED007A 		vldr.32	s15, [r3]
 679 0046 94ED008A 		vldr.32	s16, [r4]
 680              	.LVL52:
 681              		.loc 1 194 11 view .LVU184
 682 004a 37EEC88A 		vsub.f32	s16, s15, s16
 683              	.LVL53:
ARM GAS  C:\Users\Xuleo\AppData\Local\Temp\ccX6ZriQ.s 			page 17


 195:./Application/Src/application.c ****     vofa.val[1] = target_position_cm;
 684              		.loc 1 195 5 is_stmt 1 view .LVU185
 685              		.loc 1 195 17 is_stmt 0 view .LVU186
 686 004e C5ED017A 		vstr.32	s15, [r5, #4]
 196:./Application/Src/application.c **** 
 197:./Application/Src/application.c ****     // deadband: if error is within tolerance, stop motor and reset integral
 198:./Application/Src/application.c ****     const float ERROR_DEADBAND = 0.1f; 
 687              		.loc 1 198 5 is_stmt 1 view .LVU187
 688              	.LVL54:
 199:./Application/Src/application.c ****     const float PWM_MIN = 30.0f;        // minimum PWM to actually move motor
 689              		.loc 1 199 5 view .LVU188
 200:./Application/Src/application.c ****     float pwm_output = 0.0f;
 690              		.loc 1 200 5 view .LVU189
 201:./Application/Src/application.c **** 
 202:./Application/Src/application.c ****     if (error > -ERROR_DEADBAND && error < ERROR_DEADBAND) {
 691              		.loc 1 202 5 view .LVU190
 692              		.loc 1 202 8 is_stmt 0 view .LVU191
 693 0052 DFED497A 		vldr.32	s15, .L88+24
 694 0056 B4EEE78A 		vcmpe.f32	s16, s15
 695 005a F1EE10FA 		vmrs	APSR_nzcv, FPSCR
 696 005e 16DD     		ble	.L68
 697              		.loc 1 202 33 discriminator 1 view .LVU192
 698 0060 DFED467A 		vldr.32	s15, .L88+28
 699 0064 B4EEE78A 		vcmpe.f32	s16, s15
 700 0068 F1EE10FA 		vmrs	APSR_nzcv, FPSCR
 701 006c 0FD5     		bpl	.L68
 203:./Application/Src/application.c ****         // close enough - stop motor
 204:./Application/Src/application.c ****         __HAL_TIM_SET_COMPARE(&htim3, TIM_CHANNEL_1, 0);
 702              		.loc 1 204 9 is_stmt 1 view .LVU193
 703 006e 444B     		ldr	r3, .L88+32
 704 0070 1B68     		ldr	r3, [r3]
 705 0072 0022     		movs	r2, #0
 706 0074 5A63     		str	r2, [r3, #52]
 205:./Application/Src/application.c ****         __HAL_TIM_SET_COMPARE(&htim3, TIM_CHANNEL_2, 0);
 707              		.loc 1 205 9 view .LVU194
 708 0076 9A63     		str	r2, [r3, #56]
 206:./Application/Src/application.c ****         debug_motor.Integral = 0.0f;  // reset integral to prevent windup
 709              		.loc 1 206 9 view .LVU195
 710              		.loc 1 206 30 is_stmt 0 view .LVU196
 711 0078 424B     		ldr	r3, .L88+36
 712 007a DFED437A 		vldr.32	s15, .L88+40
 713 007e C3ED047A 		vstr.32	s15, [r3, #16]
 207:./Application/Src/application.c ****         debug_motor.output = 0.0f;
 714              		.loc 1 207 9 is_stmt 1 view .LVU197
 715              		.loc 1 207 28 is_stmt 0 view .LVU198
 716 0082 C3ED067A 		vstr.32	s15, [r3, #24]
 208:./Application/Src/application.c ****         is_moving = 1; // have done moving
 717              		.loc 1 208 9 is_stmt 1 view .LVU199
 718              		.loc 1 208 19 is_stmt 0 view .LVU200
 719 0086 414B     		ldr	r3, .L88+44
 720 0088 0122     		movs	r2, #1
 721 008a 1A60     		str	r2, [r3]
 722 008c 31E0     		b	.L71
 723              	.L68:
 209:./Application/Src/application.c ****     } else {
 210:./Application/Src/application.c ****         pid_cycle(&debug_motor, error, dt);
 724              		.loc 1 210 9 is_stmt 1 view .LVU201
ARM GAS  C:\Users\Xuleo\AppData\Local\Temp\ccX6ZriQ.s 			page 18


 725 008e 3D4C     		ldr	r4, .L88+36
 726 0090 F0EE680A 		vmov.f32	s1, s17
 727 0094 B0EE480A 		vmov.f32	s0, s16
 728 0098 2046     		mov	r0, r4
 729 009a FFF7FEFF 		bl	pid_cycle
 730              	.LVL55:
 211:./Application/Src/application.c **** 
 212:./Application/Src/application.c ****         // convert pid output to pwm, clamp to valid range
 213:./Application/Src/application.c ****         pwm_output = debug_motor.output;
 731              		.loc 1 213 9 view .LVU202
 732              		.loc 1 213 20 is_stmt 0 view .LVU203
 733 009e D4ED067A 		vldr.32	s15, [r4, #24]
 734              	.LVL56:
 214:./Application/Src/application.c ****         if (pwm_output > 99.0f) pwm_output = 99.0f;
 735              		.loc 1 214 9 is_stmt 1 view .LVU204
 736              		.loc 1 214 12 is_stmt 0 view .LVU205
 737 00a2 9FED3B7A 		vldr.32	s14, .L88+48
 738 00a6 F4EEC77A 		vcmpe.f32	s15, s14
 739 00aa F1EE10FA 		vmrs	APSR_nzcv, FPSCR
 740 00ae 09DC     		bgt	.L78
 215:./Application/Src/application.c ****         if (pwm_output < -99.0f) pwm_output = -99.0f;
 741              		.loc 1 215 9 is_stmt 1 view .LVU206
 742              		.loc 1 215 12 is_stmt 0 view .LVU207
 743 00b0 9FED387A 		vldr.32	s14, .L88+52
 744 00b4 F4EEC77A 		vcmpe.f32	s15, s14
 745 00b8 F1EE10FA 		vmrs	APSR_nzcv, FPSCR
 746 00bc 04D5     		bpl	.L72
 747              		.loc 1 215 45 discriminator 1 view .LVU208
 748 00be DFED357A 		vldr.32	s15, .L88+52
 749              	.LVL57:
 750              		.loc 1 215 45 discriminator 1 view .LVU209
 751 00c2 01E0     		b	.L72
 752              	.LVL58:
 753              	.L78:
 214:./Application/Src/application.c ****         if (pwm_output > 99.0f) pwm_output = 99.0f;
 754              		.loc 1 214 44 discriminator 1 view .LVU210
 755 00c4 DFED327A 		vldr.32	s15, .L88+48
 756              	.LVL59:
 757              	.L72:
 216:./Application/Src/application.c **** 
 217:./Application/Src/application.c ****         // direction based on error -> check error so it knows where to move
 218:./Application/Src/application.c ****         if (error > 0.0f) {
 758              		.loc 1 218 9 is_stmt 1 view .LVU211
 759              		.loc 1 218 12 is_stmt 0 view .LVU212
 760 00c8 B5EEC08A 		vcmpe.f32	s16, #0
 761 00cc F1EE10FA 		vmrs	APSR_nzcv, FPSCR
 762 00d0 2ADD     		ble	.L85
 763              	.LBB13:
 219:./Application/Src/application.c ****             uint32_t pwm = (pwm_output < PWM_MIN) ? (uint32_t)PWM_MIN : (uint32_t)pwm_output;
 764              		.loc 1 219 13 is_stmt 1 view .LVU213
 765              		.loc 1 219 71 is_stmt 0 view .LVU214
 766 00d2 B3EE0E7A 		vmov.f32	s14, #3.0e+1
 767 00d6 F4EEC77A 		vcmpe.f32	s15, s14
 768 00da F1EE10FA 		vmrs	APSR_nzcv, FPSCR
 769 00de 21D4     		bmi	.L80
 770              		.loc 1 219 22 discriminator 2 view .LVU215
 771 00e0 BCEEE77A 		vcvt.u32.f32	s14, s15
ARM GAS  C:\Users\Xuleo\AppData\Local\Temp\ccX6ZriQ.s 			page 19


 772 00e4 17EE102A 		vmov	r2, s14	@ int
 773              	.LVL60:
 774              	.L75:
 220:./Application/Src/application.c ****             __HAL_TIM_SET_COMPARE(&htim3, TIM_CHANNEL_1, pwm);
 775              		.loc 1 220 13 is_stmt 1 view .LVU216
 776 00e8 254B     		ldr	r3, .L88+32
 777 00ea 1B68     		ldr	r3, [r3]
 778 00ec 5A63     		str	r2, [r3, #52]
 221:./Application/Src/application.c ****             __HAL_TIM_SET_COMPARE(&htim3, TIM_CHANNEL_2, 0);
 779              		.loc 1 221 13 view .LVU217
 780 00ee 0022     		movs	r2, #0
 781              	.LVL61:
 782              		.loc 1 221 13 is_stmt 0 view .LVU218
 783 00f0 9A63     		str	r2, [r3, #56]
 784              	.LVL62:
 785              	.L71:
 786              		.loc 1 221 13 view .LVU219
 787              	.LBE13:
 222:./Application/Src/application.c ****         } else {
 223:./Application/Src/application.c ****             uint32_t pwm = (-pwm_output < PWM_MIN) ? (uint32_t)PWM_MIN : (uint32_t)(-pwm_output);
 224:./Application/Src/application.c ****             __HAL_TIM_SET_COMPARE(&htim3, TIM_CHANNEL_1, 0);
 225:./Application/Src/application.c ****             __HAL_TIM_SET_COMPARE(&htim3, TIM_CHANNEL_2, pwm);
 226:./Application/Src/application.c ****         }
 227:./Application/Src/application.c ****     }
 228:./Application/Src/application.c **** 
 229:./Application/Src/application.c ****     vofa.val[2] = pwm_output;
 788              		.loc 1 229 5 is_stmt 1 view .LVU220
 789              		.loc 1 229 17 is_stmt 0 view .LVU221
 790 00f2 1E4B     		ldr	r3, .L88+12
 791 00f4 C3ED027A 		vstr.32	s15, [r3, #8]
 230:./Application/Src/application.c ****     vofa.val[3] = error;
 792              		.loc 1 230 5 is_stmt 1 view .LVU222
 793              		.loc 1 230 17 is_stmt 0 view .LVU223
 794 00f8 83ED038A 		vstr.32	s16, [r3, #12]
 231:./Application/Src/application.c **** 
 232:./Application/Src/application.c ****     if (huart1.gState == HAL_UART_STATE_READY) {
 795              		.loc 1 232 5 is_stmt 1 view .LVU224
 796              		.loc 1 232 15 is_stmt 0 view .LVU225
 797 00fc 264B     		ldr	r3, .L88+56
 798 00fe D3F88830 		ldr	r3, [r3, #136]
 799              		.loc 1 232 8 view .LVU226
 800 0102 202B     		cmp	r3, #32
 801 0104 25D0     		beq	.L87
 802              	.LVL63:
 803              	.L77:
 233:./Application/Src/application.c ****         HAL_UART_Transmit_IT(&huart1, (uint8_t*)&vofa, sizeof(vofa));
 234:./Application/Src/application.c ****     }
 235:./Application/Src/application.c **** 
 236:./Application/Src/application.c ****     // check for pin state (EE-SX1041: HIGH when blocked, LOW when light passes through)
 237:./Application/Src/application.c ****     is_blocked = (HAL_GPIO_ReadPin(GPIOC, GPIO_PIN_10) == GPIO_PIN_SET) ? 1 : 0;
 804              		.loc 1 237 5 is_stmt 1 view .LVU227
 805              		.loc 1 237 19 is_stmt 0 view .LVU228
 806 0106 4FF48061 		mov	r1, #1024
 807 010a 2448     		ldr	r0, .L88+60
 808 010c FFF7FEFF 		bl	HAL_GPIO_ReadPin
 809              	.LVL64:
 810              		.loc 1 237 77 discriminator 1 view .LVU229
ARM GAS  C:\Users\Xuleo\AppData\Local\Temp\ccX6ZriQ.s 			page 20


 811 0110 0128     		cmp	r0, #1
 812 0112 14BF     		ite	ne
 813 0114 0020     		movne	r0, #0
 814 0116 0120     		moveq	r0, #1
 815              		.loc 1 237 16 discriminator 1 view .LVU230
 816 0118 214B     		ldr	r3, .L88+64
 817 011a 1860     		str	r0, [r3]
 238:./Application/Src/application.c **** }...
 818              		.loc 1 238 1 view .LVU231
 819 011c 03B0     		add	sp, sp, #12
 820              	.LCFI7:
 821              		.cfi_remember_state
 822              		.cfi_def_cfa_offset 20
 823              		@ sp needed
 824 011e BDEC028B 		vldm	sp!, {d8}
 825              	.LCFI8:
 826              		.cfi_restore 80
 827              		.cfi_restore 81
 828              		.cfi_def_cfa_offset 12
 829              	.LVL65:
 830              		.loc 1 238 1 view .LVU232
 831 0122 30BD     		pop	{r4, r5, pc}
 832              	.LVL66:
 833              	.L80:
 834              	.LCFI9:
 835              		.cfi_restore_state
 836              	.LBB14:
 219:./Application/Src/application.c ****             uint32_t pwm = (pwm_output < PWM_MIN) ? (uint32_t)PWM_MIN : (uint32_t)pwm_output;
 837              		.loc 1 219 22 discriminator 1 view .LVU233
 838 0124 1E22     		movs	r2, #30
 839 0126 DFE7     		b	.L75
 840              	.L85:
 841              	.LBE14:
 842              	.LBB15:
 223:./Application/Src/application.c ****             uint32_t pwm = (-pwm_output < PWM_MIN) ? (uint32_t)PWM_MIN : (uint32_t)(-pwm_output);
 843              		.loc 1 223 13 is_stmt 1 view .LVU234
 223:./Application/Src/application.c ****             uint32_t pwm = (-pwm_output < PWM_MIN) ? (uint32_t)PWM_MIN : (uint32_t)(-pwm_output);
 844              		.loc 1 223 72 is_stmt 0 view .LVU235
 845 0128 BBEE0E7A 		vmov.f32	s14, #-3.0e+1
 846 012c F4EEC77A 		vcmpe.f32	s15, s14
 847 0130 F1EE10FA 		vmrs	APSR_nzcv, FPSCR
 848 0134 06DC     		bgt	.L81
 223:./Application/Src/application.c ****             uint32_t pwm = (-pwm_output < PWM_MIN) ? (uint32_t)PWM_MIN : (uint32_t)(-pwm_output);
 849              		.loc 1 223 85 discriminator 2 view .LVU236
 850 0136 B1EE677A 		vneg.f32	s14, s15
 223:./Application/Src/application.c ****             uint32_t pwm = (-pwm_output < PWM_MIN) ? (uint32_t)PWM_MIN : (uint32_t)(-pwm_output);
 851              		.loc 1 223 22 discriminator 2 view .LVU237
 852 013a BCEEC77A 		vcvt.u32.f32	s14, s14
 853 013e 17EE102A 		vmov	r2, s14	@ int
 854              	.LVL67:
 223:./Application/Src/application.c ****             uint32_t pwm = (-pwm_output < PWM_MIN) ? (uint32_t)PWM_MIN : (uint32_t)(-pwm_output);
 855              		.loc 1 223 22 discriminator 2 view .LVU238
 856 0142 00E0     		b	.L76
 857              	.LVL68:
 858              	.L81:
 223:./Application/Src/application.c ****             uint32_t pwm = (-pwm_output < PWM_MIN) ? (uint32_t)PWM_MIN : (uint32_t)(-pwm_output);
 859              		.loc 1 223 22 discriminator 1 view .LVU239
ARM GAS  C:\Users\Xuleo\AppData\Local\Temp\ccX6ZriQ.s 			page 21


 860 0144 1E22     		movs	r2, #30
 861              	.L76:
 862              	.LVL69:
 224:./Application/Src/application.c ****             __HAL_TIM_SET_COMPARE(&htim3, TIM_CHANNEL_1, 0);
 863              		.loc 1 224 13 is_stmt 1 view .LVU240
 864 0146 0E4B     		ldr	r3, .L88+32
 865 0148 1B68     		ldr	r3, [r3]
 866 014a 0021     		movs	r1, #0
 867 014c 5963     		str	r1, [r3, #52]
 225:./Application/Src/application.c ****             __HAL_TIM_SET_COMPARE(&htim3, TIM_CHANNEL_2, pwm);
 868              		.loc 1 225 13 view .LVU241
 869 014e 9A63     		str	r2, [r3, #56]
 870 0150 CFE7     		b	.L71
 871              	.LVL70:
 872              	.L87:
 225:./Application/Src/application.c ****             __HAL_TIM_SET_COMPARE(&htim3, TIM_CHANNEL_2, pwm);
 873              		.loc 1 225 13 is_stmt 0 view .LVU242
 874              	.LBE15:
 233:./Application/Src/application.c ****         HAL_UART_Transmit_IT(&huart1, (uint8_t*)&vofa, sizeof(vofa));
 875              		.loc 1 233 9 is_stmt 1 view .LVU243
 876 0152 2C22     		movs	r2, #44
 877 0154 0549     		ldr	r1, .L88+12
 878 0156 1048     		ldr	r0, .L88+56
 879 0158 FFF7FEFF 		bl	HAL_UART_Transmit_IT
 880              	.LVL71:
 233:./Application/Src/application.c ****         HAL_UART_Transmit_IT(&huart1, (uint8_t*)&vofa, sizeof(vofa));
 881              		.loc 1 233 9 is_stmt 0 view .LVU244
 882 015c D3E7     		b	.L77
 883              	.L89:
 884 015e 00BF     		.align	2
 885              	.L88:
 886 0160 00000000 		.word	encoder_read_result
 887 0164 00000000 		.word	htim8
 888 0168 00000000 		.word	current_distance_cm
 889 016c 00000000 		.word	vofa
 890 0170 00000000 		.word	current_velocity_cm_s
 891 0174 00000000 		.word	target_position_cm
 892 0178 CDCCCCBD 		.word	-1110651699
 893 017c CDCCCC3D 		.word	1036831949
 894 0180 00000000 		.word	htim3
 895 0184 00000000 		.word	debug_motor
 896 0188 00000000 		.word	0
 897 018c 00000000 		.word	is_moving
 898 0190 0000C642 		.word	1120272384
 899 0194 0000C6C2 		.word	-1027211264
 900 0198 00000000 		.word	huart1
 901 019c 00080242 		.word	1107429376
 902 01a0 00000000 		.word	is_blocked
 903              		.cfi_endproc
 904              	.LFE166:
 906              		.global	debug_motor
 907              		.section	.data.debug_motor,"aw"
 908              		.align	2
 911              	debug_motor:
 912 0000 00000041 		.word	1090519040
 913 0004 0000803F 		.word	1065353216
 914 0008 00000000 		.word	0
ARM GAS  C:\Users\Xuleo\AppData\Local\Temp\ccX6ZriQ.s 			page 22


 915 000c 20BC3E4D 		.word	1295957024
 916 0010 00000000 		.space	12
 916      00000000 
 916      00000000 
 917              		.global	piano_song
 918              		.section	.data.piano_song,"aw"
 919              		.align	2
 922              	piano_song:
 923 0000 01       		.byte	1
 924 0001 000000   		.space	3
 925 0004 00002041 		.word	1092616192
 926 0008 00000000 		.word	0
 927 000c 00000000 		.word	0
 928 0010 00000000 		.word	0
 929 0014 00000000 		.word	0
 930 0018 00000000 		.word	0
 931 001c 00000000 		.word	0
 932 0020 00000000 		.word	0
 933 0024 00000000 		.word	0
 934 0028 00000000 		.word	0
 935 002c C800     		.short	200
 936 002e 6400     		.short	100
 937 0030 01       		.byte	1
 938 0031 000000   		.space	3
 939 0034 0000A041 		.word	1101004800
 940 0038 00000000 		.word	0
 941 003c 00000000 		.word	0
 942 0040 00000000 		.word	0
 943 0044 00000000 		.word	0
 944 0048 00000000 		.word	0
 945 004c 00000000 		.word	0
 946 0050 00000000 		.word	0
 947 0054 00000000 		.word	0
 948 0058 00000000 		.word	0
 949 005c C800     		.short	200
 950 005e 6400     		.short	100
 951 0060 01       		.byte	1
 952 0061 000000   		.space	3
 953 0064 0000F041 		.word	1106247680
 954 0068 00000000 		.word	0
 955 006c 00000000 		.word	0
 956 0070 00000000 		.word	0
 957 0074 00000000 		.word	0
 958 0078 00000000 		.word	0
 959 007c 00000000 		.word	0
 960 0080 00000000 		.word	0
 961 0084 00000000 		.word	0
 962 0088 00000000 		.word	0
 963 008c C800     		.short	200
 964 008e 6400     		.short	100
 965 0090 01       		.byte	1
 966 0091 000000   		.space	3
 967 0094 00002042 		.word	1109393408
 968 0098 00000000 		.word	0
 969 009c 00000000 		.word	0
 970 00a0 00000000 		.word	0
 971 00a4 00000000 		.word	0
ARM GAS  C:\Users\Xuleo\AppData\Local\Temp\ccX6ZriQ.s 			page 23


 972 00a8 00000000 		.word	0
 973 00ac 00000000 		.word	0
 974 00b0 00000000 		.word	0
 975 00b4 00000000 		.word	0
 976 00b8 00000000 		.word	0
 977 00bc C800     		.short	200
 978 00be 6400     		.short	100
 979 00c0 01       		.byte	1
 980 00c1 000000   		.space	3
 981 00c4 00003042 		.word	1110441984
 982 00c8 00000000 		.word	0
 983 00cc 00000000 		.word	0
 984 00d0 00000000 		.word	0
 985 00d4 00000000 		.word	0
 986 00d8 00000000 		.word	0
 987 00dc 00000000 		.word	0
 988 00e0 00000000 		.word	0
 989 00e4 00000000 		.word	0
 990 00e8 00000000 		.word	0
 991 00ec 2C01     		.short	300
 992 00ee 6400     		.short	100
 993 00f0 01       		.byte	1
 994 00f1 000000   		.space	3
 995 00f4 00000C42 		.word	1108082688
 996 00f8 00000000 		.word	0
 997 00fc 00000000 		.word	0
 998 0100 00000000 		.word	0
 999 0104 00000000 		.word	0
 1000 0108 00000000 		.word	0
 1001 010c 00000000 		.word	0
 1002 0110 00000000 		.word	0
 1003 0114 00000000 		.word	0
 1004 0118 00000000 		.word	0
 1005 011c 9600     		.short	150
 1006 011e 6400     		.short	100
 1007 0120 01       		.byte	1
 1008 0121 000000   		.space	3
 1009 0124 0000C841 		.word	1103626240
 1010 0128 00000000 		.word	0
 1011 012c 00000000 		.word	0
 1012 0130 00000000 		.word	0
 1013 0134 00000000 		.word	0
 1014 0138 00000000 		.word	0
 1015 013c 00000000 		.word	0
 1016 0140 00000000 		.word	0
 1017 0144 00000000 		.word	0
 1018 0148 00000000 		.word	0
 1019 014c 9600     		.short	150
 1020 014e 6400     		.short	100
 1021 0150 01       		.byte	1
 1022 0151 000000   		.space	3
 1023 0154 00007041 		.word	1097859072
 1024 0158 00000000 		.word	0
 1025 015c 00000000 		.word	0
 1026 0160 00000000 		.word	0
 1027 0164 00000000 		.word	0
 1028 0168 00000000 		.word	0
ARM GAS  C:\Users\Xuleo\AppData\Local\Temp\ccX6ZriQ.s 			page 24


 1029 016c 00000000 		.word	0
 1030 0170 00000000 		.word	0
 1031 0174 00000000 		.word	0
 1032 0178 00000000 		.word	0
 1033 017c 9600     		.short	150
 1034 017e 6400     		.short	100
 1035 0180 01       		.byte	1
 1036 0181 000000   		.space	3
 1037 0184 0000A040 		.word	1084227584
 1038 0188 00000000 		.word	0
 1039 018c 00000000 		.word	0
 1040 0190 00000000 		.word	0
 1041 0194 00000000 		.word	0
 1042 0198 00000000 		.word	0
 1043 019c 00000000 		.word	0
 1044 01a0 00000000 		.word	0
 1045 01a4 00000000 		.word	0
 1046 01a8 00000000 		.word	0
 1047 01ac 2C01     		.short	300
 1048 01ae 6400     		.short	100
 1049 01b0 02       		.byte	2
 1050 01b1 000000   		.space	3
 1051 01b4 00002041 		.word	1092616192
 1052 01b8 0000A041 		.word	1101004800
 1053 01bc 00000000 		.word	0
 1054 01c0 00000000 		.word	0
 1055 01c4 00000000 		.word	0
 1056 01c8 00000000 		.word	0
 1057 01cc 00000000 		.word	0
 1058 01d0 00000000 		.word	0
 1059 01d4 00000000 		.word	0
 1060 01d8 00000000 		.word	0
 1061 01dc FA00     		.short	250
 1062 01de 6400     		.short	100
 1063 01e0 02       		.byte	2
 1064 01e1 000000   		.space	3
 1065 01e4 0000C841 		.word	1103626240
 1066 01e8 00000C42 		.word	1108082688
 1067 01ec 00000000 		.word	0
 1068 01f0 00000000 		.word	0
 1069 01f4 00000000 		.word	0
 1070 01f8 00000000 		.word	0
 1071 01fc 00000000 		.word	0
 1072 0200 00000000 		.word	0
 1073 0204 00000000 		.word	0
 1074 0208 00000000 		.word	0
 1075 020c FA00     		.short	250
 1076 020e 6400     		.short	100
 1077 0210 03       		.byte	3
 1078 0211 000000   		.space	3
 1079 0214 00007041 		.word	1097859072
 1080 0218 0000C841 		.word	1103626240
 1081 021c 00000C42 		.word	1108082688
 1082 0220 00000000 		.word	0
 1083 0224 00000000 		.word	0
 1084 0228 00000000 		.word	0
 1085 022c 00000000 		.word	0
ARM GAS  C:\Users\Xuleo\AppData\Local\Temp\ccX6ZriQ.s 			page 25


 1086 0230 00000000 		.word	0
 1087 0234 00000000 		.word	0
 1088 0238 00000000 		.word	0
 1089 023c C800     		.short	200
 1090 023e 6400     		.short	100
 1091 0240 01       		.byte	1
 1092 0241 000000   		.space	3
 1093 0244 00002042 		.word	1109393408
 1094 0248 00000000 		.word	0
 1095 024c 00000000 		.word	0
 1096 0250 00000000 		.word	0
 1097 0254 00000000 		.word	0
 1098 0258 00000000 		.word	0
 1099 025c 00000000 		.word	0
 1100 0260 00000000 		.word	0
 1101 0264 00000000 		.word	0
 1102 0268 00000000 		.word	0
 1103 026c 9001     		.short	400
 1104 026e 6400     		.short	100
 1105 0270 01       		.byte	1
 1106 0271 000000   		.space	3
 1107 0274 0000A041 		.word	1101004800
 1108 0278 00000000 		.word	0
 1109 027c 00000000 		.word	0
 1110 0280 00000000 		.word	0
 1111 0284 00000000 		.word	0
 1112 0288 00000000 		.word	0
 1113 028c 00000000 		.word	0
 1114 0290 00000000 		.word	0
 1115 0294 00000000 		.word	0
 1116 0298 00000000 		.word	0
 1117 029c 9001     		.short	400
 1118 029e 6400     		.short	100
 1119 02a0 01       		.byte	1
 1120 02a1 000000   		.space	3
 1121 02a4 00002041 		.word	1092616192
 1122 02a8 00000000 		.word	0
 1123 02ac 00000000 		.word	0
 1124 02b0 00000000 		.word	0
 1125 02b4 00000000 		.word	0
 1126 02b8 00000000 		.word	0
 1127 02bc 00000000 		.word	0
 1128 02c0 00000000 		.word	0
 1129 02c4 00000000 		.word	0
 1130 02c8 00000000 		.word	0
 1131 02cc F401     		.short	500
 1132 02ce 6400     		.short	100
 1133 02d0 00000000 		.space	4080
 1133      00000000 
 1133      00000000 
 1133      00000000 
 1133      00000000 
 1134              		.global	is_blocked
 1135              		.section	.bss.is_blocked,"aw",%nobits
 1136              		.align	2
 1139              	is_blocked:
 1140 0000 00000000 		.space	4
ARM GAS  C:\Users\Xuleo\AppData\Local\Temp\ccX6ZriQ.s 			page 26


 1141              		.global	is_moving
 1142              		.section	.bss.is_moving,"aw",%nobits
 1143              		.align	2
 1146              	is_moving:
 1147 0000 00000000 		.space	4
 1148              		.global	time_counter
 1149              		.section	.bss.time_counter,"aw",%nobits
 1150              		.align	2
 1153              	time_counter:
 1154 0000 00000000 		.space	4
 1155              		.global	vofa
 1156              		.section	.bss.vofa,"aw",%nobits
 1157              		.align	2
 1160              	vofa:
 1161 0000 00000000 		.space	44
 1161      00000000 
 1161      00000000 
 1161      00000000 
 1161      00000000 
 1162              		.global	current_distance_cm
 1163              		.section	.bss.current_distance_cm,"aw",%nobits
 1164              		.align	2
 1167              	current_distance_cm:
 1168 0000 00000000 		.space	4
 1169              		.global	current_velocity_cm_s
 1170              		.section	.bss.current_velocity_cm_s,"aw",%nobits
 1171              		.align	2
 1174              	current_velocity_cm_s:
 1175 0000 00000000 		.space	4
 1176              		.global	target_position_cm
 1177              		.section	.bss.target_position_cm,"aw",%nobits
 1178              		.align	2
 1181              	target_position_cm:
 1182 0000 00000000 		.space	4
 1183              		.global	encoder_old_position_cm
 1184              		.section	.bss.encoder_old_position_cm,"aw",%nobits
 1185              		.align	2
 1188              	encoder_old_position_cm:
 1189 0000 00000000 		.space	4
 1190              		.global	encoder_read_result
 1191              		.section	.bss.encoder_read_result,"aw",%nobits
 1192              		.align	2
 1195              	encoder_read_result:
 1196 0000 00000000 		.space	4
 1197              		.global	DMA_target_location
 1198              		.section	.bss.DMA_target_location,"aw",%nobits
 1199              		.align	2
 1202              	DMA_target_location:
 1203 0000 00000000 		.space	128
 1203      00000000 
 1203      00000000 
 1203      00000000 
 1203      00000000 
 1204              		.global	rx_buffer
 1205              		.section	.bss.rx_buffer,"aw",%nobits
 1206              		.align	2
 1209              	rx_buffer:
ARM GAS  C:\Users\Xuleo\AppData\Local\Temp\ccX6ZriQ.s 			page 27


 1210 0000 00000000 		.space	128
 1210      00000000 
 1210      00000000 
 1210      00000000 
 1210      00000000 
 1211              		.text
 1212              	.Letext0:
 1213              		.file 2 "C:/thirdpartyLibs/arm-gnu-toolchain-15.2/arm-none-eabi/include/machine/_default_types.h"
 1214              		.file 3 "C:/thirdpartyLibs/arm-gnu-toolchain-15.2/arm-none-eabi/include/sys/_stdint.h"
 1215              		.file 4 "Drivers/CMSIS/Device/ST/STM32H5xx/Include/stm32h533xx.h"
 1216              		.file 5 "Drivers/STM32H5xx_HAL_Driver/Inc/stm32h5xx_hal_def.h"
 1217              		.file 6 "Drivers/STM32H5xx_HAL_Driver/Inc/stm32h5xx_hal_gpio.h"
 1218              		.file 7 "Drivers/STM32H5xx_HAL_Driver/Inc/stm32h5xx_hal_dma.h"
 1219              		.file 8 "Drivers/STM32H5xx_HAL_Driver/Inc/stm32h5xx_hal_dma_ex.h"
 1220              		.file 9 "Drivers/STM32H5xx_HAL_Driver/Inc/stm32h5xx_hal_tim.h"
 1221              		.file 10 "Drivers/STM32H5xx_HAL_Driver/Inc/stm32h5xx_hal_uart.h"
 1222              		.file 11 "Core/Inc/usart.h"
 1223              		.file 12 "Core/Inc/tim.h"
 1224              		.file 13 "Application/Inc/application.h"
 1225              		.file 14 "Application/Inc/encoder.h"
 1226              		.file 15 "C:/thirdpartyLibs/arm-gnu-toolchain-15.2/arm-none-eabi/include/string.h"
 1227              		.file 16 "<built-in>"
ARM GAS  C:\Users\Xuleo\AppData\Local\Temp\ccX6ZriQ.s 			page 28


DEFINED SYMBOLS
                            *ABS*:00000000 application.c
C:\Users\Xuleo\AppData\Local\Temp\ccX6ZriQ.s:22     .text.which_hand:00000000 $t
C:\Users\Xuleo\AppData\Local\Temp\ccX6ZriQ.s:28     .text.which_hand:00000000 which_hand
C:\Users\Xuleo\AppData\Local\Temp\ccX6ZriQ.s:155    .text.locate_hand:00000000 $t
C:\Users\Xuleo\AppData\Local\Temp\ccX6ZriQ.s:161    .text.locate_hand:00000000 locate_hand
C:\Users\Xuleo\AppData\Local\Temp\ccX6ZriQ.s:317    .text.locate_hand:000000c0 $d
C:\Users\Xuleo\AppData\Local\Temp\ccX6ZriQ.s:327    .text.pid_cycle:00000000 $t
C:\Users\Xuleo\AppData\Local\Temp\ccX6ZriQ.s:333    .text.pid_cycle:00000000 pid_cycle
C:\Users\Xuleo\AppData\Local\Temp\ccX6ZriQ.s:411    .text.wait_ms:00000000 $t
C:\Users\Xuleo\AppData\Local\Temp\ccX6ZriQ.s:417    .text.wait_ms:00000000 wait_ms
C:\Users\Xuleo\AppData\Local\Temp\ccX6ZriQ.s:445    .text.wait_ms:00000010 $d
C:\Users\Xuleo\AppData\Local\Temp\ccX6ZriQ.s:1153   .bss.time_counter:00000000 time_counter
C:\Users\Xuleo\AppData\Local\Temp\ccX6ZriQ.s:450    .text.traversal_song:00000000 $t
C:\Users\Xuleo\AppData\Local\Temp\ccX6ZriQ.s:456    .text.traversal_song:00000000 traversal_song
C:\Users\Xuleo\AppData\Local\Temp\ccX6ZriQ.s:541    .text.traversal_song:00000040 $d
C:\Users\Xuleo\AppData\Local\Temp\ccX6ZriQ.s:1181   .bss.target_position_cm:00000000 target_position_cm
C:\Users\Xuleo\AppData\Local\Temp\ccX6ZriQ.s:546    .text.controller_init:00000000 $t
C:\Users\Xuleo\AppData\Local\Temp\ccX6ZriQ.s:552    .text.controller_init:00000000 controller_init
C:\Users\Xuleo\AppData\Local\Temp\ccX6ZriQ.s:607    .text.controller_init:00000034 $d
C:\Users\Xuleo\AppData\Local\Temp\ccX6ZriQ.s:1160   .bss.vofa:00000000 vofa
C:\Users\Xuleo\AppData\Local\Temp\ccX6ZriQ.s:911    .data.debug_motor:00000000 debug_motor
C:\Users\Xuleo\AppData\Local\Temp\ccX6ZriQ.s:615    .text.controller_step:00000000 $t
C:\Users\Xuleo\AppData\Local\Temp\ccX6ZriQ.s:621    .text.controller_step:00000000 controller_step
C:\Users\Xuleo\AppData\Local\Temp\ccX6ZriQ.s:886    .text.controller_step:00000160 $d
C:\Users\Xuleo\AppData\Local\Temp\ccX6ZriQ.s:1195   .bss.encoder_read_result:00000000 encoder_read_result
C:\Users\Xuleo\AppData\Local\Temp\ccX6ZriQ.s:1167   .bss.current_distance_cm:00000000 current_distance_cm
C:\Users\Xuleo\AppData\Local\Temp\ccX6ZriQ.s:1174   .bss.current_velocity_cm_s:00000000 current_velocity_cm_s
C:\Users\Xuleo\AppData\Local\Temp\ccX6ZriQ.s:1146   .bss.is_moving:00000000 is_moving
C:\Users\Xuleo\AppData\Local\Temp\ccX6ZriQ.s:1139   .bss.is_blocked:00000000 is_blocked
C:\Users\Xuleo\AppData\Local\Temp\ccX6ZriQ.s:908    .data.debug_motor:00000000 $d
C:\Users\Xuleo\AppData\Local\Temp\ccX6ZriQ.s:922    .data.piano_song:00000000 piano_song
C:\Users\Xuleo\AppData\Local\Temp\ccX6ZriQ.s:919    .data.piano_song:00000000 $d
C:\Users\Xuleo\AppData\Local\Temp\ccX6ZriQ.s:1136   .bss.is_blocked:00000000 $d
C:\Users\Xuleo\AppData\Local\Temp\ccX6ZriQ.s:1143   .bss.is_moving:00000000 $d
C:\Users\Xuleo\AppData\Local\Temp\ccX6ZriQ.s:1150   .bss.time_counter:00000000 $d
C:\Users\Xuleo\AppData\Local\Temp\ccX6ZriQ.s:1157   .bss.vofa:00000000 $d
C:\Users\Xuleo\AppData\Local\Temp\ccX6ZriQ.s:1164   .bss.current_distance_cm:00000000 $d
C:\Users\Xuleo\AppData\Local\Temp\ccX6ZriQ.s:1171   .bss.current_velocity_cm_s:00000000 $d
C:\Users\Xuleo\AppData\Local\Temp\ccX6ZriQ.s:1178   .bss.target_position_cm:00000000 $d
C:\Users\Xuleo\AppData\Local\Temp\ccX6ZriQ.s:1188   .bss.encoder_old_position_cm:00000000 encoder_old_position_cm
C:\Users\Xuleo\AppData\Local\Temp\ccX6ZriQ.s:1185   .bss.encoder_old_position_cm:00000000 $d
C:\Users\Xuleo\AppData\Local\Temp\ccX6ZriQ.s:1192   .bss.encoder_read_result:00000000 $d
C:\Users\Xuleo\AppData\Local\Temp\ccX6ZriQ.s:1202   .bss.DMA_target_location:00000000 DMA_target_location
C:\Users\Xuleo\AppData\Local\Temp\ccX6ZriQ.s:1199   .bss.DMA_target_location:00000000 $d
C:\Users\Xuleo\AppData\Local\Temp\ccX6ZriQ.s:1209   .bss.rx_buffer:00000000 rx_buffer
C:\Users\Xuleo\AppData\Local\Temp\ccX6ZriQ.s:1206   .bss.rx_buffer:00000000 $d

UNDEFINED SYMBOLS
memset
htim3
encoder_read_value
encoder_parse_distance_cm
encoder_calc_speed_cm_s
HAL_GPIO_ReadPin
HAL_UART_Transmit_IT
htim8
ARM GAS  C:\Users\Xuleo\AppData\Local\Temp\ccX6ZriQ.s 			page 29


huart1
