ARM GAS  C:\Users\Xuleo\AppData\Local\Temp\ccEzUv5Y.s 			page 1


   1              		.cpu cortex-m3
   2              		.arch armv7-m
   3              		.fpu softvfp
   4              		.eabi_attribute 20, 1
   5              		.eabi_attribute 21, 1
   6              		.eabi_attribute 23, 3
   7              		.eabi_attribute 24, 1
   8              		.eabi_attribute 25, 1
   9              		.eabi_attribute 26, 1
  10              		.eabi_attribute 30, 1
  11              		.eabi_attribute 34, 1
  12              		.eabi_attribute 18, 4
  13              		.file	"application.c"
  14              		.text
  15              	.Ltext0:
  16              		.cfi_sections	.debug_frame
  17              		.file 1 "./Application/Src/application.c"
  18              		.section	.text.init,"ax",%progbits
  19              		.align	1
  20              		.global	init
  21              		.syntax unified
  22              		.thumb
  23              		.thumb_func
  25              	init:
  26              	.LFB65:
   1:./Application/Src/application.c **** #include <application.h>
   2:./Application/Src/application.c **** 
   3:./Application/Src/application.c **** VOFA_REPORT vofa;
   4:./Application/Src/application.c **** MahonyAHRS ahrs;
   5:./Application/Src/application.c **** controllerProperty cp;
   6:./Application/Src/application.c **** uint8_t VOFA_SEND_BUFFER[64];
   7:./Application/Src/application.c **** 
   8:./Application/Src/application.c **** PID_t leftHandMotor={
   9:./Application/Src/application.c ****     .P=0.005f,
  10:./Application/Src/application.c ****     .I=0.0f,
  11:./Application/Src/application.c ****     .D=0.0f,
  12:./Application/Src/application.c ****     .integral_max=0.01f
  13:./Application/Src/application.c **** };
  14:./Application/Src/application.c **** 
  15:./Application/Src/application.c **** PID_t rightHandMotor={
  16:./Application/Src/application.c ****     .P=0.005f,
  17:./Application/Src/application.c ****     .I=0.0f,
  18:./Application/Src/application.c ****     .D=0.0f,
  19:./Application/Src/application.c ****     .integral_max=0.01f
  20:./Application/Src/application.c **** };
  21:./Application/Src/application.c **** 
  22:./Application/Src/application.c **** void init(){
  27              		.loc 1 22 12 view -0
  28              		.cfi_startproc
  29              		@ args = 0, pretend = 0, frame = 0
  30              		@ frame_needed = 0, uses_anonymous_args = 0
  31 0000 10B5     		push	{r4, lr}
  32              	.LCFI0:
  33              		.cfi_def_cfa_offset 8
  34              		.cfi_offset 4, -8
  35              		.cfi_offset 14, -4
  23:./Application/Src/application.c ****     memset(&vofa,0,sizeof(vofa));
ARM GAS  C:\Users\Xuleo\AppData\Local\Temp\ccEzUv5Y.s 			page 2


  36              		.loc 1 23 5 view .LVU1
  37 0002 094C     		ldr	r4, .L3
  38 0004 2C22     		movs	r2, #44
  39 0006 0021     		movs	r1, #0
  40 0008 2046     		mov	r0, r4
  41 000a FFF7FEFF 		bl	memset
  42              	.LVL0:
  24:./Application/Src/application.c ****     vofa.vofaTail[0] = 0x00;
  43              		.loc 1 24 5 view .LVU2
  25:./Application/Src/application.c ****     vofa.vofaTail[1] = 0x00;
  44              		.loc 1 25 5 view .LVU3
  26:./Application/Src/application.c ****     vofa.vofaTail[2] = 0x80;
  45              		.loc 1 26 5 view .LVU4
  46              		.loc 1 26 22 is_stmt 0 view .LVU5
  47 000e 8023     		movs	r3, #128
  48 0010 84F82A30 		strb	r3, [r4, #42]
  27:./Application/Src/application.c ****     vofa.vofaTail[3] = 0x7f;
  49              		.loc 1 27 5 is_stmt 1 view .LVU6
  50              		.loc 1 27 22 is_stmt 0 view .LVU7
  51 0014 7F23     		movs	r3, #127
  52 0016 84F82B30 		strb	r3, [r4, #43]
  28:./Application/Src/application.c ****     // DMA receive to idle toggle on
  29:./Application/Src/application.c ****     HAL_UARTEx_ReceiveToIdle_DMA(&huart2, VOFA_SEND_BUFFER, sizeof(VOFA_SEND_BUFFER));
  53              		.loc 1 29 5 is_stmt 1 view .LVU8
  54 001a 4022     		movs	r2, #64
  55 001c 0349     		ldr	r1, .L3+4
  56 001e 0448     		ldr	r0, .L3+8
  57 0020 FFF7FEFF 		bl	HAL_UARTEx_ReceiveToIdle_DMA
  58              	.LVL1:
  30:./Application/Src/application.c **** 
  31:./Application/Src/application.c ****     //Mahony_Init(&ahrs, 3.5f, 0.02f); // initialize mahony
  32:./Application/Src/application.c **** 
  33:./Application/Src/application.c **** }
  59              		.loc 1 33 1 is_stmt 0 view .LVU9
  60 0024 10BD     		pop	{r4, pc}
  61              	.L4:
  62 0026 00BF     		.align	2
  63              	.L3:
  64 0028 00000000 		.word	vofa
  65 002c 00000000 		.word	VOFA_SEND_BUFFER
  66 0030 00000000 		.word	huart2
  67              		.cfi_endproc
  68              	.LFE65:
  70              		.section	.text.smoothVelocity,"ax",%progbits
  71              		.align	1
  72              		.global	smoothVelocity
  73              		.syntax unified
  74              		.thumb
  75              		.thumb_func
  77              	smoothVelocity:
  78              	.LVL2:
  79              	.LFB66:
  34:./Application/Src/application.c **** 
  35:./Application/Src/application.c **** void smoothVelocity(float currentPostion, float dt){
  80              		.loc 1 35 52 is_stmt 1 view -0
  81              		.cfi_startproc
  82              		@ args = 0, pretend = 0, frame = 0
ARM GAS  C:\Users\Xuleo\AppData\Local\Temp\ccEzUv5Y.s 			page 3


  83              		@ frame_needed = 0, uses_anonymous_args = 0
  84              		.loc 1 35 52 is_stmt 0 view .LVU11
  85 0000 2DE9F041 		push	{r4, r5, r6, r7, r8, lr}
  86              	.LCFI1:
  87              		.cfi_def_cfa_offset 24
  88              		.cfi_offset 4, -24
  89              		.cfi_offset 5, -20
  90              		.cfi_offset 6, -16
  91              		.cfi_offset 7, -12
  92              		.cfi_offset 8, -8
  93              		.cfi_offset 14, -4
  94 0004 0746     		mov	r7, r0
  95 0006 0D46     		mov	r5, r1
  36:./Application/Src/application.c ****     float rawVelocity = (currentPostion - cp.lastPosition) / dt; // find speed
  96              		.loc 1 36 5 is_stmt 1 view .LVU12
  97              		.loc 1 36 45 is_stmt 0 view .LVU13
  98 0008 104C     		ldr	r4, .L7
  99              		.loc 1 36 41 view .LVU14
 100 000a 2168     		ldr	r1, [r4]	@ float
 101              	.LVL3:
 102              		.loc 1 36 41 view .LVU15
 103 000c FFF7FEFF 		bl	__aeabi_fsub
 104              	.LVL4:
 105              		.loc 1 36 11 view .LVU16
 106 0010 2946     		mov	r1, r5
 107 0012 FFF7FEFF 		bl	__aeabi_fdiv
 108              	.LVL5:
 109 0016 8046     		mov	r8, r0
 110              	.LVL6:
  37:./Application/Src/application.c ****     cp.velocityLPF = cp.velocityLPF * (1.0f - cp.velocityAlpha) + rawVelocity * cp.velocityAlpha; /
 111              		.loc 1 37 5 is_stmt 1 view .LVU17
 112              		.loc 1 37 24 is_stmt 0 view .LVU18
 113 0018 6368     		ldr	r3, [r4, #4]	@ float
 114 001a 1E46     		mov	r6, r3
 115              		.loc 1 37 49 view .LVU19
 116 001c A568     		ldr	r5, [r4, #8]	@ float
 117              	.LVL7:
 118              		.loc 1 37 45 view .LVU20
 119 001e 2946     		mov	r1, r5
 120 0020 4FF07E50 		mov	r0, #1065353216
 121              	.LVL8:
 122              		.loc 1 37 45 view .LVU21
 123 0024 FFF7FEFF 		bl	__aeabi_fsub
 124              	.LVL9:
 125 0028 0146     		mov	r1, r0
 126              		.loc 1 37 37 view .LVU22
 127 002a 3046     		mov	r0, r6
 128 002c FFF7FEFF 		bl	__aeabi_fmul
 129              	.LVL10:
 130 0030 0646     		mov	r6, r0
 131              		.loc 1 37 79 view .LVU23
 132 0032 4146     		mov	r1, r8
 133 0034 2846     		mov	r0, r5
 134 0036 FFF7FEFF 		bl	__aeabi_fmul
 135              	.LVL11:
 136 003a 0146     		mov	r1, r0
 137              		.loc 1 37 65 view .LVU24
ARM GAS  C:\Users\Xuleo\AppData\Local\Temp\ccEzUv5Y.s 			page 4


 138 003c 3046     		mov	r0, r6
 139 003e FFF7FEFF 		bl	__aeabi_fadd
 140              	.LVL12:
 141              		.loc 1 37 20 view .LVU25
 142 0042 6060     		str	r0, [r4, #4]	@ float
  38:./Application/Src/application.c ****     cp.lastPosition = currentPostion; // update position
 143              		.loc 1 38 5 is_stmt 1 view .LVU26
 144              		.loc 1 38 21 is_stmt 0 view .LVU27
 145 0044 2760     		str	r7, [r4]	@ float
  39:./Application/Src/application.c **** }
 146              		.loc 1 39 1 view .LVU28
 147 0046 BDE8F081 		pop	{r4, r5, r6, r7, r8, pc}
 148              	.LVL13:
 149              	.L8:
 150              		.loc 1 39 1 view .LVU29
 151 004a 00BF     		.align	2
 152              	.L7:
 153 004c 00000000 		.word	cp
 154              		.cfi_endproc
 155              	.LFE66:
 157              		.section	.text.boostKp,"ax",%progbits
 158              		.align	1
 159              		.global	boostKp
 160              		.syntax unified
 161              		.thumb
 162              		.thumb_func
 164              	boostKp:
 165              	.LVL14:
 166              	.LFB67:
  40:./Application/Src/application.c **** 
  41:./Application/Src/application.c **** void boostKp(float targetPos, float currentPos, float tolerance, PID_t target){
 167              		.loc 1 41 79 is_stmt 1 view -0
 168              		.cfi_startproc
 169              		@ args = 28, pretend = 8, frame = 0
 170              		@ frame_needed = 0, uses_anonymous_args = 0
 171              		.loc 1 41 79 is_stmt 0 view .LVU31
 172 0000 82B0     		sub	sp, sp, #8
 173              	.LCFI2:
 174              		.cfi_def_cfa_offset 8
 175 0002 38B5     		push	{r3, r4, r5, lr}
 176              	.LCFI3:
 177              		.cfi_def_cfa_offset 24
 178              		.cfi_offset 3, -24
 179              		.cfi_offset 4, -20
 180              		.cfi_offset 5, -16
 181              		.cfi_offset 14, -12
 182 0004 1546     		mov	r5, r2
 183 0006 0593     		str	r3, [sp, #20]
  42:./Application/Src/application.c ****     float KpBase = target.P;
 184              		.loc 1 42 5 is_stmt 1 view .LVU32
 185              		.loc 1 42 11 is_stmt 0 view .LVU33
 186 0008 059C     		ldr	r4, [sp, #20]	@ float
 187              	.LVL15:
  43:./Application/Src/application.c ****     if (abs(targetPos - currentPos) > tolerance) {
 188              		.loc 1 43 5 is_stmt 1 view .LVU34
 189              		.loc 1 43 23 is_stmt 0 view .LVU35
 190 000a FFF7FEFF 		bl	__aeabi_fsub
ARM GAS  C:\Users\Xuleo\AppData\Local\Temp\ccEzUv5Y.s 			page 5


 191              	.LVL16:
 192              		.loc 1 43 9 view .LVU36
 193 000e FFF7FEFF 		bl	__aeabi_f2iz
 194              	.LVL17:
 195              		.loc 1 43 37 view .LVU37
 196 0012 0028     		cmp	r0, #0
 197 0014 B8BF     		it	lt
 198 0016 4042     		rsblt	r0, r0, #0
 199 0018 FFF7FEFF 		bl	__aeabi_i2f
 200              	.LVL18:
 201              		.loc 1 43 8 view .LVU38
 202 001c 2946     		mov	r1, r5
 203 001e FFF7FEFF 		bl	__aeabi_fcmpgt
 204              	.LVL19:
 205 0022 20B1     		cbz	r0, .L9
  44:./Application/Src/application.c ****         target.P *= 2;
 206              		.loc 1 44 9 is_stmt 1 view .LVU39
 207              		.loc 1 44 18 is_stmt 0 view .LVU40
 208 0024 2146     		mov	r1, r4
 209 0026 2046     		mov	r0, r4
 210 0028 FFF7FEFF 		bl	__aeabi_fadd
 211              	.LVL20:
 212 002c 0590     		str	r0, [sp, #20]	@ float
 213              	.L9:
  45:./Application/Src/application.c ****     } else {
  46:./Application/Src/application.c ****         target.P = KpBase; // restore
  47:./Application/Src/application.c ****     }
  48:./Application/Src/application.c **** }
 214              		.loc 1 48 1 view .LVU41
 215 002e BDE83840 		pop	{r3, r4, r5, lr}
 216              	.LCFI4:
 217              		.cfi_restore 14
 218              		.cfi_restore 5
 219              		.cfi_restore 4
 220              		.cfi_restore 3
 221              		.cfi_def_cfa_offset 8
 222              	.LVL21:
 223              		.loc 1 48 1 view .LVU42
 224 0032 02B0     		add	sp, sp, #8
 225              	.LCFI5:
 226              		.cfi_def_cfa_offset 0
 227 0034 7047     		bx	lr
 228              		.cfi_endproc
 229              	.LFE67:
 231              		.section	.text.controllerUpdate,"ax",%progbits
 232              		.align	1
 233              		.global	controllerUpdate
 234              		.syntax unified
 235              		.thumb
 236              		.thumb_func
 238              	controllerUpdate:
 239              	.LVL22:
 240              	.LFB68:
  49:./Application/Src/application.c **** 
  50:./Application/Src/application.c **** 
  51:./Application/Src/application.c **** void controllerUpdate(const float dt){
 241              		.loc 1 51 38 is_stmt 1 view -0
ARM GAS  C:\Users\Xuleo\AppData\Local\Temp\ccEzUv5Y.s 			page 6


 242              		.cfi_startproc
 243              		@ args = 0, pretend = 0, frame = 0
 244              		@ frame_needed = 0, uses_anonymous_args = 0
 245              		.loc 1 51 38 is_stmt 0 view .LVU44
 246 0000 08B5     		push	{r3, lr}
 247              	.LCFI6:
 248              		.cfi_def_cfa_offset 8
 249              		.cfi_offset 3, -8
 250              		.cfi_offset 14, -4
  52:./Application/Src/application.c ****     // readAcc();
  53:./Application/Src/application.c ****     // Mahony_Update(&ahrs, accData, gyroData, dt);
  54:./Application/Src/application.c **** 
  55:./Application/Src/application.c ****     // controller code with pid
  56:./Application/Src/application.c ****     //vofa.val[0] = ahrs.roll * 57.2958f; // convert to radius
  57:./Application/Src/application.c ****     //vofa.val[1] = ahrs.pitch * 57.2958f;
  58:./Application/Src/application.c ****     //vofa.val[2] = ahrs.yaw * 57.2958f;
  59:./Application/Src/application.c ****     
  60:./Application/Src/application.c ****     // vofa display those pid stuff
  61:./Application/Src/application.c ****     vofa.val[0] = leftHandMotor.P;
 251              		.loc 1 61 5 is_stmt 1 view .LVU45
 252              		.loc 1 61 32 is_stmt 0 view .LVU46
 253 0002 064B     		ldr	r3, .L16
 254 0004 1A68     		ldr	r2, [r3]	@ float
 255              		.loc 1 61 17 view .LVU47
 256 0006 0649     		ldr	r1, .L16+4
 257 0008 0A60     		str	r2, [r1]	@ float
  62:./Application/Src/application.c ****     vofa.val[1] = leftHandMotor.I;
 258              		.loc 1 62 5 is_stmt 1 view .LVU48
 259              		.loc 1 62 32 is_stmt 0 view .LVU49
 260 000a 5A68     		ldr	r2, [r3, #4]	@ float
 261              		.loc 1 62 17 view .LVU50
 262 000c 4A60     		str	r2, [r1, #4]	@ float
  63:./Application/Src/application.c ****     vofa.val[2] = leftHandMotor.D;
 263              		.loc 1 63 5 is_stmt 1 view .LVU51
 264              		.loc 1 63 32 is_stmt 0 view .LVU52
 265 000e 9B68     		ldr	r3, [r3, #8]	@ float
 266              		.loc 1 63 17 view .LVU53
 267 0010 8B60     		str	r3, [r1, #8]	@ float
  64:./Application/Src/application.c **** 
  65:./Application/Src/application.c ****     // 1. update target position
  66:./Application/Src/application.c ****     // 2. find current position
  67:./Application/Src/application.c ****     // 3. update error
  68:./Application/Src/application.c ****     // 4. pid cycle
  69:./Application/Src/application.c **** 
  70:./Application/Src/application.c **** 
  71:./Application/Src/application.c ****     HAL_UART_Transmit_DMA(&huart2, (uint8_t*)&vofa, sizeof(vofa));
 268              		.loc 1 71 5 is_stmt 1 view .LVU54
 269 0012 2C22     		movs	r2, #44
 270 0014 0348     		ldr	r0, .L16+8
 271              	.LVL23:
 272              		.loc 1 71 5 is_stmt 0 view .LVU55
 273 0016 FFF7FEFF 		bl	HAL_UART_Transmit_DMA
 274              	.LVL24:
  72:./Application/Src/application.c **** }...
 275              		.loc 1 72 1 view .LVU56
 276 001a 08BD     		pop	{r3, pc}
 277              	.L17:
ARM GAS  C:\Users\Xuleo\AppData\Local\Temp\ccEzUv5Y.s 			page 7


 278              		.align	2
 279              	.L16:
 280 001c 00000000 		.word	leftHandMotor
 281 0020 00000000 		.word	vofa
 282 0024 00000000 		.word	huart2
 283              		.cfi_endproc
 284              	.LFE68:
 286              		.global	rightHandMotor
 287              		.section	.data.rightHandMotor,"aw"
 288              		.align	2
 291              	rightHandMotor:
 292 0000 0AD7A33B 		.word	1000593162
 293 0004 00000000 		.word	0
 294 0008 00000000 		.word	0
 295 000c 0AD7233C 		.word	1008981770
 296 0010 00000000 		.space	8
 296      00000000 
 297              		.global	leftHandMotor
 298              		.section	.data.leftHandMotor,"aw"
 299              		.align	2
 302              	leftHandMotor:
 303 0000 0AD7A33B 		.word	1000593162
 304 0004 00000000 		.word	0
 305 0008 00000000 		.word	0
 306 000c 0AD7233C 		.word	1008981770
 307 0010 00000000 		.space	8
 307      00000000 
 308              		.global	VOFA_SEND_BUFFER
 309              		.section	.bss.VOFA_SEND_BUFFER,"aw",%nobits
 310              		.align	2
 313              	VOFA_SEND_BUFFER:
 314 0000 00000000 		.space	64
 314      00000000 
 314      00000000 
 314      00000000 
 314      00000000 
 315              		.global	cp
 316              		.section	.bss.cp,"aw",%nobits
 317              		.align	2
 320              	cp:
 321 0000 00000000 		.space	12
 321      00000000 
 321      00000000 
 322              		.global	ahrs
 323              		.section	.bss.ahrs,"aw",%nobits
 324              		.align	2
 327              	ahrs:
 328 0000 00000000 		.space	56
 328      00000000 
 328      00000000 
 328      00000000 
 328      00000000 
 329              		.global	vofa
 330              		.section	.bss.vofa,"aw",%nobits
 331              		.align	2
 334              	vofa:
 335 0000 00000000 		.space	44
ARM GAS  C:\Users\Xuleo\AppData\Local\Temp\ccEzUv5Y.s 			page 8


 335      00000000 
 335      00000000 
 335      00000000 
 335      00000000 
 336              		.text
 337              	.Letext0:
 338              		.file 2 "Application/Inc/utils.h"
 339              		.file 3 "C:/thirdpartyLibs/arm-gnu-toolchain-15.2/arm-none-eabi/include/machine/_default_types.h"
 340              		.file 4 "C:/thirdpartyLibs/arm-gnu-toolchain-15.2/arm-none-eabi/include/sys/_stdint.h"
 341              		.file 5 "Drivers/CMSIS/Device/ST/STM32F1xx/Include/stm32f103xb.h"
 342              		.file 6 "Drivers/STM32F1xx_HAL_Driver/Inc/stm32f1xx_hal_def.h"
 343              		.file 7 "Drivers/STM32F1xx_HAL_Driver/Inc/stm32f1xx_hal_dma.h"
 344              		.file 8 "Drivers/STM32F1xx_HAL_Driver/Inc/stm32f1xx_hal_uart.h"
 345              		.file 9 "Application/Inc/application.h"
 346              		.file 10 "Core/Inc/usart.h"
 347              		.file 11 "C:/thirdpartyLibs/arm-gnu-toolchain-15.2/arm-none-eabi/include/string.h"
 348              		.file 12 "<built-in>"
ARM GAS  C:\Users\Xuleo\AppData\Local\Temp\ccEzUv5Y.s 			page 9


DEFINED SYMBOLS
                            *ABS*:00000000 application.c
C:\Users\Xuleo\AppData\Local\Temp\ccEzUv5Y.s:19     .text.init:00000000 $t
C:\Users\Xuleo\AppData\Local\Temp\ccEzUv5Y.s:25     .text.init:00000000 init
C:\Users\Xuleo\AppData\Local\Temp\ccEzUv5Y.s:64     .text.init:00000028 $d
C:\Users\Xuleo\AppData\Local\Temp\ccEzUv5Y.s:334    .bss.vofa:00000000 vofa
C:\Users\Xuleo\AppData\Local\Temp\ccEzUv5Y.s:313    .bss.VOFA_SEND_BUFFER:00000000 VOFA_SEND_BUFFER
C:\Users\Xuleo\AppData\Local\Temp\ccEzUv5Y.s:71     .text.smoothVelocity:00000000 $t
C:\Users\Xuleo\AppData\Local\Temp\ccEzUv5Y.s:77     .text.smoothVelocity:00000000 smoothVelocity
C:\Users\Xuleo\AppData\Local\Temp\ccEzUv5Y.s:153    .text.smoothVelocity:0000004c $d
C:\Users\Xuleo\AppData\Local\Temp\ccEzUv5Y.s:320    .bss.cp:00000000 cp
C:\Users\Xuleo\AppData\Local\Temp\ccEzUv5Y.s:158    .text.boostKp:00000000 $t
C:\Users\Xuleo\AppData\Local\Temp\ccEzUv5Y.s:164    .text.boostKp:00000000 boostKp
C:\Users\Xuleo\AppData\Local\Temp\ccEzUv5Y.s:232    .text.controllerUpdate:00000000 $t
C:\Users\Xuleo\AppData\Local\Temp\ccEzUv5Y.s:238    .text.controllerUpdate:00000000 controllerUpdate
C:\Users\Xuleo\AppData\Local\Temp\ccEzUv5Y.s:280    .text.controllerUpdate:0000001c $d
C:\Users\Xuleo\AppData\Local\Temp\ccEzUv5Y.s:302    .data.leftHandMotor:00000000 leftHandMotor
C:\Users\Xuleo\AppData\Local\Temp\ccEzUv5Y.s:291    .data.rightHandMotor:00000000 rightHandMotor
C:\Users\Xuleo\AppData\Local\Temp\ccEzUv5Y.s:288    .data.rightHandMotor:00000000 $d
C:\Users\Xuleo\AppData\Local\Temp\ccEzUv5Y.s:299    .data.leftHandMotor:00000000 $d
C:\Users\Xuleo\AppData\Local\Temp\ccEzUv5Y.s:310    .bss.VOFA_SEND_BUFFER:00000000 $d
C:\Users\Xuleo\AppData\Local\Temp\ccEzUv5Y.s:317    .bss.cp:00000000 $d
C:\Users\Xuleo\AppData\Local\Temp\ccEzUv5Y.s:327    .bss.ahrs:00000000 ahrs
C:\Users\Xuleo\AppData\Local\Temp\ccEzUv5Y.s:324    .bss.ahrs:00000000 $d
C:\Users\Xuleo\AppData\Local\Temp\ccEzUv5Y.s:331    .bss.vofa:00000000 $d

UNDEFINED SYMBOLS
memset
HAL_UARTEx_ReceiveToIdle_DMA
huart2
__aeabi_fsub
__aeabi_fdiv
__aeabi_fmul
__aeabi_fadd
__aeabi_f2iz
__aeabi_i2f
__aeabi_fcmpgt
HAL_UART_Transmit_DMA
