ARM GAS  C:\Users\Xuleo\AppData\Local\Temp\ccOvzyZo.s 			page 1


   1              		.cpu cortex-m33
   2              		.arch armv8-m.main
   3              		.fpu fpv5-sp-d16
   4              		.arch_extension dsp
   5              		.eabi_attribute 27, 1
   6              		.eabi_attribute 28, 1
   7              		.eabi_attribute 20, 1
   8              		.eabi_attribute 21, 1
   9              		.eabi_attribute 23, 3
  10              		.eabi_attribute 24, 1
  11              		.eabi_attribute 25, 1
  12              		.eabi_attribute 26, 1
  13              		.eabi_attribute 30, 1
  14              		.eabi_attribute 34, 1
  15              		.eabi_attribute 18, 4
  16              		.file	"application.c"
  17              		.text
  18              	.Ltext0:
  19              		.cfi_sections	.debug_frame
  20              		.file 1 "./Application/Src/application.c"
  21              		.section	.text.pid_cycle,"ax",%progbits
  22              		.align	1
  23              		.global	pid_cycle
  24              		.syntax unified
  25              		.thumb
  26              		.thumb_func
  28              	pid_cycle:
  29              	.LVL0:
  30              	.LFB359:
   1:./Application/Src/application.c **** #include <application.h>
   2:./Application/Src/application.c **** #include <command.h>
   3:./Application/Src/application.c **** #include <user_timer.h>
   4:./Application/Src/application.c **** 
   5:./Application/Src/application.c **** 
   6:./Application/Src/application.c **** // uart - buffer
   7:./Application/Src/application.c **** uint8_t rx_message_buffer[128] = {0}; // DMA circular buffer
   8:./Application/Src/application.c **** uint8_t rx_message[256] = {0}; // accumulation buffer for complete messages
   9:./Application/Src/application.c **** uint16_t rx_message_index = 0; // current write position in rx_message
  10:./Application/Src/application.c **** int old_buffer_index = 0;
  11:./Application/Src/application.c **** int rx_complete = 0;
  12:./Application/Src/application.c **** int rx_valid = 0;
  13:./Application/Src/application.c **** volatile int uart_binary_mode = 0; // 1 = skip \n detection (binary file transfer)
  14:./Application/Src/application.c **** 
  15:./Application/Src/application.c **** // ram
  16:./Application/Src/application.c **** volatile int redirect_to_ram = 0; // flag to indicate whether the incoming song data should be writ
  17:./Application/Src/application.c **** volatile int ram_rx_started = 0;  // 1 = start sentinel received, accumulating
  18:./Application/Src/application.c **** volatile int ram_rx_complete = 0; // 1 = end sentinel received, ready to parse
  19:./Application/Src/application.c **** volatile uint32_t ram_rx_offset = 0; // row count received during accumulation
  20:./Application/Src/application.c **** __ALIGN_BEGIN float rx_data[5500] __ALIGN_END;
  21:./Application/Src/application.c **** VOFA_REPORT vofa; // transmit via usb
  22:./Application/Src/application.c **** 
  23:./Application/Src/application.c **** // song struct
  24:./Application/Src/application.c **** ChordEvent_t chord_events[MAX_CHORD_EVENTS] = {0}; // store the whole song, max 100 chords
  25:./Application/Src/application.c **** 
  26:./Application/Src/application.c **** // encoder global variables
  27:./Application/Src/application.c **** volatile int32_t encoder_count = 0;
  28:./Application/Src/application.c **** volatile float encoder_old_position_mm = 0.0f; // for speed calculation
ARM GAS  C:\Users\Xuleo\AppData\Local\Temp\ccOvzyZo.s 			page 2


  29:./Application/Src/application.c **** volatile float encoder_speed_mm_s = 0.0f; // current speed in mm/s
  30:./Application/Src/application.c **** int32_t encoder_read_result = 0;
  31:./Application/Src/application.c **** uint32_t encoder_direction = 0;
  32:./Application/Src/application.c **** volatile float current_distance_mm = 0.0f;
  33:./Application/Src/application.c **** volatile float target_position_mm = 0.0f;
  34:./Application/Src/application.c **** 
  35:./Application/Src/application.c **** // other variables
  36:./Application/Src/application.c **** volatile int32_t counter = 0;
  37:./Application/Src/application.c **** volatile int stop_playing = 0; // flag to indicate whether to stop playing the song, set by :q comm
  38:./Application/Src/application.c **** 
  39:./Application/Src/application.c **** // motor motion control parameters
  40:./Application/Src/application.c **** int left_motor_arrived = 0; // flag when enter the motor deadband 
  41:./Application/Src/application.c **** int right_motor_arrived = 0; // flag when enter the motor deadband
  42:./Application/Src/application.c **** 
  43:./Application/Src/application.c **** // homing flags
  44:./Application/Src/application.c **** volatile uint8_t home_flag_left = 0;
  45:./Application/Src/application.c **** volatile uint8_t home_flag_right = 0;
  46:./Application/Src/application.c **** 
  47:./Application/Src/application.c **** volatile uint8_t pwm_mode = PWM_STOP; // 1 = stop, 0 = PID control, 2-5 for homing states
  48:./Application/Src/application.c **** volatile uint8_t homing = 0;
  49:./Application/Src/application.c **** 
  50:./Application/Src/application.c **** // PID parameters
  51:./Application/Src/application.c **** PID_t left_motor = {
  52:./Application/Src/application.c ****     .Kp = 0.085f,
  53:./Application/Src/application.c ****     .Ki = 0.015f,
  54:./Application/Src/application.c ****     .Kd = 3.2f, //0.001
  55:./Application/Src/application.c ****     .encoder_cnt = 0, // 0.5
  56:./Application/Src/application.c ****     .current_pos = 0,
  57:./Application/Src/application.c ****     .output_pwm = 500,
  58:./Application/Src/application.c ****     .integral_max = 20.50f
  59:./Application/Src/application.c **** };
  60:./Application/Src/application.c **** 
  61:./Application/Src/application.c **** PID_t right_motor = {
  62:./Application/Src/application.c ****     .Kp = 0.085f,
  63:./Application/Src/application.c ****     .Ki = 0.015f,
  64:./Application/Src/application.c ****     .Kd = 3.2f, //0.001
  65:./Application/Src/application.c ****     .encoder_cnt = 0, // 0.5
  66:./Application/Src/application.c ****     .current_pos = 0,
  67:./Application/Src/application.c ****     .output_pwm = 500,
  68:./Application/Src/application.c ****     .integral_max = 20.50f
  69:./Application/Src/application.c **** };
  70:./Application/Src/application.c **** 
  71:./Application/Src/application.c **** void pid_cycle(PID_t* target_system){
  31              		.loc 1 71 37 view -0
  32              		.cfi_startproc
  33              		@ args = 0, pretend = 0, frame = 0
  34              		@ frame_needed = 0, uses_anonymous_args = 0
  35              		@ link register save eliminated.
  72:./Application/Src/application.c **** 
  73:./Application/Src/application.c ****     target_system->current_error = target_system->target_pos - target_system->current_pos;
  36              		.loc 1 73 5 view .LVU1
  37              		.loc 1 73 49 is_stmt 0 view .LVU2
  38 0000 90ED057A 		vldr.32	s14, [r0, #20]
  39              		.loc 1 73 77 view .LVU3
  40 0004 D0ED067A 		vldr.32	s15, [r0, #24]
  41              		.loc 1 73 62 view .LVU4
  42 0008 37EE677A 		vsub.f32	s14, s14, s15
ARM GAS  C:\Users\Xuleo\AppData\Local\Temp\ccOvzyZo.s 			page 3


  43              		.loc 1 73 34 view .LVU5
  44 000c 80ED087A 		vstr.32	s14, [r0, #32]
  74:./Application/Src/application.c **** 
  75:./Application/Src/application.c ****     float derivative = target_system->current_error - target_system->last_error;
  45              		.loc 1 75 5 is_stmt 1 view .LVU6
  46              		.loc 1 75 68 is_stmt 0 view .LVU7
  47 0010 90ED096A 		vldr.32	s12, [r0, #36]
  48              		.loc 1 75 11 view .LVU8
  49 0014 37EE466A 		vsub.f32	s12, s14, s12
  50              	.LVL1:
  76:./Application/Src/application.c ****     
  77:./Application/Src/application.c ****     if(target_system->current_error < 1.5f && target_system->current_error > -1.5f){
  51              		.loc 1 77 5 is_stmt 1 view .LVU9
  52              		.loc 1 77 7 is_stmt 0 view .LVU10
  53 0018 F7EE087A 		vmov.f32	s15, #1.5e+0
  54 001c B4EEE77A 		vcmpe.f32	s14, s15
  55 0020 F1EE10FA 		vmrs	APSR_nzcv, FPSCR
  56 0024 0DD5     		bpl	.L2
  57              		.loc 1 77 44 discriminator 1 view .LVU11
  58 0026 FFEE087A 		vmov.f32	s15, #-1.5e+0
  59 002a B4EEE77A 		vcmpe.f32	s14, s15
  60 002e F1EE10FA 		vmrs	APSR_nzcv, FPSCR
  61 0032 06DD     		ble	.L2
  78:./Application/Src/application.c ****         target_system->integral += target_system->current_error;
  62              		.loc 1 78 9 is_stmt 1 view .LVU12
  63              		.loc 1 78 22 is_stmt 0 view .LVU13
  64 0034 D0ED077A 		vldr.32	s15, [r0, #28]
  65              		.loc 1 78 33 view .LVU14
  66 0038 77EE277A 		vadd.f32	s15, s14, s15
  67 003c C0ED077A 		vstr.32	s15, [r0, #28]
  68 0040 01E0     		b	.L5
  69              	.L2:
  79:./Application/Src/application.c ****     }
  80:./Application/Src/application.c ****     else{
  81:./Application/Src/application.c ****         target_system->integral = 0;
  70              		.loc 1 81 9 is_stmt 1 view .LVU15
  71              		.loc 1 81 33 is_stmt 0 view .LVU16
  72 0042 0023     		movs	r3, #0
  73 0044 C361     		str	r3, [r0, #28]	@ float
  74              	.L5:
  82:./Application/Src/application.c ****     }
  83:./Application/Src/application.c ****     // bound the integral
  84:./Application/Src/application.c ****     if (target_system->integral > target_system->integral_max){
  75              		.loc 1 84 5 is_stmt 1 view .LVU17
  76              		.loc 1 84 22 is_stmt 0 view .LVU18
  77 0046 D0ED076A 		vldr.32	s13, [r0, #28]
  78              		.loc 1 84 48 view .LVU19
  79 004a D0ED037A 		vldr.32	s15, [r0, #12]
  80              		.loc 1 84 8 view .LVU20
  81 004e F4EEE76A 		vcmpe.f32	s13, s15
  82 0052 F1EE10FA 		vmrs	APSR_nzcv, FPSCR
  83 0056 42DD     		ble	.L31
  85:./Application/Src/application.c ****         target_system->integral = target_system->integral_max;
  84              		.loc 1 85 9 is_stmt 1 view .LVU21
  85              		.loc 1 85 33 is_stmt 0 view .LVU22
  86 0058 C0ED077A 		vstr.32	s15, [r0, #28]
  87              	.L8:
ARM GAS  C:\Users\Xuleo\AppData\Local\Temp\ccOvzyZo.s 			page 4


  86:./Application/Src/application.c ****     } else if (target_system->integral < -target_system->integral_max) {
  87:./Application/Src/application.c ****         target_system->integral = -target_system->integral_max;
  88:./Application/Src/application.c ****     }
  89:./Application/Src/application.c ****     float voltage = target_system->Kp * target_system->current_error + target_system->Ki * target_s
  88              		.loc 1 89 5 is_stmt 1 view .LVU23
  89              		.loc 1 89 34 is_stmt 0 view .LVU24
  90 005c D0ED006A 		vldr.32	s13, [r0]
  91              		.loc 1 89 39 view .LVU25
  92 0060 67EE266A 		vmul.f32	s13, s14, s13
  93              		.loc 1 89 85 view .LVU26
  94 0064 D0ED017A 		vldr.32	s15, [r0, #4]
  95              		.loc 1 89 105 view .LVU27
  96 0068 D0ED075A 		vldr.32	s11, [r0, #28]
  97              		.loc 1 89 90 view .LVU28
  98 006c 67EEA57A 		vmul.f32	s15, s15, s11
  99              		.loc 1 89 70 view .LVU29
 100 0070 76EEA76A 		vadd.f32	s13, s13, s15
 101              		.loc 1 89 131 view .LVU30
 102 0074 D0ED027A 		vldr.32	s15, [r0, #8]
 103              		.loc 1 89 136 view .LVU31
 104 0078 67EE867A 		vmul.f32	s15, s15, s12
 105              		.loc 1 89 11 view .LVU32
 106 007c 76EEA76A 		vadd.f32	s13, s13, s15
 107              	.LVL2:
  90:./Application/Src/application.c ****     target_system->last_error = target_system->current_error;
 108              		.loc 1 90 5 is_stmt 1 view .LVU33
 109              		.loc 1 90 31 is_stmt 0 view .LVU34
 110 0080 80ED097A 		vstr.32	s14, [r0, #36]
  91:./Application/Src/application.c **** 
  92:./Application/Src/application.c ****     int32_t pwm_temp = 500 * (voltage/12.0f + 1);
 111              		.loc 1 92 5 is_stmt 1 view .LVU35
 112              		.loc 1 92 38 is_stmt 0 view .LVU36
 113 0084 B2EE086A 		vmov.f32	s12, #1.2e+1
 114              	.LVL3:
 115              		.loc 1 92 38 view .LVU37
 116 0088 C6EE867A 		vdiv.f32	s15, s13, s12
 117              		.loc 1 92 45 view .LVU38
 118 008c F7EE006A 		vmov.f32	s13, #1.0e+0
 119              	.LVL4:
 120              		.loc 1 92 45 view .LVU39
 121 0090 77EEA67A 		vadd.f32	s15, s15, s13
 122              		.loc 1 92 28 view .LVU40
 123 0094 DFED306A 		vldr.32	s13, .L36
 124 0098 67EEA67A 		vmul.f32	s15, s15, s13
 125              		.loc 1 92 13 view .LVU41
 126 009c FDEEE77A 		vcvt.s32.f32	s15, s15
 127 00a0 17EE903A 		vmov	r3, s15	@ int
 128              	.LVL5:
  93:./Application/Src/application.c **** 
  94:./Application/Src/application.c ****     if (target_system->current_error > -ERROR_DEADBAND && target_system->current_error < ERROR_DEAD
 129              		.loc 1 94 5 is_stmt 1 view .LVU42
 130              		.loc 1 94 8 is_stmt 0 view .LVU43
 131 00a4 DFED2D7A 		vldr.32	s15, .L36+4
 132 00a8 B4EEE77A 		vcmpe.f32	s14, s15
 133 00ac F1EE10FA 		vmrs	APSR_nzcv, FPSCR
 134 00b0 2BDD     		ble	.L10
 135              		.loc 1 94 56 discriminator 1 view .LVU44
ARM GAS  C:\Users\Xuleo\AppData\Local\Temp\ccOvzyZo.s 			page 5


 136 00b2 DFED2B7A 		vldr.32	s15, .L36+8
 137 00b6 B4EEE77A 		vcmpe.f32	s14, s15
 138 00ba F1EE10FA 		vmrs	APSR_nzcv, FPSCR
 139 00be 24D5     		bpl	.L10
  95:./Application/Src/application.c ****         pwm_temp = 500;
 140              		.loc 1 95 9 is_stmt 1 view .LVU45
 141              	.LVL6:
  96:./Application/Src/application.c ****         target_system->integral *= 0.95f;  // reset integral to prevent windup
 142              		.loc 1 96 9 view .LVU46
 143              		.loc 1 96 33 is_stmt 0 view .LVU47
 144 00c0 DFED287A 		vldr.32	s15, .L36+12
 145 00c4 65EEA75A 		vmul.f32	s11, s11, s15
 146              		.loc 1 96 33 view .LVU48
 147 00c8 C0ED075A 		vstr.32	s11, [r0, #28]
  97:./Application/Src/application.c ****         if (target_system == &left_motor) {
 148              		.loc 1 97 9 is_stmt 1 view .LVU49
 149              		.loc 1 97 12 is_stmt 0 view .LVU50
 150 00cc 264B     		ldr	r3, .L36+16
 151 00ce 9842     		cmp	r0, r3
 152 00d0 0FD0     		beq	.L32
  98:./Application/Src/application.c ****             left_motor_arrived = 1;
  99:./Application/Src/application.c ****         } else if (target_system == &right_motor) {
 153              		.loc 1 99 16 is_stmt 1 view .LVU51
 154              		.loc 1 99 19 is_stmt 0 view .LVU52
 155 00d2 264B     		ldr	r3, .L36+20
 156 00d4 9842     		cmp	r0, r3
 157 00d6 12D0     		beq	.L33
  95:./Application/Src/application.c ****         target_system->integral *= 0.95f;  // reset integral to prevent windup
 158              		.loc 1 95 18 view .LVU53
 159 00d8 4FF4FA73 		mov	r3, #500
 160 00dc 1EE0     		b	.L14
 161              	.LVL7:
 162              	.L31:
  86:./Application/Src/application.c ****         target_system->integral = -target_system->integral_max;
 163              		.loc 1 86 12 is_stmt 1 view .LVU54
  86:./Application/Src/application.c ****         target_system->integral = -target_system->integral_max;
 164              		.loc 1 86 42 is_stmt 0 view .LVU55
 165 00de F1EE677A 		vneg.f32	s15, s15
  86:./Application/Src/application.c ****         target_system->integral = -target_system->integral_max;
 166              		.loc 1 86 15 view .LVU56
 167 00e2 F4EEE76A 		vcmpe.f32	s13, s15
 168 00e6 F1EE10FA 		vmrs	APSR_nzcv, FPSCR
 169 00ea B7D5     		bpl	.L8
  87:./Application/Src/application.c ****     }
 170              		.loc 1 87 9 is_stmt 1 view .LVU57
  87:./Application/Src/application.c ****     }
 171              		.loc 1 87 33 is_stmt 0 view .LVU58
 172 00ec C0ED077A 		vstr.32	s15, [r0, #28]
 173 00f0 B4E7     		b	.L8
 174              	.LVL8:
 175              	.L32:
  98:./Application/Src/application.c ****         } else if (target_system == &right_motor) {
 176              		.loc 1 98 13 is_stmt 1 view .LVU59
  98:./Application/Src/application.c ****         } else if (target_system == &right_motor) {
 177              		.loc 1 98 32 is_stmt 0 view .LVU60
 178 00f2 1F4B     		ldr	r3, .L36+24
 179 00f4 0122     		movs	r2, #1
ARM GAS  C:\Users\Xuleo\AppData\Local\Temp\ccOvzyZo.s 			page 6


 180 00f6 1A60     		str	r2, [r3]
 100:./Application/Src/application.c ****             right_motor_arrived = 1;
 101:./Application/Src/application.c ****         }
 102:./Application/Src/application.c ****     } else {
 103:./Application/Src/application.c ****         if (target_system == &left_motor) {
 104:./Application/Src/application.c ****             left_motor_arrived = 0;
 105:./Application/Src/application.c ****         } else if (target_system == &right_motor) {
 106:./Application/Src/application.c ****             right_motor_arrived = 0;
 107:./Application/Src/application.c ****         }
 108:./Application/Src/application.c ****     }
 109:./Application/Src/application.c **** 
 110:./Application/Src/application.c ****     if (pwm_temp > 1000) pwm_temp = 1000;
 181              		.loc 1 110 5 is_stmt 1 view .LVU61
  95:./Application/Src/application.c ****         target_system->integral *= 0.95f;  // reset integral to prevent windup
 182              		.loc 1 95 18 is_stmt 0 view .LVU62
 183 00f8 4FF4FA73 		mov	r3, #500
 184 00fc 0EE0     		b	.L14
 185              	.L33:
 100:./Application/Src/application.c ****             right_motor_arrived = 1;
 186              		.loc 1 100 13 is_stmt 1 view .LVU63
 100:./Application/Src/application.c ****             right_motor_arrived = 1;
 187              		.loc 1 100 33 is_stmt 0 view .LVU64
 188 00fe 1D4B     		ldr	r3, .L36+28
 189 0100 0122     		movs	r2, #1
 190 0102 1A60     		str	r2, [r3]
 191              		.loc 1 110 5 is_stmt 1 view .LVU65
  95:./Application/Src/application.c ****         target_system->integral *= 0.95f;  // reset integral to prevent windup
 192              		.loc 1 95 18 is_stmt 0 view .LVU66
 193 0104 4FF4FA73 		mov	r3, #500
 194 0108 08E0     		b	.L14
 195              	.LVL9:
 196              	.L10:
 103:./Application/Src/application.c ****             left_motor_arrived = 0;
 197              		.loc 1 103 9 is_stmt 1 view .LVU67
 103:./Application/Src/application.c ****             left_motor_arrived = 0;
 198              		.loc 1 103 12 is_stmt 0 view .LVU68
 199 010a 174A     		ldr	r2, .L36+16
 200 010c 9042     		cmp	r0, r2
 201 010e 09D0     		beq	.L34
 105:./Application/Src/application.c ****             right_motor_arrived = 0;
 202              		.loc 1 105 16 is_stmt 1 view .LVU69
 105:./Application/Src/application.c ****             right_motor_arrived = 0;
 203              		.loc 1 105 19 is_stmt 0 view .LVU70
 204 0110 164A     		ldr	r2, .L36+20
 205 0112 9042     		cmp	r0, r2
 206 0114 0AD0     		beq	.L35
 207              	.L16:
 208              		.loc 1 110 5 is_stmt 1 view .LVU71
 209              		.loc 1 110 8 is_stmt 0 view .LVU72
 210 0116 B3F57A7F 		cmp	r3, #1000
 211 011a 0BDC     		bgt	.L21
 212              	.LVL10:
 213              	.L14:
 111:./Application/Src/application.c ****     if (pwm_temp < 0)   pwm_temp = 0;
 214              		.loc 1 111 5 is_stmt 1 view .LVU73
 215              		.loc 1 111 8 is_stmt 0 view .LVU74
 216 011c 002B     		cmp	r3, #0
ARM GAS  C:\Users\Xuleo\AppData\Local\Temp\ccOvzyZo.s 			page 7


 217 011e 0BDA     		bge	.L17
 218              		.loc 1 111 34 discriminator 1 view .LVU75
 219 0120 0023     		movs	r3, #0
 220              	.LVL11:
 221              		.loc 1 111 34 discriminator 1 view .LVU76
 222 0122 0EE0     		b	.L18
 223              	.LVL12:
 224              	.L34:
 104:./Application/Src/application.c ****         } else if (target_system == &right_motor) {
 225              		.loc 1 104 13 is_stmt 1 view .LVU77
 104:./Application/Src/application.c ****         } else if (target_system == &right_motor) {
 226              		.loc 1 104 32 is_stmt 0 view .LVU78
 227 0124 124A     		ldr	r2, .L36+24
 228 0126 0021     		movs	r1, #0
 229 0128 1160     		str	r1, [r2]
 104:./Application/Src/application.c ****         } else if (target_system == &right_motor) {
 230              		.loc 1 104 32 view .LVU79
 231 012a F4E7     		b	.L16
 232              	.L35:
 106:./Application/Src/application.c ****         }
 233              		.loc 1 106 13 is_stmt 1 view .LVU80
 106:./Application/Src/application.c ****         }
 234              		.loc 1 106 33 is_stmt 0 view .LVU81
 235 012c 114A     		ldr	r2, .L36+28
 236 012e 0021     		movs	r1, #0
 237 0130 1160     		str	r1, [r2]
 106:./Application/Src/application.c ****         }
 238              		.loc 1 106 33 view .LVU82
 239 0132 F0E7     		b	.L16
 240              	.L21:
 110:./Application/Src/application.c ****     if (pwm_temp < 0)   pwm_temp = 0;
 241              		.loc 1 110 35 discriminator 1 view .LVU83
 242 0134 4FF47A73 		mov	r3, #1000
 243              	.LVL13:
 244              	.L17:
 112:./Application/Src/application.c **** 
 113:./Application/Src/application.c ****     if (pwm_temp < 499 && pwm_temp > 225) pwm_temp = 225;
 245              		.loc 1 113 5 is_stmt 1 view .LVU84
 246              		.loc 1 113 24 is_stmt 0 view .LVU85
 247 0138 A3F1E202 		sub	r2, r3, #226
 248              		.loc 1 113 8 view .LVU86
 249 013c B2F5887F 		cmp	r2, #272
 250 0140 07D9     		bls	.L23
 251              	.LVL14:
 252              	.L18:
 114:./Application/Src/application.c ****     if (pwm_temp > 501 && pwm_temp < 775) pwm_temp = 775;
 253              		.loc 1 114 5 is_stmt 1 view .LVU87
 254              		.loc 1 114 24 is_stmt 0 view .LVU88
 255 0142 A3F5FB72 		sub	r2, r3, #502
 256              		.loc 1 114 8 view .LVU89
 257 0146 B2F5887F 		cmp	r2, #272
 258 014a 03D8     		bhi	.L19
 259              		.loc 1 114 52 discriminator 1 view .LVU90
 260 014c 40F20733 		movw	r3, #775
 261              	.LVL15:
 262              		.loc 1 114 52 discriminator 1 view .LVU91
 263 0150 00E0     		b	.L19
ARM GAS  C:\Users\Xuleo\AppData\Local\Temp\ccOvzyZo.s 			page 8


 264              	.LVL16:
 265              	.L23:
 113:./Application/Src/application.c ****     if (pwm_temp > 501 && pwm_temp < 775) pwm_temp = 775;
 266              		.loc 1 113 52 discriminator 1 view .LVU92
 267 0152 E123     		movs	r3, #225
 268              	.LVL17:
 269              	.L19:
 115:./Application/Src/application.c ****     target_system->output_pwm = pwm_temp;
 270              		.loc 1 115 5 is_stmt 1 view .LVU93
 271              		.loc 1 115 31 is_stmt 0 view .LVU94
 272 0154 0385     		strh	r3, [r0, #40]	@ movhi
 116:./Application/Src/application.c ****     
 117:./Application/Src/application.c ****     return;
 273              		.loc 1 117 5 is_stmt 1 view .LVU95
 118:./Application/Src/application.c **** }
 274              		.loc 1 118 1 is_stmt 0 view .LVU96
 275 0156 7047     		bx	lr
 276              	.L37:
 277              		.align	2
 278              	.L36:
 279 0158 0000FA43 		.word	1140457472
 280 015c 9A9999BF 		.word	-1080452710
 281 0160 9A99993F 		.word	1067030938
 282 0164 3333733F 		.word	1064514355
 283 0168 00000000 		.word	left_motor
 284 016c 00000000 		.word	right_motor
 285 0170 00000000 		.word	left_motor_arrived
 286 0174 00000000 		.word	right_motor_arrived
 287              		.cfi_endproc
 288              	.LFE359:
 290              		.section	.text.homing_procedure,"ax",%progbits
 291              		.align	1
 292              		.global	homing_procedure
 293              		.syntax unified
 294              		.thumb
 295              		.thumb_func
 297              	homing_procedure:
 298              	.LFB360:
 119:./Application/Src/application.c **** 
 120:./Application/Src/application.c **** 
 121:./Application/Src/application.c **** void homing_procedure(void) {
 299              		.loc 1 121 29 is_stmt 1 view -0
 300              		.cfi_startproc
 301              		@ args = 0, pretend = 0, frame = 0
 302              		@ frame_needed = 0, uses_anonymous_args = 0
 303 0000 10B5     		push	{r4, lr}
 304              	.LCFI0:
 305              		.cfi_def_cfa_offset 8
 306              		.cfi_offset 4, -8
 307              		.cfi_offset 14, -4
 122:./Application/Src/application.c **** 
 123:./Application/Src/application.c ****     homing = 1;
 308              		.loc 1 123 5 view .LVU98
 309              		.loc 1 123 12 is_stmt 0 view .LVU99
 310 0002 344B     		ldr	r3, .L48
 311 0004 0122     		movs	r2, #1
 312 0006 1A70     		strb	r2, [r3]
ARM GAS  C:\Users\Xuleo\AppData\Local\Temp\ccOvzyZo.s 			page 9


 124:./Application/Src/application.c **** 
 125:./Application/Src/application.c ****     // do left hand first
 126:./Application/Src/application.c ****     if(HAL_GPIO_ReadPin(GPIOB, GPIO_PIN_5) == 1){
 313              		.loc 1 126 5 is_stmt 1 view .LVU100
 314              		.loc 1 126 8 is_stmt 0 view .LVU101
 315 0008 2021     		movs	r1, #32
 316 000a 3348     		ldr	r0, .L48+4
 317 000c FFF7FEFF 		bl	HAL_GPIO_ReadPin
 318              	.LVL18:
 319              		.loc 1 126 7 discriminator 1 view .LVU102
 320 0010 0128     		cmp	r0, #1
 321 0012 27D0     		beq	.L46
 127:./Application/Src/application.c ****         home_flag_left = 0;
 128:./Application/Src/application.c ****         pwm_mode = PWM_HOMING_LEFT_START;
 129:./Application/Src/application.c ****         wait_ms(200);
 130:./Application/Src/application.c ****         pwm_mode = PWM_HOMING_LEFT;
 131:./Application/Src/application.c ****         while(home_flag_left == 0);
 132:./Application/Src/application.c ****         //
 133:./Application/Src/application.c ****         pwm_mode = PWM_STOP;
 134:./Application/Src/application.c **** 
 135:./Application/Src/application.c ****         left_motor.encoder_cnt = 0; 
 136:./Application/Src/application.c ****         left_motor.current_pos = 0.0f;
 137:./Application/Src/application.c ****         left_motor.target_pos = 0.0f;
 138:./Application/Src/application.c ****         __HAL_TIM_SET_COUNTER(&htim3, 0);
 139:./Application/Src/application.c ****     }
 140:./Application/Src/application.c **** 
 141:./Application/Src/application.c ****     else{
 142:./Application/Src/application.c ****         left_motor.encoder_cnt = 0; 
 322              		.loc 1 142 9 is_stmt 1 view .LVU103
 323              		.loc 1 142 32 is_stmt 0 view .LVU104
 324 0014 314B     		ldr	r3, .L48+8
 325 0016 0022     		movs	r2, #0
 326 0018 1A61     		str	r2, [r3, #16]
 143:./Application/Src/application.c ****         left_motor.current_pos = 0.0f;
 327              		.loc 1 143 9 is_stmt 1 view .LVU105
 328              		.loc 1 143 32 is_stmt 0 view .LVU106
 329 001a 0021     		movs	r1, #0
 330 001c 9961     		str	r1, [r3, #24]	@ float
 144:./Application/Src/application.c ****         left_motor.target_pos = 0.0f;
 331              		.loc 1 144 9 is_stmt 1 view .LVU107
 332              		.loc 1 144 31 is_stmt 0 view .LVU108
 333 001e 5961     		str	r1, [r3, #20]	@ float
 145:./Application/Src/application.c ****         __HAL_TIM_SET_COUNTER(&htim3, 0);
 334              		.loc 1 145 9 is_stmt 1 view .LVU109
 335 0020 2F4B     		ldr	r3, .L48+12
 336 0022 1B68     		ldr	r3, [r3]
 337 0024 5A62     		str	r2, [r3, #36]
 338              	.L41:
 146:./Application/Src/application.c ****     }
 147:./Application/Src/application.c **** 
 148:./Application/Src/application.c ****     // do right hand later
 149:./Application/Src/application.c ****     if(HAL_GPIO_ReadPin(GPIOB, GPIO_PIN_6) == 1){
 339              		.loc 1 149 5 view .LVU110
 340              		.loc 1 149 8 is_stmt 0 view .LVU111
 341 0026 4021     		movs	r1, #64
 342 0028 2B48     		ldr	r0, .L48+4
 343 002a FFF7FEFF 		bl	HAL_GPIO_ReadPin
ARM GAS  C:\Users\Xuleo\AppData\Local\Temp\ccOvzyZo.s 			page 10


 344              	.LVL19:
 345              		.loc 1 149 7 discriminator 1 view .LVU112
 346 002e 0128     		cmp	r0, #1
 347 0030 34D0     		beq	.L47
 150:./Application/Src/application.c ****         home_flag_right = 0;
 151:./Application/Src/application.c ****         pwm_mode = PWM_HOMING_RIGHT_START;
 152:./Application/Src/application.c ****         wait_ms(200);
 153:./Application/Src/application.c ****         pwm_mode = PWM_HOMING_RIGHT;
 154:./Application/Src/application.c ****         // wait for the flag
 155:./Application/Src/application.c ****         while(home_flag_right == 0);
 156:./Application/Src/application.c ****         pwm_mode = PWM_STOP;
 157:./Application/Src/application.c **** 
 158:./Application/Src/application.c ****         right_motor.encoder_cnt = 0;
 159:./Application/Src/application.c ****         right_motor.current_pos = 0.0f;
 160:./Application/Src/application.c ****         right_motor.target_pos = 0.0f;
 161:./Application/Src/application.c ****         __HAL_TIM_SET_COUNTER(&htim4, 0);
 162:./Application/Src/application.c ****     }
 163:./Application/Src/application.c **** 
 164:./Application/Src/application.c ****     else{
 165:./Application/Src/application.c ****         right_motor.encoder_cnt = 0;
 348              		.loc 1 165 9 is_stmt 1 view .LVU113
 349              		.loc 1 165 33 is_stmt 0 view .LVU114
 350 0032 2C4B     		ldr	r3, .L48+16
 351 0034 0022     		movs	r2, #0
 352 0036 1A61     		str	r2, [r3, #16]
 166:./Application/Src/application.c ****         right_motor.current_pos = 0.0f;
 353              		.loc 1 166 9 is_stmt 1 view .LVU115
 354              		.loc 1 166 33 is_stmt 0 view .LVU116
 355 0038 0021     		movs	r1, #0
 356 003a 9961     		str	r1, [r3, #24]	@ float
 167:./Application/Src/application.c ****         right_motor.target_pos = 0.0f;
 357              		.loc 1 167 9 is_stmt 1 view .LVU117
 358              		.loc 1 167 32 is_stmt 0 view .LVU118
 359 003c 5961     		str	r1, [r3, #20]	@ float
 168:./Application/Src/application.c ****         __HAL_TIM_SET_COUNTER(&htim4, 0);
 360              		.loc 1 168 9 is_stmt 1 view .LVU119
 361 003e 2A4B     		ldr	r3, .L48+20
 362 0040 1B68     		ldr	r3, [r3]
 363 0042 5A62     		str	r2, [r3, #36]
 364              	.L44:
 169:./Application/Src/application.c ****     }
 170:./Application/Src/application.c **** 
 171:./Application/Src/application.c ****     home_flag_left = 0;
 365              		.loc 1 171 5 view .LVU120
 366              		.loc 1 171 20 is_stmt 0 view .LVU121
 367 0044 0023     		movs	r3, #0
 368 0046 294A     		ldr	r2, .L48+24
 369 0048 1370     		strb	r3, [r2]
 172:./Application/Src/application.c ****     home_flag_right = 0;
 370              		.loc 1 172 5 is_stmt 1 view .LVU122
 371              		.loc 1 172 21 is_stmt 0 view .LVU123
 372 004a 294A     		ldr	r2, .L48+28
 373 004c 1370     		strb	r3, [r2]
 173:./Application/Src/application.c ****     homing = 0;
 374              		.loc 1 173 5 is_stmt 1 view .LVU124
 375              		.loc 1 173 12 is_stmt 0 view .LVU125
 376 004e 214A     		ldr	r2, .L48
ARM GAS  C:\Users\Xuleo\AppData\Local\Temp\ccOvzyZo.s 			page 11


 377 0050 1370     		strb	r3, [r2]
 174:./Application/Src/application.c **** 
 175:./Application/Src/application.c ****     pwm_mode = PWM_PID; // switch to PID control after homing
 378              		.loc 1 175 5 is_stmt 1 view .LVU126
 379              		.loc 1 175 14 is_stmt 0 view .LVU127
 380 0052 284C     		ldr	r4, .L48+32
 381 0054 2370     		strb	r3, [r4]
 176:./Application/Src/application.c ****     wait_ms(1000);
 382              		.loc 1 176 5 is_stmt 1 view .LVU128
 383 0056 4FF47A70 		mov	r0, #1000
 384 005a FFF7FEFF 		bl	wait_ms
 385              	.LVL20:
 177:./Application/Src/application.c ****     pwm_mode = PWM_STOP; // stop motors after homing is done
 386              		.loc 1 177 5 view .LVU129
 387              		.loc 1 177 14 is_stmt 0 view .LVU130
 388 005e 0123     		movs	r3, #1
 389 0060 2370     		strb	r3, [r4]
 178:./Application/Src/application.c **** }
 390              		.loc 1 178 1 view .LVU131
 391 0062 10BD     		pop	{r4, pc}
 392              	.L46:
 127:./Application/Src/application.c ****         pwm_mode = PWM_HOMING_LEFT_START;
 393              		.loc 1 127 9 is_stmt 1 view .LVU132
 127:./Application/Src/application.c ****         pwm_mode = PWM_HOMING_LEFT_START;
 394              		.loc 1 127 24 is_stmt 0 view .LVU133
 395 0064 214B     		ldr	r3, .L48+24
 396 0066 0022     		movs	r2, #0
 397 0068 1A70     		strb	r2, [r3]
 128:./Application/Src/application.c ****         wait_ms(200);
 398              		.loc 1 128 9 is_stmt 1 view .LVU134
 128:./Application/Src/application.c ****         wait_ms(200);
 399              		.loc 1 128 18 is_stmt 0 view .LVU135
 400 006a 224C     		ldr	r4, .L48+32
 401 006c 0223     		movs	r3, #2
 402 006e 2370     		strb	r3, [r4]
 129:./Application/Src/application.c ****         pwm_mode = PWM_HOMING_LEFT;
 403              		.loc 1 129 9 is_stmt 1 view .LVU136
 404 0070 C820     		movs	r0, #200
 405 0072 FFF7FEFF 		bl	wait_ms
 406              	.LVL21:
 130:./Application/Src/application.c ****         while(home_flag_left == 0);
 407              		.loc 1 130 9 view .LVU137
 130:./Application/Src/application.c ****         while(home_flag_left == 0);
 408              		.loc 1 130 18 is_stmt 0 view .LVU138
 409 0076 0323     		movs	r3, #3
 410 0078 2370     		strb	r3, [r4]
 131:./Application/Src/application.c ****         //
 411              		.loc 1 131 9 is_stmt 1 view .LVU139
 412              	.L40:
 131:./Application/Src/application.c ****         //
 413              		.loc 1 131 30 discriminator 1 view .LVU140
 414 007a 1C4B     		ldr	r3, .L48+24
 415 007c 1B78     		ldrb	r3, [r3]	@ zero_extendqisi2
 416 007e 002B     		cmp	r3, #0
 417 0080 FBD0     		beq	.L40
 133:./Application/Src/application.c **** 
 418              		.loc 1 133 9 view .LVU141
ARM GAS  C:\Users\Xuleo\AppData\Local\Temp\ccOvzyZo.s 			page 12


 133:./Application/Src/application.c **** 
 419              		.loc 1 133 18 is_stmt 0 view .LVU142
 420 0082 1C4B     		ldr	r3, .L48+32
 421 0084 0122     		movs	r2, #1
 422 0086 1A70     		strb	r2, [r3]
 135:./Application/Src/application.c ****         left_motor.current_pos = 0.0f;
 423              		.loc 1 135 9 is_stmt 1 view .LVU143
 135:./Application/Src/application.c ****         left_motor.current_pos = 0.0f;
 424              		.loc 1 135 32 is_stmt 0 view .LVU144
 425 0088 144B     		ldr	r3, .L48+8
 426 008a 0022     		movs	r2, #0
 427 008c 1A61     		str	r2, [r3, #16]
 136:./Application/Src/application.c ****         left_motor.target_pos = 0.0f;
 428              		.loc 1 136 9 is_stmt 1 view .LVU145
 136:./Application/Src/application.c ****         left_motor.target_pos = 0.0f;
 429              		.loc 1 136 32 is_stmt 0 view .LVU146
 430 008e 0021     		movs	r1, #0
 431 0090 9961     		str	r1, [r3, #24]	@ float
 137:./Application/Src/application.c ****         __HAL_TIM_SET_COUNTER(&htim3, 0);
 432              		.loc 1 137 9 is_stmt 1 view .LVU147
 137:./Application/Src/application.c ****         __HAL_TIM_SET_COUNTER(&htim3, 0);
 433              		.loc 1 137 31 is_stmt 0 view .LVU148
 434 0092 5961     		str	r1, [r3, #20]	@ float
 138:./Application/Src/application.c ****     }
 435              		.loc 1 138 9 is_stmt 1 view .LVU149
 436 0094 124B     		ldr	r3, .L48+12
 437 0096 1B68     		ldr	r3, [r3]
 438 0098 5A62     		str	r2, [r3, #36]
 439 009a C4E7     		b	.L41
 440              	.L47:
 150:./Application/Src/application.c ****         pwm_mode = PWM_HOMING_RIGHT_START;
 441              		.loc 1 150 9 view .LVU150
 150:./Application/Src/application.c ****         pwm_mode = PWM_HOMING_RIGHT_START;
 442              		.loc 1 150 25 is_stmt 0 view .LVU151
 443 009c 144B     		ldr	r3, .L48+28
 444 009e 0022     		movs	r2, #0
 445 00a0 1A70     		strb	r2, [r3]
 151:./Application/Src/application.c ****         wait_ms(200);
 446              		.loc 1 151 9 is_stmt 1 view .LVU152
 151:./Application/Src/application.c ****         wait_ms(200);
 447              		.loc 1 151 18 is_stmt 0 view .LVU153
 448 00a2 144C     		ldr	r4, .L48+32
 449 00a4 0423     		movs	r3, #4
 450 00a6 2370     		strb	r3, [r4]
 152:./Application/Src/application.c ****         pwm_mode = PWM_HOMING_RIGHT;
 451              		.loc 1 152 9 is_stmt 1 view .LVU154
 452 00a8 C820     		movs	r0, #200
 453 00aa FFF7FEFF 		bl	wait_ms
 454              	.LVL22:
 153:./Application/Src/application.c ****         // wait for the flag
 455              		.loc 1 153 9 view .LVU155
 153:./Application/Src/application.c ****         // wait for the flag
 456              		.loc 1 153 18 is_stmt 0 view .LVU156
 457 00ae 0523     		movs	r3, #5
 458 00b0 2370     		strb	r3, [r4]
 155:./Application/Src/application.c ****         pwm_mode = PWM_STOP;
 459              		.loc 1 155 9 is_stmt 1 view .LVU157
ARM GAS  C:\Users\Xuleo\AppData\Local\Temp\ccOvzyZo.s 			page 13


 460              	.L43:
 155:./Application/Src/application.c ****         pwm_mode = PWM_STOP;
 461              		.loc 1 155 31 discriminator 1 view .LVU158
 462 00b2 0F4B     		ldr	r3, .L48+28
 463 00b4 1B78     		ldrb	r3, [r3]	@ zero_extendqisi2
 464 00b6 002B     		cmp	r3, #0
 465 00b8 FBD0     		beq	.L43
 156:./Application/Src/application.c **** 
 466              		.loc 1 156 9 view .LVU159
 156:./Application/Src/application.c **** 
 467              		.loc 1 156 18 is_stmt 0 view .LVU160
 468 00ba 0E4B     		ldr	r3, .L48+32
 469 00bc 0122     		movs	r2, #1
 470 00be 1A70     		strb	r2, [r3]
 158:./Application/Src/application.c ****         right_motor.current_pos = 0.0f;
 471              		.loc 1 158 9 is_stmt 1 view .LVU161
 158:./Application/Src/application.c ****         right_motor.current_pos = 0.0f;
 472              		.loc 1 158 33 is_stmt 0 view .LVU162
 473 00c0 084B     		ldr	r3, .L48+16
 474 00c2 0022     		movs	r2, #0
 475 00c4 1A61     		str	r2, [r3, #16]
 159:./Application/Src/application.c ****         right_motor.target_pos = 0.0f;
 476              		.loc 1 159 9 is_stmt 1 view .LVU163
 159:./Application/Src/application.c ****         right_motor.target_pos = 0.0f;
 477              		.loc 1 159 33 is_stmt 0 view .LVU164
 478 00c6 0021     		movs	r1, #0
 479 00c8 9961     		str	r1, [r3, #24]	@ float
 160:./Application/Src/application.c ****         __HAL_TIM_SET_COUNTER(&htim4, 0);
 480              		.loc 1 160 9 is_stmt 1 view .LVU165
 160:./Application/Src/application.c ****         __HAL_TIM_SET_COUNTER(&htim4, 0);
 481              		.loc 1 160 32 is_stmt 0 view .LVU166
 482 00ca 5961     		str	r1, [r3, #20]	@ float
 161:./Application/Src/application.c ****     }
 483              		.loc 1 161 9 is_stmt 1 view .LVU167
 484 00cc 064B     		ldr	r3, .L48+20
 485 00ce 1B68     		ldr	r3, [r3]
 486 00d0 5A62     		str	r2, [r3, #36]
 487 00d2 B7E7     		b	.L44
 488              	.L49:
 489              		.align	2
 490              	.L48:
 491 00d4 00000000 		.word	homing
 492 00d8 00040242 		.word	1107428352
 493 00dc 00000000 		.word	left_motor
 494 00e0 00000000 		.word	htim3
 495 00e4 00000000 		.word	right_motor
 496 00e8 00000000 		.word	htim4
 497 00ec 00000000 		.word	home_flag_left
 498 00f0 00000000 		.word	home_flag_right
 499 00f4 00000000 		.word	pwm_mode
 500              		.cfi_endproc
 501              	.LFE360:
 503              		.section	.text.controller_init,"ax",%progbits
 504              		.align	1
 505              		.global	controller_init
 506              		.syntax unified
 507              		.thumb
ARM GAS  C:\Users\Xuleo\AppData\Local\Temp\ccOvzyZo.s 			page 14


 508              		.thumb_func
 510              	controller_init:
 511              	.LFB361:
 179:./Application/Src/application.c **** 
 180:./Application/Src/application.c **** void controller_init(void) {
 512              		.loc 1 180 28 view -0
 513              		.cfi_startproc
 514              		@ args = 0, pretend = 0, frame = 0
 515              		@ frame_needed = 0, uses_anonymous_args = 0
 516 0000 10B5     		push	{r4, lr}
 517              	.LCFI1:
 518              		.cfi_def_cfa_offset 8
 519              		.cfi_offset 4, -8
 520              		.cfi_offset 14, -4
 181:./Application/Src/application.c ****     memset(&vofa, 0, sizeof(vofa));
 521              		.loc 1 181 5 view .LVU169
 522 0002 0B4C     		ldr	r4, .L52
 523 0004 2C22     		movs	r2, #44
 524 0006 0021     		movs	r1, #0
 525 0008 2046     		mov	r0, r4
 526 000a FFF7FEFF 		bl	memset
 527              	.LVL23:
 182:./Application/Src/application.c ****     vofa.vofaTail[0] = 0x00;
 528              		.loc 1 182 5 view .LVU170
 183:./Application/Src/application.c ****     vofa.vofaTail[1] = 0x00;
 529              		.loc 1 183 5 view .LVU171
 184:./Application/Src/application.c ****     vofa.vofaTail[2] = 0x80;
 530              		.loc 1 184 5 view .LVU172
 531              		.loc 1 184 22 is_stmt 0 view .LVU173
 532 000e 8023     		movs	r3, #128
 533 0010 84F82A30 		strb	r3, [r4, #42]
 185:./Application/Src/application.c ****     vofa.vofaTail[3] = 0x7f;
 534              		.loc 1 185 5 is_stmt 1 view .LVU174
 535              		.loc 1 185 22 is_stmt 0 view .LVU175
 536 0014 7F23     		movs	r3, #127
 537 0016 84F82B30 		strb	r3, [r4, #43]
 186:./Application/Src/application.c **** 
 187:./Application/Src/application.c ****     // disable idle interrupt half and full interrupt
 188:./Application/Src/application.c ****     extern DMA_HandleTypeDef handle_GPDMA1_Channel1;
 538              		.loc 1 188 5 is_stmt 1 view .LVU176
 189:./Application/Src/application.c ****     __HAL_DMA_DISABLE_IT(&handle_GPDMA1_Channel1, DMA_IT_HT);
 539              		.loc 1 189 5 view .LVU177
 540 001a 064B     		ldr	r3, .L52+4
 541 001c 1B68     		ldr	r3, [r3]
 542 001e 5A69     		ldr	r2, [r3, #20]
 543 0020 22F40072 		bic	r2, r2, #512
 544 0024 5A61     		str	r2, [r3, #20]
 190:./Application/Src/application.c ****     __HAL_DMA_DISABLE_IT(&handle_GPDMA1_Channel1, DMA_IT_TC); 
 545              		.loc 1 190 5 view .LVU178
 546 0026 5A69     		ldr	r2, [r3, #20]
 547 0028 22F48072 		bic	r2, r2, #256
 548 002c 5A61     		str	r2, [r3, #20]
 191:./Application/Src/application.c **** }
 549              		.loc 1 191 1 is_stmt 0 view .LVU179
 550 002e 10BD     		pop	{r4, pc}
 551              	.L53:
 552              		.align	2
ARM GAS  C:\Users\Xuleo\AppData\Local\Temp\ccOvzyZo.s 			page 15


 553              	.L52:
 554 0030 00000000 		.word	vofa
 555 0034 00000000 		.word	handle_GPDMA1_Channel1
 556              		.cfi_endproc
 557              	.LFE361:
 559              		.section	.text.controller_step,"ax",%progbits
 560              		.align	1
 561              		.global	controller_step
 562              		.syntax unified
 563              		.thumb
 564              		.thumb_func
 566              	controller_step:
 567              	.LVL24:
 568              	.LFB362:
 192:./Application/Src/application.c **** 
 193:./Application/Src/application.c **** void controller_step(const float dt) {
 569              		.loc 1 193 38 is_stmt 1 view -0
 570              		.cfi_startproc
 571              		@ args = 0, pretend = 0, frame = 0
 572              		@ frame_needed = 0, uses_anonymous_args = 0
 573              		.loc 1 193 38 is_stmt 0 view .LVU181
 574 0000 70B5     		push	{r4, r5, r6, lr}
 575              	.LCFI2:
 576              		.cfi_def_cfa_offset 16
 577              		.cfi_offset 4, -16
 578              		.cfi_offset 5, -12
 579              		.cfi_offset 6, -8
 580              		.cfi_offset 14, -4
 194:./Application/Src/application.c **** #ifdef USECONTROLLER
 195:./Application/Src/application.c ****     // read the encoder 
 196:./Application/Src/application.c **** 
 197:./Application/Src/application.c ****     left_motor.encoder_cnt += encoder_read_value(&htim3);
 581              		.loc 1 197 5 is_stmt 1 view .LVU182
 582              		.loc 1 197 31 is_stmt 0 view .LVU183
 583 0002 2548     		ldr	r0, .L58
 584 0004 FFF7FEFF 		bl	encoder_read_value
 585              	.LVL25:
 586              		.loc 1 197 15 discriminator 1 view .LVU184
 587 0008 244E     		ldr	r6, .L58+4
 588 000a 3369     		ldr	r3, [r6, #16]
 589              		.loc 1 197 28 discriminator 1 view .LVU185
 590 000c 1844     		add	r0, r0, r3
 591 000e 3061     		str	r0, [r6, #16]
 198:./Application/Src/application.c ****     left_motor.current_pos = encoder_parse_distance_mm(left_motor.encoder_cnt);
 592              		.loc 1 198 5 is_stmt 1 view .LVU186
 593              		.loc 1 198 30 is_stmt 0 view .LVU187
 594 0010 FFF7FEFF 		bl	encoder_parse_distance_mm
 595              	.LVL26:
 596              		.loc 1 198 28 discriminator 1 view .LVU188
 597 0014 86ED060A 		vstr.32	s0, [r6, #24]
 199:./Application/Src/application.c ****     vofa.val[0] = left_motor.current_pos;
 598              		.loc 1 199 5 is_stmt 1 view .LVU189
 599              		.loc 1 199 17 is_stmt 0 view .LVU190
 600 0018 214C     		ldr	r4, .L58+8
 601 001a 84ED000A 		vstr.32	s0, [r4]
 200:./Application/Src/application.c ****     vofa.val[1] = left_motor.target_pos;
 602              		.loc 1 200 5 is_stmt 1 view .LVU191
ARM GAS  C:\Users\Xuleo\AppData\Local\Temp\ccOvzyZo.s 			page 16


 603              		.loc 1 200 29 is_stmt 0 view .LVU192
 604 001e 7369     		ldr	r3, [r6, #20]	@ float
 605              		.loc 1 200 17 view .LVU193
 606 0020 6360     		str	r3, [r4, #4]	@ float
 201:./Application/Src/application.c **** 
 202:./Application/Src/application.c ****     right_motor.encoder_cnt += encoder_read_value(&htim4);
 607              		.loc 1 202 5 is_stmt 1 view .LVU194
 608              		.loc 1 202 32 is_stmt 0 view .LVU195
 609 0022 2048     		ldr	r0, .L58+12
 610 0024 FFF7FEFF 		bl	encoder_read_value
 611              	.LVL27:
 612              		.loc 1 202 16 discriminator 1 view .LVU196
 613 0028 1F4D     		ldr	r5, .L58+16
 614 002a 2B69     		ldr	r3, [r5, #16]
 615              		.loc 1 202 29 discriminator 1 view .LVU197
 616 002c 1844     		add	r0, r0, r3
 617 002e 2861     		str	r0, [r5, #16]
 203:./Application/Src/application.c ****     right_motor.current_pos = encoder_parse_distance_mm(right_motor.encoder_cnt);
 618              		.loc 1 203 5 is_stmt 1 view .LVU198
 619              		.loc 1 203 31 is_stmt 0 view .LVU199
 620 0030 FFF7FEFF 		bl	encoder_parse_distance_mm
 621              	.LVL28:
 622              		.loc 1 203 29 discriminator 1 view .LVU200
 623 0034 85ED060A 		vstr.32	s0, [r5, #24]
 204:./Application/Src/application.c ****     vofa.val[5] = right_motor.current_pos;
 624              		.loc 1 204 5 is_stmt 1 view .LVU201
 625              		.loc 1 204 17 is_stmt 0 view .LVU202
 626 0038 84ED050A 		vstr.32	s0, [r4, #20]
 205:./Application/Src/application.c ****     vofa.val[6] = right_motor.target_pos;
 627              		.loc 1 205 5 is_stmt 1 view .LVU203
 628              		.loc 1 205 30 is_stmt 0 view .LVU204
 629 003c 6B69     		ldr	r3, [r5, #20]	@ float
 630              		.loc 1 205 17 view .LVU205
 631 003e A361     		str	r3, [r4, #24]	@ float
 206:./Application/Src/application.c **** 
 207:./Application/Src/application.c ****     pid_cycle(&left_motor);
 632              		.loc 1 207 5 is_stmt 1 view .LVU206
 633 0040 3046     		mov	r0, r6
 634 0042 FFF7FEFF 		bl	pid_cycle
 635              	.LVL29:
 208:./Application/Src/application.c ****     pid_cycle(&right_motor);
 636              		.loc 1 208 5 view .LVU207
 637 0046 2846     		mov	r0, r5
 638 0048 FFF7FEFF 		bl	pid_cycle
 639              	.LVL30:
 209:./Application/Src/application.c ****     vofa.val[2] = left_motor.output_pwm;
 640              		.loc 1 209 5 view .LVU208
 641              		.loc 1 209 29 is_stmt 0 view .LVU209
 642 004c 328D     		ldrh	r2, [r6, #40]
 643              		.loc 1 209 17 view .LVU210
 644 004e 07EE902A 		vmov	s15, r2	@ int
 645 0052 F8EE677A 		vcvt.f32.u32	s15, s15
 646 0056 C4ED027A 		vstr.32	s15, [r4, #8]
 210:./Application/Src/application.c ****     vofa.val[7] = right_motor.output_pwm;
 647              		.loc 1 210 5 is_stmt 1 view .LVU211
 648              		.loc 1 210 30 is_stmt 0 view .LVU212
 649 005a 298D     		ldrh	r1, [r5, #40]
ARM GAS  C:\Users\Xuleo\AppData\Local\Temp\ccOvzyZo.s 			page 17


 650              		.loc 1 210 17 view .LVU213
 651 005c 07EE901A 		vmov	s15, r1	@ int
 652 0060 F8EE677A 		vcvt.f32.u32	s15, s15
 653 0064 C4ED077A 		vstr.32	s15, [r4, #28]
 211:./Application/Src/application.c **** 
 212:./Application/Src/application.c ****     __HAL_TIM_SET_COMPARE(&htim1, TIM_CHANNEL_2, right_motor.output_pwm);
 654              		.loc 1 212 5 is_stmt 1 view .LVU214
 655 0068 104B     		ldr	r3, .L58+20
 656 006a 1B68     		ldr	r3, [r3]
 657 006c 9963     		str	r1, [r3, #56]
 213:./Application/Src/application.c ****     __HAL_TIM_SET_COMPARE(&htim1, TIM_CHANNEL_1, left_motor.output_pwm);
 658              		.loc 1 213 5 view .LVU215
 659 006e 5A63     		str	r2, [r3, #52]
 214:./Application/Src/application.c **** 
 215:./Application/Src/application.c ****     /* VOFA only on debug page — all other pages use UART for packets */
 216:./Application/Src/application.c ****     if (!uart_binary_mode
 660              		.loc 1 216 5 view .LVU216
 661              		.loc 1 216 9 is_stmt 0 view .LVU217
 662 0070 0F4B     		ldr	r3, .L58+24
 663 0072 1B68     		ldr	r3, [r3]
 664              		.loc 1 216 8 view .LVU218
 665 0074 03B1     		cbz	r3, .L57
 666              	.L54:
 217:./Application/Src/application.c ****         && menu_get_state() == MENU_STATE_DEBUG
 218:./Application/Src/application.c ****         && huart2.gState == HAL_UART_STATE_READY) {
 219:./Application/Src/application.c ****             HAL_UART_Transmit_DMA(&huart2, (uint8_t*)&vofa, sizeof(vofa));
 220:./Application/Src/application.c ****     }
 221:./Application/Src/application.c **** #endif
 222:./Application/Src/application.c **** }
 667              		.loc 1 222 1 view .LVU219
 668 0076 70BD     		pop	{r4, r5, r6, pc}
 669              	.L57:
 217:./Application/Src/application.c ****         && menu_get_state() == MENU_STATE_DEBUG
 670              		.loc 1 217 12 view .LVU220
 671 0078 FFF7FEFF 		bl	menu_get_state
 672              	.LVL31:
 217:./Application/Src/application.c ****         && menu_get_state() == MENU_STATE_DEBUG
 673              		.loc 1 217 9 discriminator 1 view .LVU221
 674 007c 0528     		cmp	r0, #5
 675 007e FAD1     		bne	.L54
 218:./Application/Src/application.c ****             HAL_UART_Transmit_DMA(&huart2, (uint8_t*)&vofa, sizeof(vofa));
 676              		.loc 1 218 18 view .LVU222
 677 0080 0C4B     		ldr	r3, .L58+28
 678 0082 D3F88830 		ldr	r3, [r3, #136]
 218:./Application/Src/application.c ****             HAL_UART_Transmit_DMA(&huart2, (uint8_t*)&vofa, sizeof(vofa));
 679              		.loc 1 218 9 view .LVU223
 680 0086 202B     		cmp	r3, #32
 681 0088 F5D1     		bne	.L54
 219:./Application/Src/application.c ****     }
 682              		.loc 1 219 13 is_stmt 1 view .LVU224
 683 008a 2C22     		movs	r2, #44
 684 008c 2146     		mov	r1, r4
 685 008e 0948     		ldr	r0, .L58+28
 686 0090 FFF7FEFF 		bl	HAL_UART_Transmit_DMA
 687              	.LVL32:
 688              		.loc 1 222 1 is_stmt 0 view .LVU225
 689 0094 EFE7     		b	.L54
ARM GAS  C:\Users\Xuleo\AppData\Local\Temp\ccOvzyZo.s 			page 18


 690              	.L59:
 691 0096 00BF     		.align	2
 692              	.L58:
 693 0098 00000000 		.word	htim3
 694 009c 00000000 		.word	left_motor
 695 00a0 00000000 		.word	vofa
 696 00a4 00000000 		.word	htim4
 697 00a8 00000000 		.word	right_motor
 698 00ac 00000000 		.word	htim1
 699 00b0 00000000 		.word	uart_binary_mode
 700 00b4 00000000 		.word	huart2
 701              		.cfi_endproc
 702              	.LFE362:
 704              		.global	right_motor
 705              		.section	.data.right_motor,"aw"
 706              		.align	2
 709              	right_motor:
 710 0000 7B14AE3D 		.word	1034818683
 711 0004 8FC2753C 		.word	1014350479
 712 0008 CDCC4C40 		.word	1078774989
 713 000c 0000A441 		.word	1101266944
 714 0010 00000000 		.word	0
 715 0014 00000000 		.space	4
 716 0018 00000000 		.word	0
 717 001c 00000000 		.space	12
 717      00000000 
 717      00000000 
 718 0028 F401     		.short	500
 719 002a 0000     		.space	2
 720              		.global	left_motor
 721              		.section	.data.left_motor,"aw"
 722              		.align	2
 725              	left_motor:
 726 0000 7B14AE3D 		.word	1034818683
 727 0004 8FC2753C 		.word	1014350479
 728 0008 CDCC4C40 		.word	1078774989
 729 000c 0000A441 		.word	1101266944
 730 0010 00000000 		.word	0
 731 0014 00000000 		.space	4
 732 0018 00000000 		.word	0
 733 001c 00000000 		.space	12
 733      00000000 
 733      00000000 
 734 0028 F401     		.short	500
 735 002a 0000     		.space	2
 736              		.global	homing
 737              		.section	.bss.homing,"aw",%nobits
 740              	homing:
 741 0000 00       		.space	1
 742              		.global	pwm_mode
 743              		.section	.data.pwm_mode,"aw"
 746              	pwm_mode:
 747 0000 01       		.byte	1
 748              		.global	home_flag_right
 749              		.section	.bss.home_flag_right,"aw",%nobits
 752              	home_flag_right:
 753 0000 00       		.space	1
ARM GAS  C:\Users\Xuleo\AppData\Local\Temp\ccOvzyZo.s 			page 19


 754              		.global	home_flag_left
 755              		.section	.bss.home_flag_left,"aw",%nobits
 758              	home_flag_left:
 759 0000 00       		.space	1
 760              		.global	right_motor_arrived
 761              		.section	.bss.right_motor_arrived,"aw",%nobits
 762              		.align	2
 765              	right_motor_arrived:
 766 0000 00000000 		.space	4
 767              		.global	left_motor_arrived
 768              		.section	.bss.left_motor_arrived,"aw",%nobits
 769              		.align	2
 772              	left_motor_arrived:
 773 0000 00000000 		.space	4
 774              		.global	stop_playing
 775              		.section	.bss.stop_playing,"aw",%nobits
 776              		.align	2
 779              	stop_playing:
 780 0000 00000000 		.space	4
 781              		.global	counter
 782              		.section	.bss.counter,"aw",%nobits
 783              		.align	2
 786              	counter:
 787 0000 00000000 		.space	4
 788              		.global	target_position_mm
 789              		.section	.bss.target_position_mm,"aw",%nobits
 790              		.align	2
 793              	target_position_mm:
 794 0000 00000000 		.space	4
 795              		.global	current_distance_mm
 796              		.section	.bss.current_distance_mm,"aw",%nobits
 797              		.align	2
 800              	current_distance_mm:
 801 0000 00000000 		.space	4
 802              		.global	encoder_direction
 803              		.section	.bss.encoder_direction,"aw",%nobits
 804              		.align	2
 807              	encoder_direction:
 808 0000 00000000 		.space	4
 809              		.global	encoder_read_result
 810              		.section	.bss.encoder_read_result,"aw",%nobits
 811              		.align	2
 814              	encoder_read_result:
 815 0000 00000000 		.space	4
 816              		.global	encoder_speed_mm_s
 817              		.section	.bss.encoder_speed_mm_s,"aw",%nobits
 818              		.align	2
 821              	encoder_speed_mm_s:
 822 0000 00000000 		.space	4
 823              		.global	encoder_old_position_mm
 824              		.section	.bss.encoder_old_position_mm,"aw",%nobits
 825              		.align	2
 828              	encoder_old_position_mm:
 829 0000 00000000 		.space	4
 830              		.global	encoder_count
 831              		.section	.bss.encoder_count,"aw",%nobits
 832              		.align	2
ARM GAS  C:\Users\Xuleo\AppData\Local\Temp\ccOvzyZo.s 			page 20


 835              	encoder_count:
 836 0000 00000000 		.space	4
 837              		.global	chord_events
 838              		.section	.bss.chord_events,"aw",%nobits
 839              		.align	2
 842              	chord_events:
 843 0000 00000000 		.space	24576
 843      00000000 
 843      00000000 
 843      00000000 
 843      00000000 
 844              		.global	vofa
 845              		.section	.bss.vofa,"aw",%nobits
 846              		.align	2
 849              	vofa:
 850 0000 00000000 		.space	44
 850      00000000 
 850      00000000 
 850      00000000 
 850      00000000 
 851              		.global	rx_data
 852              		.section	.bss.rx_data,"aw",%nobits
 853              		.align	2
 856              	rx_data:
 857 0000 00000000 		.space	22000
 857      00000000 
 857      00000000 
 857      00000000 
 857      00000000 
 858              		.global	ram_rx_offset
 859              		.section	.bss.ram_rx_offset,"aw",%nobits
 860              		.align	2
 863              	ram_rx_offset:
 864 0000 00000000 		.space	4
 865              		.global	ram_rx_complete
 866              		.section	.bss.ram_rx_complete,"aw",%nobits
 867              		.align	2
 870              	ram_rx_complete:
 871 0000 00000000 		.space	4
 872              		.global	ram_rx_started
 873              		.section	.bss.ram_rx_started,"aw",%nobits
 874              		.align	2
 877              	ram_rx_started:
 878 0000 00000000 		.space	4
 879              		.global	redirect_to_ram
 880              		.section	.bss.redirect_to_ram,"aw",%nobits
 881              		.align	2
 884              	redirect_to_ram:
 885 0000 00000000 		.space	4
 886              		.global	uart_binary_mode
 887              		.section	.bss.uart_binary_mode,"aw",%nobits
 888              		.align	2
 891              	uart_binary_mode:
 892 0000 00000000 		.space	4
 893              		.global	rx_valid
 894              		.section	.bss.rx_valid,"aw",%nobits
 895              		.align	2
ARM GAS  C:\Users\Xuleo\AppData\Local\Temp\ccOvzyZo.s 			page 21


 898              	rx_valid:
 899 0000 00000000 		.space	4
 900              		.global	rx_complete
 901              		.section	.bss.rx_complete,"aw",%nobits
 902              		.align	2
 905              	rx_complete:
 906 0000 00000000 		.space	4
 907              		.global	old_buffer_index
 908              		.section	.bss.old_buffer_index,"aw",%nobits
 909              		.align	2
 912              	old_buffer_index:
 913 0000 00000000 		.space	4
 914              		.global	rx_message_index
 915              		.section	.bss.rx_message_index,"aw",%nobits
 916              		.align	1
 919              	rx_message_index:
 920 0000 0000     		.space	2
 921              		.global	rx_message
 922              		.section	.bss.rx_message,"aw",%nobits
 923              		.align	2
 926              	rx_message:
 927 0000 00000000 		.space	256
 927      00000000 
 927      00000000 
 927      00000000 
 927      00000000 
 928              		.global	rx_message_buffer
 929              		.section	.bss.rx_message_buffer,"aw",%nobits
 930              		.align	2
 933              	rx_message_buffer:
 934 0000 00000000 		.space	128
 934      00000000 
 934      00000000 
 934      00000000 
 934      00000000 
 935              		.text
 936              	.Letext0:
 937              		.file 2 "C:/thirdpartyLibs/arm-gnu-toolchain-15.2/arm-none-eabi/include/machine/_default_types.h"
 938              		.file 3 "C:/thirdpartyLibs/arm-gnu-toolchain-15.2/arm-none-eabi/include/sys/_stdint.h"
 939              		.file 4 "Drivers/CMSIS/Device/ST/STM32H5xx/Include/stm32h523xx.h"
 940              		.file 5 "Drivers/STM32H5xx_HAL_Driver/Inc/stm32h5xx_hal_def.h"
 941              		.file 6 "Drivers/STM32H5xx_HAL_Driver/Inc/stm32h5xx_hal_gpio.h"
 942              		.file 7 "Drivers/STM32H5xx_HAL_Driver/Inc/stm32h5xx_hal_dma.h"
 943              		.file 8 "Drivers/STM32H5xx_HAL_Driver/Inc/stm32h5xx_hal_dma_ex.h"
 944              		.file 9 "Drivers/STM32H5xx_HAL_Driver/Inc/stm32h5xx_hal_tim.h"
 945              		.file 10 "Drivers/STM32H5xx_HAL_Driver/Inc/stm32h5xx_hal_uart.h"
 946              		.file 11 "Application/Inc/menu.h"
 947              		.file 12 "Core/Inc/usart.h"
 948              		.file 13 "Core/Inc/tim.h"
 949              		.file 14 "Application/Inc/application.h"
 950              		.file 15 "Application/Inc/encoder.h"
 951              		.file 16 "C:/thirdpartyLibs/arm-gnu-toolchain-15.2/arm-none-eabi/include/string.h"
 952              		.file 17 "Application/Inc/user_timer.h"
 953              		.file 18 "<built-in>"
ARM GAS  C:\Users\Xuleo\AppData\Local\Temp\ccOvzyZo.s 			page 22


DEFINED SYMBOLS
                            *ABS*:00000000 application.c
C:\Users\Xuleo\AppData\Local\Temp\ccOvzyZo.s:22     .text.pid_cycle:00000000 $t
C:\Users\Xuleo\AppData\Local\Temp\ccOvzyZo.s:28     .text.pid_cycle:00000000 pid_cycle
C:\Users\Xuleo\AppData\Local\Temp\ccOvzyZo.s:279    .text.pid_cycle:00000158 $d
C:\Users\Xuleo\AppData\Local\Temp\ccOvzyZo.s:725    .data.left_motor:00000000 left_motor
C:\Users\Xuleo\AppData\Local\Temp\ccOvzyZo.s:709    .data.right_motor:00000000 right_motor
C:\Users\Xuleo\AppData\Local\Temp\ccOvzyZo.s:772    .bss.left_motor_arrived:00000000 left_motor_arrived
C:\Users\Xuleo\AppData\Local\Temp\ccOvzyZo.s:765    .bss.right_motor_arrived:00000000 right_motor_arrived
C:\Users\Xuleo\AppData\Local\Temp\ccOvzyZo.s:291    .text.homing_procedure:00000000 $t
C:\Users\Xuleo\AppData\Local\Temp\ccOvzyZo.s:297    .text.homing_procedure:00000000 homing_procedure
C:\Users\Xuleo\AppData\Local\Temp\ccOvzyZo.s:491    .text.homing_procedure:000000d4 $d
C:\Users\Xuleo\AppData\Local\Temp\ccOvzyZo.s:740    .bss.homing:00000000 homing
C:\Users\Xuleo\AppData\Local\Temp\ccOvzyZo.s:758    .bss.home_flag_left:00000000 home_flag_left
C:\Users\Xuleo\AppData\Local\Temp\ccOvzyZo.s:752    .bss.home_flag_right:00000000 home_flag_right
C:\Users\Xuleo\AppData\Local\Temp\ccOvzyZo.s:746    .data.pwm_mode:00000000 pwm_mode
C:\Users\Xuleo\AppData\Local\Temp\ccOvzyZo.s:504    .text.controller_init:00000000 $t
C:\Users\Xuleo\AppData\Local\Temp\ccOvzyZo.s:510    .text.controller_init:00000000 controller_init
C:\Users\Xuleo\AppData\Local\Temp\ccOvzyZo.s:554    .text.controller_init:00000030 $d
C:\Users\Xuleo\AppData\Local\Temp\ccOvzyZo.s:849    .bss.vofa:00000000 vofa
C:\Users\Xuleo\AppData\Local\Temp\ccOvzyZo.s:560    .text.controller_step:00000000 $t
C:\Users\Xuleo\AppData\Local\Temp\ccOvzyZo.s:566    .text.controller_step:00000000 controller_step
C:\Users\Xuleo\AppData\Local\Temp\ccOvzyZo.s:693    .text.controller_step:00000098 $d
C:\Users\Xuleo\AppData\Local\Temp\ccOvzyZo.s:891    .bss.uart_binary_mode:00000000 uart_binary_mode
C:\Users\Xuleo\AppData\Local\Temp\ccOvzyZo.s:706    .data.right_motor:00000000 $d
C:\Users\Xuleo\AppData\Local\Temp\ccOvzyZo.s:722    .data.left_motor:00000000 $d
C:\Users\Xuleo\AppData\Local\Temp\ccOvzyZo.s:741    .bss.homing:00000000 $d
C:\Users\Xuleo\AppData\Local\Temp\ccOvzyZo.s:753    .bss.home_flag_right:00000000 $d
C:\Users\Xuleo\AppData\Local\Temp\ccOvzyZo.s:759    .bss.home_flag_left:00000000 $d
C:\Users\Xuleo\AppData\Local\Temp\ccOvzyZo.s:762    .bss.right_motor_arrived:00000000 $d
C:\Users\Xuleo\AppData\Local\Temp\ccOvzyZo.s:769    .bss.left_motor_arrived:00000000 $d
C:\Users\Xuleo\AppData\Local\Temp\ccOvzyZo.s:779    .bss.stop_playing:00000000 stop_playing
C:\Users\Xuleo\AppData\Local\Temp\ccOvzyZo.s:776    .bss.stop_playing:00000000 $d
C:\Users\Xuleo\AppData\Local\Temp\ccOvzyZo.s:786    .bss.counter:00000000 counter
C:\Users\Xuleo\AppData\Local\Temp\ccOvzyZo.s:783    .bss.counter:00000000 $d
C:\Users\Xuleo\AppData\Local\Temp\ccOvzyZo.s:793    .bss.target_position_mm:00000000 target_position_mm
C:\Users\Xuleo\AppData\Local\Temp\ccOvzyZo.s:790    .bss.target_position_mm:00000000 $d
C:\Users\Xuleo\AppData\Local\Temp\ccOvzyZo.s:800    .bss.current_distance_mm:00000000 current_distance_mm
C:\Users\Xuleo\AppData\Local\Temp\ccOvzyZo.s:797    .bss.current_distance_mm:00000000 $d
C:\Users\Xuleo\AppData\Local\Temp\ccOvzyZo.s:807    .bss.encoder_direction:00000000 encoder_direction
C:\Users\Xuleo\AppData\Local\Temp\ccOvzyZo.s:804    .bss.encoder_direction:00000000 $d
C:\Users\Xuleo\AppData\Local\Temp\ccOvzyZo.s:814    .bss.encoder_read_result:00000000 encoder_read_result
C:\Users\Xuleo\AppData\Local\Temp\ccOvzyZo.s:811    .bss.encoder_read_result:00000000 $d
C:\Users\Xuleo\AppData\Local\Temp\ccOvzyZo.s:821    .bss.encoder_speed_mm_s:00000000 encoder_speed_mm_s
C:\Users\Xuleo\AppData\Local\Temp\ccOvzyZo.s:818    .bss.encoder_speed_mm_s:00000000 $d
C:\Users\Xuleo\AppData\Local\Temp\ccOvzyZo.s:828    .bss.encoder_old_position_mm:00000000 encoder_old_position_mm
C:\Users\Xuleo\AppData\Local\Temp\ccOvzyZo.s:825    .bss.encoder_old_position_mm:00000000 $d
C:\Users\Xuleo\AppData\Local\Temp\ccOvzyZo.s:835    .bss.encoder_count:00000000 encoder_count
C:\Users\Xuleo\AppData\Local\Temp\ccOvzyZo.s:832    .bss.encoder_count:00000000 $d
C:\Users\Xuleo\AppData\Local\Temp\ccOvzyZo.s:842    .bss.chord_events:00000000 chord_events
C:\Users\Xuleo\AppData\Local\Temp\ccOvzyZo.s:839    .bss.chord_events:00000000 $d
C:\Users\Xuleo\AppData\Local\Temp\ccOvzyZo.s:846    .bss.vofa:00000000 $d
C:\Users\Xuleo\AppData\Local\Temp\ccOvzyZo.s:856    .bss.rx_data:00000000 rx_data
C:\Users\Xuleo\AppData\Local\Temp\ccOvzyZo.s:853    .bss.rx_data:00000000 $d
C:\Users\Xuleo\AppData\Local\Temp\ccOvzyZo.s:863    .bss.ram_rx_offset:00000000 ram_rx_offset
C:\Users\Xuleo\AppData\Local\Temp\ccOvzyZo.s:860    .bss.ram_rx_offset:00000000 $d
C:\Users\Xuleo\AppData\Local\Temp\ccOvzyZo.s:870    .bss.ram_rx_complete:00000000 ram_rx_complete
ARM GAS  C:\Users\Xuleo\AppData\Local\Temp\ccOvzyZo.s 			page 23


C:\Users\Xuleo\AppData\Local\Temp\ccOvzyZo.s:867    .bss.ram_rx_complete:00000000 $d
C:\Users\Xuleo\AppData\Local\Temp\ccOvzyZo.s:877    .bss.ram_rx_started:00000000 ram_rx_started
C:\Users\Xuleo\AppData\Local\Temp\ccOvzyZo.s:874    .bss.ram_rx_started:00000000 $d
C:\Users\Xuleo\AppData\Local\Temp\ccOvzyZo.s:884    .bss.redirect_to_ram:00000000 redirect_to_ram
C:\Users\Xuleo\AppData\Local\Temp\ccOvzyZo.s:881    .bss.redirect_to_ram:00000000 $d
C:\Users\Xuleo\AppData\Local\Temp\ccOvzyZo.s:888    .bss.uart_binary_mode:00000000 $d
C:\Users\Xuleo\AppData\Local\Temp\ccOvzyZo.s:898    .bss.rx_valid:00000000 rx_valid
C:\Users\Xuleo\AppData\Local\Temp\ccOvzyZo.s:895    .bss.rx_valid:00000000 $d
C:\Users\Xuleo\AppData\Local\Temp\ccOvzyZo.s:905    .bss.rx_complete:00000000 rx_complete
C:\Users\Xuleo\AppData\Local\Temp\ccOvzyZo.s:902    .bss.rx_complete:00000000 $d
C:\Users\Xuleo\AppData\Local\Temp\ccOvzyZo.s:912    .bss.old_buffer_index:00000000 old_buffer_index
C:\Users\Xuleo\AppData\Local\Temp\ccOvzyZo.s:909    .bss.old_buffer_index:00000000 $d
C:\Users\Xuleo\AppData\Local\Temp\ccOvzyZo.s:919    .bss.rx_message_index:00000000 rx_message_index
C:\Users\Xuleo\AppData\Local\Temp\ccOvzyZo.s:916    .bss.rx_message_index:00000000 $d
C:\Users\Xuleo\AppData\Local\Temp\ccOvzyZo.s:926    .bss.rx_message:00000000 rx_message
C:\Users\Xuleo\AppData\Local\Temp\ccOvzyZo.s:923    .bss.rx_message:00000000 $d
C:\Users\Xuleo\AppData\Local\Temp\ccOvzyZo.s:933    .bss.rx_message_buffer:00000000 rx_message_buffer
C:\Users\Xuleo\AppData\Local\Temp\ccOvzyZo.s:930    .bss.rx_message_buffer:00000000 $d

UNDEFINED SYMBOLS
HAL_GPIO_ReadPin
wait_ms
htim3
htim4
memset
handle_GPDMA1_Channel1
encoder_read_value
encoder_parse_distance_mm
menu_get_state
HAL_UART_Transmit_DMA
htim1
huart2
