ARM GAS  C:\Users\Xuleo\AppData\Local\Temp\ccqyQa1H.s 			page 1


   1              		.cpu cortex-m33
   2              		.arch armv8-m.main
   3              		.fpu fpv5-sp-d16
   4              		.arch_extension dsp
   5              		.eabi_attribute 27, 1
   6              		.eabi_attribute 28, 1
   7              		.eabi_attribute 20, 1
   8              		.eabi_attribute 21, 1
   9              		.eabi_attribute 23, 3
  10              		.eabi_attribute 24, 1
  11              		.eabi_attribute 25, 1
  12              		.eabi_attribute 26, 1
  13              		.eabi_attribute 30, 1
  14              		.eabi_attribute 34, 1
  15              		.eabi_attribute 18, 4
  16              		.file	"application.c"
  17              		.text
  18              	.Ltext0:
  19              		.cfi_sections	.debug_frame
  20              		.file 1 "./Application/Src/application.c"
  21              		.section	.text.pid_cycle,"ax",%progbits
  22              		.align	1
  23              		.global	pid_cycle
  24              		.syntax unified
  25              		.thumb
  26              		.thumb_func
  28              	pid_cycle:
  29              	.LVL0:
  30              	.LFB359:
   1:./Application/Src/application.c **** #include <application.h>
   2:./Application/Src/application.c **** 
   3:./Application/Src/application.c **** // uart - buffer
   4:./Application/Src/application.c **** uint8_t rx_message_buffer[128] = {0}; // DMA circular buffer
   5:./Application/Src/application.c **** uint8_t rx_message[256] = {0}; // accumulation buffer for complete messages
   6:./Application/Src/application.c **** uint16_t rx_message_index = 0; // current write position in rx_message
   7:./Application/Src/application.c **** int old_buffer_index = 0;
   8:./Application/Src/application.c **** int rx_complete = 0;
   9:./Application/Src/application.c **** int rx_valid = 0;
  10:./Application/Src/application.c **** volatile int uart_binary_mode = 0; // 1 = skip \n detection (binary file transfer)
  11:./Application/Src/application.c **** 
  12:./Application/Src/application.c **** // ram
  13:./Application/Src/application.c **** volatile int redirect_to_ram = 0; // flag to indicate whether the incoming song data should be writ
  14:./Application/Src/application.c **** volatile int ram_rx_started = 0;  // 1 = start sentinel received, accumulating
  15:./Application/Src/application.c **** volatile int ram_rx_complete = 0; // 1 = end sentinel received, ready to parse
  16:./Application/Src/application.c **** volatile uint32_t ram_rx_offset = 0; // row count received during accumulation
  17:./Application/Src/application.c **** __ALIGN_BEGIN float rx_data[5500] __ALIGN_END;
  18:./Application/Src/application.c **** VOFA_REPORT vofa; // transmit via usb
  19:./Application/Src/application.c **** 
  20:./Application/Src/application.c **** // song struct
  21:./Application/Src/application.c **** ChordEvent_t chord_events[MAX_CHORD_EVENTS] = {0}; // store the whole song, max 100 chords
  22:./Application/Src/application.c **** 
  23:./Application/Src/application.c **** // encoder global variables
  24:./Application/Src/application.c **** volatile int32_t encoder_count = 0;
  25:./Application/Src/application.c **** volatile float encoder_old_position_mm = 0.0f; // for speed calculation
  26:./Application/Src/application.c **** volatile float encoder_speed_mm_s = 0.0f; // current speed in mm/s
  27:./Application/Src/application.c **** int32_t encoder_read_result = 0;
  28:./Application/Src/application.c **** uint32_t encoder_direction = 0;
ARM GAS  C:\Users\Xuleo\AppData\Local\Temp\ccqyQa1H.s 			page 2


  29:./Application/Src/application.c **** volatile float current_distance_mm = 0.0f;
  30:./Application/Src/application.c **** volatile float target_position_mm = 0.0f;
  31:./Application/Src/application.c **** 
  32:./Application/Src/application.c **** // other variables
  33:./Application/Src/application.c **** volatile int32_t counter = 0;
  34:./Application/Src/application.c **** 
  35:./Application/Src/application.c **** // motor motion control parameters
  36:./Application/Src/application.c **** int left_motor_arrived = 0; // flag when enter the motor deadband 
  37:./Application/Src/application.c **** int right_motor_arrived = 0; // flag when enter the motor deadband
  38:./Application/Src/application.c **** 
  39:./Application/Src/application.c **** // PID parameters
  40:./Application/Src/application.c **** PID_t left_motor = {
  41:./Application/Src/application.c ****     .Kp = 0.085f,
  42:./Application/Src/application.c ****     .Ki = 0.015f,
  43:./Application/Src/application.c ****     .Kd = 3.2f, //0.001
  44:./Application/Src/application.c ****     .encoder_cnt = 0, // 0.5
  45:./Application/Src/application.c ****     .current_pos = 0,
  46:./Application/Src/application.c ****     .output_pwm = 500,
  47:./Application/Src/application.c ****     .integral_max = 20.50f
  48:./Application/Src/application.c **** };
  49:./Application/Src/application.c **** 
  50:./Application/Src/application.c **** PID_t right_motor = {
  51:./Application/Src/application.c ****     .Kp = 0.085f,
  52:./Application/Src/application.c ****     .Ki = 0.015f,
  53:./Application/Src/application.c ****     .Kd = 3.2f, //0.001
  54:./Application/Src/application.c ****     .encoder_cnt = 0, // 0.5
  55:./Application/Src/application.c ****     .current_pos = 0,
  56:./Application/Src/application.c ****     .output_pwm = 500,
  57:./Application/Src/application.c ****     .integral_max = 20.50f
  58:./Application/Src/application.c **** };
  59:./Application/Src/application.c **** 
  60:./Application/Src/application.c **** void pid_cycle(PID_t* target_system){
  31              		.loc 1 60 37 view -0
  32              		.cfi_startproc
  33              		@ args = 0, pretend = 0, frame = 0
  34              		@ frame_needed = 0, uses_anonymous_args = 0
  35              		@ link register save eliminated.
  61:./Application/Src/application.c **** 
  62:./Application/Src/application.c ****     target_system->current_error = target_system->target_pos - target_system->current_pos;
  36              		.loc 1 62 5 view .LVU1
  37              		.loc 1 62 49 is_stmt 0 view .LVU2
  38 0000 90ED057A 		vldr.32	s14, [r0, #20]
  39              		.loc 1 62 77 view .LVU3
  40 0004 D0ED067A 		vldr.32	s15, [r0, #24]
  41              		.loc 1 62 62 view .LVU4
  42 0008 37EE677A 		vsub.f32	s14, s14, s15
  43              		.loc 1 62 34 view .LVU5
  44 000c 80ED087A 		vstr.32	s14, [r0, #32]
  63:./Application/Src/application.c **** 
  64:./Application/Src/application.c ****     float derivative = target_system->current_error - target_system->last_error;
  45              		.loc 1 64 5 is_stmt 1 view .LVU6
  46              		.loc 1 64 68 is_stmt 0 view .LVU7
  47 0010 90ED096A 		vldr.32	s12, [r0, #36]
  48              		.loc 1 64 11 view .LVU8
  49 0014 37EE466A 		vsub.f32	s12, s14, s12
  50              	.LVL1:
  65:./Application/Src/application.c ****     
ARM GAS  C:\Users\Xuleo\AppData\Local\Temp\ccqyQa1H.s 			page 3


  66:./Application/Src/application.c ****     if(target_system->current_error < 1.5f && target_system->current_error > -1.5f){
  51              		.loc 1 66 5 is_stmt 1 view .LVU9
  52              		.loc 1 66 7 is_stmt 0 view .LVU10
  53 0018 F7EE087A 		vmov.f32	s15, #1.5e+0
  54 001c B4EEE77A 		vcmpe.f32	s14, s15
  55 0020 F1EE10FA 		vmrs	APSR_nzcv, FPSCR
  56 0024 0DD5     		bpl	.L2
  57              		.loc 1 66 44 discriminator 1 view .LVU11
  58 0026 FFEE087A 		vmov.f32	s15, #-1.5e+0
  59 002a B4EEE77A 		vcmpe.f32	s14, s15
  60 002e F1EE10FA 		vmrs	APSR_nzcv, FPSCR
  61 0032 06DD     		ble	.L2
  67:./Application/Src/application.c ****         target_system->integral += target_system->current_error;
  62              		.loc 1 67 9 is_stmt 1 view .LVU12
  63              		.loc 1 67 22 is_stmt 0 view .LVU13
  64 0034 D0ED077A 		vldr.32	s15, [r0, #28]
  65              		.loc 1 67 33 view .LVU14
  66 0038 77EE277A 		vadd.f32	s15, s14, s15
  67 003c C0ED077A 		vstr.32	s15, [r0, #28]
  68 0040 01E0     		b	.L5
  69              	.L2:
  68:./Application/Src/application.c ****     }
  69:./Application/Src/application.c ****     else{
  70:./Application/Src/application.c ****         target_system->integral = 0;
  70              		.loc 1 70 9 is_stmt 1 view .LVU15
  71              		.loc 1 70 33 is_stmt 0 view .LVU16
  72 0042 0023     		movs	r3, #0
  73 0044 C361     		str	r3, [r0, #28]	@ float
  74              	.L5:
  71:./Application/Src/application.c ****     }
  72:./Application/Src/application.c ****     // bound the integral
  73:./Application/Src/application.c ****     if (target_system->integral > target_system->integral_max){
  75              		.loc 1 73 5 is_stmt 1 view .LVU17
  76              		.loc 1 73 22 is_stmt 0 view .LVU18
  77 0046 D0ED076A 		vldr.32	s13, [r0, #28]
  78              		.loc 1 73 48 view .LVU19
  79 004a D0ED037A 		vldr.32	s15, [r0, #12]
  80              		.loc 1 73 8 view .LVU20
  81 004e F4EEE76A 		vcmpe.f32	s13, s15
  82 0052 F1EE10FA 		vmrs	APSR_nzcv, FPSCR
  83 0056 42DD     		ble	.L31
  74:./Application/Src/application.c ****         target_system->integral = target_system->integral_max;
  84              		.loc 1 74 9 is_stmt 1 view .LVU21
  85              		.loc 1 74 33 is_stmt 0 view .LVU22
  86 0058 C0ED077A 		vstr.32	s15, [r0, #28]
  87              	.L8:
  75:./Application/Src/application.c ****     } else if (target_system->integral < -target_system->integral_max) {
  76:./Application/Src/application.c ****         target_system->integral = -target_system->integral_max;
  77:./Application/Src/application.c ****     }
  78:./Application/Src/application.c ****     float voltage = target_system->Kp * target_system->current_error + target_system->Ki * target_s
  88              		.loc 1 78 5 is_stmt 1 view .LVU23
  89              		.loc 1 78 34 is_stmt 0 view .LVU24
  90 005c D0ED006A 		vldr.32	s13, [r0]
  91              		.loc 1 78 39 view .LVU25
  92 0060 67EE266A 		vmul.f32	s13, s14, s13
  93              		.loc 1 78 85 view .LVU26
  94 0064 D0ED017A 		vldr.32	s15, [r0, #4]
ARM GAS  C:\Users\Xuleo\AppData\Local\Temp\ccqyQa1H.s 			page 4


  95              		.loc 1 78 105 view .LVU27
  96 0068 D0ED075A 		vldr.32	s11, [r0, #28]
  97              		.loc 1 78 90 view .LVU28
  98 006c 67EEA57A 		vmul.f32	s15, s15, s11
  99              		.loc 1 78 70 view .LVU29
 100 0070 76EEA76A 		vadd.f32	s13, s13, s15
 101              		.loc 1 78 131 view .LVU30
 102 0074 D0ED027A 		vldr.32	s15, [r0, #8]
 103              		.loc 1 78 136 view .LVU31
 104 0078 67EE867A 		vmul.f32	s15, s15, s12
 105              		.loc 1 78 11 view .LVU32
 106 007c 76EEA76A 		vadd.f32	s13, s13, s15
 107              	.LVL2:
  79:./Application/Src/application.c ****     target_system->last_error = target_system->current_error;
 108              		.loc 1 79 5 is_stmt 1 view .LVU33
 109              		.loc 1 79 31 is_stmt 0 view .LVU34
 110 0080 80ED097A 		vstr.32	s14, [r0, #36]
  80:./Application/Src/application.c **** 
  81:./Application/Src/application.c ****     int32_t pwm_temp = 500 * (voltage/12.0f + 1);
 111              		.loc 1 81 5 is_stmt 1 view .LVU35
 112              		.loc 1 81 38 is_stmt 0 view .LVU36
 113 0084 B2EE086A 		vmov.f32	s12, #1.2e+1
 114              	.LVL3:
 115              		.loc 1 81 38 view .LVU37
 116 0088 C6EE867A 		vdiv.f32	s15, s13, s12
 117              		.loc 1 81 45 view .LVU38
 118 008c F7EE006A 		vmov.f32	s13, #1.0e+0
 119              	.LVL4:
 120              		.loc 1 81 45 view .LVU39
 121 0090 77EEA67A 		vadd.f32	s15, s15, s13
 122              		.loc 1 81 28 view .LVU40
 123 0094 DFED2F6A 		vldr.32	s13, .L36
 124 0098 67EEA67A 		vmul.f32	s15, s15, s13
 125              		.loc 1 81 13 view .LVU41
 126 009c FDEEE77A 		vcvt.s32.f32	s15, s15
 127 00a0 17EE903A 		vmov	r3, s15	@ int
 128              	.LVL5:
  82:./Application/Src/application.c **** 
  83:./Application/Src/application.c ****     if (target_system->current_error > -ERROR_DEADBAND && target_system->current_error < ERROR_DEAD
 129              		.loc 1 83 5 is_stmt 1 view .LVU42
 130              		.loc 1 83 8 is_stmt 0 view .LVU43
 131 00a4 DFED2C7A 		vldr.32	s15, .L36+4
 132 00a8 B4EEE77A 		vcmpe.f32	s14, s15
 133 00ac F1EE10FA 		vmrs	APSR_nzcv, FPSCR
 134 00b0 2BDD     		ble	.L10
 135              		.loc 1 83 56 discriminator 1 view .LVU44
 136 00b2 DFED2A7A 		vldr.32	s15, .L36+8
 137 00b6 B4EEE77A 		vcmpe.f32	s14, s15
 138 00ba F1EE10FA 		vmrs	APSR_nzcv, FPSCR
 139 00be 24D5     		bpl	.L10
  84:./Application/Src/application.c ****         pwm_temp = 500;
 140              		.loc 1 84 9 is_stmt 1 view .LVU45
 141              	.LVL6:
  85:./Application/Src/application.c ****         target_system->integral *= 0.95f;  // reset integral to prevent windup
 142              		.loc 1 85 9 view .LVU46
 143              		.loc 1 85 33 is_stmt 0 view .LVU47
 144 00c0 DFED277A 		vldr.32	s15, .L36+12
ARM GAS  C:\Users\Xuleo\AppData\Local\Temp\ccqyQa1H.s 			page 5


 145 00c4 65EEA75A 		vmul.f32	s11, s11, s15
 146              		.loc 1 85 33 view .LVU48
 147 00c8 C0ED075A 		vstr.32	s11, [r0, #28]
  86:./Application/Src/application.c ****         if (target_system == &left_motor) {
 148              		.loc 1 86 9 is_stmt 1 view .LVU49
 149              		.loc 1 86 12 is_stmt 0 view .LVU50
 150 00cc 254B     		ldr	r3, .L36+16
 151 00ce 9842     		cmp	r0, r3
 152 00d0 0FD0     		beq	.L32
  87:./Application/Src/application.c ****             left_motor_arrived = 1;
  88:./Application/Src/application.c ****         } else if (target_system == &right_motor) {
 153              		.loc 1 88 16 is_stmt 1 view .LVU51
 154              		.loc 1 88 19 is_stmt 0 view .LVU52
 155 00d2 254B     		ldr	r3, .L36+20
 156 00d4 9842     		cmp	r0, r3
 157 00d6 12D0     		beq	.L33
  84:./Application/Src/application.c ****         target_system->integral *= 0.95f;  // reset integral to prevent windup
 158              		.loc 1 84 18 view .LVU53
 159 00d8 4FF4FA73 		mov	r3, #500
 160 00dc 1EE0     		b	.L14
 161              	.LVL7:
 162              	.L31:
  75:./Application/Src/application.c ****         target_system->integral = -target_system->integral_max;
 163              		.loc 1 75 12 is_stmt 1 view .LVU54
  75:./Application/Src/application.c ****         target_system->integral = -target_system->integral_max;
 164              		.loc 1 75 42 is_stmt 0 view .LVU55
 165 00de F1EE677A 		vneg.f32	s15, s15
  75:./Application/Src/application.c ****         target_system->integral = -target_system->integral_max;
 166              		.loc 1 75 15 view .LVU56
 167 00e2 F4EEE76A 		vcmpe.f32	s13, s15
 168 00e6 F1EE10FA 		vmrs	APSR_nzcv, FPSCR
 169 00ea B7D5     		bpl	.L8
  76:./Application/Src/application.c ****     }
 170              		.loc 1 76 9 is_stmt 1 view .LVU57
  76:./Application/Src/application.c ****     }
 171              		.loc 1 76 33 is_stmt 0 view .LVU58
 172 00ec C0ED077A 		vstr.32	s15, [r0, #28]
 173 00f0 B4E7     		b	.L8
 174              	.LVL8:
 175              	.L32:
  87:./Application/Src/application.c ****         } else if (target_system == &right_motor) {
 176              		.loc 1 87 13 is_stmt 1 view .LVU59
  87:./Application/Src/application.c ****         } else if (target_system == &right_motor) {
 177              		.loc 1 87 32 is_stmt 0 view .LVU60
 178 00f2 1E4B     		ldr	r3, .L36+24
 179 00f4 0122     		movs	r2, #1
 180 00f6 1A60     		str	r2, [r3]
  89:./Application/Src/application.c ****             right_motor_arrived = 1;
  90:./Application/Src/application.c ****         }
  91:./Application/Src/application.c ****     } else {
  92:./Application/Src/application.c ****         if (target_system == &left_motor) {
  93:./Application/Src/application.c ****             left_motor_arrived = 0;
  94:./Application/Src/application.c ****         } else if (target_system == &right_motor) {
  95:./Application/Src/application.c ****             right_motor_arrived = 0;
  96:./Application/Src/application.c ****         }
  97:./Application/Src/application.c ****     }
  98:./Application/Src/application.c **** 
ARM GAS  C:\Users\Xuleo\AppData\Local\Temp\ccqyQa1H.s 			page 6


  99:./Application/Src/application.c ****     if (pwm_temp > 1000) pwm_temp = 1000;
 181              		.loc 1 99 5 is_stmt 1 view .LVU61
  84:./Application/Src/application.c ****         target_system->integral *= 0.95f;  // reset integral to prevent windup
 182              		.loc 1 84 18 is_stmt 0 view .LVU62
 183 00f8 4FF4FA73 		mov	r3, #500
 184 00fc 0EE0     		b	.L14
 185              	.L33:
  89:./Application/Src/application.c ****             right_motor_arrived = 1;
 186              		.loc 1 89 13 is_stmt 1 view .LVU63
  89:./Application/Src/application.c ****             right_motor_arrived = 1;
 187              		.loc 1 89 33 is_stmt 0 view .LVU64
 188 00fe 1C4B     		ldr	r3, .L36+28
 189 0100 0122     		movs	r2, #1
 190 0102 1A60     		str	r2, [r3]
 191              		.loc 1 99 5 is_stmt 1 view .LVU65
  84:./Application/Src/application.c ****         target_system->integral *= 0.95f;  // reset integral to prevent windup
 192              		.loc 1 84 18 is_stmt 0 view .LVU66
 193 0104 4FF4FA73 		mov	r3, #500
 194 0108 08E0     		b	.L14
 195              	.LVL9:
 196              	.L10:
  92:./Application/Src/application.c ****             left_motor_arrived = 0;
 197              		.loc 1 92 9 is_stmt 1 view .LVU67
  92:./Application/Src/application.c ****             left_motor_arrived = 0;
 198              		.loc 1 92 12 is_stmt 0 view .LVU68
 199 010a 164A     		ldr	r2, .L36+16
 200 010c 9042     		cmp	r0, r2
 201 010e 09D0     		beq	.L34
  94:./Application/Src/application.c ****             right_motor_arrived = 0;
 202              		.loc 1 94 16 is_stmt 1 view .LVU69
  94:./Application/Src/application.c ****             right_motor_arrived = 0;
 203              		.loc 1 94 19 is_stmt 0 view .LVU70
 204 0110 154A     		ldr	r2, .L36+20
 205 0112 9042     		cmp	r0, r2
 206 0114 0AD0     		beq	.L35
 207              	.L16:
 208              		.loc 1 99 5 is_stmt 1 view .LVU71
 209              		.loc 1 99 8 is_stmt 0 view .LVU72
 210 0116 B3F57A7F 		cmp	r3, #1000
 211 011a 0BDC     		bgt	.L21
 212              	.LVL10:
 213              	.L14:
 100:./Application/Src/application.c ****     if (pwm_temp < 0)   pwm_temp = 0;
 214              		.loc 1 100 5 is_stmt 1 view .LVU73
 215              		.loc 1 100 8 is_stmt 0 view .LVU74
 216 011c 002B     		cmp	r3, #0
 217 011e 0BDA     		bge	.L17
 218              		.loc 1 100 34 discriminator 1 view .LVU75
 219 0120 0023     		movs	r3, #0
 220              	.LVL11:
 221              		.loc 1 100 34 discriminator 1 view .LVU76
 222 0122 0DE0     		b	.L18
 223              	.LVL12:
 224              	.L34:
  93:./Application/Src/application.c ****         } else if (target_system == &right_motor) {
 225              		.loc 1 93 13 is_stmt 1 view .LVU77
  93:./Application/Src/application.c ****         } else if (target_system == &right_motor) {
ARM GAS  C:\Users\Xuleo\AppData\Local\Temp\ccqyQa1H.s 			page 7


 226              		.loc 1 93 32 is_stmt 0 view .LVU78
 227 0124 114A     		ldr	r2, .L36+24
 228 0126 0021     		movs	r1, #0
 229 0128 1160     		str	r1, [r2]
  93:./Application/Src/application.c ****         } else if (target_system == &right_motor) {
 230              		.loc 1 93 32 view .LVU79
 231 012a F4E7     		b	.L16
 232              	.L35:
  95:./Application/Src/application.c ****         }
 233              		.loc 1 95 13 is_stmt 1 view .LVU80
  95:./Application/Src/application.c ****         }
 234              		.loc 1 95 33 is_stmt 0 view .LVU81
 235 012c 104A     		ldr	r2, .L36+28
 236 012e 0021     		movs	r1, #0
 237 0130 1160     		str	r1, [r2]
  95:./Application/Src/application.c ****         }
 238              		.loc 1 95 33 view .LVU82
 239 0132 F0E7     		b	.L16
 240              	.L21:
  99:./Application/Src/application.c ****     if (pwm_temp < 0)   pwm_temp = 0;
 241              		.loc 1 99 35 discriminator 1 view .LVU83
 242 0134 4FF47A73 		mov	r3, #1000
 243              	.LVL13:
 244              	.L17:
 101:./Application/Src/application.c **** 
 102:./Application/Src/application.c ****     if (pwm_temp < 499 && pwm_temp > 250) pwm_temp = 250;
 245              		.loc 1 102 5 is_stmt 1 view .LVU84
 246              		.loc 1 102 24 is_stmt 0 view .LVU85
 247 0138 A3F1FB02 		sub	r2, r3, #251
 248              		.loc 1 102 8 view .LVU86
 249 013c F72A     		cmp	r2, #247
 250 013e 06D9     		bls	.L23
 251              	.LVL14:
 252              	.L18:
 103:./Application/Src/application.c ****     if (pwm_temp > 501 && pwm_temp < 750) pwm_temp = 750;
 253              		.loc 1 103 5 is_stmt 1 view .LVU87
 254              		.loc 1 103 24 is_stmt 0 view .LVU88
 255 0140 A3F5FB72 		sub	r2, r3, #502
 256              		.loc 1 103 8 view .LVU89
 257 0144 F72A     		cmp	r2, #247
 258 0146 03D8     		bhi	.L19
 259              		.loc 1 103 52 discriminator 1 view .LVU90
 260 0148 40F2EE23 		movw	r3, #750
 261              	.LVL15:
 262              		.loc 1 103 52 discriminator 1 view .LVU91
 263 014c 00E0     		b	.L19
 264              	.LVL16:
 265              	.L23:
 102:./Application/Src/application.c ****     if (pwm_temp > 501 && pwm_temp < 750) pwm_temp = 750;
 266              		.loc 1 102 52 discriminator 1 view .LVU92
 267 014e FA23     		movs	r3, #250
 268              	.LVL17:
 269              	.L19:
 104:./Application/Src/application.c ****     target_system->output_pwm = pwm_temp;
 270              		.loc 1 104 5 is_stmt 1 view .LVU93
 271              		.loc 1 104 31 is_stmt 0 view .LVU94
 272 0150 0385     		strh	r3, [r0, #40]	@ movhi
ARM GAS  C:\Users\Xuleo\AppData\Local\Temp\ccqyQa1H.s 			page 8


 105:./Application/Src/application.c ****     
 106:./Application/Src/application.c ****     return;
 273              		.loc 1 106 5 is_stmt 1 view .LVU95
 107:./Application/Src/application.c **** }
 274              		.loc 1 107 1 is_stmt 0 view .LVU96
 275 0152 7047     		bx	lr
 276              	.L37:
 277              		.align	2
 278              	.L36:
 279 0154 0000FA43 		.word	1140457472
 280 0158 9A9999BF 		.word	-1080452710
 281 015c 9A99993F 		.word	1067030938
 282 0160 3333733F 		.word	1064514355
 283 0164 00000000 		.word	left_motor
 284 0168 00000000 		.word	right_motor
 285 016c 00000000 		.word	left_motor_arrived
 286 0170 00000000 		.word	right_motor_arrived
 287              		.cfi_endproc
 288              	.LFE359:
 290              		.section	.text.homing_procedure,"ax",%progbits
 291              		.align	1
 292              		.global	homing_procedure
 293              		.syntax unified
 294              		.thumb
 295              		.thumb_func
 297              	homing_procedure:
 298              	.LFB360:
 108:./Application/Src/application.c **** 
 109:./Application/Src/application.c **** 
 110:./Application/Src/application.c **** void homing_procedure(void) {
 299              		.loc 1 110 29 is_stmt 1 view -0
 300              		.cfi_startproc
 301              		@ args = 0, pretend = 0, frame = 0
 302              		@ frame_needed = 0, uses_anonymous_args = 0
 303              		@ link register save eliminated.
 111:./Application/Src/application.c ****     // TODO: implement homing procedure
 112:./Application/Src/application.c **** }
 304              		.loc 1 112 1 view .LVU98
 305 0000 7047     		bx	lr
 306              		.cfi_endproc
 307              	.LFE360:
 309              		.section	.text.controller_init,"ax",%progbits
 310              		.align	1
 311              		.global	controller_init
 312              		.syntax unified
 313              		.thumb
 314              		.thumb_func
 316              	controller_init:
 317              	.LFB361:
 113:./Application/Src/application.c **** 
 114:./Application/Src/application.c **** void controller_init(void) {
 318              		.loc 1 114 28 view -0
 319              		.cfi_startproc
 320              		@ args = 0, pretend = 0, frame = 0
 321              		@ frame_needed = 0, uses_anonymous_args = 0
 322 0000 10B5     		push	{r4, lr}
 323              	.LCFI0:
ARM GAS  C:\Users\Xuleo\AppData\Local\Temp\ccqyQa1H.s 			page 9


 324              		.cfi_def_cfa_offset 8
 325              		.cfi_offset 4, -8
 326              		.cfi_offset 14, -4
 115:./Application/Src/application.c ****     memset(&vofa, 0, sizeof(vofa));
 327              		.loc 1 115 5 view .LVU100
 328 0002 064C     		ldr	r4, .L41
 329 0004 2C22     		movs	r2, #44
 330 0006 0021     		movs	r1, #0
 331 0008 2046     		mov	r0, r4
 332 000a FFF7FEFF 		bl	memset
 333              	.LVL18:
 116:./Application/Src/application.c ****     vofa.vofaTail[0] = 0x00;
 334              		.loc 1 116 5 view .LVU101
 117:./Application/Src/application.c ****     vofa.vofaTail[1] = 0x00;
 335              		.loc 1 117 5 view .LVU102
 118:./Application/Src/application.c ****     vofa.vofaTail[2] = 0x80;
 336              		.loc 1 118 5 view .LVU103
 337              		.loc 1 118 22 is_stmt 0 view .LVU104
 338 000e 8023     		movs	r3, #128
 339 0010 84F82A30 		strb	r3, [r4, #42]
 119:./Application/Src/application.c ****     vofa.vofaTail[3] = 0x7f;
 340              		.loc 1 119 5 is_stmt 1 view .LVU105
 341              		.loc 1 119 22 is_stmt 0 view .LVU106
 342 0014 7F23     		movs	r3, #127
 343 0016 84F82B30 		strb	r3, [r4, #43]
 120:./Application/Src/application.c **** 
 121:./Application/Src/application.c ****     // // disable idle interrupt half and full interrupt
 122:./Application/Src/application.c ****     // extern DMA_HandleTypeDef handle_GPDMA1_Channel1;
 123:./Application/Src/application.c ****     // __HAL_DMA_DISABLE_IT(&handle_GPDMA1_Channel1, DMA_IT_HT);
 124:./Application/Src/application.c ****     // __HAL_DMA_DISABLE_IT(&handle_GPDMA1_Channel1, DMA_IT_TC); 
 125:./Application/Src/application.c **** }
 344              		.loc 1 125 1 view .LVU107
 345 001a 10BD     		pop	{r4, pc}
 346              	.L42:
 347              		.align	2
 348              	.L41:
 349 001c 00000000 		.word	vofa
 350              		.cfi_endproc
 351              	.LFE361:
 353              		.section	.text.controller_step,"ax",%progbits
 354              		.align	1
 355              		.global	controller_step
 356              		.syntax unified
 357              		.thumb
 358              		.thumb_func
 360              	controller_step:
 361              	.LVL19:
 362              	.LFB362:
 126:./Application/Src/application.c **** 
 127:./Application/Src/application.c **** void controller_step(const float dt) {
 363              		.loc 1 127 38 is_stmt 1 view -0
 364              		.cfi_startproc
 365              		@ args = 0, pretend = 0, frame = 0
 366              		@ frame_needed = 0, uses_anonymous_args = 0
 367              		.loc 1 127 38 is_stmt 0 view .LVU109
 368 0000 70B5     		push	{r4, r5, r6, lr}
 369              	.LCFI1:
ARM GAS  C:\Users\Xuleo\AppData\Local\Temp\ccqyQa1H.s 			page 10


 370              		.cfi_def_cfa_offset 16
 371              		.cfi_offset 4, -16
 372              		.cfi_offset 5, -12
 373              		.cfi_offset 6, -8
 374              		.cfi_offset 14, -4
 128:./Application/Src/application.c **** #ifdef USECONTROLLER
 129:./Application/Src/application.c ****     // read the encoder 
 130:./Application/Src/application.c **** 
 131:./Application/Src/application.c ****     left_motor.encoder_cnt += encoder_read_value(&htim3);
 375              		.loc 1 131 5 is_stmt 1 view .LVU110
 376              		.loc 1 131 31 is_stmt 0 view .LVU111
 377 0002 2748     		ldr	r0, .L47
 378 0004 FFF7FEFF 		bl	encoder_read_value
 379              	.LVL20:
 380              		.loc 1 131 15 discriminator 1 view .LVU112
 381 0008 264E     		ldr	r6, .L47+4
 382 000a 3369     		ldr	r3, [r6, #16]
 383              		.loc 1 131 28 discriminator 1 view .LVU113
 384 000c 1844     		add	r0, r0, r3
 385 000e 3061     		str	r0, [r6, #16]
 132:./Application/Src/application.c ****     left_motor.current_pos = encoder_parse_distance_mm(left_motor.encoder_cnt);
 386              		.loc 1 132 5 is_stmt 1 view .LVU114
 387              		.loc 1 132 30 is_stmt 0 view .LVU115
 388 0010 FFF7FEFF 		bl	encoder_parse_distance_mm
 389              	.LVL21:
 390              		.loc 1 132 28 discriminator 1 view .LVU116
 391 0014 86ED060A 		vstr.32	s0, [r6, #24]
 133:./Application/Src/application.c ****     vofa.val[0] = left_motor.current_pos;
 392              		.loc 1 133 5 is_stmt 1 view .LVU117
 393              		.loc 1 133 17 is_stmt 0 view .LVU118
 394 0018 234C     		ldr	r4, .L47+8
 395 001a 84ED000A 		vstr.32	s0, [r4]
 134:./Application/Src/application.c ****     vofa.val[1] = left_motor.target_pos;
 396              		.loc 1 134 5 is_stmt 1 view .LVU119
 397              		.loc 1 134 29 is_stmt 0 view .LVU120
 398 001e 7369     		ldr	r3, [r6, #20]	@ float
 399              		.loc 1 134 17 view .LVU121
 400 0020 6360     		str	r3, [r4, #4]	@ float
 135:./Application/Src/application.c **** 
 136:./Application/Src/application.c ****     right_motor.encoder_cnt += encoder_read_value(&htim4);
 401              		.loc 1 136 5 is_stmt 1 view .LVU122
 402              		.loc 1 136 32 is_stmt 0 view .LVU123
 403 0022 2248     		ldr	r0, .L47+12
 404 0024 FFF7FEFF 		bl	encoder_read_value
 405              	.LVL22:
 406              		.loc 1 136 16 discriminator 1 view .LVU124
 407 0028 214D     		ldr	r5, .L47+16
 408 002a 2B69     		ldr	r3, [r5, #16]
 409              		.loc 1 136 29 discriminator 1 view .LVU125
 410 002c 1844     		add	r0, r0, r3
 411 002e 2861     		str	r0, [r5, #16]
 137:./Application/Src/application.c ****     right_motor.current_pos = encoder_parse_distance_mm(right_motor.encoder_cnt);
 412              		.loc 1 137 5 is_stmt 1 view .LVU126
 413              		.loc 1 137 31 is_stmt 0 view .LVU127
 414 0030 FFF7FEFF 		bl	encoder_parse_distance_mm
 415              	.LVL23:
 416              		.loc 1 137 29 discriminator 1 view .LVU128
ARM GAS  C:\Users\Xuleo\AppData\Local\Temp\ccqyQa1H.s 			page 11


 417 0034 85ED060A 		vstr.32	s0, [r5, #24]
 138:./Application/Src/application.c ****     vofa.val[5] = right_motor.current_pos;
 418              		.loc 1 138 5 is_stmt 1 view .LVU129
 419              		.loc 1 138 17 is_stmt 0 view .LVU130
 420 0038 84ED050A 		vstr.32	s0, [r4, #20]
 139:./Application/Src/application.c ****     vofa.val[6] = right_motor.target_pos;
 421              		.loc 1 139 5 is_stmt 1 view .LVU131
 422              		.loc 1 139 30 is_stmt 0 view .LVU132
 423 003c 6B69     		ldr	r3, [r5, #20]	@ float
 424              		.loc 1 139 17 view .LVU133
 425 003e A361     		str	r3, [r4, #24]	@ float
 140:./Application/Src/application.c **** 
 141:./Application/Src/application.c ****     pid_cycle(&left_motor);
 426              		.loc 1 141 5 is_stmt 1 view .LVU134
 427 0040 3046     		mov	r0, r6
 428 0042 FFF7FEFF 		bl	pid_cycle
 429              	.LVL24:
 142:./Application/Src/application.c ****     pid_cycle(&right_motor);
 430              		.loc 1 142 5 view .LVU135
 431 0046 2846     		mov	r0, r5
 432 0048 FFF7FEFF 		bl	pid_cycle
 433              	.LVL25:
 143:./Application/Src/application.c ****     vofa.val[2] = left_motor.output_pwm;
 434              		.loc 1 143 5 view .LVU136
 435              		.loc 1 143 29 is_stmt 0 view .LVU137
 436 004c 328D     		ldrh	r2, [r6, #40]
 437              		.loc 1 143 17 view .LVU138
 438 004e 07EE902A 		vmov	s15, r2	@ int
 439 0052 F8EE677A 		vcvt.f32.u32	s15, s15
 440 0056 C4ED027A 		vstr.32	s15, [r4, #8]
 144:./Application/Src/application.c ****     vofa.val[7] = right_motor.output_pwm;
 441              		.loc 1 144 5 is_stmt 1 view .LVU139
 442              		.loc 1 144 30 is_stmt 0 view .LVU140
 443 005a 298D     		ldrh	r1, [r5, #40]
 444              		.loc 1 144 17 view .LVU141
 445 005c 07EE901A 		vmov	s15, r1	@ int
 446 0060 F8EE677A 		vcvt.f32.u32	s15, s15
 447 0064 C4ED077A 		vstr.32	s15, [r4, #28]
 145:./Application/Src/application.c **** 
 146:./Application/Src/application.c ****     __HAL_TIM_SET_COMPARE(&htim1, TIM_CHANNEL_2, right_motor.output_pwm);
 448              		.loc 1 146 5 is_stmt 1 view .LVU142
 449 0068 124B     		ldr	r3, .L47+20
 450 006a 1B68     		ldr	r3, [r3]
 451 006c 9963     		str	r1, [r3, #56]
 147:./Application/Src/application.c ****     __HAL_TIM_SET_COMPARE(&htim1, TIM_CHANNEL_1, left_motor.output_pwm);
 452              		.loc 1 147 5 view .LVU143
 453 006e 5A63     		str	r2, [r3, #52]
 148:./Application/Src/application.c **** 
 149:./Application/Src/application.c ****     if (!uart_binary_mode
 454              		.loc 1 149 5 view .LVU144
 455              		.loc 1 149 9 is_stmt 0 view .LVU145
 456 0070 114B     		ldr	r3, .L47+24
 457 0072 1B68     		ldr	r3, [r3]
 458              		.loc 1 149 8 view .LVU146
 459 0074 03B1     		cbz	r3, .L46
 460              	.L43:
 150:./Application/Src/application.c ****         && menu_get_state() != MENU_STATE_TRANSMIT
ARM GAS  C:\Users\Xuleo\AppData\Local\Temp\ccqyQa1H.s 			page 12


 151:./Application/Src/application.c ****         && menu_get_state() != MENU_STATE_TRANSMIT_RAM
 152:./Application/Src/application.c ****         && huart2.gState == HAL_UART_STATE_READY) {
 153:./Application/Src/application.c ****             HAL_UART_Transmit_DMA(&huart2, (uint8_t*)&vofa, sizeof(vofa));
 154:./Application/Src/application.c ****     }
 155:./Application/Src/application.c **** #endif
 156:./Application/Src/application.c **** }
 461              		.loc 1 156 1 view .LVU147
 462 0076 70BD     		pop	{r4, r5, r6, pc}
 463              	.L46:
 150:./Application/Src/application.c ****         && menu_get_state() != MENU_STATE_TRANSMIT
 464              		.loc 1 150 12 view .LVU148
 465 0078 FFF7FEFF 		bl	menu_get_state
 466              	.LVL26:
 150:./Application/Src/application.c ****         && menu_get_state() != MENU_STATE_TRANSMIT
 467              		.loc 1 150 9 discriminator 1 view .LVU149
 468 007c 0128     		cmp	r0, #1
 469 007e FAD0     		beq	.L43
 151:./Application/Src/application.c ****         && huart2.gState == HAL_UART_STATE_READY) {
 470              		.loc 1 151 12 view .LVU150
 471 0080 FFF7FEFF 		bl	menu_get_state
 472              	.LVL27:
 151:./Application/Src/application.c ****         && huart2.gState == HAL_UART_STATE_READY) {
 473              		.loc 1 151 9 discriminator 1 view .LVU151
 474 0084 0228     		cmp	r0, #2
 475 0086 F6D0     		beq	.L43
 152:./Application/Src/application.c ****             HAL_UART_Transmit_DMA(&huart2, (uint8_t*)&vofa, sizeof(vofa));
 476              		.loc 1 152 18 view .LVU152
 477 0088 0C4B     		ldr	r3, .L47+28
 478 008a D3F88830 		ldr	r3, [r3, #136]
 152:./Application/Src/application.c ****             HAL_UART_Transmit_DMA(&huart2, (uint8_t*)&vofa, sizeof(vofa));
 479              		.loc 1 152 9 view .LVU153
 480 008e 202B     		cmp	r3, #32
 481 0090 F1D1     		bne	.L43
 153:./Application/Src/application.c ****     }
 482              		.loc 1 153 13 is_stmt 1 view .LVU154
 483 0092 2C22     		movs	r2, #44
 484 0094 2146     		mov	r1, r4
 485 0096 0948     		ldr	r0, .L47+28
 486 0098 FFF7FEFF 		bl	HAL_UART_Transmit_DMA
 487              	.LVL28:
 488              		.loc 1 156 1 is_stmt 0 view .LVU155
 489 009c EBE7     		b	.L43
 490              	.L48:
 491 009e 00BF     		.align	2
 492              	.L47:
 493 00a0 00000000 		.word	htim3
 494 00a4 00000000 		.word	left_motor
 495 00a8 00000000 		.word	vofa
 496 00ac 00000000 		.word	htim4
 497 00b0 00000000 		.word	right_motor
 498 00b4 00000000 		.word	htim1
 499 00b8 00000000 		.word	uart_binary_mode
 500 00bc 00000000 		.word	huart2
 501              		.cfi_endproc
 502              	.LFE362:
 504              		.global	right_motor
 505              		.section	.data.right_motor,"aw"
ARM GAS  C:\Users\Xuleo\AppData\Local\Temp\ccqyQa1H.s 			page 13


 506              		.align	2
 509              	right_motor:
 510 0000 7B14AE3D 		.word	1034818683
 511 0004 8FC2753C 		.word	1014350479
 512 0008 CDCC4C40 		.word	1078774989
 513 000c 0000A441 		.word	1101266944
 514 0010 00000000 		.word	0
 515 0014 00000000 		.space	4
 516 0018 00000000 		.word	0
 517 001c 00000000 		.space	12
 517      00000000 
 517      00000000 
 518 0028 F401     		.short	500
 519 002a 0000     		.space	2
 520              		.global	left_motor
 521              		.section	.data.left_motor,"aw"
 522              		.align	2
 525              	left_motor:
 526 0000 7B14AE3D 		.word	1034818683
 527 0004 8FC2753C 		.word	1014350479
 528 0008 CDCC4C40 		.word	1078774989
 529 000c 0000A441 		.word	1101266944
 530 0010 00000000 		.word	0
 531 0014 00000000 		.space	4
 532 0018 00000000 		.word	0
 533 001c 00000000 		.space	12
 533      00000000 
 533      00000000 
 534 0028 F401     		.short	500
 535 002a 0000     		.space	2
 536              		.global	right_motor_arrived
 537              		.section	.bss.right_motor_arrived,"aw",%nobits
 538              		.align	2
 541              	right_motor_arrived:
 542 0000 00000000 		.space	4
 543              		.global	left_motor_arrived
 544              		.section	.bss.left_motor_arrived,"aw",%nobits
 545              		.align	2
 548              	left_motor_arrived:
 549 0000 00000000 		.space	4
 550              		.global	counter
 551              		.section	.bss.counter,"aw",%nobits
 552              		.align	2
 555              	counter:
 556 0000 00000000 		.space	4
 557              		.global	target_position_mm
 558              		.section	.bss.target_position_mm,"aw",%nobits
 559              		.align	2
 562              	target_position_mm:
 563 0000 00000000 		.space	4
 564              		.global	current_distance_mm
 565              		.section	.bss.current_distance_mm,"aw",%nobits
 566              		.align	2
 569              	current_distance_mm:
 570 0000 00000000 		.space	4
 571              		.global	encoder_direction
 572              		.section	.bss.encoder_direction,"aw",%nobits
ARM GAS  C:\Users\Xuleo\AppData\Local\Temp\ccqyQa1H.s 			page 14


 573              		.align	2
 576              	encoder_direction:
 577 0000 00000000 		.space	4
 578              		.global	encoder_read_result
 579              		.section	.bss.encoder_read_result,"aw",%nobits
 580              		.align	2
 583              	encoder_read_result:
 584 0000 00000000 		.space	4
 585              		.global	encoder_speed_mm_s
 586              		.section	.bss.encoder_speed_mm_s,"aw",%nobits
 587              		.align	2
 590              	encoder_speed_mm_s:
 591 0000 00000000 		.space	4
 592              		.global	encoder_old_position_mm
 593              		.section	.bss.encoder_old_position_mm,"aw",%nobits
 594              		.align	2
 597              	encoder_old_position_mm:
 598 0000 00000000 		.space	4
 599              		.global	encoder_count
 600              		.section	.bss.encoder_count,"aw",%nobits
 601              		.align	2
 604              	encoder_count:
 605 0000 00000000 		.space	4
 606              		.global	chord_events
 607              		.section	.bss.chord_events,"aw",%nobits
 608              		.align	2
 611              	chord_events:
 612 0000 00000000 		.space	7300
 612      00000000 
 612      00000000 
 612      00000000 
 612      00000000 
 613              		.global	vofa
 614              		.section	.bss.vofa,"aw",%nobits
 615              		.align	2
 618              	vofa:
 619 0000 00000000 		.space	44
 619      00000000 
 619      00000000 
 619      00000000 
 619      00000000 
 620              		.global	rx_data
 621              		.section	.bss.rx_data,"aw",%nobits
 622              		.align	2
 625              	rx_data:
 626 0000 00000000 		.space	22000
 626      00000000 
 626      00000000 
 626      00000000 
 626      00000000 
 627              		.global	ram_rx_offset
 628              		.section	.bss.ram_rx_offset,"aw",%nobits
 629              		.align	2
 632              	ram_rx_offset:
 633 0000 00000000 		.space	4
 634              		.global	ram_rx_complete
 635              		.section	.bss.ram_rx_complete,"aw",%nobits
ARM GAS  C:\Users\Xuleo\AppData\Local\Temp\ccqyQa1H.s 			page 15


 636              		.align	2
 639              	ram_rx_complete:
 640 0000 00000000 		.space	4
 641              		.global	ram_rx_started
 642              		.section	.bss.ram_rx_started,"aw",%nobits
 643              		.align	2
 646              	ram_rx_started:
 647 0000 00000000 		.space	4
 648              		.global	redirect_to_ram
 649              		.section	.bss.redirect_to_ram,"aw",%nobits
 650              		.align	2
 653              	redirect_to_ram:
 654 0000 00000000 		.space	4
 655              		.global	uart_binary_mode
 656              		.section	.bss.uart_binary_mode,"aw",%nobits
 657              		.align	2
 660              	uart_binary_mode:
 661 0000 00000000 		.space	4
 662              		.global	rx_valid
 663              		.section	.bss.rx_valid,"aw",%nobits
 664              		.align	2
 667              	rx_valid:
 668 0000 00000000 		.space	4
 669              		.global	rx_complete
 670              		.section	.bss.rx_complete,"aw",%nobits
 671              		.align	2
 674              	rx_complete:
 675 0000 00000000 		.space	4
 676              		.global	old_buffer_index
 677              		.section	.bss.old_buffer_index,"aw",%nobits
 678              		.align	2
 681              	old_buffer_index:
 682 0000 00000000 		.space	4
 683              		.global	rx_message_index
 684              		.section	.bss.rx_message_index,"aw",%nobits
 685              		.align	1
 688              	rx_message_index:
 689 0000 0000     		.space	2
 690              		.global	rx_message
 691              		.section	.bss.rx_message,"aw",%nobits
 692              		.align	2
 695              	rx_message:
 696 0000 00000000 		.space	256
 696      00000000 
 696      00000000 
 696      00000000 
 696      00000000 
 697              		.global	rx_message_buffer
 698              		.section	.bss.rx_message_buffer,"aw",%nobits
 699              		.align	2
 702              	rx_message_buffer:
 703 0000 00000000 		.space	128
 703      00000000 
 703      00000000 
 703      00000000 
 703      00000000 
 704              		.text
ARM GAS  C:\Users\Xuleo\AppData\Local\Temp\ccqyQa1H.s 			page 16


 705              	.Letext0:
 706              		.file 2 "C:/thirdpartyLibs/arm-gnu-toolchain-15.2/arm-none-eabi/include/machine/_default_types.h"
 707              		.file 3 "C:/thirdpartyLibs/arm-gnu-toolchain-15.2/arm-none-eabi/include/sys/_stdint.h"
 708              		.file 4 "Drivers/CMSIS/Device/ST/STM32H5xx/Include/stm32h523xx.h"
 709              		.file 5 "Drivers/STM32H5xx_HAL_Driver/Inc/stm32h5xx_hal_def.h"
 710              		.file 6 "Drivers/STM32H5xx_HAL_Driver/Inc/stm32h5xx_hal_dma.h"
 711              		.file 7 "Drivers/STM32H5xx_HAL_Driver/Inc/stm32h5xx_hal_dma_ex.h"
 712              		.file 8 "Drivers/STM32H5xx_HAL_Driver/Inc/stm32h5xx_hal_tim.h"
 713              		.file 9 "Drivers/STM32H5xx_HAL_Driver/Inc/stm32h5xx_hal_uart.h"
 714              		.file 10 "Application/Inc/menu.h"
 715              		.file 11 "Core/Inc/usart.h"
 716              		.file 12 "Core/Inc/tim.h"
 717              		.file 13 "Application/Inc/application.h"
 718              		.file 14 "Application/Inc/encoder.h"
 719              		.file 15 "C:/thirdpartyLibs/arm-gnu-toolchain-15.2/arm-none-eabi/include/string.h"
 720              		.file 16 "<built-in>"
ARM GAS  C:\Users\Xuleo\AppData\Local\Temp\ccqyQa1H.s 			page 17


DEFINED SYMBOLS
                            *ABS*:00000000 application.c
C:\Users\Xuleo\AppData\Local\Temp\ccqyQa1H.s:22     .text.pid_cycle:00000000 $t
C:\Users\Xuleo\AppData\Local\Temp\ccqyQa1H.s:28     .text.pid_cycle:00000000 pid_cycle
C:\Users\Xuleo\AppData\Local\Temp\ccqyQa1H.s:279    .text.pid_cycle:00000154 $d
C:\Users\Xuleo\AppData\Local\Temp\ccqyQa1H.s:525    .data.left_motor:00000000 left_motor
C:\Users\Xuleo\AppData\Local\Temp\ccqyQa1H.s:509    .data.right_motor:00000000 right_motor
C:\Users\Xuleo\AppData\Local\Temp\ccqyQa1H.s:548    .bss.left_motor_arrived:00000000 left_motor_arrived
C:\Users\Xuleo\AppData\Local\Temp\ccqyQa1H.s:541    .bss.right_motor_arrived:00000000 right_motor_arrived
C:\Users\Xuleo\AppData\Local\Temp\ccqyQa1H.s:291    .text.homing_procedure:00000000 $t
C:\Users\Xuleo\AppData\Local\Temp\ccqyQa1H.s:297    .text.homing_procedure:00000000 homing_procedure
C:\Users\Xuleo\AppData\Local\Temp\ccqyQa1H.s:310    .text.controller_init:00000000 $t
C:\Users\Xuleo\AppData\Local\Temp\ccqyQa1H.s:316    .text.controller_init:00000000 controller_init
C:\Users\Xuleo\AppData\Local\Temp\ccqyQa1H.s:349    .text.controller_init:0000001c $d
C:\Users\Xuleo\AppData\Local\Temp\ccqyQa1H.s:618    .bss.vofa:00000000 vofa
C:\Users\Xuleo\AppData\Local\Temp\ccqyQa1H.s:354    .text.controller_step:00000000 $t
C:\Users\Xuleo\AppData\Local\Temp\ccqyQa1H.s:360    .text.controller_step:00000000 controller_step
C:\Users\Xuleo\AppData\Local\Temp\ccqyQa1H.s:493    .text.controller_step:000000a0 $d
C:\Users\Xuleo\AppData\Local\Temp\ccqyQa1H.s:660    .bss.uart_binary_mode:00000000 uart_binary_mode
C:\Users\Xuleo\AppData\Local\Temp\ccqyQa1H.s:506    .data.right_motor:00000000 $d
C:\Users\Xuleo\AppData\Local\Temp\ccqyQa1H.s:522    .data.left_motor:00000000 $d
C:\Users\Xuleo\AppData\Local\Temp\ccqyQa1H.s:538    .bss.right_motor_arrived:00000000 $d
C:\Users\Xuleo\AppData\Local\Temp\ccqyQa1H.s:545    .bss.left_motor_arrived:00000000 $d
C:\Users\Xuleo\AppData\Local\Temp\ccqyQa1H.s:555    .bss.counter:00000000 counter
C:\Users\Xuleo\AppData\Local\Temp\ccqyQa1H.s:552    .bss.counter:00000000 $d
C:\Users\Xuleo\AppData\Local\Temp\ccqyQa1H.s:562    .bss.target_position_mm:00000000 target_position_mm
C:\Users\Xuleo\AppData\Local\Temp\ccqyQa1H.s:559    .bss.target_position_mm:00000000 $d
C:\Users\Xuleo\AppData\Local\Temp\ccqyQa1H.s:569    .bss.current_distance_mm:00000000 current_distance_mm
C:\Users\Xuleo\AppData\Local\Temp\ccqyQa1H.s:566    .bss.current_distance_mm:00000000 $d
C:\Users\Xuleo\AppData\Local\Temp\ccqyQa1H.s:576    .bss.encoder_direction:00000000 encoder_direction
C:\Users\Xuleo\AppData\Local\Temp\ccqyQa1H.s:573    .bss.encoder_direction:00000000 $d
C:\Users\Xuleo\AppData\Local\Temp\ccqyQa1H.s:583    .bss.encoder_read_result:00000000 encoder_read_result
C:\Users\Xuleo\AppData\Local\Temp\ccqyQa1H.s:580    .bss.encoder_read_result:00000000 $d
C:\Users\Xuleo\AppData\Local\Temp\ccqyQa1H.s:590    .bss.encoder_speed_mm_s:00000000 encoder_speed_mm_s
C:\Users\Xuleo\AppData\Local\Temp\ccqyQa1H.s:587    .bss.encoder_speed_mm_s:00000000 $d
C:\Users\Xuleo\AppData\Local\Temp\ccqyQa1H.s:597    .bss.encoder_old_position_mm:00000000 encoder_old_position_mm
C:\Users\Xuleo\AppData\Local\Temp\ccqyQa1H.s:594    .bss.encoder_old_position_mm:00000000 $d
C:\Users\Xuleo\AppData\Local\Temp\ccqyQa1H.s:604    .bss.encoder_count:00000000 encoder_count
C:\Users\Xuleo\AppData\Local\Temp\ccqyQa1H.s:601    .bss.encoder_count:00000000 $d
C:\Users\Xuleo\AppData\Local\Temp\ccqyQa1H.s:611    .bss.chord_events:00000000 chord_events
C:\Users\Xuleo\AppData\Local\Temp\ccqyQa1H.s:608    .bss.chord_events:00000000 $d
C:\Users\Xuleo\AppData\Local\Temp\ccqyQa1H.s:615    .bss.vofa:00000000 $d
C:\Users\Xuleo\AppData\Local\Temp\ccqyQa1H.s:625    .bss.rx_data:00000000 rx_data
C:\Users\Xuleo\AppData\Local\Temp\ccqyQa1H.s:622    .bss.rx_data:00000000 $d
C:\Users\Xuleo\AppData\Local\Temp\ccqyQa1H.s:632    .bss.ram_rx_offset:00000000 ram_rx_offset
C:\Users\Xuleo\AppData\Local\Temp\ccqyQa1H.s:629    .bss.ram_rx_offset:00000000 $d
C:\Users\Xuleo\AppData\Local\Temp\ccqyQa1H.s:639    .bss.ram_rx_complete:00000000 ram_rx_complete
C:\Users\Xuleo\AppData\Local\Temp\ccqyQa1H.s:636    .bss.ram_rx_complete:00000000 $d
C:\Users\Xuleo\AppData\Local\Temp\ccqyQa1H.s:646    .bss.ram_rx_started:00000000 ram_rx_started
C:\Users\Xuleo\AppData\Local\Temp\ccqyQa1H.s:643    .bss.ram_rx_started:00000000 $d
C:\Users\Xuleo\AppData\Local\Temp\ccqyQa1H.s:653    .bss.redirect_to_ram:00000000 redirect_to_ram
C:\Users\Xuleo\AppData\Local\Temp\ccqyQa1H.s:650    .bss.redirect_to_ram:00000000 $d
C:\Users\Xuleo\AppData\Local\Temp\ccqyQa1H.s:657    .bss.uart_binary_mode:00000000 $d
C:\Users\Xuleo\AppData\Local\Temp\ccqyQa1H.s:667    .bss.rx_valid:00000000 rx_valid
C:\Users\Xuleo\AppData\Local\Temp\ccqyQa1H.s:664    .bss.rx_valid:00000000 $d
C:\Users\Xuleo\AppData\Local\Temp\ccqyQa1H.s:674    .bss.rx_complete:00000000 rx_complete
C:\Users\Xuleo\AppData\Local\Temp\ccqyQa1H.s:671    .bss.rx_complete:00000000 $d
ARM GAS  C:\Users\Xuleo\AppData\Local\Temp\ccqyQa1H.s 			page 18


C:\Users\Xuleo\AppData\Local\Temp\ccqyQa1H.s:681    .bss.old_buffer_index:00000000 old_buffer_index
C:\Users\Xuleo\AppData\Local\Temp\ccqyQa1H.s:678    .bss.old_buffer_index:00000000 $d
C:\Users\Xuleo\AppData\Local\Temp\ccqyQa1H.s:688    .bss.rx_message_index:00000000 rx_message_index
C:\Users\Xuleo\AppData\Local\Temp\ccqyQa1H.s:685    .bss.rx_message_index:00000000 $d
C:\Users\Xuleo\AppData\Local\Temp\ccqyQa1H.s:695    .bss.rx_message:00000000 rx_message
C:\Users\Xuleo\AppData\Local\Temp\ccqyQa1H.s:692    .bss.rx_message:00000000 $d
C:\Users\Xuleo\AppData\Local\Temp\ccqyQa1H.s:702    .bss.rx_message_buffer:00000000 rx_message_buffer
C:\Users\Xuleo\AppData\Local\Temp\ccqyQa1H.s:699    .bss.rx_message_buffer:00000000 $d

UNDEFINED SYMBOLS
memset
encoder_read_value
encoder_parse_distance_mm
menu_get_state
HAL_UART_Transmit_DMA
htim3
htim4
htim1
huart2
