ARM GAS  C:\Users\Xuleo\AppData\Local\Temp\ccHEJafg.s 			page 1


   1              		.cpu cortex-m33
   2              		.arch armv8-m.main
   3              		.fpu fpv5-sp-d16
   4              		.arch_extension dsp
   5              		.eabi_attribute 27, 1
   6              		.eabi_attribute 28, 1
   7              		.eabi_attribute 20, 1
   8              		.eabi_attribute 21, 1
   9              		.eabi_attribute 23, 3
  10              		.eabi_attribute 24, 1
  11              		.eabi_attribute 25, 1
  12              		.eabi_attribute 26, 1
  13              		.eabi_attribute 30, 1
  14              		.eabi_attribute 34, 1
  15              		.eabi_attribute 18, 4
  16              		.file	"command.c"
  17              		.text
  18              	.Ltext0:
  19              		.cfi_sections	.debug_frame
  20              		.file 1 "./Application/Src/command.c"
  21              		.section	.text.set_text,"ax",%progbits
  22              		.align	1
  23              		.global	set_text
  24              		.syntax unified
  25              		.thumb
  26              		.thumb_func
  28              	set_text:
  29              	.LVL0:
  30              	.LFB361:
   1:./Application/Src/command.c **** #include <command.h>
   2:./Application/Src/command.c **** #include <stdio.h>
   3:./Application/Src/command.c **** #include <stdlib.h>
   4:./Application/Src/command.c **** #include "stm32h5xx_hal.h"
   5:./Application/Src/command.c **** #include <application.h>
   6:./Application/Src/command.c **** #include <diskio.h>
   7:./Application/Src/command.c **** #include <sd.h>
   8:./Application/Src/command.c **** #include <hc04.h>
   9:./Application/Src/command.c **** #include <menu.h>
  10:./Application/Src/command.c **** #include <user_timer.h>
  11:./Application/Src/command.c **** #include <tim.h>
  12:./Application/Src/command.c **** 
  13:./Application/Src/command.c **** static uint8_t cmd_listen[16];
  14:./Application/Src/command.c **** 
  15:./Application/Src/command.c **** extern PID_t left_motor;
  16:./Application/Src/command.c **** extern PID_t right_motor;
  17:./Application/Src/command.c **** 
  18:./Application/Src/command.c **** uint8_t motor_off;
  19:./Application/Src/command.c **** 
  20:./Application/Src/command.c **** int parse_command(uint8_t *cmd)
  21:./Application/Src/command.c **** {
  22:./Application/Src/command.c ****     /* ---- Colon commands (:p, :w, :s, :r, :d, :a) ---- */
  23:./Application/Src/command.c ****     if (cmd[0] == ':'){
  24:./Application/Src/command.c ****         switch (cmd[1]){
  25:./Application/Src/command.c ****         case 'p':{ /* :p <value> — set position in mm */
  26:./Application/Src/command.c ****             char *arg = (char *)cmd + 3;
  27:./Application/Src/command.c ****             while (*arg == ' ')
  28:./Application/Src/command.c ****                 arg++;
ARM GAS  C:\Users\Xuleo\AppData\Local\Temp\ccHEJafg.s 			page 2


  29:./Application/Src/command.c ****             if (*arg == '\0')
  30:./Application/Src/command.c ****                 return 3; /* incomplete */
  31:./Application/Src/command.c **** 
  32:./Application/Src/command.c ****             // separate left and right
  33:./Application/Src/command.c ****             if (cmd[2] == 'l'){
  34:./Application/Src/command.c ****                 left_motor.target_pos = strtof(arg, NULL);
  35:./Application/Src/command.c ****             }
  36:./Application/Src/command.c ****             else if (cmd[2] == 'r'){
  37:./Application/Src/command.c ****                 right_motor.target_pos = strtof(arg, NULL);
  38:./Application/Src/command.c ****             }
  39:./Application/Src/command.c ****             else {
  40:./Application/Src/command.c ****                 return 1;
  41:./Application/Src/command.c ****             }
  42:./Application/Src/command.c ****             return 0;
  43:./Application/Src/command.c ****         }
  44:./Application/Src/command.c ****         case 'w': /* :w — menu move up */
  45:./Application/Src/command.c ****             menu_move_up = 1;
  46:./Application/Src/command.c ****             return 0;
  47:./Application/Src/command.c ****         case 's': /* :s — menu move down */
  48:./Application/Src/command.c ****             menu_move_down = 1;
  49:./Application/Src/command.c ****             return 0;
  50:./Application/Src/command.c ****         case 'r': /* :r — reset encoder position */
  51:./Application/Src/command.c ****             // reset_pos(&htim2);
  52:./Application/Src/command.c ****             return 0;
  53:./Application/Src/command.c ****         case 'd': /* :d — enter / select current menu item */
  54:./Application/Src/command.c ****             menu_enter = 1;
  55:./Application/Src/command.c ****             return 0;
  56:./Application/Src/command.c ****         case 'a': /* :a — back to main menu */
  57:./Application/Src/command.c ****             menu_back = 1;
  58:./Application/Src/command.c ****             return 0;
  59:./Application/Src/command.c ****         case 't': // set text in LCD
  60:./Application/Src/command.c ****             char *arg = (char *)cmd + 2;
  61:./Application/Src/command.c ****             while (*arg == ' ')
  62:./Application/Src/command.c ****                 arg++;
  63:./Application/Src/command.c ****             if (*arg == '\0')
  64:./Application/Src/command.c ****                 return 3; /* incomplete */
  65:./Application/Src/command.c ****             set_text((uint8_t *)arg);
  66:./Application/Src/command.c ****             return 0;
  67:./Application/Src/command.c ****         case 'o': // reset position
  68:./Application/Src/command.c ****             // reset_pos(&htim2);
  69:./Application/Src/command.c ****             return 0;
  70:./Application/Src/command.c ****         case 'l':
  71:./Application/Src/command.c ****             // list_files_over_bt();
  72:./Application/Src/command.c ****             return 0;
  73:./Application/Src/command.c **** 
  74:./Application/Src/command.c ****         case 'z':
  75:./Application/Src/command.c ****             // here begin test traversal:
  76:./Application/Src/command.c ****             traversal();
  77:./Application/Src/command.c ****             // debug_traversal();
  78:./Application/Src/command.c ****             return 0;
  79:./Application/Src/command.c ****         
  80:./Application/Src/command.c ****         case 'x':
  81:./Application/Src/command.c ****             // here begin test traversal:
  82:./Application/Src/command.c ****             debug_traversal();
  83:./Application/Src/command.c ****             // debug_traversal();
  84:./Application/Src/command.c ****             return 0;
  85:./Application/Src/command.c **** 
ARM GAS  C:\Users\Xuleo\AppData\Local\Temp\ccHEJafg.s 			page 3


  86:./Application/Src/command.c ****         case 'q': // stop playing current song:
  87:./Application/Src/command.c ****             stop_playing = 1;
  88:./Application/Src/command.c ****             return 0;
  89:./Application/Src/command.c **** 
  90:./Application/Src/command.c ****         default:
  91:./Application/Src/command.c ****             return 1; /* unknown colon command */
  92:./Application/Src/command.c ****         }
  93:./Application/Src/command.c ****     }
  94:./Application/Src/command.c **** 
  95:./Application/Src/command.c ****     else if (cmd[0] == ';'){
  96:./Application/Src/command.c ****         switch (cmd[1]){
  97:./Application/Src/command.c ****         case 'p':{ /* :p <value> — set position in mm */
  98:./Application/Src/command.c ****             char *arg = (char *)cmd + 3;
  99:./Application/Src/command.c ****             while (*arg == ' ')
 100:./Application/Src/command.c ****                 arg++;
 101:./Application/Src/command.c ****             if (*arg == '\0')
 102:./Application/Src/command.c ****                 return 3; /* incomplete */
 103:./Application/Src/command.c **** 
 104:./Application/Src/command.c ****             // separate left and right
 105:./Application/Src/command.c ****             if (cmd[2] == 'l'){
 106:./Application/Src/command.c ****                 left_motor.Kp = strtof(arg, NULL);
 107:./Application/Src/command.c ****             }
 108:./Application/Src/command.c ****             else if (cmd[2] == 'r'){
 109:./Application/Src/command.c ****                 left_motor.Kp = strtof(arg, NULL);
 110:./Application/Src/command.c ****             }
 111:./Application/Src/command.c ****             else {
 112:./Application/Src/command.c ****                 return 1;
 113:./Application/Src/command.c ****             }
 114:./Application/Src/command.c ****             return 0;
 115:./Application/Src/command.c ****         }
 116:./Application/Src/command.c ****         case 'i':{ /* :p <value> — set position in mm */
 117:./Application/Src/command.c ****             char *arg = (char *)cmd + 3;
 118:./Application/Src/command.c ****             while (*arg == ' ')
 119:./Application/Src/command.c ****                 arg++;
 120:./Application/Src/command.c ****             if (*arg == '\0')
 121:./Application/Src/command.c ****                 return 3; /* incomplete */
 122:./Application/Src/command.c **** 
 123:./Application/Src/command.c ****             // separate left and right
 124:./Application/Src/command.c ****             if (cmd[2] == 'l'){
 125:./Application/Src/command.c ****                 left_motor.Ki = strtof(arg, NULL);
 126:./Application/Src/command.c ****             }
 127:./Application/Src/command.c ****             else if (cmd[2] == 'r'){
 128:./Application/Src/command.c ****                 left_motor.Ki = strtof(arg, NULL);
 129:./Application/Src/command.c ****             }
 130:./Application/Src/command.c ****             else {
 131:./Application/Src/command.c ****                 return 1;
 132:./Application/Src/command.c ****             }
 133:./Application/Src/command.c ****             return 0;
 134:./Application/Src/command.c ****         }
 135:./Application/Src/command.c ****         case 'd':{ /* :p <value> — set position in mm */
 136:./Application/Src/command.c ****             char *arg = (char *)cmd + 3;
 137:./Application/Src/command.c ****             while (*arg == ' ')
 138:./Application/Src/command.c ****                 arg++;
 139:./Application/Src/command.c ****             if (*arg == '\0')
 140:./Application/Src/command.c ****                 return 3; /* incomplete */
 141:./Application/Src/command.c **** 
 142:./Application/Src/command.c ****             // separate left and right
ARM GAS  C:\Users\Xuleo\AppData\Local\Temp\ccHEJafg.s 			page 4


 143:./Application/Src/command.c ****             if (cmd[2] == 'l'){
 144:./Application/Src/command.c ****                 left_motor.Kd = strtof(arg, NULL);
 145:./Application/Src/command.c ****             }
 146:./Application/Src/command.c ****             else if (cmd[2] == 'r'){
 147:./Application/Src/command.c ****                 left_motor.Kd = strtof(arg, NULL);
 148:./Application/Src/command.c ****             }
 149:./Application/Src/command.c ****             else {
 150:./Application/Src/command.c ****                 return 1;
 151:./Application/Src/command.c ****             }
 152:./Application/Src/command.c ****             return 0;
 153:./Application/Src/command.c ****         }
 154:./Application/Src/command.c ****         }
 155:./Application/Src/command.c ****     }
 156:./Application/Src/command.c ****     return 1;
 157:./Application/Src/command.c **** }
 158:./Application/Src/command.c **** 
 159:./Application/Src/command.c **** void execute_command(uint8_t *command)
 160:./Application/Src/command.c **** {
 161:./Application/Src/command.c ****     int result = parse_command(command);
 162:./Application/Src/command.c ****     if (result == 0)
 163:./Application/Src/command.c ****     {
 164:./Application/Src/command.c ****         LCD_draw_string(0, 14, "OK.                      ", COLOR_BLACK, COLOR_WHITE);
 165:./Application/Src/command.c ****         LCD_draw_string(0, 15, "                         ", COLOR_BLACK, COLOR_WHITE);
 166:./Application/Src/command.c ****     }
 167:./Application/Src/command.c ****     else if (result == 1)
 168:./Application/Src/command.c ****     {
 169:./Application/Src/command.c ****         LCD_draw_string(0, 14, "Cannot parse!            ", COLOR_BLACK, COLOR_WHITE);
 170:./Application/Src/command.c ****         LCD_draw_string(0, 15, (char*)command, COLOR_BLACK, COLOR_WHITE);
 171:./Application/Src/command.c ****     }
 172:./Application/Src/command.c ****     else if (result == 2)
 173:./Application/Src/command.c ****     {
 174:./Application/Src/command.c ****         LCD_draw_string(0, 14, "Empty command!           ", COLOR_BLACK, COLOR_WHITE);
 175:./Application/Src/command.c ****     }
 176:./Application/Src/command.c ****     else if (result == 3)
 177:./Application/Src/command.c ****     {
 178:./Application/Src/command.c ****         LCD_draw_string(0, 14, "Incomplete command!      ", COLOR_BLACK, COLOR_WHITE);
 179:./Application/Src/command.c ****         LCD_draw_string(0, 15, (char*)command, COLOR_BLACK, COLOR_WHITE);
 180:./Application/Src/command.c ****     }
 181:./Application/Src/command.c **** }
 182:./Application/Src/command.c **** 
 183:./Application/Src/command.c **** void set_text(uint8_t *displayedText)
 184:./Application/Src/command.c **** {
  31              		.loc 1 184 1 view -0
  32              		.cfi_startproc
  33              		@ args = 0, pretend = 0, frame = 0
  34              		@ frame_needed = 0, uses_anonymous_args = 0
  35              		.loc 1 184 1 is_stmt 0 view .LVU1
  36 0000 00B5     		push	{lr}
  37              	.LCFI0:
  38              		.cfi_def_cfa_offset 4
  39              		.cfi_offset 14, -4
  40 0002 83B0     		sub	sp, sp, #12
  41              	.LCFI1:
  42              		.cfi_def_cfa_offset 16
  43 0004 0246     		mov	r2, r0
 185:./Application/Src/command.c ****     LCD_draw_string(0, 13, (char *)displayedText, COLOR_BLACK, COLOR_WHITE);
  44              		.loc 1 185 5 is_stmt 1 view .LVU2
ARM GAS  C:\Users\Xuleo\AppData\Local\Temp\ccHEJafg.s 			page 5


  45 0006 4FF6FF73 		movw	r3, #65535
  46 000a 0093     		str	r3, [sp]
  47 000c 0023     		movs	r3, #0
  48 000e 0D21     		movs	r1, #13
  49 0010 1846     		mov	r0, r3
  50              	.LVL1:
  51              		.loc 1 185 5 is_stmt 0 view .LVU3
  52 0012 FFF7FEFF 		bl	LCD_draw_string
  53              	.LVL2:
 186:./Application/Src/command.c **** }
  54              		.loc 1 186 1 view .LVU4
  55 0016 03B0     		add	sp, sp, #12
  56              	.LCFI2:
  57              		.cfi_def_cfa_offset 4
  58              		@ sp needed
  59 0018 00BD     		pop	{pc}
  60              		.cfi_endproc
  61              	.LFE361:
  63              		.section	.text.reset_pos,"ax",%progbits
  64              		.align	1
  65              		.global	reset_pos
  66              		.syntax unified
  67              		.thumb
  68              		.thumb_func
  70              	reset_pos:
  71              	.LVL3:
  72              	.LFB362:
 187:./Application/Src/command.c **** 
 188:./Application/Src/command.c **** void reset_pos(TIM_HandleTypeDef *htim)
 189:./Application/Src/command.c **** {
  73              		.loc 1 189 1 is_stmt 1 view -0
  74              		.cfi_startproc
  75              		@ args = 0, pretend = 0, frame = 0
  76              		@ frame_needed = 0, uses_anonymous_args = 0
  77              		@ link register save eliminated.
 190:./Application/Src/command.c ****     // encoder_old_position_mm = 0.0f;
 191:./Application/Src/command.c ****     __HAL_TIM_SET_COUNTER(htim, 0);
  78              		.loc 1 191 5 view .LVU6
  79 0000 0368     		ldr	r3, [r0]
  80 0002 0022     		movs	r2, #0
  81 0004 5A62     		str	r2, [r3, #36]
 192:./Application/Src/command.c **** }
  82              		.loc 1 192 1 is_stmt 0 view .LVU7
  83 0006 7047     		bx	lr
  84              		.cfi_endproc
  85              	.LFE362:
  87              		.section	.rodata.list_files_over_bt.str1.4,"aMS",%progbits,1
  88              		.align	2
  89              	.LC0:
  90 0000 454E440A 		.ascii	"END\012\000"
  90      00
  91              		.section	.text.list_files_over_bt,"ax",%progbits
  92              		.align	1
  93              		.global	list_files_over_bt
  94              		.syntax unified
  95              		.thumb
  96              		.thumb_func
ARM GAS  C:\Users\Xuleo\AppData\Local\Temp\ccHEJafg.s 			page 6


  98              	list_files_over_bt:
  99              	.LFB363:
 193:./Application/Src/command.c **** 
 194:./Application/Src/command.c **** /*
 195:./Application/Src/command.c ****  * Send the TXT file list over Bluetooth in the format expected by hc04.py:
 196:./Application/Src/command.c ****  *   FILES:<count>\n
 197:./Application/Src/command.c ****  *   <filename>,<size>\n
 198:./Application/Src/command.c ****  *   ...
 199:./Application/Src/command.c ****  *   END\n
 200:./Application/Src/command.c ****  */
 201:./Application/Src/command.c **** void list_files_over_bt(void)
 202:./Application/Src/command.c **** {
 100              		.loc 1 202 1 is_stmt 1 view -0
 101              		.cfi_startproc
 102              		@ args = 0, pretend = 0, frame = 0
 103              		@ frame_needed = 0, uses_anonymous_args = 0
 104 0000 08B5     		push	{r3, lr}
 105              	.LCFI3:
 106              		.cfi_def_cfa_offset 8
 107              		.cfi_offset 3, -8
 108              		.cfi_offset 14, -4
 203:./Application/Src/command.c ****     // char buf[40];
 204:./Application/Src/command.c **** 
 205:./Application/Src/command.c ****     // /* Refresh file list from SD card */
 206:./Application/Src/command.c ****     // int count = sd_list_txt_files();
 207:./Application/Src/command.c **** 
 208:./Application/Src/command.c ****     // snprintf(buf, sizeof(buf), "FILES:%d\n", count);
 209:./Application/Src/command.c ****     // HC04_SendString(buf);
 210:./Application/Src/command.c **** 
 211:./Application/Src/command.c ****     // for (int i = 0; i < count; i++)
 212:./Application/Src/command.c ****     // {
 213:./Application/Src/command.c ****     //     snprintf(buf, sizeof(buf), "%s,%lu\n",
 214:./Application/Src/command.c ****     //              fileList[i].name, (unsigned long)fileList[i].size);
 215:./Application/Src/command.c ****     //     HC04_SendString(buf);
 216:./Application/Src/command.c ****     // }
 217:./Application/Src/command.c **** 
 218:./Application/Src/command.c ****     hc04_send_string((uint8_t*)"END\n");
 109              		.loc 1 218 5 view .LVU9
 110 0002 0248     		ldr	r0, .L6
 111 0004 FFF7FEFF 		bl	hc04_send_string
 112              	.LVL4:
 219:./Application/Src/command.c **** }
 113              		.loc 1 219 1 is_stmt 0 view .LVU10
 114 0008 08BD     		pop	{r3, pc}
 115              	.L7:
 116 000a 00BF     		.align	2
 117              	.L6:
 118 000c 00000000 		.word	.LC0
 119              		.cfi_endproc
 120              	.LFE363:
 122              		.section	.text.toggle_solenoid,"ax",%progbits
 123              		.align	1
 124              		.global	toggle_solenoid
 125              		.syntax unified
 126              		.thumb
 127              		.thumb_func
 129              	toggle_solenoid:
ARM GAS  C:\Users\Xuleo\AppData\Local\Temp\ccHEJafg.s 			page 7


 130              	.LVL5:
 131              	.LFB364:
 220:./Application/Src/command.c **** 
 221:./Application/Src/command.c **** void toggle_solenoid(uint16_t traversal_index){
 132              		.loc 1 221 47 is_stmt 1 view -0
 133              		.cfi_startproc
 134              		@ args = 0, pretend = 0, frame = 0
 135              		@ frame_needed = 0, uses_anonymous_args = 0
 136              		.loc 1 221 47 is_stmt 0 view .LVU12
 137 0000 38B5     		push	{r3, r4, r5, lr}
 138              	.LCFI4:
 139              		.cfi_def_cfa_offset 16
 140              		.cfi_offset 3, -16
 141              		.cfi_offset 4, -12
 142              		.cfi_offset 5, -8
 143              		.cfi_offset 14, -4
 144 0002 0546     		mov	r5, r0
 222:./Application/Src/command.c ****     motor_off = 1;
 145              		.loc 1 222 5 is_stmt 1 view .LVU13
 146              		.loc 1 222 15 is_stmt 0 view .LVU14
 147 0004 384B     		ldr	r3, .L24
 148 0006 0122     		movs	r2, #1
 149 0008 1A70     		strb	r2, [r3]
 223:./Application/Src/command.c ****     for (int i = 0; i < 10; i++) {
 150              		.loc 1 223 5 is_stmt 1 view .LVU15
 151              	.LBB2:
 152              		.loc 1 223 10 view .LVU16
 153              	.LVL6:
 154              		.loc 1 223 14 is_stmt 0 view .LVU17
 155 000a 0024     		movs	r4, #0
 156              		.loc 1 223 5 view .LVU18
 157 000c 0FE0     		b	.L9
 158              	.LVL7:
 159              	.L10:
 224:./Application/Src/command.c ****         HAL_GPIO_WritePin(solenoids[i].port, solenoids[i].pin, chord_events[traversal_index].presse
 160              		.loc 1 224 9 is_stmt 1 view .LVU19
 161              		.loc 1 224 39 is_stmt 0 view .LVU20
 162 000e 3748     		ldr	r0, .L24+4
 163              		.loc 1 224 58 view .LVU21
 164 0010 00EBC401 		add	r1, r0, r4, lsl #3
 165              		.loc 1 224 101 view .LVU22
 166 0014 05EB4502 		add	r2, r5, r5, lsl #1
 167 0018 354B     		ldr	r3, .L24+8
 168 001a 03EBC203 		add	r3, r3, r2, lsl #3
 169 001e 2344     		add	r3, r3, r4
 170              		.loc 1 224 9 view .LVU23
 171 0020 1A7A     		ldrb	r2, [r3, #8]	@ zero_extendqisi2
 172 0022 8988     		ldrh	r1, [r1, #4]
 173 0024 50F83400 		ldr	r0, [r0, r4, lsl #3]
 174 0028 FFF7FEFF 		bl	HAL_GPIO_WritePin
 175              	.LVL8:
 223:./Application/Src/command.c ****     for (int i = 0; i < 10; i++) {
 176              		.loc 1 223 30 is_stmt 1 discriminator 3 view .LVU24
 177 002c 0134     		adds	r4, r4, #1
 178              	.LVL9:
 179              	.L9:
 223:./Application/Src/command.c ****     for (int i = 0; i < 10; i++) {
ARM GAS  C:\Users\Xuleo\AppData\Local\Temp\ccHEJafg.s 			page 8


 180              		.loc 1 223 23 discriminator 1 view .LVU25
 181 002e 092C     		cmp	r4, #9
 182 0030 EDDD     		ble	.L10
 183              	.LBE2:
 225:./Application/Src/command.c ****     }
 226:./Application/Src/command.c ****     // wait for the duration of the chord:
 227:./Application/Src/command.c ****     wait_ms(chord_events[traversal_index].duration_ms);
 184              		.loc 1 227 5 view .LVU26
 185 0032 05EB4503 		add	r3, r5, r5, lsl #1
 186 0036 2E4C     		ldr	r4, .L24+8
 187              	.LVL10:
 188              		.loc 1 227 5 is_stmt 0 view .LVU27
 189 0038 04EBC304 		add	r4, r4, r3, lsl #3
 190 003c 608A     		ldrh	r0, [r4, #18]
 191 003e FFF7FEFF 		bl	wait_ms
 192              	.LVL11:
 228:./Application/Src/command.c ****     // reset solenoids based on which hand changes position next
 229:./Application/Src/command.c ****     if (chord_events[traversal_index].long_pressed[0]){ // left hand long press, keep it pressed
 193              		.loc 1 229 5 is_stmt 1 view .LVU28
 194              		.loc 1 229 51 is_stmt 0 view .LVU29
 195 0042 237D     		ldrb	r3, [r4, #20]	@ zero_extendqisi2
 196              		.loc 1 229 8 view .LVU30
 197 0044 E3B9     		cbnz	r3, .L21
 198              	.LBB3:
 230:./Application/Src/command.c ****         for (int i = 0; i < 7; i++) {
 231:./Application/Src/command.c ****             HAL_GPIO_WritePin(solenoids[i].port, solenoids[i].pin, chord_events[traversal_index].pr
 232:./Application/Src/command.c ****         }
 233:./Application/Src/command.c ****     } else { // reset all left hand solenoids, since short click
 234:./Application/Src/command.c ****         for (int i = 0; i < 7; i++) {
 199              		.loc 1 234 18 view .LVU31
 200 0046 1C46     		mov	r4, r3
 201 0048 26E0     		b	.L12
 202              	.LVL12:
 203              	.L13:
 204              		.loc 1 234 18 view .LVU32
 205              	.LBE3:
 206              	.LBB4:
 231:./Application/Src/command.c ****         }
 207              		.loc 1 231 13 is_stmt 1 view .LVU33
 231:./Application/Src/command.c ****         }
 208              		.loc 1 231 43 is_stmt 0 view .LVU34
 209 004a 2848     		ldr	r0, .L24+4
 231:./Application/Src/command.c ****         }
 210              		.loc 1 231 62 view .LVU35
 211 004c 00EBC401 		add	r1, r0, r4, lsl #3
 231:./Application/Src/command.c ****         }
 212              		.loc 1 231 105 view .LVU36
 213 0050 05EB4502 		add	r2, r5, r5, lsl #1
 214 0054 264B     		ldr	r3, .L24+8
 215 0056 03EBC203 		add	r3, r3, r2, lsl #3
 216 005a 2344     		add	r3, r3, r4
 231:./Application/Src/command.c ****         }
 217              		.loc 1 231 13 view .LVU37
 218 005c 1A7A     		ldrb	r2, [r3, #8]	@ zero_extendqisi2
 219 005e 8988     		ldrh	r1, [r1, #4]
 220 0060 50F83400 		ldr	r0, [r0, r4, lsl #3]
 221 0064 FFF7FEFF 		bl	HAL_GPIO_WritePin
ARM GAS  C:\Users\Xuleo\AppData\Local\Temp\ccHEJafg.s 			page 9


 222              	.LVL13:
 230:./Application/Src/command.c ****         for (int i = 0; i < 7; i++) {
 223              		.loc 1 230 33 is_stmt 1 discriminator 3 view .LVU38
 224 0068 0134     		adds	r4, r4, #1
 225              	.LVL14:
 226              	.L11:
 230:./Application/Src/command.c ****         for (int i = 0; i < 7; i++) {
 227              		.loc 1 230 27 discriminator 1 view .LVU39
 228 006a 062C     		cmp	r4, #6
 229 006c EDDD     		ble	.L13
 230              	.LVL15:
 231              	.L14:
 230:./Application/Src/command.c ****         for (int i = 0; i < 7; i++) {
 232              		.loc 1 230 27 is_stmt 0 discriminator 1 view .LVU40
 233              	.LBE4:
 235:./Application/Src/command.c ****             HAL_GPIO_WritePin(solenoids[i].port, solenoids[i].pin, GPIO_PIN_RESET);
 236:./Application/Src/command.c ****         }
 237:./Application/Src/command.c **** 
 238:./Application/Src/command.c ****     }
 239:./Application/Src/command.c ****     
 240:./Application/Src/command.c ****     if (chord_events[traversal_index].long_pressed[1]){ // right hand long press, reset left hand s
 234              		.loc 1 240 5 is_stmt 1 view .LVU41
 235              		.loc 1 240 51 is_stmt 0 view .LVU42
 236 006e 05EB4502 		add	r2, r5, r5, lsl #1
 237 0072 1F4B     		ldr	r3, .L24+8
 238 0074 03EBC203 		add	r3, r3, r2, lsl #3
 239 0078 5B7D     		ldrb	r3, [r3, #21]	@ zero_extendqisi2
 240              		.loc 1 240 8 view .LVU43
 241 007a 33BB     		cbnz	r3, .L22
 242              	.LBB5:
 241:./Application/Src/command.c ****         for (int i = 7; i < 10; i++) {
 242:./Application/Src/command.c ****             HAL_GPIO_WritePin(solenoids[i].port, solenoids[i].pin, chord_events[traversal_index].pr
 243:./Application/Src/command.c ****         }
 244:./Application/Src/command.c ****     } else { // short click for right
 245:./Application/Src/command.c ****         for (int i = 7; i < 10; i++) {
 243              		.loc 1 245 18 view .LVU44
 244 007c 0724     		movs	r4, #7
 245 007e 30E0     		b	.L17
 246              	.L21:
 247              		.loc 1 245 18 view .LVU45
 248              	.LBE5:
 249              	.LBB6:
 230:./Application/Src/command.c ****             HAL_GPIO_WritePin(solenoids[i].port, solenoids[i].pin, chord_events[traversal_index].pr
 250              		.loc 1 230 18 view .LVU46
 251 0080 0024     		movs	r4, #0
 252 0082 F2E7     		b	.L11
 253              	.LVL16:
 254              	.L15:
 230:./Application/Src/command.c ****             HAL_GPIO_WritePin(solenoids[i].port, solenoids[i].pin, chord_events[traversal_index].pr
 255              		.loc 1 230 18 view .LVU47
 256              	.LBE6:
 257              	.LBB7:
 235:./Application/Src/command.c ****             HAL_GPIO_WritePin(solenoids[i].port, solenoids[i].pin, GPIO_PIN_RESET);
 258              		.loc 1 235 13 is_stmt 1 view .LVU48
 235:./Application/Src/command.c ****             HAL_GPIO_WritePin(solenoids[i].port, solenoids[i].pin, GPIO_PIN_RESET);
 259              		.loc 1 235 43 is_stmt 0 view .LVU49
 260 0084 194B     		ldr	r3, .L24+4
ARM GAS  C:\Users\Xuleo\AppData\Local\Temp\ccHEJafg.s 			page 10


 235:./Application/Src/command.c ****             HAL_GPIO_WritePin(solenoids[i].port, solenoids[i].pin, GPIO_PIN_RESET);
 261              		.loc 1 235 62 view .LVU50
 262 0086 03EBC401 		add	r1, r3, r4, lsl #3
 235:./Application/Src/command.c ****             HAL_GPIO_WritePin(solenoids[i].port, solenoids[i].pin, GPIO_PIN_RESET);
 263              		.loc 1 235 13 view .LVU51
 264 008a 0022     		movs	r2, #0
 265 008c 8988     		ldrh	r1, [r1, #4]
 266 008e 53F83400 		ldr	r0, [r3, r4, lsl #3]
 267 0092 FFF7FEFF 		bl	HAL_GPIO_WritePin
 268              	.LVL17:
 234:./Application/Src/command.c ****             HAL_GPIO_WritePin(solenoids[i].port, solenoids[i].pin, GPIO_PIN_RESET);
 269              		.loc 1 234 33 is_stmt 1 discriminator 3 view .LVU52
 270 0096 0134     		adds	r4, r4, #1
 271              	.LVL18:
 272              	.L12:
 234:./Application/Src/command.c ****             HAL_GPIO_WritePin(solenoids[i].port, solenoids[i].pin, GPIO_PIN_RESET);
 273              		.loc 1 234 27 discriminator 1 view .LVU53
 274 0098 062C     		cmp	r4, #6
 275 009a F3DD     		ble	.L15
 276 009c E7E7     		b	.L14
 277              	.LVL19:
 278              	.L18:
 234:./Application/Src/command.c ****             HAL_GPIO_WritePin(solenoids[i].port, solenoids[i].pin, GPIO_PIN_RESET);
 279              		.loc 1 234 27 is_stmt 0 discriminator 1 view .LVU54
 280              	.LBE7:
 281              	.LBB8:
 242:./Application/Src/command.c ****         }
 282              		.loc 1 242 13 is_stmt 1 view .LVU55
 242:./Application/Src/command.c ****         }
 283              		.loc 1 242 43 is_stmt 0 view .LVU56
 284 009e 1348     		ldr	r0, .L24+4
 242:./Application/Src/command.c ****         }
 285              		.loc 1 242 62 view .LVU57
 286 00a0 00EBC401 		add	r1, r0, r4, lsl #3
 242:./Application/Src/command.c ****         }
 287              		.loc 1 242 105 view .LVU58
 288 00a4 05EB4502 		add	r2, r5, r5, lsl #1
 289 00a8 114B     		ldr	r3, .L24+8
 290 00aa 03EBC203 		add	r3, r3, r2, lsl #3
 291 00ae 2344     		add	r3, r3, r4
 242:./Application/Src/command.c ****         }
 292              		.loc 1 242 13 view .LVU59
 293 00b0 1A7A     		ldrb	r2, [r3, #8]	@ zero_extendqisi2
 294 00b2 8988     		ldrh	r1, [r1, #4]
 295 00b4 50F83400 		ldr	r0, [r0, r4, lsl #3]
 296 00b8 FFF7FEFF 		bl	HAL_GPIO_WritePin
 297              	.LVL20:
 241:./Application/Src/command.c ****             HAL_GPIO_WritePin(solenoids[i].port, solenoids[i].pin, chord_events[traversal_index].pr
 298              		.loc 1 241 34 is_stmt 1 discriminator 3 view .LVU60
 299 00bc 0134     		adds	r4, r4, #1
 300              	.LVL21:
 301              	.L16:
 241:./Application/Src/command.c ****             HAL_GPIO_WritePin(solenoids[i].port, solenoids[i].pin, chord_events[traversal_index].pr
 302              		.loc 1 241 27 discriminator 1 view .LVU61
 303 00be 092C     		cmp	r4, #9
 304 00c0 EDDD     		ble	.L18
 305              	.LVL22:
ARM GAS  C:\Users\Xuleo\AppData\Local\Temp\ccHEJafg.s 			page 11


 306              	.L19:
 241:./Application/Src/command.c ****             HAL_GPIO_WritePin(solenoids[i].port, solenoids[i].pin, chord_events[traversal_index].pr
 307              		.loc 1 241 27 is_stmt 0 discriminator 1 view .LVU62
 308              	.LBE8:
 246:./Application/Src/command.c ****             HAL_GPIO_WritePin(solenoids[i].port, solenoids[i].pin, GPIO_PIN_RESET);
 247:./Application/Src/command.c ****         }
 248:./Application/Src/command.c ****     }
 249:./Application/Src/command.c ****     motor_off = 0;
 309              		.loc 1 249 5 is_stmt 1 view .LVU63
 310              		.loc 1 249 15 is_stmt 0 view .LVU64
 311 00c2 094B     		ldr	r3, .L24
 312 00c4 0022     		movs	r2, #0
 313 00c6 1A70     		strb	r2, [r3]
 250:./Application/Src/command.c **** }
 314              		.loc 1 250 1 view .LVU65
 315 00c8 38BD     		pop	{r3, r4, r5, pc}
 316              	.LVL23:
 317              	.L22:
 318              	.LBB9:
 241:./Application/Src/command.c ****             HAL_GPIO_WritePin(solenoids[i].port, solenoids[i].pin, chord_events[traversal_index].pr
 319              		.loc 1 241 18 view .LVU66
 320 00ca 0724     		movs	r4, #7
 321 00cc F7E7     		b	.L16
 322              	.LVL24:
 323              	.L20:
 241:./Application/Src/command.c ****             HAL_GPIO_WritePin(solenoids[i].port, solenoids[i].pin, chord_events[traversal_index].pr
 324              		.loc 1 241 18 view .LVU67
 325              	.LBE9:
 326              	.LBB10:
 246:./Application/Src/command.c ****             HAL_GPIO_WritePin(solenoids[i].port, solenoids[i].pin, GPIO_PIN_RESET);
 327              		.loc 1 246 13 is_stmt 1 view .LVU68
 246:./Application/Src/command.c ****             HAL_GPIO_WritePin(solenoids[i].port, solenoids[i].pin, GPIO_PIN_RESET);
 328              		.loc 1 246 43 is_stmt 0 view .LVU69
 329 00ce 074B     		ldr	r3, .L24+4
 246:./Application/Src/command.c ****             HAL_GPIO_WritePin(solenoids[i].port, solenoids[i].pin, GPIO_PIN_RESET);
 330              		.loc 1 246 62 view .LVU70
 331 00d0 03EBC401 		add	r1, r3, r4, lsl #3
 246:./Application/Src/command.c ****             HAL_GPIO_WritePin(solenoids[i].port, solenoids[i].pin, GPIO_PIN_RESET);
 332              		.loc 1 246 13 view .LVU71
 333 00d4 0022     		movs	r2, #0
 334 00d6 8988     		ldrh	r1, [r1, #4]
 335 00d8 53F83400 		ldr	r0, [r3, r4, lsl #3]
 336 00dc FFF7FEFF 		bl	HAL_GPIO_WritePin
 337              	.LVL25:
 245:./Application/Src/command.c ****             HAL_GPIO_WritePin(solenoids[i].port, solenoids[i].pin, GPIO_PIN_RESET);
 338              		.loc 1 245 34 is_stmt 1 discriminator 3 view .LVU72
 339 00e0 0134     		adds	r4, r4, #1
 340              	.LVL26:
 341              	.L17:
 245:./Application/Src/command.c ****             HAL_GPIO_WritePin(solenoids[i].port, solenoids[i].pin, GPIO_PIN_RESET);
 342              		.loc 1 245 27 discriminator 1 view .LVU73
 343 00e2 092C     		cmp	r4, #9
 344 00e4 F3DD     		ble	.L20
 345 00e6 ECE7     		b	.L19
 346              	.L25:
 347              		.align	2
 348              	.L24:
ARM GAS  C:\Users\Xuleo\AppData\Local\Temp\ccHEJafg.s 			page 12


 349 00e8 00000000 		.word	motor_off
 350 00ec 00000000 		.word	solenoids
 351 00f0 00000000 		.word	chord_events
 352              	.LBE10:
 353              		.cfi_endproc
 354              	.LFE364:
 356              		.section	.text.debug_traversal,"ax",%progbits
 357              		.align	1
 358              		.global	debug_traversal
 359              		.syntax unified
 360              		.thumb
 361              		.thumb_func
 363              	debug_traversal:
 364              	.LFB366:
 251:./Application/Src/command.c **** 
 252:./Application/Src/command.c **** void traversal(void){
 253:./Application/Src/command.c ****     
 254:./Application/Src/command.c ****     uint16_t traversal_index = 0;
 255:./Application/Src/command.c ****     if (chord_events[traversal_index].positions[0] == 0.0f && chord_events[traversal_index].positio
 256:./Application/Src/command.c ****         LCD_draw_string(0, 9, "No Song loaded!     ", COLOR_BLACK, COLOR_WHITE);
 257:./Application/Src/command.c ****         return;
 258:./Application/Src/command.c ****     }
 259:./Application/Src/command.c **** 
 260:./Application/Src/command.c ****     while (1){
 261:./Application/Src/command.c ****         if (chord_events[traversal_index].positions[0] == 1000.0f && chord_events[traversal_index].
 262:./Application/Src/command.c ****             LCD_draw_string(0, 9, "Song ends     ", COLOR_BLACK, COLOR_WHITE);
 263:./Application/Src/command.c ****             break;
 264:./Application/Src/command.c ****         }
 265:./Application/Src/command.c **** 
 266:./Application/Src/command.c ****         // listen to incoming commands only, check for :q only
 267:./Application/Src/command.c ****         if (rx_complete) {
 268:./Application/Src/command.c ****             // copy message locally so ISR can safely start receiving next one
 269:./Application/Src/command.c ****             uint16_t cmd_len = rx_valid;
 270:./Application/Src/command.c ****             memcpy(cmd_listen, rx_message, cmd_len + 1); // +1 for '\0'
 271:./Application/Src/command.c ****             rx_complete = 0; // clear AFTER copy, INSIDE the if block
 272:./Application/Src/command.c ****             cmd_listen[cmd_len] = '\0';
 273:./Application/Src/command.c ****             if (cmd_len > 0 && cmd_listen[cmd_len - 1] == '\n') {
 274:./Application/Src/command.c ****                 cmd_listen[cmd_len - 1] = '\0';
 275:./Application/Src/command.c ****                 cmd_len--;
 276:./Application/Src/command.c ****             }
 277:./Application/Src/command.c ****             menu_process_message(cmd_listen, cmd_len);
 278:./Application/Src/command.c ****             execute_command(cmd_listen);
 279:./Application/Src/command.c ****         }
 280:./Application/Src/command.c **** 
 281:./Application/Src/command.c ****         // in while loop, check if stop_playing flag is set by :q command, if so break the loop and
 282:./Application/Src/command.c ****         if (stop_playing) {
 283:./Application/Src/command.c ****             LCD_draw_string(0, 9, "Stopped by user     ", COLOR_BLACK, COLOR_WHITE);
 284:./Application/Src/command.c ****             stop_playing = 0; // reset the flag for future use
 285:./Application/Src/command.c ****             // reset the position for both motors to avoid unexpected behavior when start playing n
 286:./Application/Src/command.c ****             left_motor.target_pos = 0.0f;
 287:./Application/Src/command.c ****             right_motor.target_pos = 0.0f;
 288:./Application/Src/command.c ****             wait_ms(500); // wait for the motors to move back to initial position
 289:./Application/Src/command.c ****             break;
 290:./Application/Src/command.c ****         }
 291:./Application/Src/command.c **** 
 292:./Application/Src/command.c ****         // otherwise set the target position:
 293:./Application/Src/command.c ****         left_motor.target_pos = chord_events[traversal_index].positions[0];
ARM GAS  C:\Users\Xuleo\AppData\Local\Temp\ccHEJafg.s 			page 13


 294:./Application/Src/command.c ****         right_motor.target_pos = chord_events[traversal_index].positions[1];
 295:./Application/Src/command.c **** 
 296:./Application/Src/command.c ****         // stop the motor when pressing
 297:./Application/Src/command.c ****         wait_ms(5);
 298:./Application/Src/command.c ****         // while(left_motor_arrived == 0 || right_motor_arrived == 0); // waiting for motor to arri
 299:./Application/Src/command.c **** 
 300:./Application/Src/command.c ****         // here just wait for pressing:
 301:./Application/Src/command.c ****         wait_ms(20);
 302:./Application/Src/command.c ****         toggle_solenoid(traversal_index);
 303:./Application/Src/command.c **** 
 304:./Application/Src/command.c ****         traversal_index++;
 305:./Application/Src/command.c ****     }
 306:./Application/Src/command.c **** 
 307:./Application/Src/command.c **** }
 308:./Application/Src/command.c **** 
 309:./Application/Src/command.c **** void debug_traversal(void){
 365              		.loc 1 309 27 view -0
 366              		.cfi_startproc
 367              		@ args = 0, pretend = 0, frame = 0
 368              		@ frame_needed = 0, uses_anonymous_args = 0
 369 0000 70B5     		push	{r4, r5, r6, lr}
 370              	.LCFI5:
 371              		.cfi_def_cfa_offset 16
 372              		.cfi_offset 4, -16
 373              		.cfi_offset 5, -12
 374              		.cfi_offset 6, -8
 375              		.cfi_offset 14, -4
 310:./Application/Src/command.c ****     while (right_motor.target_pos < 138.0f || left_motor.target_pos < 138.0f) {
 376              		.loc 1 310 5 view .LVU75
 377              		.loc 1 310 11 is_stmt 0 view .LVU76
 378 0002 1EE0     		b	.L27
 379              	.LVL27:
 380              	.L31:
 381              	.LBB11:
 311:./Application/Src/command.c ****         right_motor.target_pos += 21.0f;
 312:./Application/Src/command.c ****         left_motor.target_pos += 21.0f;
 313:./Application/Src/command.c ****         wait_ms(10); // small delay so controller gets updated
 314:./Application/Src/command.c ****         while(!right_motor_arrived || !left_motor_arrived);
 315:./Application/Src/command.c **** 
 316:./Application/Src/command.c ****         // stop the motor when pressing
 317:./Application/Src/command.c ****         __HAL_TIM_SET_COMPARE(&htim1, TIM_CHANNEL_2, 500);
 318:./Application/Src/command.c ****         __HAL_TIM_SET_COMPARE(&htim1, TIM_CHANNEL_1, 500);
 319:./Application/Src/command.c **** 
 320:./Application/Src/command.c ****         for (int i = 0; i < 10; i++) {
 321:./Application/Src/command.c ****             HAL_GPIO_WritePin(solenoids[i].port, solenoids[i].pin, GPIO_PIN_SET);
 382              		.loc 1 321 13 is_stmt 1 view .LVU77
 383              		.loc 1 321 43 is_stmt 0 view .LVU78
 384 0004 294B     		ldr	r3, .L35
 385 0006 53F83450 		ldr	r5, [r3, r4, lsl #3]
 386              		.loc 1 321 62 view .LVU79
 387 000a 03EBC403 		add	r3, r3, r4, lsl #3
 388 000e 9E88     		ldrh	r6, [r3, #4]
 389              		.loc 1 321 13 view .LVU80
 390 0010 0122     		movs	r2, #1
 391 0012 3146     		mov	r1, r6
 392 0014 2846     		mov	r0, r5
 393 0016 FFF7FEFF 		bl	HAL_GPIO_WritePin
ARM GAS  C:\Users\Xuleo\AppData\Local\Temp\ccHEJafg.s 			page 14


 394              	.LVL28:
 322:./Application/Src/command.c ****             wait_ms(300);
 395              		.loc 1 322 13 is_stmt 1 view .LVU81
 396 001a 4FF49670 		mov	r0, #300
 397 001e FFF7FEFF 		bl	wait_ms
 398              	.LVL29:
 323:./Application/Src/command.c ****             HAL_GPIO_WritePin(solenoids[i].port, solenoids[i].pin, GPIO_PIN_RESET);
 399              		.loc 1 323 13 view .LVU82
 400 0022 0022     		movs	r2, #0
 401 0024 3146     		mov	r1, r6
 402 0026 2846     		mov	r0, r5
 403 0028 FFF7FEFF 		bl	HAL_GPIO_WritePin
 404              	.LVL30:
 324:./Application/Src/command.c ****             wait_ms(300);
 405              		.loc 1 324 13 view .LVU83
 406 002c 4FF49670 		mov	r0, #300
 407 0030 FFF7FEFF 		bl	wait_ms
 408              	.LVL31:
 320:./Application/Src/command.c ****             HAL_GPIO_WritePin(solenoids[i].port, solenoids[i].pin, GPIO_PIN_SET);
 409              		.loc 1 320 34 discriminator 3 view .LVU84
 410 0034 0134     		adds	r4, r4, #1
 411              	.LVL32:
 412              	.L30:
 320:./Application/Src/command.c ****             HAL_GPIO_WritePin(solenoids[i].port, solenoids[i].pin, GPIO_PIN_SET);
 413              		.loc 1 320 27 discriminator 1 view .LVU85
 414 0036 092C     		cmp	r4, #9
 415 0038 E4DD     		ble	.L31
 416              	.LBE11:
 325:./Application/Src/command.c ****         }
 326:./Application/Src/command.c ****         
 327:./Application/Src/command.c ****         wait_ms(1000);
 417              		.loc 1 327 9 view .LVU86
 418 003a 4FF47A70 		mov	r0, #1000
 419 003e FFF7FEFF 		bl	wait_ms
 420              	.LVL33:
 421              	.L27:
 310:./Application/Src/command.c ****         right_motor.target_pos += 21.0f;
 422              		.loc 1 310 44 view .LVU87
 310:./Application/Src/command.c ****         right_motor.target_pos += 21.0f;
 423              		.loc 1 310 23 is_stmt 0 view .LVU88
 424 0042 1B4B     		ldr	r3, .L35+4
 425 0044 D3ED057A 		vldr.32	s15, [r3, #20]
 310:./Application/Src/command.c ****         right_motor.target_pos += 21.0f;
 426              		.loc 1 310 44 view .LVU89
 427 0048 9FED1A7A 		vldr.32	s14, .L35+8
 428 004c F4EEC77A 		vcmpe.f32	s15, s14
 429 0050 F1EE10FA 		vmrs	APSR_nzcv, FPSCR
 430 0054 07D4     		bmi	.L32
 310:./Application/Src/command.c ****         right_motor.target_pos += 21.0f;
 431              		.loc 1 310 57 discriminator 1 view .LVU90
 432 0056 184B     		ldr	r3, .L35+12
 433 0058 D3ED056A 		vldr.32	s13, [r3, #20]
 310:./Application/Src/command.c ****         right_motor.target_pos += 21.0f;
 434              		.loc 1 310 44 discriminator 1 view .LVU91
 435 005c F4EEC76A 		vcmpe.f32	s13, s14
 436 0060 F1EE10FA 		vmrs	APSR_nzcv, FPSCR
 437 0064 20D5     		bpl	.L34
ARM GAS  C:\Users\Xuleo\AppData\Local\Temp\ccHEJafg.s 			page 15


 438              	.L32:
 311:./Application/Src/command.c ****         left_motor.target_pos += 21.0f;
 439              		.loc 1 311 9 is_stmt 1 view .LVU92
 311:./Application/Src/command.c ****         left_motor.target_pos += 21.0f;
 440              		.loc 1 311 32 is_stmt 0 view .LVU93
 441 0066 B3EE057A 		vmov.f32	s14, #2.1e+1
 442 006a 77EE877A 		vadd.f32	s15, s15, s14
 443 006e 104B     		ldr	r3, .L35+4
 444 0070 C3ED057A 		vstr.32	s15, [r3, #20]
 312:./Application/Src/command.c ****         wait_ms(10); // small delay so controller gets updated
 445              		.loc 1 312 9 is_stmt 1 view .LVU94
 312:./Application/Src/command.c ****         wait_ms(10); // small delay so controller gets updated
 446              		.loc 1 312 19 is_stmt 0 view .LVU95
 447 0074 104B     		ldr	r3, .L35+12
 448 0076 D3ED057A 		vldr.32	s15, [r3, #20]
 312:./Application/Src/command.c ****         wait_ms(10); // small delay so controller gets updated
 449              		.loc 1 312 31 view .LVU96
 450 007a 77EE877A 		vadd.f32	s15, s15, s14
 451 007e C3ED057A 		vstr.32	s15, [r3, #20]
 313:./Application/Src/command.c ****         while(!right_motor_arrived || !left_motor_arrived);
 452              		.loc 1 313 9 is_stmt 1 view .LVU97
 453 0082 0A20     		movs	r0, #10
 454 0084 FFF7FEFF 		bl	wait_ms
 455              	.LVL34:
 314:./Application/Src/command.c **** 
 456              		.loc 1 314 9 view .LVU98
 457              	.L28:
 314:./Application/Src/command.c **** 
 458              		.loc 1 314 36 discriminator 3 view .LVU99
 314:./Application/Src/command.c **** 
 459              		.loc 1 314 15 is_stmt 0 discriminator 3 view .LVU100
 460 0088 0C4B     		ldr	r3, .L35+16
 461 008a 1B68     		ldr	r3, [r3]
 314:./Application/Src/command.c **** 
 462              		.loc 1 314 36 discriminator 3 view .LVU101
 463 008c 002B     		cmp	r3, #0
 464 008e FBD0     		beq	.L28
 314:./Application/Src/command.c **** 
 465              		.loc 1 314 39 discriminator 2 view .LVU102
 466 0090 0B4B     		ldr	r3, .L35+20
 467 0092 1B68     		ldr	r3, [r3]
 314:./Application/Src/command.c **** 
 468              		.loc 1 314 36 discriminator 2 view .LVU103
 469 0094 002B     		cmp	r3, #0
 470 0096 F7D0     		beq	.L28
 317:./Application/Src/command.c ****         __HAL_TIM_SET_COMPARE(&htim1, TIM_CHANNEL_1, 500);
 471              		.loc 1 317 9 is_stmt 1 view .LVU104
 472 0098 0A4B     		ldr	r3, .L35+24
 473 009a 1B68     		ldr	r3, [r3]
 474 009c 4FF4FA72 		mov	r2, #500
 475 00a0 9A63     		str	r2, [r3, #56]
 318:./Application/Src/command.c **** 
 476              		.loc 1 318 9 view .LVU105
 477 00a2 5A63     		str	r2, [r3, #52]
 320:./Application/Src/command.c ****             HAL_GPIO_WritePin(solenoids[i].port, solenoids[i].pin, GPIO_PIN_SET);
 478              		.loc 1 320 9 view .LVU106
 479              	.LBB12:
ARM GAS  C:\Users\Xuleo\AppData\Local\Temp\ccHEJafg.s 			page 16


 320:./Application/Src/command.c ****             HAL_GPIO_WritePin(solenoids[i].port, solenoids[i].pin, GPIO_PIN_SET);
 480              		.loc 1 320 14 view .LVU107
 481              	.LVL35:
 320:./Application/Src/command.c ****             HAL_GPIO_WritePin(solenoids[i].port, solenoids[i].pin, GPIO_PIN_SET);
 482              		.loc 1 320 18 is_stmt 0 view .LVU108
 483 00a4 0024     		movs	r4, #0
 320:./Application/Src/command.c ****             HAL_GPIO_WritePin(solenoids[i].port, solenoids[i].pin, GPIO_PIN_SET);
 484              		.loc 1 320 9 view .LVU109
 485 00a6 C6E7     		b	.L30
 486              	.LVL36:
 487              	.L34:
 320:./Application/Src/command.c ****             HAL_GPIO_WritePin(solenoids[i].port, solenoids[i].pin, GPIO_PIN_SET);
 488              		.loc 1 320 9 view .LVU110
 489              	.LBE12:
 328:./Application/Src/command.c ****     }
 329:./Application/Src/command.c **** }
 490              		.loc 1 329 1 view .LVU111
 491 00a8 70BD     		pop	{r4, r5, r6, pc}
 492              	.L36:
 493 00aa 00BF     		.align	2
 494              	.L35:
 495 00ac 00000000 		.word	solenoids
 496 00b0 00000000 		.word	right_motor
 497 00b4 00000A43 		.word	1124728832
 498 00b8 00000000 		.word	left_motor
 499 00bc 00000000 		.word	right_motor_arrived
 500 00c0 00000000 		.word	left_motor_arrived
 501 00c4 00000000 		.word	htim1
 502              		.cfi_endproc
 503              	.LFE366:
 505              		.section	.text.parse_command,"ax",%progbits
 506              		.align	1
 507              		.global	parse_command
 508              		.syntax unified
 509              		.thumb
 510              		.thumb_func
 512              	parse_command:
 513              	.LVL37:
 514              	.LFB359:
  21:./Application/Src/command.c ****     /* ---- Colon commands (:p, :w, :s, :r, :d, :a) ---- */
 515              		.loc 1 21 1 is_stmt 1 view -0
 516              		.cfi_startproc
 517              		@ args = 0, pretend = 0, frame = 0
 518              		@ frame_needed = 0, uses_anonymous_args = 0
  21:./Application/Src/command.c ****     /* ---- Colon commands (:p, :w, :s, :r, :d, :a) ---- */
 519              		.loc 1 21 1 is_stmt 0 view .LVU113
 520 0000 08B5     		push	{r3, lr}
 521              	.LCFI6:
 522              		.cfi_def_cfa_offset 8
 523              		.cfi_offset 3, -8
 524              		.cfi_offset 14, -4
  23:./Application/Src/command.c ****         switch (cmd[1]){
 525              		.loc 1 23 5 is_stmt 1 view .LVU114
  23:./Application/Src/command.c ****         switch (cmd[1]){
 526              		.loc 1 23 12 is_stmt 0 view .LVU115
 527 0002 0378     		ldrb	r3, [r0]	@ zero_extendqisi2
  23:./Application/Src/command.c ****         switch (cmd[1]){
ARM GAS  C:\Users\Xuleo\AppData\Local\Temp\ccHEJafg.s 			page 17


 528              		.loc 1 23 8 view .LVU116
 529 0004 3A2B     		cmp	r3, #58
 530 0006 03D0     		beq	.L87
  95:./Application/Src/command.c ****         switch (cmd[1]){
 531              		.loc 1 95 10 is_stmt 1 view .LVU117
  95:./Application/Src/command.c ****         switch (cmd[1]){
 532              		.loc 1 95 13 is_stmt 0 view .LVU118
 533 0008 3B2B     		cmp	r3, #59
 534 000a 77D0     		beq	.L88
 156:./Application/Src/command.c **** }
 535              		.loc 1 156 12 view .LVU119
 536 000c 0120     		movs	r0, #1
 537              	.LVL38:
 538              	.L37:
 157:./Application/Src/command.c **** 
 539              		.loc 1 157 1 view .LVU120
 540 000e 08BD     		pop	{r3, pc}
 541              	.LVL39:
 542              	.L87:
  24:./Application/Src/command.c ****         case 'p':{ /* :p <value> — set position in mm */
 543              		.loc 1 24 9 is_stmt 1 view .LVU121
  24:./Application/Src/command.c ****         case 'p':{ /* :p <value> — set position in mm */
 544              		.loc 1 24 20 is_stmt 0 view .LVU122
 545 0010 4378     		ldrb	r3, [r0, #1]	@ zero_extendqisi2
  24:./Application/Src/command.c ****         case 'p':{ /* :p <value> — set position in mm */
 546              		.loc 1 24 9 view .LVU123
 547 0012 722B     		cmp	r3, #114
 548 0014 00F0DA80 		beq	.L73
 549 0018 1CD8     		bhi	.L40
 550 001a 6F2B     		cmp	r3, #111
 551 001c 00F0D880 		beq	.L74
 552 0020 0DD8     		bhi	.L41
 553 0022 642B     		cmp	r3, #100
 554 0024 56D0     		beq	.L42
 555 0026 6C2B     		cmp	r3, #108
 556 0028 00F0D480 		beq	.L75
 557 002c 612B     		cmp	r3, #97
 558 002e 04D1     		bne	.L89
 559              	.LBB13:
  57:./Application/Src/command.c ****             return 0;
 560              		.loc 1 57 13 is_stmt 1 view .LVU124
  57:./Application/Src/command.c ****             return 0;
 561              		.loc 1 57 23 is_stmt 0 view .LVU125
 562 0030 6D4B     		ldr	r3, .L103
 563 0032 0122     		movs	r2, #1
 564 0034 1A60     		str	r2, [r3]
  58:./Application/Src/command.c ****         case 't': // set text in LCD
 565              		.loc 1 58 13 is_stmt 1 view .LVU126
  58:./Application/Src/command.c ****         case 't': // set text in LCD
 566              		.loc 1 58 20 is_stmt 0 view .LVU127
 567 0036 0020     		movs	r0, #0
 568              	.LVL40:
  58:./Application/Src/command.c ****         case 't': // set text in LCD
 569              		.loc 1 58 20 view .LVU128
 570 0038 E9E7     		b	.L37
 571              	.LVL41:
 572              	.L89:
ARM GAS  C:\Users\Xuleo\AppData\Local\Temp\ccHEJafg.s 			page 18


  91:./Application/Src/command.c ****         }
 573              		.loc 1 91 20 view .LVU129
 574 003a 0120     		movs	r0, #1
 575              	.LVL42:
  91:./Application/Src/command.c ****         }
 576              		.loc 1 91 20 view .LVU130
 577 003c E7E7     		b	.L37
 578              	.LVL43:
 579              	.L41:
  91:./Application/Src/command.c ****         }
 580              		.loc 1 91 20 view .LVU131
 581              	.LBE13:
  24:./Application/Src/command.c ****         case 'p':{ /* :p <value> — set position in mm */
 582              		.loc 1 24 9 view .LVU132
 583 003e 702B     		cmp	r3, #112
 584 0040 1DD0     		beq	.L44
 585 0042 712B     		cmp	r3, #113
 586 0044 04D1     		bne	.L90
 587              	.LBB16:
  87:./Application/Src/command.c ****             return 0;
 588              		.loc 1 87 13 is_stmt 1 view .LVU133
  87:./Application/Src/command.c ****             return 0;
 589              		.loc 1 87 26 is_stmt 0 view .LVU134
 590 0046 694B     		ldr	r3, .L103+4
 591 0048 0122     		movs	r2, #1
 592 004a 1A60     		str	r2, [r3]
  88:./Application/Src/command.c **** 
 593              		.loc 1 88 13 is_stmt 1 view .LVU135
  88:./Application/Src/command.c **** 
 594              		.loc 1 88 20 is_stmt 0 view .LVU136
 595 004c 0020     		movs	r0, #0
 596              	.LVL44:
  88:./Application/Src/command.c **** 
 597              		.loc 1 88 20 view .LVU137
 598 004e DEE7     		b	.L37
 599              	.LVL45:
 600              	.L90:
  91:./Application/Src/command.c ****         }
 601              		.loc 1 91 20 view .LVU138
 602 0050 0120     		movs	r0, #1
 603              	.LVL46:
  91:./Application/Src/command.c ****         }
 604              		.loc 1 91 20 view .LVU139
 605 0052 DCE7     		b	.L37
 606              	.LVL47:
 607              	.L40:
  91:./Application/Src/command.c ****         }
 608              		.loc 1 91 20 view .LVU140
 609              	.LBE16:
  24:./Application/Src/command.c ****         case 'p':{ /* :p <value> — set position in mm */
 610              		.loc 1 24 9 view .LVU141
 611 0054 772B     		cmp	r3, #119
 612 0056 33D0     		beq	.L46
 613 0058 07D9     		bls	.L91
 614 005a 782B     		cmp	r3, #120
 615 005c 4AD0     		beq	.L50
 616 005e 7A2B     		cmp	r3, #122
ARM GAS  C:\Users\Xuleo\AppData\Local\Temp\ccHEJafg.s 			page 19


 617 0060 0BD1     		bne	.L92
 618              	.LBB17:
  76:./Application/Src/command.c ****             // debug_traversal();
 619              		.loc 1 76 13 is_stmt 1 view .LVU142
 620 0062 FFF7FEFF 		bl	traversal
 621              	.LVL48:
  78:./Application/Src/command.c ****         
 622              		.loc 1 78 13 view .LVU143
  78:./Application/Src/command.c ****         
 623              		.loc 1 78 20 is_stmt 0 view .LVU144
 624 0066 0020     		movs	r0, #0
 625 0068 D1E7     		b	.L37
 626              	.LVL49:
 627              	.L91:
  78:./Application/Src/command.c ****         
 628              		.loc 1 78 20 view .LVU145
 629              	.LBE17:
  24:./Application/Src/command.c ****         case 'p':{ /* :p <value> — set position in mm */
 630              		.loc 1 24 9 view .LVU146
 631 006a 732B     		cmp	r3, #115
 632 006c 2DD0     		beq	.L48
 633 006e 742B     		cmp	r3, #116
 634 0070 01D1     		bne	.L93
 635              	.LBB18:
  60:./Application/Src/command.c ****             while (*arg == ' ')
 636              		.loc 1 60 13 is_stmt 1 view .LVU147
  60:./Application/Src/command.c ****             while (*arg == ' ')
 637              		.loc 1 60 19 is_stmt 0 view .LVU148
 638 0072 0230     		adds	r0, r0, #2
 639              	.LVL50:
  61:./Application/Src/command.c ****                 arg++;
 640              		.loc 1 61 13 is_stmt 1 view .LVU149
  61:./Application/Src/command.c ****                 arg++;
 641              		.loc 1 61 19 is_stmt 0 view .LVU150
 642 0074 34E0     		b	.L56
 643              	.LVL51:
 644              	.L93:
  91:./Application/Src/command.c ****         }
 645              		.loc 1 91 20 view .LVU151
 646 0076 0120     		movs	r0, #1
 647              	.LVL52:
  91:./Application/Src/command.c ****         }
 648              		.loc 1 91 20 view .LVU152
 649 0078 C9E7     		b	.L37
 650              	.LVL53:
 651              	.L92:
  91:./Application/Src/command.c ****         }
 652              		.loc 1 91 20 view .LVU153
 653 007a 0120     		movs	r0, #1
 654              	.LVL54:
  91:./Application/Src/command.c ****         }
 655              		.loc 1 91 20 view .LVU154
 656 007c C7E7     		b	.L37
 657              	.LVL55:
 658              	.L44:
 659              	.LBB14:
  26:./Application/Src/command.c ****             while (*arg == ' ')
ARM GAS  C:\Users\Xuleo\AppData\Local\Temp\ccHEJafg.s 			page 20


 660              		.loc 1 26 13 is_stmt 1 view .LVU155
  26:./Application/Src/command.c ****             while (*arg == ' ')
 661              		.loc 1 26 19 is_stmt 0 view .LVU156
 662 007e C31C     		adds	r3, r0, #3
 663              	.LVL56:
  27:./Application/Src/command.c ****                 arg++;
 664              		.loc 1 27 13 is_stmt 1 view .LVU157
  27:./Application/Src/command.c ****                 arg++;
 665              		.loc 1 27 19 is_stmt 0 view .LVU158
 666 0080 00E0     		b	.L52
 667              	.L53:
  28:./Application/Src/command.c ****             if (*arg == '\0')
 668              		.loc 1 28 17 is_stmt 1 view .LVU159
  28:./Application/Src/command.c ****             if (*arg == '\0')
 669              		.loc 1 28 20 is_stmt 0 view .LVU160
 670 0082 0133     		adds	r3, r3, #1
 671              	.LVL57:
 672              	.L52:
  27:./Application/Src/command.c ****                 arg++;
 673              		.loc 1 27 25 is_stmt 1 view .LVU161
  27:./Application/Src/command.c ****                 arg++;
 674              		.loc 1 27 20 is_stmt 0 view .LVU162
 675 0084 1A78     		ldrb	r2, [r3]	@ zero_extendqisi2
  27:./Application/Src/command.c ****                 arg++;
 676              		.loc 1 27 25 view .LVU163
 677 0086 202A     		cmp	r2, #32
 678 0088 FBD0     		beq	.L53
  29:./Application/Src/command.c ****                 return 3; /* incomplete */
 679              		.loc 1 29 13 is_stmt 1 view .LVU164
  29:./Application/Src/command.c ****                 return 3; /* incomplete */
 680              		.loc 1 29 16 is_stmt 0 view .LVU165
 681 008a 002A     		cmp	r2, #0
 682 008c 00F0A480 		beq	.L76
  33:./Application/Src/command.c ****                 left_motor.target_pos = strtof(arg, NULL);
 683              		.loc 1 33 13 is_stmt 1 view .LVU166
  33:./Application/Src/command.c ****                 left_motor.target_pos = strtof(arg, NULL);
 684              		.loc 1 33 20 is_stmt 0 view .LVU167
 685 0090 8278     		ldrb	r2, [r0, #2]	@ zero_extendqisi2
  33:./Application/Src/command.c ****                 left_motor.target_pos = strtof(arg, NULL);
 686              		.loc 1 33 16 view .LVU168
 687 0092 6C2A     		cmp	r2, #108
 688 0094 03D0     		beq	.L94
  36:./Application/Src/command.c ****                 right_motor.target_pos = strtof(arg, NULL);
 689              		.loc 1 36 18 is_stmt 1 view .LVU169
  36:./Application/Src/command.c ****                 right_motor.target_pos = strtof(arg, NULL);
 690              		.loc 1 36 21 is_stmt 0 view .LVU170
 691 0096 722A     		cmp	r2, #114
 692 0098 09D0     		beq	.L95
  40:./Application/Src/command.c ****             }
 693              		.loc 1 40 24 view .LVU171
 694 009a 0120     		movs	r0, #1
 695              	.LVL58:
  40:./Application/Src/command.c ****             }
 696              		.loc 1 40 24 view .LVU172
 697 009c B7E7     		b	.L37
 698              	.LVL59:
 699              	.L94:
ARM GAS  C:\Users\Xuleo\AppData\Local\Temp\ccHEJafg.s 			page 21


  34:./Application/Src/command.c ****             }
 700              		.loc 1 34 17 is_stmt 1 view .LVU173
  34:./Application/Src/command.c ****             }
 701              		.loc 1 34 41 is_stmt 0 view .LVU174
 702 009e 0021     		movs	r1, #0
 703 00a0 1846     		mov	r0, r3
 704              	.LVL60:
  34:./Application/Src/command.c ****             }
 705              		.loc 1 34 41 view .LVU175
 706 00a2 FFF7FEFF 		bl	strtof
 707              	.LVL61:
  34:./Application/Src/command.c ****             }
 708              		.loc 1 34 39 discriminator 1 view .LVU176
 709 00a6 524B     		ldr	r3, .L103+8
 710 00a8 83ED050A 		vstr.32	s0, [r3, #20]
 711 00ac 06E0     		b	.L55
 712              	.LVL62:
 713              	.L95:
  37:./Application/Src/command.c ****             }
 714              		.loc 1 37 17 is_stmt 1 view .LVU177
  37:./Application/Src/command.c ****             }
 715              		.loc 1 37 42 is_stmt 0 view .LVU178
 716 00ae 0021     		movs	r1, #0
 717 00b0 1846     		mov	r0, r3
 718              	.LVL63:
  37:./Application/Src/command.c ****             }
 719              		.loc 1 37 42 view .LVU179
 720 00b2 FFF7FEFF 		bl	strtof
 721              	.LVL64:
  37:./Application/Src/command.c ****             }
 722              		.loc 1 37 40 discriminator 1 view .LVU180
 723 00b6 4F4B     		ldr	r3, .L103+12
 724 00b8 83ED050A 		vstr.32	s0, [r3, #20]
 725              	.L55:
  42:./Application/Src/command.c ****         }
 726              		.loc 1 42 13 is_stmt 1 view .LVU181
  42:./Application/Src/command.c ****         }
 727              		.loc 1 42 20 is_stmt 0 view .LVU182
 728 00bc 0020     		movs	r0, #0
 729 00be A6E7     		b	.L37
 730              	.LVL65:
 731              	.L46:
  42:./Application/Src/command.c ****         }
 732              		.loc 1 42 20 view .LVU183
 733              	.LBE14:
  45:./Application/Src/command.c ****             return 0;
 734              		.loc 1 45 13 is_stmt 1 view .LVU184
  45:./Application/Src/command.c ****             return 0;
 735              		.loc 1 45 26 is_stmt 0 view .LVU185
 736 00c0 4D4B     		ldr	r3, .L103+16
 737 00c2 0122     		movs	r2, #1
 738 00c4 1A60     		str	r2, [r3]
  46:./Application/Src/command.c ****         case 's': /* :s — menu move down */
 739              		.loc 1 46 13 is_stmt 1 view .LVU186
  46:./Application/Src/command.c ****         case 's': /* :s — menu move down */
 740              		.loc 1 46 20 is_stmt 0 view .LVU187
 741 00c6 0020     		movs	r0, #0
ARM GAS  C:\Users\Xuleo\AppData\Local\Temp\ccHEJafg.s 			page 22


 742              	.LVL66:
  46:./Application/Src/command.c ****         case 's': /* :s — menu move down */
 743              		.loc 1 46 20 view .LVU188
 744 00c8 A1E7     		b	.L37
 745              	.LVL67:
 746              	.L48:
  48:./Application/Src/command.c ****             return 0;
 747              		.loc 1 48 13 is_stmt 1 view .LVU189
  48:./Application/Src/command.c ****             return 0;
 748              		.loc 1 48 28 is_stmt 0 view .LVU190
 749 00ca 4C4B     		ldr	r3, .L103+20
 750 00cc 0122     		movs	r2, #1
 751 00ce 1A60     		str	r2, [r3]
  49:./Application/Src/command.c ****         case 'r': /* :r — reset encoder position */
 752              		.loc 1 49 13 is_stmt 1 view .LVU191
  49:./Application/Src/command.c ****         case 'r': /* :r — reset encoder position */
 753              		.loc 1 49 20 is_stmt 0 view .LVU192
 754 00d0 0020     		movs	r0, #0
 755              	.LVL68:
  49:./Application/Src/command.c ****         case 'r': /* :r — reset encoder position */
 756              		.loc 1 49 20 view .LVU193
 757 00d2 9CE7     		b	.L37
 758              	.LVL69:
 759              	.L42:
  54:./Application/Src/command.c ****             return 0;
 760              		.loc 1 54 13 is_stmt 1 view .LVU194
  54:./Application/Src/command.c ****             return 0;
 761              		.loc 1 54 24 is_stmt 0 view .LVU195
 762 00d4 4A4B     		ldr	r3, .L103+24
 763 00d6 0122     		movs	r2, #1
 764 00d8 1A60     		str	r2, [r3]
  55:./Application/Src/command.c ****         case 'a': /* :a — back to main menu */
 765              		.loc 1 55 13 is_stmt 1 view .LVU196
  55:./Application/Src/command.c ****         case 'a': /* :a — back to main menu */
 766              		.loc 1 55 20 is_stmt 0 view .LVU197
 767 00da 0020     		movs	r0, #0
 768              	.LVL70:
  55:./Application/Src/command.c ****         case 'a': /* :a — back to main menu */
 769              		.loc 1 55 20 view .LVU198
 770 00dc 97E7     		b	.L37
 771              	.LVL71:
 772              	.L57:
  62:./Application/Src/command.c ****             if (*arg == '\0')
 773              		.loc 1 62 17 is_stmt 1 view .LVU199
  62:./Application/Src/command.c ****             if (*arg == '\0')
 774              		.loc 1 62 20 is_stmt 0 view .LVU200
 775 00de 0130     		adds	r0, r0, #1
 776              	.LVL72:
 777              	.L56:
  61:./Application/Src/command.c ****                 arg++;
 778              		.loc 1 61 25 is_stmt 1 view .LVU201
  61:./Application/Src/command.c ****                 arg++;
 779              		.loc 1 61 20 is_stmt 0 view .LVU202
 780 00e0 0378     		ldrb	r3, [r0]	@ zero_extendqisi2
  61:./Application/Src/command.c ****                 arg++;
 781              		.loc 1 61 25 view .LVU203
 782 00e2 202B     		cmp	r3, #32
ARM GAS  C:\Users\Xuleo\AppData\Local\Temp\ccHEJafg.s 			page 23


 783 00e4 FBD0     		beq	.L57
  63:./Application/Src/command.c ****                 return 3; /* incomplete */
 784              		.loc 1 63 13 is_stmt 1 view .LVU204
  63:./Application/Src/command.c ****                 return 3; /* incomplete */
 785              		.loc 1 63 16 is_stmt 0 view .LVU205
 786 00e6 0BB9     		cbnz	r3, .L96
  64:./Application/Src/command.c ****             set_text((uint8_t *)arg);
 787              		.loc 1 64 24 view .LVU206
 788 00e8 0320     		movs	r0, #3
 789              	.LVL73:
  64:./Application/Src/command.c ****             set_text((uint8_t *)arg);
 790              		.loc 1 64 24 view .LVU207
 791 00ea 90E7     		b	.L37
 792              	.LVL74:
 793              	.L96:
  65:./Application/Src/command.c ****             return 0;
 794              		.loc 1 65 13 is_stmt 1 view .LVU208
 795 00ec FFF7FEFF 		bl	set_text
 796              	.LVL75:
  66:./Application/Src/command.c ****         case 'o': // reset position
 797              		.loc 1 66 13 view .LVU209
  66:./Application/Src/command.c ****         case 'o': // reset position
 798              		.loc 1 66 20 is_stmt 0 view .LVU210
 799 00f0 0020     		movs	r0, #0
 800 00f2 8CE7     		b	.L37
 801              	.LVL76:
 802              	.L50:
  82:./Application/Src/command.c ****             // debug_traversal();
 803              		.loc 1 82 13 is_stmt 1 view .LVU211
 804 00f4 FFF7FEFF 		bl	debug_traversal
 805              	.LVL77:
  84:./Application/Src/command.c **** 
 806              		.loc 1 84 13 view .LVU212
  84:./Application/Src/command.c **** 
 807              		.loc 1 84 20 is_stmt 0 view .LVU213
 808 00f8 0020     		movs	r0, #0
 809 00fa 88E7     		b	.L37
 810              	.LVL78:
 811              	.L88:
  84:./Application/Src/command.c **** 
 812              		.loc 1 84 20 view .LVU214
 813              	.LBE18:
  96:./Application/Src/command.c ****         case 'p':{ /* :p <value> — set position in mm */
 814              		.loc 1 96 9 is_stmt 1 view .LVU215
  96:./Application/Src/command.c ****         case 'p':{ /* :p <value> — set position in mm */
 815              		.loc 1 96 20 is_stmt 0 view .LVU216
 816 00fc 4378     		ldrb	r3, [r0, #1]	@ zero_extendqisi2
  96:./Application/Src/command.c ****         case 'p':{ /* :p <value> — set position in mm */
 817              		.loc 1 96 9 view .LVU217
 818 00fe 692B     		cmp	r3, #105
 819 0100 25D0     		beq	.L58
 820 0102 702B     		cmp	r3, #112
 821 0104 03D0     		beq	.L59
 822 0106 642B     		cmp	r3, #100
 823 0108 41D0     		beq	.L60
 824 010a 0120     		movs	r0, #1
 825              	.LVL79:
ARM GAS  C:\Users\Xuleo\AppData\Local\Temp\ccHEJafg.s 			page 24


  96:./Application/Src/command.c ****         case 'p':{ /* :p <value> — set position in mm */
 826              		.loc 1 96 9 view .LVU218
 827 010c 7FE7     		b	.L37
 828              	.LVL80:
 829              	.L59:
 830              	.LBB19:
  98:./Application/Src/command.c ****             while (*arg == ' ')
 831              		.loc 1 98 13 is_stmt 1 view .LVU219
  98:./Application/Src/command.c ****             while (*arg == ' ')
 832              		.loc 1 98 19 is_stmt 0 view .LVU220
 833 010e C31C     		adds	r3, r0, #3
 834              	.LVL81:
  99:./Application/Src/command.c ****                 arg++;
 835              		.loc 1 99 13 is_stmt 1 view .LVU221
  99:./Application/Src/command.c ****                 arg++;
 836              		.loc 1 99 19 is_stmt 0 view .LVU222
 837 0110 00E0     		b	.L61
 838              	.L62:
 100:./Application/Src/command.c ****             if (*arg == '\0')
 839              		.loc 1 100 17 is_stmt 1 view .LVU223
 100:./Application/Src/command.c ****             if (*arg == '\0')
 840              		.loc 1 100 20 is_stmt 0 view .LVU224
 841 0112 0133     		adds	r3, r3, #1
 842              	.LVL82:
 843              	.L61:
  99:./Application/Src/command.c ****                 arg++;
 844              		.loc 1 99 25 is_stmt 1 view .LVU225
  99:./Application/Src/command.c ****                 arg++;
 845              		.loc 1 99 20 is_stmt 0 view .LVU226
 846 0114 1A78     		ldrb	r2, [r3]	@ zero_extendqisi2
  99:./Application/Src/command.c ****                 arg++;
 847              		.loc 1 99 25 view .LVU227
 848 0116 202A     		cmp	r2, #32
 849 0118 FBD0     		beq	.L62
 101:./Application/Src/command.c ****                 return 3; /* incomplete */
 850              		.loc 1 101 13 is_stmt 1 view .LVU228
 101:./Application/Src/command.c ****                 return 3; /* incomplete */
 851              		.loc 1 101 16 is_stmt 0 view .LVU229
 852 011a 002A     		cmp	r2, #0
 853 011c 5ED0     		beq	.L80
 105:./Application/Src/command.c ****                 left_motor.Kp = strtof(arg, NULL);
 854              		.loc 1 105 13 is_stmt 1 view .LVU230
 105:./Application/Src/command.c ****                 left_motor.Kp = strtof(arg, NULL);
 855              		.loc 1 105 20 is_stmt 0 view .LVU231
 856 011e 8278     		ldrb	r2, [r0, #2]	@ zero_extendqisi2
 105:./Application/Src/command.c ****                 left_motor.Kp = strtof(arg, NULL);
 857              		.loc 1 105 16 view .LVU232
 858 0120 6C2A     		cmp	r2, #108
 859 0122 03D0     		beq	.L97
 108:./Application/Src/command.c ****                 left_motor.Kp = strtof(arg, NULL);
 860              		.loc 1 108 18 is_stmt 1 view .LVU233
 108:./Application/Src/command.c ****                 left_motor.Kp = strtof(arg, NULL);
 861              		.loc 1 108 21 is_stmt 0 view .LVU234
 862 0124 722A     		cmp	r2, #114
 863 0126 09D0     		beq	.L98
 112:./Application/Src/command.c ****             }
 864              		.loc 1 112 24 view .LVU235
ARM GAS  C:\Users\Xuleo\AppData\Local\Temp\ccHEJafg.s 			page 25


 865 0128 0120     		movs	r0, #1
 866              	.LVL83:
 112:./Application/Src/command.c ****             }
 867              		.loc 1 112 24 view .LVU236
 868 012a 70E7     		b	.L37
 869              	.LVL84:
 870              	.L97:
 106:./Application/Src/command.c ****             }
 871              		.loc 1 106 17 is_stmt 1 view .LVU237
 106:./Application/Src/command.c ****             }
 872              		.loc 1 106 33 is_stmt 0 view .LVU238
 873 012c 0021     		movs	r1, #0
 874 012e 1846     		mov	r0, r3
 875              	.LVL85:
 106:./Application/Src/command.c ****             }
 876              		.loc 1 106 33 view .LVU239
 877 0130 FFF7FEFF 		bl	strtof
 878              	.LVL86:
 106:./Application/Src/command.c ****             }
 879              		.loc 1 106 31 discriminator 1 view .LVU240
 880 0134 2E4B     		ldr	r3, .L103+8
 881 0136 83ED000A 		vstr.32	s0, [r3]
 882 013a 06E0     		b	.L64
 883              	.LVL87:
 884              	.L98:
 109:./Application/Src/command.c ****             }
 885              		.loc 1 109 17 is_stmt 1 view .LVU241
 109:./Application/Src/command.c ****             }
 886              		.loc 1 109 33 is_stmt 0 view .LVU242
 887 013c 0021     		movs	r1, #0
 888 013e 1846     		mov	r0, r3
 889              	.LVL88:
 109:./Application/Src/command.c ****             }
 890              		.loc 1 109 33 view .LVU243
 891 0140 FFF7FEFF 		bl	strtof
 892              	.LVL89:
 109:./Application/Src/command.c ****             }
 893              		.loc 1 109 31 discriminator 1 view .LVU244
 894 0144 2A4B     		ldr	r3, .L103+8
 895 0146 83ED000A 		vstr.32	s0, [r3]
 896              	.L64:
 114:./Application/Src/command.c ****         }
 897              		.loc 1 114 13 is_stmt 1 view .LVU245
 114:./Application/Src/command.c ****         }
 898              		.loc 1 114 20 is_stmt 0 view .LVU246
 899 014a 0020     		movs	r0, #0
 900 014c 5FE7     		b	.L37
 901              	.LVL90:
 902              	.L58:
 114:./Application/Src/command.c ****         }
 903              		.loc 1 114 20 view .LVU247
 904              	.LBE19:
 905              	.LBB20:
 117:./Application/Src/command.c ****             while (*arg == ' ')
 906              		.loc 1 117 13 is_stmt 1 view .LVU248
 117:./Application/Src/command.c ****             while (*arg == ' ')
 907              		.loc 1 117 19 is_stmt 0 view .LVU249
ARM GAS  C:\Users\Xuleo\AppData\Local\Temp\ccHEJafg.s 			page 26


 908 014e C31C     		adds	r3, r0, #3
 909              	.LVL91:
 118:./Application/Src/command.c ****                 arg++;
 910              		.loc 1 118 13 is_stmt 1 view .LVU250
 118:./Application/Src/command.c ****                 arg++;
 911              		.loc 1 118 19 is_stmt 0 view .LVU251
 912 0150 00E0     		b	.L65
 913              	.L66:
 119:./Application/Src/command.c ****             if (*arg == '\0')
 914              		.loc 1 119 17 is_stmt 1 view .LVU252
 119:./Application/Src/command.c ****             if (*arg == '\0')
 915              		.loc 1 119 20 is_stmt 0 view .LVU253
 916 0152 0133     		adds	r3, r3, #1
 917              	.LVL92:
 918              	.L65:
 118:./Application/Src/command.c ****                 arg++;
 919              		.loc 1 118 25 is_stmt 1 view .LVU254
 118:./Application/Src/command.c ****                 arg++;
 920              		.loc 1 118 20 is_stmt 0 view .LVU255
 921 0154 1A78     		ldrb	r2, [r3]	@ zero_extendqisi2
 118:./Application/Src/command.c ****                 arg++;
 922              		.loc 1 118 25 view .LVU256
 923 0156 202A     		cmp	r2, #32
 924 0158 FBD0     		beq	.L66
 120:./Application/Src/command.c ****                 return 3; /* incomplete */
 925              		.loc 1 120 13 is_stmt 1 view .LVU257
 120:./Application/Src/command.c ****                 return 3; /* incomplete */
 926              		.loc 1 120 16 is_stmt 0 view .LVU258
 927 015a 002A     		cmp	r2, #0
 928 015c 40D0     		beq	.L82
 124:./Application/Src/command.c ****                 left_motor.Ki = strtof(arg, NULL);
 929              		.loc 1 124 13 is_stmt 1 view .LVU259
 124:./Application/Src/command.c ****                 left_motor.Ki = strtof(arg, NULL);
 930              		.loc 1 124 20 is_stmt 0 view .LVU260
 931 015e 8278     		ldrb	r2, [r0, #2]	@ zero_extendqisi2
 124:./Application/Src/command.c ****                 left_motor.Ki = strtof(arg, NULL);
 932              		.loc 1 124 16 view .LVU261
 933 0160 6C2A     		cmp	r2, #108
 934 0162 03D0     		beq	.L99
 127:./Application/Src/command.c ****                 left_motor.Ki = strtof(arg, NULL);
 935              		.loc 1 127 18 is_stmt 1 view .LVU262
 127:./Application/Src/command.c ****                 left_motor.Ki = strtof(arg, NULL);
 936              		.loc 1 127 21 is_stmt 0 view .LVU263
 937 0164 722A     		cmp	r2, #114
 938 0166 09D0     		beq	.L100
 131:./Application/Src/command.c ****             }
 939              		.loc 1 131 24 view .LVU264
 940 0168 0120     		movs	r0, #1
 941              	.LVL93:
 131:./Application/Src/command.c ****             }
 942              		.loc 1 131 24 view .LVU265
 943 016a 50E7     		b	.L37
 944              	.LVL94:
 945              	.L99:
 125:./Application/Src/command.c ****             }
 946              		.loc 1 125 17 is_stmt 1 view .LVU266
 125:./Application/Src/command.c ****             }
ARM GAS  C:\Users\Xuleo\AppData\Local\Temp\ccHEJafg.s 			page 27


 947              		.loc 1 125 33 is_stmt 0 view .LVU267
 948 016c 0021     		movs	r1, #0
 949 016e 1846     		mov	r0, r3
 950              	.LVL95:
 125:./Application/Src/command.c ****             }
 951              		.loc 1 125 33 view .LVU268
 952 0170 FFF7FEFF 		bl	strtof
 953              	.LVL96:
 125:./Application/Src/command.c ****             }
 954              		.loc 1 125 31 discriminator 1 view .LVU269
 955 0174 1E4B     		ldr	r3, .L103+8
 956 0176 83ED010A 		vstr.32	s0, [r3, #4]
 957 017a 06E0     		b	.L68
 958              	.LVL97:
 959              	.L100:
 128:./Application/Src/command.c ****             }
 960              		.loc 1 128 17 is_stmt 1 view .LVU270
 128:./Application/Src/command.c ****             }
 961              		.loc 1 128 33 is_stmt 0 view .LVU271
 962 017c 0021     		movs	r1, #0
 963 017e 1846     		mov	r0, r3
 964              	.LVL98:
 128:./Application/Src/command.c ****             }
 965              		.loc 1 128 33 view .LVU272
 966 0180 FFF7FEFF 		bl	strtof
 967              	.LVL99:
 128:./Application/Src/command.c ****             }
 968              		.loc 1 128 31 discriminator 1 view .LVU273
 969 0184 1A4B     		ldr	r3, .L103+8
 970 0186 83ED010A 		vstr.32	s0, [r3, #4]
 971              	.L68:
 133:./Application/Src/command.c ****         }
 972              		.loc 1 133 13 is_stmt 1 view .LVU274
 133:./Application/Src/command.c ****         }
 973              		.loc 1 133 20 is_stmt 0 view .LVU275
 974 018a 0020     		movs	r0, #0
 975 018c 3FE7     		b	.L37
 976              	.LVL100:
 977              	.L60:
 133:./Application/Src/command.c ****         }
 978              		.loc 1 133 20 view .LVU276
 979              	.LBE20:
 980              	.LBB21:
 136:./Application/Src/command.c ****             while (*arg == ' ')
 981              		.loc 1 136 13 is_stmt 1 view .LVU277
 136:./Application/Src/command.c ****             while (*arg == ' ')
 982              		.loc 1 136 19 is_stmt 0 view .LVU278
 983 018e C31C     		adds	r3, r0, #3
 984              	.LVL101:
 137:./Application/Src/command.c ****                 arg++;
 985              		.loc 1 137 13 is_stmt 1 view .LVU279
 137:./Application/Src/command.c ****                 arg++;
 986              		.loc 1 137 19 is_stmt 0 view .LVU280
 987 0190 00E0     		b	.L69
 988              	.L70:
 138:./Application/Src/command.c ****             if (*arg == '\0')
 989              		.loc 1 138 17 is_stmt 1 view .LVU281
ARM GAS  C:\Users\Xuleo\AppData\Local\Temp\ccHEJafg.s 			page 28


 138:./Application/Src/command.c ****             if (*arg == '\0')
 990              		.loc 1 138 20 is_stmt 0 view .LVU282
 991 0192 0133     		adds	r3, r3, #1
 992              	.LVL102:
 993              	.L69:
 137:./Application/Src/command.c ****                 arg++;
 994              		.loc 1 137 25 is_stmt 1 view .LVU283
 137:./Application/Src/command.c ****                 arg++;
 995              		.loc 1 137 20 is_stmt 0 view .LVU284
 996 0194 1A78     		ldrb	r2, [r3]	@ zero_extendqisi2
 137:./Application/Src/command.c ****                 arg++;
 997              		.loc 1 137 25 view .LVU285
 998 0196 202A     		cmp	r2, #32
 999 0198 FBD0     		beq	.L70
 139:./Application/Src/command.c ****                 return 3; /* incomplete */
 1000              		.loc 1 139 13 is_stmt 1 view .LVU286
 139:./Application/Src/command.c ****                 return 3; /* incomplete */
 1001              		.loc 1 139 16 is_stmt 0 view .LVU287
 1002 019a 1AB3     		cbz	r2, .L84
 143:./Application/Src/command.c ****                 left_motor.Kd = strtof(arg, NULL);
 1003              		.loc 1 143 13 is_stmt 1 view .LVU288
 143:./Application/Src/command.c ****                 left_motor.Kd = strtof(arg, NULL);
 1004              		.loc 1 143 20 is_stmt 0 view .LVU289
 1005 019c 8278     		ldrb	r2, [r0, #2]	@ zero_extendqisi2
 143:./Application/Src/command.c ****                 left_motor.Kd = strtof(arg, NULL);
 1006              		.loc 1 143 16 view .LVU290
 1007 019e 6C2A     		cmp	r2, #108
 1008 01a0 03D0     		beq	.L101
 146:./Application/Src/command.c ****                 left_motor.Kd = strtof(arg, NULL);
 1009              		.loc 1 146 18 is_stmt 1 view .LVU291
 146:./Application/Src/command.c ****                 left_motor.Kd = strtof(arg, NULL);
 1010              		.loc 1 146 21 is_stmt 0 view .LVU292
 1011 01a2 722A     		cmp	r2, #114
 1012 01a4 09D0     		beq	.L102
 150:./Application/Src/command.c ****             }
 1013              		.loc 1 150 24 view .LVU293
 1014 01a6 0120     		movs	r0, #1
 1015              	.LVL103:
 150:./Application/Src/command.c ****             }
 1016              		.loc 1 150 24 view .LVU294
 1017 01a8 31E7     		b	.L37
 1018              	.LVL104:
 1019              	.L101:
 144:./Application/Src/command.c ****             }
 1020              		.loc 1 144 17 is_stmt 1 view .LVU295
 144:./Application/Src/command.c ****             }
 1021              		.loc 1 144 33 is_stmt 0 view .LVU296
 1022 01aa 0021     		movs	r1, #0
 1023 01ac 1846     		mov	r0, r3
 1024              	.LVL105:
 144:./Application/Src/command.c ****             }
 1025              		.loc 1 144 33 view .LVU297
 1026 01ae FFF7FEFF 		bl	strtof
 1027              	.LVL106:
 144:./Application/Src/command.c ****             }
 1028              		.loc 1 144 31 discriminator 1 view .LVU298
 1029 01b2 0F4B     		ldr	r3, .L103+8
ARM GAS  C:\Users\Xuleo\AppData\Local\Temp\ccHEJafg.s 			page 29


 1030 01b4 83ED020A 		vstr.32	s0, [r3, #8]
 1031 01b8 06E0     		b	.L72
 1032              	.LVL107:
 1033              	.L102:
 147:./Application/Src/command.c ****             }
 1034              		.loc 1 147 17 is_stmt 1 view .LVU299
 147:./Application/Src/command.c ****             }
 1035              		.loc 1 147 33 is_stmt 0 view .LVU300
 1036 01ba 0021     		movs	r1, #0
 1037 01bc 1846     		mov	r0, r3
 1038              	.LVL108:
 147:./Application/Src/command.c ****             }
 1039              		.loc 1 147 33 view .LVU301
 1040 01be FFF7FEFF 		bl	strtof
 1041              	.LVL109:
 147:./Application/Src/command.c ****             }
 1042              		.loc 1 147 31 discriminator 1 view .LVU302
 1043 01c2 0B4B     		ldr	r3, .L103+8
 1044 01c4 83ED020A 		vstr.32	s0, [r3, #8]
 1045              	.L72:
 152:./Application/Src/command.c ****         }
 1046              		.loc 1 152 13 is_stmt 1 view .LVU303
 152:./Application/Src/command.c ****         }
 1047              		.loc 1 152 20 is_stmt 0 view .LVU304
 1048 01c8 0020     		movs	r0, #0
 1049 01ca 20E7     		b	.L37
 1050              	.LVL110:
 1051              	.L73:
 152:./Application/Src/command.c ****         }
 1052              		.loc 1 152 20 view .LVU305
 1053              	.LBE21:
  24:./Application/Src/command.c ****         case 'p':{ /* :p <value> — set position in mm */
 1054              		.loc 1 24 9 view .LVU306
 1055 01cc 0020     		movs	r0, #0
 1056              	.LVL111:
  24:./Application/Src/command.c ****         case 'p':{ /* :p <value> — set position in mm */
 1057              		.loc 1 24 9 view .LVU307
 1058 01ce 1EE7     		b	.L37
 1059              	.LVL112:
 1060              	.L74:
  24:./Application/Src/command.c ****         case 'p':{ /* :p <value> — set position in mm */
 1061              		.loc 1 24 9 view .LVU308
 1062 01d0 0020     		movs	r0, #0
 1063              	.LVL113:
  24:./Application/Src/command.c ****         case 'p':{ /* :p <value> — set position in mm */
 1064              		.loc 1 24 9 view .LVU309
 1065 01d2 1CE7     		b	.L37
 1066              	.LVL114:
 1067              	.L75:
  24:./Application/Src/command.c ****         case 'p':{ /* :p <value> — set position in mm */
 1068              		.loc 1 24 9 view .LVU310
 1069 01d4 0020     		movs	r0, #0
 1070              	.LVL115:
  24:./Application/Src/command.c ****         case 'p':{ /* :p <value> — set position in mm */
 1071              		.loc 1 24 9 view .LVU311
 1072 01d6 1AE7     		b	.L37
 1073              	.LVL116:
ARM GAS  C:\Users\Xuleo\AppData\Local\Temp\ccHEJafg.s 			page 30


 1074              	.L76:
 1075              	.LBB22:
 1076              	.LBB15:
  30:./Application/Src/command.c **** 
 1077              		.loc 1 30 24 view .LVU312
 1078 01d8 0320     		movs	r0, #3
 1079              	.LVL117:
  30:./Application/Src/command.c **** 
 1080              		.loc 1 30 24 view .LVU313
 1081 01da 18E7     		b	.L37
 1082              	.LVL118:
 1083              	.L80:
  30:./Application/Src/command.c **** 
 1084              		.loc 1 30 24 view .LVU314
 1085              	.LBE15:
 1086              	.LBE22:
 1087              	.LBB23:
 102:./Application/Src/command.c **** 
 1088              		.loc 1 102 24 view .LVU315
 1089 01dc 0320     		movs	r0, #3
 1090              	.LVL119:
 102:./Application/Src/command.c **** 
 1091              		.loc 1 102 24 view .LVU316
 1092 01de 16E7     		b	.L37
 1093              	.LVL120:
 1094              	.L82:
 102:./Application/Src/command.c **** 
 1095              		.loc 1 102 24 view .LVU317
 1096              	.LBE23:
 1097              	.LBB24:
 121:./Application/Src/command.c **** 
 1098              		.loc 1 121 24 view .LVU318
 1099 01e0 0320     		movs	r0, #3
 1100              	.LVL121:
 121:./Application/Src/command.c **** 
 1101              		.loc 1 121 24 view .LVU319
 1102 01e2 14E7     		b	.L37
 1103              	.LVL122:
 1104              	.L84:
 121:./Application/Src/command.c **** 
 1105              		.loc 1 121 24 view .LVU320
 1106              	.LBE24:
 1107              	.LBB25:
 140:./Application/Src/command.c **** 
 1108              		.loc 1 140 24 view .LVU321
 1109 01e4 0320     		movs	r0, #3
 1110              	.LVL123:
 140:./Application/Src/command.c **** 
 1111              		.loc 1 140 24 view .LVU322
 1112 01e6 12E7     		b	.L37
 1113              	.L104:
 1114              		.align	2
 1115              	.L103:
 1116 01e8 00000000 		.word	menu_back
 1117 01ec 00000000 		.word	stop_playing
 1118 01f0 00000000 		.word	left_motor
 1119 01f4 00000000 		.word	right_motor
ARM GAS  C:\Users\Xuleo\AppData\Local\Temp\ccHEJafg.s 			page 31


 1120 01f8 00000000 		.word	menu_move_up
 1121 01fc 00000000 		.word	menu_move_down
 1122 0200 00000000 		.word	menu_enter
 1123              	.LBE25:
 1124              		.cfi_endproc
 1125              	.LFE359:
 1127              		.section	.rodata.execute_command.str1.4,"aMS",%progbits,1
 1128              		.align	2
 1129              	.LC1:
 1130 0000 4F4B2E20 		.ascii	"OK.                      \000"
 1130      20202020 
 1130      20202020 
 1130      20202020 
 1130      20202020 
 1131 001a 0000     		.align	2
 1132              	.LC2:
 1133 001c 20202020 		.ascii	"                         \000"
 1133      20202020 
 1133      20202020 
 1133      20202020 
 1133      20202020 
 1134 0036 0000     		.align	2
 1135              	.LC3:
 1136 0038 43616E6E 		.ascii	"Cannot parse!            \000"
 1136      6F742070 
 1136      61727365 
 1136      21202020 
 1136      20202020 
 1137 0052 0000     		.align	2
 1138              	.LC4:
 1139 0054 456D7074 		.ascii	"Empty command!           \000"
 1139      7920636F 
 1139      6D6D616E 
 1139      64212020 
 1139      20202020 
 1140 006e 0000     		.align	2
 1141              	.LC5:
 1142 0070 496E636F 		.ascii	"Incomplete command!      \000"
 1142      6D706C65 
 1142      74652063 
 1142      6F6D6D61 
 1142      6E642120 
 1143              		.section	.text.execute_command,"ax",%progbits
 1144              		.align	1
 1145              		.global	execute_command
 1146              		.syntax unified
 1147              		.thumb
 1148              		.thumb_func
 1150              	execute_command:
 1151              	.LVL124:
 1152              	.LFB360:
 160:./Application/Src/command.c ****     int result = parse_command(command);
 1153              		.loc 1 160 1 is_stmt 1 view -0
 1154              		.cfi_startproc
 1155              		@ args = 0, pretend = 0, frame = 0
 1156              		@ frame_needed = 0, uses_anonymous_args = 0
 160:./Application/Src/command.c ****     int result = parse_command(command);
ARM GAS  C:\Users\Xuleo\AppData\Local\Temp\ccHEJafg.s 			page 32


 1157              		.loc 1 160 1 is_stmt 0 view .LVU324
 1158 0000 30B5     		push	{r4, r5, lr}
 1159              	.LCFI7:
 1160              		.cfi_def_cfa_offset 12
 1161              		.cfi_offset 4, -12
 1162              		.cfi_offset 5, -8
 1163              		.cfi_offset 14, -4
 1164 0002 83B0     		sub	sp, sp, #12
 1165              	.LCFI8:
 1166              		.cfi_def_cfa_offset 24
 1167 0004 0546     		mov	r5, r0
 161:./Application/Src/command.c ****     if (result == 0)
 1168              		.loc 1 161 5 is_stmt 1 view .LVU325
 161:./Application/Src/command.c ****     if (result == 0)
 1169              		.loc 1 161 18 is_stmt 0 view .LVU326
 1170 0006 FFF7FEFF 		bl	parse_command
 1171              	.LVL125:
 162:./Application/Src/command.c ****     {
 1172              		.loc 1 162 5 is_stmt 1 view .LVU327
 162:./Application/Src/command.c ****     {
 1173              		.loc 1 162 8 is_stmt 0 view .LVU328
 1174 000a 38B1     		cbz	r0, .L111
 167:./Application/Src/command.c ****     {
 1175              		.loc 1 167 10 is_stmt 1 view .LVU329
 167:./Application/Src/command.c ****     {
 1176              		.loc 1 167 13 is_stmt 0 view .LVU330
 1177 000c 0128     		cmp	r0, #1
 1178 000e 16D0     		beq	.L112
 172:./Application/Src/command.c ****     {
 1179              		.loc 1 172 10 is_stmt 1 view .LVU331
 172:./Application/Src/command.c ****     {
 1180              		.loc 1 172 13 is_stmt 0 view .LVU332
 1181 0010 0228     		cmp	r0, #2
 1182 0012 26D0     		beq	.L113
 176:./Application/Src/command.c ****     {
 1183              		.loc 1 176 10 is_stmt 1 view .LVU333
 176:./Application/Src/command.c ****     {
 1184              		.loc 1 176 13 is_stmt 0 view .LVU334
 1185 0014 0328     		cmp	r0, #3
 1186 0016 2ED0     		beq	.L114
 1187              	.LVL126:
 1188              	.L105:
 181:./Application/Src/command.c **** 
 1189              		.loc 1 181 1 view .LVU335
 1190 0018 03B0     		add	sp, sp, #12
 1191              	.LCFI9:
 1192              		.cfi_remember_state
 1193              		.cfi_def_cfa_offset 12
 1194              		@ sp needed
 1195 001a 30BD     		pop	{r4, r5, pc}
 1196              	.LVL127:
 1197              	.L111:
 1198              	.LCFI10:
 1199              		.cfi_restore_state
 164:./Application/Src/command.c ****         LCD_draw_string(0, 15, "                         ", COLOR_BLACK, COLOR_WHITE);
 1200              		.loc 1 164 9 is_stmt 1 view .LVU336
 1201 001c 4FF6FF73 		movw	r3, #65535
ARM GAS  C:\Users\Xuleo\AppData\Local\Temp\ccHEJafg.s 			page 33


 1202 0020 1C46     		mov	r4, r3
 1203 0022 0093     		str	r3, [sp]
 1204 0024 0346     		mov	r3, r0
 1205 0026 1D4A     		ldr	r2, .L115
 1206 0028 0E21     		movs	r1, #14
 1207 002a FFF7FEFF 		bl	LCD_draw_string
 1208              	.LVL128:
 165:./Application/Src/command.c ****     }
 1209              		.loc 1 165 9 view .LVU337
 1210 002e 0094     		str	r4, [sp]
 1211 0030 0023     		movs	r3, #0
 1212 0032 1B4A     		ldr	r2, .L115+4
 1213 0034 0F21     		movs	r1, #15
 1214 0036 1846     		mov	r0, r3
 1215 0038 FFF7FEFF 		bl	LCD_draw_string
 1216              	.LVL129:
 1217 003c ECE7     		b	.L105
 1218              	.LVL130:
 1219              	.L112:
 169:./Application/Src/command.c ****         LCD_draw_string(0, 15, (char*)command, COLOR_BLACK, COLOR_WHITE);
 1220              		.loc 1 169 9 view .LVU338
 1221 003e 4FF6FF73 		movw	r3, #65535
 1222 0042 1C46     		mov	r4, r3
 1223 0044 0093     		str	r3, [sp]
 1224 0046 0023     		movs	r3, #0
 1225 0048 164A     		ldr	r2, .L115+8
 1226 004a 0E21     		movs	r1, #14
 1227 004c 1846     		mov	r0, r3
 1228              	.LVL131:
 169:./Application/Src/command.c ****         LCD_draw_string(0, 15, (char*)command, COLOR_BLACK, COLOR_WHITE);
 1229              		.loc 1 169 9 is_stmt 0 view .LVU339
 1230 004e FFF7FEFF 		bl	LCD_draw_string
 1231              	.LVL132:
 170:./Application/Src/command.c ****     }
 1232              		.loc 1 170 9 is_stmt 1 view .LVU340
 1233 0052 0094     		str	r4, [sp]
 1234 0054 0023     		movs	r3, #0
 1235 0056 2A46     		mov	r2, r5
 1236 0058 0F21     		movs	r1, #15
 1237 005a 1846     		mov	r0, r3
 1238 005c FFF7FEFF 		bl	LCD_draw_string
 1239              	.LVL133:
 1240 0060 DAE7     		b	.L105
 1241              	.LVL134:
 1242              	.L113:
 174:./Application/Src/command.c ****     }
 1243              		.loc 1 174 9 view .LVU341
 1244 0062 4FF6FF73 		movw	r3, #65535
 1245 0066 0093     		str	r3, [sp]
 1246 0068 0023     		movs	r3, #0
 1247 006a 0F4A     		ldr	r2, .L115+12
 1248 006c 0E21     		movs	r1, #14
 1249 006e 1846     		mov	r0, r3
 1250              	.LVL135:
 174:./Application/Src/command.c ****     }
 1251              		.loc 1 174 9 is_stmt 0 view .LVU342
 1252 0070 FFF7FEFF 		bl	LCD_draw_string
ARM GAS  C:\Users\Xuleo\AppData\Local\Temp\ccHEJafg.s 			page 34


 1253              	.LVL136:
 1254 0074 D0E7     		b	.L105
 1255              	.LVL137:
 1256              	.L114:
 178:./Application/Src/command.c ****         LCD_draw_string(0, 15, (char*)command, COLOR_BLACK, COLOR_WHITE);
 1257              		.loc 1 178 9 is_stmt 1 view .LVU343
 1258 0076 4FF6FF73 		movw	r3, #65535
 1259 007a 1C46     		mov	r4, r3
 1260 007c 0093     		str	r3, [sp]
 1261 007e 0023     		movs	r3, #0
 1262 0080 0A4A     		ldr	r2, .L115+16
 1263 0082 0E21     		movs	r1, #14
 1264 0084 1846     		mov	r0, r3
 1265              	.LVL138:
 178:./Application/Src/command.c ****         LCD_draw_string(0, 15, (char*)command, COLOR_BLACK, COLOR_WHITE);
 1266              		.loc 1 178 9 is_stmt 0 view .LVU344
 1267 0086 FFF7FEFF 		bl	LCD_draw_string
 1268              	.LVL139:
 179:./Application/Src/command.c ****     }
 1269              		.loc 1 179 9 is_stmt 1 view .LVU345
 1270 008a 0094     		str	r4, [sp]
 1271 008c 0023     		movs	r3, #0
 1272 008e 2A46     		mov	r2, r5
 1273 0090 0F21     		movs	r1, #15
 1274 0092 1846     		mov	r0, r3
 1275 0094 FFF7FEFF 		bl	LCD_draw_string
 1276              	.LVL140:
 181:./Application/Src/command.c **** 
 1277              		.loc 1 181 1 is_stmt 0 view .LVU346
 1278 0098 BEE7     		b	.L105
 1279              	.L116:
 1280 009a 00BF     		.align	2
 1281              	.L115:
 1282 009c 00000000 		.word	.LC1
 1283 00a0 1C000000 		.word	.LC2
 1284 00a4 38000000 		.word	.LC3
 1285 00a8 54000000 		.word	.LC4
 1286 00ac 70000000 		.word	.LC5
 1287              		.cfi_endproc
 1288              	.LFE360:
 1290              		.section	.rodata.traversal.str1.4,"aMS",%progbits,1
 1291              		.align	2
 1292              	.LC6:
 1293 0000 4E6F2053 		.ascii	"No Song loaded!     \000"
 1293      6F6E6720 
 1293      6C6F6164 
 1293      65642120 
 1293      20202020 
 1294 0015 000000   		.align	2
 1295              	.LC7:
 1296 0018 536F6E67 		.ascii	"Song ends     \000"
 1296      20656E64 
 1296      73202020 
 1296      202000
 1297 0027 00       		.align	2
 1298              	.LC8:
 1299 0028 53746F70 		.ascii	"Stopped by user     \000"
ARM GAS  C:\Users\Xuleo\AppData\Local\Temp\ccHEJafg.s 			page 35


 1299      70656420 
 1299      62792075 
 1299      73657220 
 1299      20202020 
 1300              		.section	.text.traversal,"ax",%progbits
 1301              		.align	1
 1302              		.global	traversal
 1303              		.syntax unified
 1304              		.thumb
 1305              		.thumb_func
 1307              	traversal:
 1308              	.LFB365:
 252:./Application/Src/command.c ****     
 1309              		.loc 1 252 21 is_stmt 1 view -0
 1310              		.cfi_startproc
 1311              		@ args = 0, pretend = 0, frame = 0
 1312              		@ frame_needed = 0, uses_anonymous_args = 0
 1313 0000 F0B5     		push	{r4, r5, r6, r7, lr}
 1314              	.LCFI11:
 1315              		.cfi_def_cfa_offset 20
 1316              		.cfi_offset 4, -20
 1317              		.cfi_offset 5, -16
 1318              		.cfi_offset 6, -12
 1319              		.cfi_offset 7, -8
 1320              		.cfi_offset 14, -4
 1321 0002 83B0     		sub	sp, sp, #12
 1322              	.LCFI12:
 1323              		.cfi_def_cfa_offset 32
 254:./Application/Src/command.c ****     if (chord_events[traversal_index].positions[0] == 0.0f && chord_events[traversal_index].positio
 1324              		.loc 1 254 5 view .LVU348
 1325              	.LVL141:
 255:./Application/Src/command.c ****         LCD_draw_string(0, 9, "No Song loaded!     ", COLOR_BLACK, COLOR_WHITE);
 1326              		.loc 1 255 5 view .LVU349
 255:./Application/Src/command.c ****         LCD_draw_string(0, 9, "No Song loaded!     ", COLOR_BLACK, COLOR_WHITE);
 1327              		.loc 1 255 48 is_stmt 0 view .LVU350
 1328 0004 4B4B     		ldr	r3, .L132
 1329 0006 D3ED007A 		vldr.32	s15, [r3]
 255:./Application/Src/command.c ****         LCD_draw_string(0, 9, "No Song loaded!     ", COLOR_BLACK, COLOR_WHITE);
 1330              		.loc 1 255 8 view .LVU351
 1331 000a F5EE407A 		vcmp.f32	s15, #0
 1332 000e F1EE10FA 		vmrs	APSR_nzcv, FPSCR
 1333 0012 12D1     		bne	.L125
 255:./Application/Src/command.c ****         LCD_draw_string(0, 9, "No Song loaded!     ", COLOR_BLACK, COLOR_WHITE);
 1334              		.loc 1 255 102 discriminator 1 view .LVU352
 1335 0014 D3ED017A 		vldr.32	s15, [r3, #4]
 255:./Application/Src/command.c ****         LCD_draw_string(0, 9, "No Song loaded!     ", COLOR_BLACK, COLOR_WHITE);
 1336              		.loc 1 255 60 discriminator 1 view .LVU353
 1337 0018 F5EE407A 		vcmp.f32	s15, #0
 1338 001c F1EE10FA 		vmrs	APSR_nzcv, FPSCR
 1339 0020 01D0     		beq	.L128
 1340 0022 0024     		movs	r4, #0
 1341 0024 2DE0     		b	.L124
 1342              	.L128:
 256:./Application/Src/command.c ****         return;
 1343              		.loc 1 256 9 is_stmt 1 view .LVU354
 1344 0026 4FF6FF73 		movw	r3, #65535
 1345 002a 0093     		str	r3, [sp]
ARM GAS  C:\Users\Xuleo\AppData\Local\Temp\ccHEJafg.s 			page 36


 1346 002c 0023     		movs	r3, #0
 1347 002e 424A     		ldr	r2, .L132+4
 1348 0030 0921     		movs	r1, #9
 1349 0032 1846     		mov	r0, r3
 1350 0034 FFF7FEFF 		bl	LCD_draw_string
 1351              	.LVL142:
 257:./Application/Src/command.c ****     }
 1352              		.loc 1 257 9 view .LVU355
 1353 0038 79E0     		b	.L117
 1354              	.L125:
 1355 003a 0024     		movs	r4, #0
 1356 003c 21E0     		b	.L124
 1357              	.LVL143:
 1358              	.L120:
 267:./Application/Src/command.c ****             // copy message locally so ISR can safely start receiving next one
 1359              		.loc 1 267 9 view .LVU356
 267:./Application/Src/command.c ****             // copy message locally so ISR can safely start receiving next one
 1360              		.loc 1 267 13 is_stmt 0 view .LVU357
 1361 003e 3F4B     		ldr	r3, .L132+8
 1362 0040 1B68     		ldr	r3, [r3]
 267:./Application/Src/command.c ****             // copy message locally so ISR can safely start receiving next one
 1363              		.loc 1 267 12 view .LVU358
 1364 0042 002B     		cmp	r3, #0
 1365 0044 40D1     		bne	.L129
 1366              	.L121:
 282:./Application/Src/command.c ****             LCD_draw_string(0, 9, "Stopped by user     ", COLOR_BLACK, COLOR_WHITE);
 1367              		.loc 1 282 9 is_stmt 1 view .LVU359
 282:./Application/Src/command.c ****             LCD_draw_string(0, 9, "Stopped by user     ", COLOR_BLACK, COLOR_WHITE);
 1368              		.loc 1 282 13 is_stmt 0 view .LVU360
 1369 0046 3E4B     		ldr	r3, .L132+12
 1370 0048 1B68     		ldr	r3, [r3]
 282:./Application/Src/command.c ****             LCD_draw_string(0, 9, "Stopped by user     ", COLOR_BLACK, COLOR_WHITE);
 1371              		.loc 1 282 12 view .LVU361
 1372 004a 002B     		cmp	r3, #0
 1373 004c 5AD1     		bne	.L130
 293:./Application/Src/command.c ****         right_motor.target_pos = chord_events[traversal_index].positions[1];
 1374              		.loc 1 293 9 is_stmt 1 view .LVU362
 293:./Application/Src/command.c ****         right_motor.target_pos = chord_events[traversal_index].positions[1];
 1375              		.loc 1 293 72 is_stmt 0 view .LVU363
 1376 004e 394B     		ldr	r3, .L132
 1377 0050 05EB4502 		add	r2, r5, r5, lsl #1
 1378 0054 03EBC202 		add	r2, r3, r2, lsl #3
 1379 0058 1168     		ldr	r1, [r2]	@ float
 293:./Application/Src/command.c ****         right_motor.target_pos = chord_events[traversal_index].positions[1];
 1380              		.loc 1 293 31 view .LVU364
 1381 005a 3A4A     		ldr	r2, .L132+16
 1382 005c 5161     		str	r1, [r2, #20]	@ float
 294:./Application/Src/command.c **** 
 1383              		.loc 1 294 9 is_stmt 1 view .LVU365
 294:./Application/Src/command.c **** 
 1384              		.loc 1 294 73 is_stmt 0 view .LVU366
 1385 005e 05EB4505 		add	r5, r5, r5, lsl #1
 1386 0062 03EBC503 		add	r3, r3, r5, lsl #3
 1387 0066 5A68     		ldr	r2, [r3, #4]	@ float
 294:./Application/Src/command.c **** 
 1388              		.loc 1 294 32 view .LVU367
 1389 0068 374B     		ldr	r3, .L132+20
ARM GAS  C:\Users\Xuleo\AppData\Local\Temp\ccHEJafg.s 			page 37


 1390 006a 5A61     		str	r2, [r3, #20]	@ float
 297:./Application/Src/command.c ****         // while(left_motor_arrived == 0 || right_motor_arrived == 0); // waiting for motor to arri
 1391              		.loc 1 297 9 is_stmt 1 view .LVU368
 1392 006c 0520     		movs	r0, #5
 1393 006e FFF7FEFF 		bl	wait_ms
 1394              	.LVL144:
 301:./Application/Src/command.c ****         toggle_solenoid(traversal_index);
 1395              		.loc 1 301 9 view .LVU369
 1396 0072 1420     		movs	r0, #20
 1397 0074 FFF7FEFF 		bl	wait_ms
 1398              	.LVL145:
 302:./Application/Src/command.c **** 
 1399              		.loc 1 302 9 view .LVU370
 1400 0078 2046     		mov	r0, r4
 1401 007a FFF7FEFF 		bl	toggle_solenoid
 1402              	.LVL146:
 304:./Application/Src/command.c ****     }
 1403              		.loc 1 304 9 view .LVU371
 304:./Application/Src/command.c ****     }
 1404              		.loc 1 304 24 is_stmt 0 view .LVU372
 1405 007e 0134     		adds	r4, r4, #1
 1406              	.LVL147:
 304:./Application/Src/command.c ****     }
 1407              		.loc 1 304 24 view .LVU373
 1408 0080 A4B2     		uxth	r4, r4
 1409              	.LVL148:
 260:./Application/Src/command.c ****         if (chord_events[traversal_index].positions[0] == 1000.0f && chord_events[traversal_index].
 1410              		.loc 1 260 11 is_stmt 1 view .LVU374
 1411              	.L124:
 260:./Application/Src/command.c ****         if (chord_events[traversal_index].positions[0] == 1000.0f && chord_events[traversal_index].
 1412              		.loc 1 260 5 view .LVU375
 261:./Application/Src/command.c ****             LCD_draw_string(0, 9, "Song ends     ", COLOR_BLACK, COLOR_WHITE);
 1413              		.loc 1 261 9 view .LVU376
 261:./Application/Src/command.c ****             LCD_draw_string(0, 9, "Song ends     ", COLOR_BLACK, COLOR_WHITE);
 1414              		.loc 1 261 52 is_stmt 0 view .LVU377
 1415 0082 2546     		mov	r5, r4
 1416 0084 04EB4402 		add	r2, r4, r4, lsl #1
 1417 0088 2A4B     		ldr	r3, .L132
 1418 008a 03EBC203 		add	r3, r3, r2, lsl #3
 1419 008e 93ED007A 		vldr.32	s14, [r3]
 261:./Application/Src/command.c ****             LCD_draw_string(0, 9, "Song ends     ", COLOR_BLACK, COLOR_WHITE);
 1420              		.loc 1 261 12 view .LVU378
 1421 0092 DFED2E7A 		vldr.32	s15, .L132+24
 1422 0096 B4EE677A 		vcmp.f32	s14, s15
 1423 009a F1EE10FA 		vmrs	APSR_nzcv, FPSCR
 1424 009e CED1     		bne	.L120
 261:./Application/Src/command.c ****             LCD_draw_string(0, 9, "Song ends     ", COLOR_BLACK, COLOR_WHITE);
 1425              		.loc 1 261 109 discriminator 1 view .LVU379
 1426 00a0 244B     		ldr	r3, .L132
 1427 00a2 03EBC203 		add	r3, r3, r2, lsl #3
 1428 00a6 93ED017A 		vldr.32	s14, [r3, #4]
 261:./Application/Src/command.c ****             LCD_draw_string(0, 9, "Song ends     ", COLOR_BLACK, COLOR_WHITE);
 1429              		.loc 1 261 67 discriminator 1 view .LVU380
 1430 00aa B4EE677A 		vcmp.f32	s14, s15
 1431 00ae F1EE10FA 		vmrs	APSR_nzcv, FPSCR
 1432 00b2 C4D1     		bne	.L120
 262:./Application/Src/command.c ****             break;
ARM GAS  C:\Users\Xuleo\AppData\Local\Temp\ccHEJafg.s 			page 38


 1433              		.loc 1 262 13 is_stmt 1 view .LVU381
 1434 00b4 4FF6FF73 		movw	r3, #65535
 1435 00b8 0093     		str	r3, [sp]
 1436 00ba 0023     		movs	r3, #0
 1437 00bc 244A     		ldr	r2, .L132+28
 1438 00be 0921     		movs	r1, #9
 1439 00c0 1846     		mov	r0, r3
 1440 00c2 FFF7FEFF 		bl	LCD_draw_string
 1441              	.LVL149:
 263:./Application/Src/command.c ****         }
 1442              		.loc 1 263 13 view .LVU382
 1443 00c6 32E0     		b	.L117
 1444              	.L129:
 1445              	.LBB26:
 269:./Application/Src/command.c ****             memcpy(cmd_listen, rx_message, cmd_len + 1); // +1 for '\0'
 1446              		.loc 1 269 13 view .LVU383
 269:./Application/Src/command.c ****             memcpy(cmd_listen, rx_message, cmd_len + 1); // +1 for '\0'
 1447              		.loc 1 269 22 is_stmt 0 view .LVU384
 1448 00c8 224B     		ldr	r3, .L132+32
 1449 00ca 1E88     		ldrh	r6, [r3]
 1450              	.LVL150:
 270:./Application/Src/command.c ****             rx_complete = 0; // clear AFTER copy, INSIDE the if block
 1451              		.loc 1 270 13 is_stmt 1 view .LVU385
 1452 00cc 224F     		ldr	r7, .L132+36
 1453 00ce 721C     		adds	r2, r6, #1
 1454 00d0 2249     		ldr	r1, .L132+40
 1455 00d2 3846     		mov	r0, r7
 1456 00d4 FFF7FEFF 		bl	memcpy
 1457              	.LVL151:
 271:./Application/Src/command.c ****             cmd_listen[cmd_len] = '\0';
 1458              		.loc 1 271 13 view .LVU386
 271:./Application/Src/command.c ****             cmd_listen[cmd_len] = '\0';
 1459              		.loc 1 271 25 is_stmt 0 view .LVU387
 1460 00d8 0023     		movs	r3, #0
 1461 00da 184A     		ldr	r2, .L132+8
 1462 00dc 1360     		str	r3, [r2]
 272:./Application/Src/command.c ****             if (cmd_len > 0 && cmd_listen[cmd_len - 1] == '\n') {
 1463              		.loc 1 272 13 is_stmt 1 view .LVU388
 272:./Application/Src/command.c ****             if (cmd_len > 0 && cmd_listen[cmd_len - 1] == '\n') {
 1464              		.loc 1 272 33 is_stmt 0 view .LVU389
 1465 00de BB55     		strb	r3, [r7, r6]
 273:./Application/Src/command.c ****                 cmd_listen[cmd_len - 1] = '\0';
 1466              		.loc 1 273 13 is_stmt 1 view .LVU390
 273:./Application/Src/command.c ****                 cmd_listen[cmd_len - 1] = '\0';
 1467              		.loc 1 273 16 is_stmt 0 view .LVU391
 1468 00e0 1EB1     		cbz	r6, .L122
 273:./Application/Src/command.c ****                 cmd_listen[cmd_len - 1] = '\0';
 1469              		.loc 1 273 51 discriminator 1 view .LVU392
 1470 00e2 731E     		subs	r3, r6, #1
 273:./Application/Src/command.c ****                 cmd_listen[cmd_len - 1] = '\0';
 1471              		.loc 1 273 42 discriminator 1 view .LVU393
 1472 00e4 FA5C     		ldrb	r2, [r7, r3]	@ zero_extendqisi2
 273:./Application/Src/command.c ****                 cmd_listen[cmd_len - 1] = '\0';
 1473              		.loc 1 273 29 discriminator 1 view .LVU394
 1474 00e6 0A2A     		cmp	r2, #10
 1475 00e8 08D0     		beq	.L131
 1476              	.LVL152:
ARM GAS  C:\Users\Xuleo\AppData\Local\Temp\ccHEJafg.s 			page 39


 1477              	.L122:
 277:./Application/Src/command.c ****             execute_command(cmd_listen);
 1478              		.loc 1 277 13 is_stmt 1 view .LVU395
 1479 00ea 1B4F     		ldr	r7, .L132+36
 1480 00ec 3146     		mov	r1, r6
 1481 00ee 3846     		mov	r0, r7
 1482 00f0 FFF7FEFF 		bl	menu_process_message
 1483              	.LVL153:
 278:./Application/Src/command.c ****         }
 1484              		.loc 1 278 13 view .LVU396
 1485 00f4 3846     		mov	r0, r7
 1486 00f6 FFF7FEFF 		bl	execute_command
 1487              	.LVL154:
 1488 00fa A4E7     		b	.L121
 1489              	.L131:
 274:./Application/Src/command.c ****                 cmd_len--;
 1490              		.loc 1 274 17 view .LVU397
 274:./Application/Src/command.c ****                 cmd_len--;
 1491              		.loc 1 274 41 is_stmt 0 view .LVU398
 1492 00fc 0021     		movs	r1, #0
 1493 00fe F954     		strb	r1, [r7, r3]
 275:./Application/Src/command.c ****             }
 1494              		.loc 1 275 17 is_stmt 1 view .LVU399
 275:./Application/Src/command.c ****             }
 1495              		.loc 1 275 24 is_stmt 0 view .LVU400
 1496 0100 9EB2     		uxth	r6, r3
 1497              	.LVL155:
 275:./Application/Src/command.c ****             }
 1498              		.loc 1 275 24 view .LVU401
 1499 0102 F2E7     		b	.L122
 1500              	.LVL156:
 1501              	.L130:
 275:./Application/Src/command.c ****             }
 1502              		.loc 1 275 24 view .LVU402
 1503              	.LBE26:
 283:./Application/Src/command.c ****             stop_playing = 0; // reset the flag for future use
 1504              		.loc 1 283 13 is_stmt 1 view .LVU403
 1505 0104 4FF6FF73 		movw	r3, #65535
 1506 0108 0093     		str	r3, [sp]
 1507 010a 0023     		movs	r3, #0
 1508 010c 144A     		ldr	r2, .L132+44
 1509 010e 0921     		movs	r1, #9
 1510 0110 1846     		mov	r0, r3
 1511 0112 FFF7FEFF 		bl	LCD_draw_string
 1512              	.LVL157:
 284:./Application/Src/command.c ****             // reset the position for both motors to avoid unexpected behavior when start playing n
 1513              		.loc 1 284 13 view .LVU404
 284:./Application/Src/command.c ****             // reset the position for both motors to avoid unexpected behavior when start playing n
 1514              		.loc 1 284 26 is_stmt 0 view .LVU405
 1515 0116 0A4B     		ldr	r3, .L132+12
 1516 0118 0022     		movs	r2, #0
 1517 011a 1A60     		str	r2, [r3]
 286:./Application/Src/command.c ****             right_motor.target_pos = 0.0f;
 1518              		.loc 1 286 13 is_stmt 1 view .LVU406
 286:./Application/Src/command.c ****             right_motor.target_pos = 0.0f;
 1519              		.loc 1 286 35 is_stmt 0 view .LVU407
 1520 011c 0023     		movs	r3, #0
ARM GAS  C:\Users\Xuleo\AppData\Local\Temp\ccHEJafg.s 			page 40


 1521 011e 094A     		ldr	r2, .L132+16
 1522 0120 5361     		str	r3, [r2, #20]	@ float
 287:./Application/Src/command.c ****             wait_ms(500); // wait for the motors to move back to initial position
 1523              		.loc 1 287 13 is_stmt 1 view .LVU408
 287:./Application/Src/command.c ****             wait_ms(500); // wait for the motors to move back to initial position
 1524              		.loc 1 287 36 is_stmt 0 view .LVU409
 1525 0122 094A     		ldr	r2, .L132+20
 1526 0124 5361     		str	r3, [r2, #20]	@ float
 288:./Application/Src/command.c ****             break;
 1527              		.loc 1 288 13 is_stmt 1 view .LVU410
 1528 0126 4FF4FA70 		mov	r0, #500
 1529 012a FFF7FEFF 		bl	wait_ms
 1530              	.LVL158:
 289:./Application/Src/command.c ****         }
 1531              		.loc 1 289 13 view .LVU411
 1532              	.L117:
 307:./Application/Src/command.c **** 
 1533              		.loc 1 307 1 is_stmt 0 view .LVU412
 1534 012e 03B0     		add	sp, sp, #12
 1535              	.LCFI13:
 1536              		.cfi_def_cfa_offset 20
 1537              		@ sp needed
 1538 0130 F0BD     		pop	{r4, r5, r6, r7, pc}
 1539              	.L133:
 1540 0132 00BF     		.align	2
 1541              	.L132:
 1542 0134 00000000 		.word	chord_events
 1543 0138 00000000 		.word	.LC6
 1544 013c 00000000 		.word	rx_complete
 1545 0140 00000000 		.word	stop_playing
 1546 0144 00000000 		.word	left_motor
 1547 0148 00000000 		.word	right_motor
 1548 014c 00007A44 		.word	1148846080
 1549 0150 18000000 		.word	.LC7
 1550 0154 00000000 		.word	rx_valid
 1551 0158 00000000 		.word	cmd_listen
 1552 015c 00000000 		.word	rx_message
 1553 0160 28000000 		.word	.LC8
 1554              		.cfi_endproc
 1555              	.LFE365:
 1557              		.global	motor_off
 1558              		.section	.bss.motor_off,"aw",%nobits
 1561              	motor_off:
 1562 0000 00       		.space	1
 1563              		.section	.bss.cmd_listen,"aw",%nobits
 1564              		.align	2
 1567              	cmd_listen:
 1568 0000 00000000 		.space	16
 1568      00000000 
 1568      00000000 
 1568      00000000 
 1569              		.section	.rodata.solenoids,"a"
 1570              		.align	2
 1573              	solenoids:
 1574 0000 00040242 		.word	1107428352
 1575 0004 8000     		.short	128
 1576 0006 0000     		.space	2
ARM GAS  C:\Users\Xuleo\AppData\Local\Temp\ccHEJafg.s 			page 41


 1577 0008 00040242 		.word	1107428352
 1578 000c 0001     		.short	256
 1579 000e 0000     		.space	2
 1580 0010 00040242 		.word	1107428352
 1581 0014 0002     		.short	512
 1582 0016 0000     		.space	2
 1583 0018 00100242 		.word	1107431424
 1584 001c 0100     		.short	1
 1585 001e 0000     		.space	2
 1586 0020 00100242 		.word	1107431424
 1587 0024 0400     		.short	4
 1588 0026 0000     		.space	2
 1589 0028 00100242 		.word	1107431424
 1590 002c 0800     		.short	8
 1591 002e 0000     		.space	2
 1592 0030 00100242 		.word	1107431424
 1593 0034 1000     		.short	16
 1594 0036 0000     		.space	2
 1595 0038 00100242 		.word	1107431424
 1596 003c 4000     		.short	64
 1597 003e 0000     		.space	2
 1598 0040 00080242 		.word	1107429376
 1599 0044 0040     		.short	16384
 1600 0046 0000     		.space	2
 1601 0048 00080242 		.word	1107429376
 1602 004c 0080     		.short	-32768
 1603 004e 0000     		.space	2
 1604              		.text
 1605              	.Letext0:
 1606              		.file 2 "C:/thirdpartyLibs/arm-gnu-toolchain-15.2/arm-none-eabi/include/machine/_default_types.h"
 1607              		.file 3 "C:/thirdpartyLibs/arm-gnu-toolchain-15.2/arm-none-eabi/include/sys/_stdint.h"
 1608              		.file 4 "Drivers/CMSIS/Device/ST/STM32H5xx/Include/stm32h523xx.h"
 1609              		.file 5 "Drivers/STM32H5xx_HAL_Driver/Inc/stm32h5xx_hal_def.h"
 1610              		.file 6 "Drivers/STM32H5xx_HAL_Driver/Inc/stm32h5xx_hal_gpio.h"
 1611              		.file 7 "Drivers/STM32H5xx_HAL_Driver/Inc/stm32h5xx_hal_dma.h"
 1612              		.file 8 "Drivers/STM32H5xx_HAL_Driver/Inc/stm32h5xx_hal_dma_ex.h"
 1613              		.file 9 "Drivers/STM32H5xx_HAL_Driver/Inc/stm32h5xx_hal_tim.h"
 1614              		.file 10 "Application/Inc/menu.h"
 1615              		.file 11 "Core/Inc/tim.h"
 1616              		.file 12 "Application/Inc/application.h"
 1617              		.file 13 "Application/Inc/user_timer.h"
 1618              		.file 14 "Application/Inc/hc04.h"
 1619              		.file 15 "Application/Inc/ILI9225.h"
 1620              		.file 16 "C:/thirdpartyLibs/arm-gnu-toolchain-15.2/arm-none-eabi/include/string.h"
 1621              		.file 17 "C:/thirdpartyLibs/arm-gnu-toolchain-15.2/arm-none-eabi/include/stdlib.h"
 1622              		.file 18 "<built-in>"
ARM GAS  C:\Users\Xuleo\AppData\Local\Temp\ccHEJafg.s 			page 42


DEFINED SYMBOLS
                            *ABS*:00000000 command.c
C:\Users\Xuleo\AppData\Local\Temp\ccHEJafg.s:22     .text.set_text:00000000 $t
C:\Users\Xuleo\AppData\Local\Temp\ccHEJafg.s:28     .text.set_text:00000000 set_text
C:\Users\Xuleo\AppData\Local\Temp\ccHEJafg.s:64     .text.reset_pos:00000000 $t
C:\Users\Xuleo\AppData\Local\Temp\ccHEJafg.s:70     .text.reset_pos:00000000 reset_pos
C:\Users\Xuleo\AppData\Local\Temp\ccHEJafg.s:88     .rodata.list_files_over_bt.str1.4:00000000 $d
C:\Users\Xuleo\AppData\Local\Temp\ccHEJafg.s:92     .text.list_files_over_bt:00000000 $t
C:\Users\Xuleo\AppData\Local\Temp\ccHEJafg.s:98     .text.list_files_over_bt:00000000 list_files_over_bt
C:\Users\Xuleo\AppData\Local\Temp\ccHEJafg.s:118    .text.list_files_over_bt:0000000c $d
C:\Users\Xuleo\AppData\Local\Temp\ccHEJafg.s:123    .text.toggle_solenoid:00000000 $t
C:\Users\Xuleo\AppData\Local\Temp\ccHEJafg.s:129    .text.toggle_solenoid:00000000 toggle_solenoid
C:\Users\Xuleo\AppData\Local\Temp\ccHEJafg.s:349    .text.toggle_solenoid:000000e8 $d
C:\Users\Xuleo\AppData\Local\Temp\ccHEJafg.s:1561   .bss.motor_off:00000000 motor_off
C:\Users\Xuleo\AppData\Local\Temp\ccHEJafg.s:1573   .rodata.solenoids:00000000 solenoids
C:\Users\Xuleo\AppData\Local\Temp\ccHEJafg.s:357    .text.debug_traversal:00000000 $t
C:\Users\Xuleo\AppData\Local\Temp\ccHEJafg.s:363    .text.debug_traversal:00000000 debug_traversal
C:\Users\Xuleo\AppData\Local\Temp\ccHEJafg.s:495    .text.debug_traversal:000000ac $d
C:\Users\Xuleo\AppData\Local\Temp\ccHEJafg.s:506    .text.parse_command:00000000 $t
C:\Users\Xuleo\AppData\Local\Temp\ccHEJafg.s:512    .text.parse_command:00000000 parse_command
C:\Users\Xuleo\AppData\Local\Temp\ccHEJafg.s:1307   .text.traversal:00000000 traversal
C:\Users\Xuleo\AppData\Local\Temp\ccHEJafg.s:1116   .text.parse_command:000001e8 $d
C:\Users\Xuleo\AppData\Local\Temp\ccHEJafg.s:1128   .rodata.execute_command.str1.4:00000000 $d
C:\Users\Xuleo\AppData\Local\Temp\ccHEJafg.s:1144   .text.execute_command:00000000 $t
C:\Users\Xuleo\AppData\Local\Temp\ccHEJafg.s:1150   .text.execute_command:00000000 execute_command
C:\Users\Xuleo\AppData\Local\Temp\ccHEJafg.s:1282   .text.execute_command:0000009c $d
C:\Users\Xuleo\AppData\Local\Temp\ccHEJafg.s:1291   .rodata.traversal.str1.4:00000000 $d
C:\Users\Xuleo\AppData\Local\Temp\ccHEJafg.s:1301   .text.traversal:00000000 $t
C:\Users\Xuleo\AppData\Local\Temp\ccHEJafg.s:1542   .text.traversal:00000134 $d
C:\Users\Xuleo\AppData\Local\Temp\ccHEJafg.s:1567   .bss.cmd_listen:00000000 cmd_listen
C:\Users\Xuleo\AppData\Local\Temp\ccHEJafg.s:1562   .bss.motor_off:00000000 $d
C:\Users\Xuleo\AppData\Local\Temp\ccHEJafg.s:1564   .bss.cmd_listen:00000000 $d
C:\Users\Xuleo\AppData\Local\Temp\ccHEJafg.s:1570   .rodata.solenoids:00000000 $d

UNDEFINED SYMBOLS
LCD_draw_string
hc04_send_string
HAL_GPIO_WritePin
wait_ms
chord_events
right_motor
left_motor
right_motor_arrived
left_motor_arrived
htim1
strtof
menu_back
stop_playing
menu_move_up
menu_move_down
menu_enter
memcpy
menu_process_message
rx_complete
rx_valid
rx_message
