ARM GAS  C:\Users\admin\AppData\Local\Temp\ccxrCYWe.s 			page 1


   1              		.cpu cortex-m33
   2              		.arch armv8-m.main
   3              		.fpu fpv5-sp-d16
   4              		.arch_extension dsp
   5              		.eabi_attribute 27, 1
   6              		.eabi_attribute 28, 1
   7              		.eabi_attribute 20, 1
   8              		.eabi_attribute 21, 1
   9              		.eabi_attribute 23, 3
  10              		.eabi_attribute 24, 1
  11              		.eabi_attribute 25, 1
  12              		.eabi_attribute 26, 1
  13              		.eabi_attribute 30, 1
  14              		.eabi_attribute 34, 1
  15              		.eabi_attribute 18, 4
  16              		.file	"command.c"
  17              		.text
  18              	.Ltext0:
  19              		.cfi_sections	.debug_frame
  20              		.file 1 "./Application/Src/command.c"
  21              		.section	.text.set_text,"ax",%progbits
  22              		.align	1
  23              		.global	set_text
  24              		.syntax unified
  25              		.thumb
  26              		.thumb_func
  28              	set_text:
  29              	.LVL0:
  30              	.LFB361:
   1:./Application/Src/command.c **** #include <command.h>
   2:./Application/Src/command.c **** #include <stdio.h>
   3:./Application/Src/command.c **** #include <stdlib.h>
   4:./Application/Src/command.c **** #include "stm32h5xx_hal.h"
   5:./Application/Src/command.c **** #include <application.h>
   6:./Application/Src/command.c **** #include <diskio.h>
   7:./Application/Src/command.c **** #include <sd.h>
   8:./Application/Src/command.c **** #include <hc04.h>
   9:./Application/Src/command.c **** #include <menu.h>
  10:./Application/Src/command.c **** 
  11:./Application/Src/command.c **** extern PID_t left_motor;
  12:./Application/Src/command.c **** extern PID_t right_motor;
  13:./Application/Src/command.c **** 
  14:./Application/Src/command.c **** int parse_command(uint8_t *cmd)
  15:./Application/Src/command.c **** {
  16:./Application/Src/command.c ****     /* ---- Colon commands (:p, :w, :s, :r, :d, :a) ---- */
  17:./Application/Src/command.c ****     if (cmd[0] == ':'){
  18:./Application/Src/command.c ****         switch (cmd[1]){
  19:./Application/Src/command.c ****         case 'p':{ /* :p <value> — set position in mm */
  20:./Application/Src/command.c ****             char *arg = (char *)cmd + 3;
  21:./Application/Src/command.c ****             while (*arg == ' ')
  22:./Application/Src/command.c ****                 arg++;
  23:./Application/Src/command.c ****             if (*arg == '\0')
  24:./Application/Src/command.c ****                 return 3; /* incomplete */
  25:./Application/Src/command.c **** 
  26:./Application/Src/command.c ****             // separate left and right
  27:./Application/Src/command.c ****             if (cmd[2] == 'l'){
  28:./Application/Src/command.c ****                 left_motor.target_pos = strtof(arg, NULL);
ARM GAS  C:\Users\admin\AppData\Local\Temp\ccxrCYWe.s 			page 2


  29:./Application/Src/command.c ****             }
  30:./Application/Src/command.c ****             else if (cmd[2] == 'r'){
  31:./Application/Src/command.c ****                 right_motor.target_pos = strtof(arg, NULL);
  32:./Application/Src/command.c ****             }
  33:./Application/Src/command.c ****             else {
  34:./Application/Src/command.c ****                 return 1;
  35:./Application/Src/command.c ****             }
  36:./Application/Src/command.c ****             return 0;
  37:./Application/Src/command.c ****         }
  38:./Application/Src/command.c ****         case 'j':
  39:./Application/Src/command.c ****             HAL_GPIO_TogglePin(GPIOD, GPIO_PIN_4);
  40:./Application/Src/command.c ****             HAL_GPIO_TogglePin(GPIOD, GPIO_PIN_5);
  41:./Application/Src/command.c ****             return 0;
  42:./Application/Src/command.c ****         case 'w': /* :w — menu move up */
  43:./Application/Src/command.c ****             menu_move_up = 1;
  44:./Application/Src/command.c ****             return 0;
  45:./Application/Src/command.c ****         case 's': /* :s — menu move down */
  46:./Application/Src/command.c ****             menu_move_down = 1;
  47:./Application/Src/command.c ****             return 0;
  48:./Application/Src/command.c ****         case 'r': /* :r — reset encoder position */
  49:./Application/Src/command.c ****             // reset_pos(&htim2);
  50:./Application/Src/command.c ****             return 0;
  51:./Application/Src/command.c ****         case 'd': /* :d — enter / select current menu item */
  52:./Application/Src/command.c ****             menu_enter = 1;
  53:./Application/Src/command.c ****             return 0;
  54:./Application/Src/command.c ****         case 'a': /* :a — back to main menu */
  55:./Application/Src/command.c ****             menu_enter = 0;
  56:./Application/Src/command.c ****             return 0;
  57:./Application/Src/command.c ****         case 't': // set text in LCD
  58:./Application/Src/command.c ****             char *arg = (char *)cmd + 2;
  59:./Application/Src/command.c ****             while (*arg == ' ')
  60:./Application/Src/command.c ****                 arg++;
  61:./Application/Src/command.c ****             if (*arg == '\0')
  62:./Application/Src/command.c ****                 return 3; /* incomplete */
  63:./Application/Src/command.c ****             set_text((uint8_t *)arg);
  64:./Application/Src/command.c ****             return 0;
  65:./Application/Src/command.c ****         case 'o': // reset position
  66:./Application/Src/command.c ****             // reset_pos(&htim2);
  67:./Application/Src/command.c ****             return 0;
  68:./Application/Src/command.c ****         case 'l':
  69:./Application/Src/command.c ****             // list_files_over_bt();
  70:./Application/Src/command.c ****             return 0;
  71:./Application/Src/command.c **** 
  72:./Application/Src/command.c ****         default:
  73:./Application/Src/command.c ****             return 1; /* unknown colon command */
  74:./Application/Src/command.c ****         }
  75:./Application/Src/command.c ****     }
  76:./Application/Src/command.c **** 
  77:./Application/Src/command.c ****     else if (cmd[0] == ';'){
  78:./Application/Src/command.c ****         switch (cmd[1]){
  79:./Application/Src/command.c ****         case 'p':{ /* :p <value> — set position in mm */
  80:./Application/Src/command.c ****             char *arg = (char *)cmd + 3;
  81:./Application/Src/command.c ****             while (*arg == ' ')
  82:./Application/Src/command.c ****                 arg++;
  83:./Application/Src/command.c ****             if (*arg == '\0')
  84:./Application/Src/command.c ****                 return 3; /* incomplete */
  85:./Application/Src/command.c **** 
ARM GAS  C:\Users\admin\AppData\Local\Temp\ccxrCYWe.s 			page 3


  86:./Application/Src/command.c ****             // separate left and right
  87:./Application/Src/command.c ****             if (cmd[2] == 'l'){
  88:./Application/Src/command.c ****                 left_motor.Kp = strtof(arg, NULL);
  89:./Application/Src/command.c ****             }
  90:./Application/Src/command.c ****             else if (cmd[2] == 'r'){
  91:./Application/Src/command.c ****                 left_motor.Kp = strtof(arg, NULL);
  92:./Application/Src/command.c ****             }
  93:./Application/Src/command.c ****             else {
  94:./Application/Src/command.c ****                 return 1;
  95:./Application/Src/command.c ****             }
  96:./Application/Src/command.c ****             return 0;
  97:./Application/Src/command.c ****         }
  98:./Application/Src/command.c ****         case 'i':{ /* :p <value> — set position in mm */
  99:./Application/Src/command.c ****             char *arg = (char *)cmd + 3;
 100:./Application/Src/command.c ****             while (*arg == ' ')
 101:./Application/Src/command.c ****                 arg++;
 102:./Application/Src/command.c ****             if (*arg == '\0')
 103:./Application/Src/command.c ****                 return 3; /* incomplete */
 104:./Application/Src/command.c **** 
 105:./Application/Src/command.c ****             // separate left and right
 106:./Application/Src/command.c ****             if (cmd[2] == 'l'){
 107:./Application/Src/command.c ****                 left_motor.Ki = strtof(arg, NULL);
 108:./Application/Src/command.c ****             }
 109:./Application/Src/command.c ****             else if (cmd[2] == 'r'){
 110:./Application/Src/command.c ****                 left_motor.Ki = strtof(arg, NULL);
 111:./Application/Src/command.c ****             }
 112:./Application/Src/command.c ****             else {
 113:./Application/Src/command.c ****                 return 1;
 114:./Application/Src/command.c ****             }
 115:./Application/Src/command.c ****             return 0;
 116:./Application/Src/command.c ****         }
 117:./Application/Src/command.c ****         case 'd':{ /* :p <value> — set position in mm */
 118:./Application/Src/command.c ****             char *arg = (char *)cmd + 3;
 119:./Application/Src/command.c ****             while (*arg == ' ')
 120:./Application/Src/command.c ****                 arg++;
 121:./Application/Src/command.c ****             if (*arg == '\0')
 122:./Application/Src/command.c ****                 return 3; /* incomplete */
 123:./Application/Src/command.c **** 
 124:./Application/Src/command.c ****             // separate left and right
 125:./Application/Src/command.c ****             if (cmd[2] == 'l'){
 126:./Application/Src/command.c ****                 left_motor.Kd = strtof(arg, NULL);
 127:./Application/Src/command.c ****             }
 128:./Application/Src/command.c ****             else if (cmd[2] == 'r'){
 129:./Application/Src/command.c ****                 left_motor.Kd = strtof(arg, NULL);
 130:./Application/Src/command.c ****             }
 131:./Application/Src/command.c ****             else {
 132:./Application/Src/command.c ****                 return 1;
 133:./Application/Src/command.c ****             }
 134:./Application/Src/command.c ****             return 0;
 135:./Application/Src/command.c ****         }
 136:./Application/Src/command.c ****         }
 137:./Application/Src/command.c ****     }
 138:./Application/Src/command.c ****     return 0;
 139:./Application/Src/command.c **** }
 140:./Application/Src/command.c **** 
 141:./Application/Src/command.c **** void execute_command(uint8_t *command)
 142:./Application/Src/command.c **** {
ARM GAS  C:\Users\admin\AppData\Local\Temp\ccxrCYWe.s 			page 4


 143:./Application/Src/command.c ****     int result = parse_command(command);
 144:./Application/Src/command.c ****     if (result == 0)
 145:./Application/Src/command.c ****     {
 146:./Application/Src/command.c ****         LCD_draw_string(0, 14, "OK.                      ", COLOR_BLACK, COLOR_WHITE);
 147:./Application/Src/command.c ****         LCD_draw_string(0, 15, "                         ", COLOR_BLACK, COLOR_WHITE);
 148:./Application/Src/command.c ****     }
 149:./Application/Src/command.c ****     else if (result == 1)
 150:./Application/Src/command.c ****     {
 151:./Application/Src/command.c ****         LCD_draw_string(0, 14, "Cannot parse!            ", COLOR_BLACK, COLOR_WHITE);
 152:./Application/Src/command.c ****         LCD_draw_string(0, 15, (char*)command, COLOR_BLACK, COLOR_WHITE);
 153:./Application/Src/command.c ****     }
 154:./Application/Src/command.c ****     else if (result == 2)
 155:./Application/Src/command.c ****     {
 156:./Application/Src/command.c ****         LCD_draw_string(0, 14, "Empty command!           ", COLOR_BLACK, COLOR_WHITE);
 157:./Application/Src/command.c ****     }
 158:./Application/Src/command.c ****     else if (result == 3)
 159:./Application/Src/command.c ****     {
 160:./Application/Src/command.c ****         LCD_draw_string(0, 14, "Incomplete command!      ", COLOR_BLACK, COLOR_WHITE);
 161:./Application/Src/command.c ****         LCD_draw_string(0, 15, (char*)command, COLOR_BLACK, COLOR_WHITE);
 162:./Application/Src/command.c ****     }
 163:./Application/Src/command.c **** }
 164:./Application/Src/command.c **** 
 165:./Application/Src/command.c **** void set_text(uint8_t *displayedText)
 166:./Application/Src/command.c **** {
  31              		.loc 1 166 1 view -0
  32              		.cfi_startproc
  33              		@ args = 0, pretend = 0, frame = 0
  34              		@ frame_needed = 0, uses_anonymous_args = 0
  35              		.loc 1 166 1 is_stmt 0 view .LVU1
  36 0000 00B5     		push	{lr}
  37              	.LCFI0:
  38              		.cfi_def_cfa_offset 4
  39              		.cfi_offset 14, -4
  40 0002 83B0     		sub	sp, sp, #12
  41              	.LCFI1:
  42              		.cfi_def_cfa_offset 16
  43 0004 0246     		mov	r2, r0
 167:./Application/Src/command.c ****     LCD_draw_string(0, 13, (char *)displayedText, COLOR_BLACK, COLOR_WHITE);
  44              		.loc 1 167 5 is_stmt 1 view .LVU2
  45 0006 4FF6FF73 		movw	r3, #65535
  46 000a 0093     		str	r3, [sp]
  47 000c 0023     		movs	r3, #0
  48 000e 0D21     		movs	r1, #13
  49 0010 1846     		mov	r0, r3
  50              	.LVL1:
  51              		.loc 1 167 5 is_stmt 0 view .LVU3
  52 0012 FFF7FEFF 		bl	LCD_draw_string
  53              	.LVL2:
 168:./Application/Src/command.c **** }
  54              		.loc 1 168 1 view .LVU4
  55 0016 03B0     		add	sp, sp, #12
  56              	.LCFI2:
  57              		.cfi_def_cfa_offset 4
  58              		@ sp needed
  59 0018 00BD     		pop	{pc}
  60              		.cfi_endproc
  61              	.LFE361:
ARM GAS  C:\Users\admin\AppData\Local\Temp\ccxrCYWe.s 			page 5


  63              		.section	.text.parse_command,"ax",%progbits
  64              		.align	1
  65              		.global	parse_command
  66              		.syntax unified
  67              		.thumb
  68              		.thumb_func
  70              	parse_command:
  71              	.LVL3:
  72              	.LFB359:
  15:./Application/Src/command.c ****     /* ---- Colon commands (:p, :w, :s, :r, :d, :a) ---- */
  73              		.loc 1 15 1 is_stmt 1 view -0
  74              		.cfi_startproc
  75              		@ args = 0, pretend = 0, frame = 0
  76              		@ frame_needed = 0, uses_anonymous_args = 0
  15:./Application/Src/command.c ****     /* ---- Colon commands (:p, :w, :s, :r, :d, :a) ---- */
  77              		.loc 1 15 1 is_stmt 0 view .LVU6
  78 0000 08B5     		push	{r3, lr}
  79              	.LCFI3:
  80              		.cfi_def_cfa_offset 8
  81              		.cfi_offset 3, -8
  82              		.cfi_offset 14, -4
  17:./Application/Src/command.c ****         switch (cmd[1]){
  83              		.loc 1 17 5 is_stmt 1 view .LVU7
  17:./Application/Src/command.c ****         switch (cmd[1]){
  84              		.loc 1 17 12 is_stmt 0 view .LVU8
  85 0002 0378     		ldrb	r3, [r0]	@ zero_extendqisi2
  17:./Application/Src/command.c ****         switch (cmd[1]){
  86              		.loc 1 17 8 view .LVU9
  87 0004 3A2B     		cmp	r3, #58
  88 0006 03D0     		beq	.L51
  77:./Application/Src/command.c ****         switch (cmd[1]){
  89              		.loc 1 77 10 is_stmt 1 view .LVU10
  77:./Application/Src/command.c ****         switch (cmd[1]){
  90              		.loc 1 77 13 is_stmt 0 view .LVU11
  91 0008 3B2B     		cmp	r3, #59
  92 000a 6FD0     		beq	.L52
 138:./Application/Src/command.c **** }
  93              		.loc 1 138 12 view .LVU12
  94 000c 0020     		movs	r0, #0
  95              	.LVL4:
  96              	.L3:
 139:./Application/Src/command.c **** 
  97              		.loc 1 139 1 view .LVU13
  98 000e 08BD     		pop	{r3, pc}
  99              	.LVL5:
 100              	.L51:
  18:./Application/Src/command.c ****         case 'p':{ /* :p <value> — set position in mm */
 101              		.loc 1 18 9 is_stmt 1 view .LVU14
  18:./Application/Src/command.c ****         case 'p':{ /* :p <value> — set position in mm */
 102              		.loc 1 18 20 is_stmt 0 view .LVU15
 103 0010 4378     		ldrb	r3, [r0, #1]	@ zero_extendqisi2
  18:./Application/Src/command.c ****         case 'p':{ /* :p <value> — set position in mm */
 104              		.loc 1 18 9 view .LVU16
 105 0012 702B     		cmp	r3, #112
 106 0014 2ED0     		beq	.L5
 107 0016 15D8     		bhi	.L6
 108 0018 6A2B     		cmp	r3, #106
ARM GAS  C:\Users\admin\AppData\Local\Temp\ccxrCYWe.s 			page 6


 109 001a 4CD0     		beq	.L7
 110 001c 0AD8     		bhi	.L8
 111 001e 612B     		cmp	r3, #97
 112 0020 53D0     		beq	.L9
 113 0022 642B     		cmp	r3, #100
 114 0024 04D1     		bne	.L53
 115              	.LBB2:
  52:./Application/Src/command.c ****             return 0;
 116              		.loc 1 52 13 is_stmt 1 view .LVU17
  52:./Application/Src/command.c ****             return 0;
 117              		.loc 1 52 24 is_stmt 0 view .LVU18
 118 0026 6C4B     		ldr	r3, .L65
 119 0028 0122     		movs	r2, #1
 120 002a 1A60     		str	r2, [r3]
  53:./Application/Src/command.c ****         case 'a': /* :a — back to main menu */
 121              		.loc 1 53 13 is_stmt 1 view .LVU19
  53:./Application/Src/command.c ****         case 'a': /* :a — back to main menu */
 122              		.loc 1 53 20 is_stmt 0 view .LVU20
 123 002c 0020     		movs	r0, #0
 124              	.LVL6:
  53:./Application/Src/command.c ****         case 'a': /* :a — back to main menu */
 125              		.loc 1 53 20 view .LVU21
 126 002e EEE7     		b	.L3
 127              	.LVL7:
 128              	.L53:
  73:./Application/Src/command.c ****         }
 129              		.loc 1 73 20 view .LVU22
 130 0030 0120     		movs	r0, #1
 131              	.LVL8:
  73:./Application/Src/command.c ****         }
 132              		.loc 1 73 20 view .LVU23
 133 0032 ECE7     		b	.L3
 134              	.LVL9:
 135              	.L8:
  73:./Application/Src/command.c ****         }
 136              		.loc 1 73 20 view .LVU24
 137              	.LBE2:
  18:./Application/Src/command.c ****         case 'p':{ /* :p <value> — set position in mm */
 138              		.loc 1 18 9 view .LVU25
 139 0034 6C2B     		cmp	r3, #108
 140 0036 00F0C180 		beq	.L37
 141 003a 6F2B     		cmp	r3, #111
 142 003c 40F0C080 		bne	.L38
 143 0040 0020     		movs	r0, #0
 144              	.LVL10:
  18:./Application/Src/command.c ****         case 'p':{ /* :p <value> — set position in mm */
 145              		.loc 1 18 9 view .LVU26
 146 0042 E4E7     		b	.L3
 147              	.LVL11:
 148              	.L6:
  18:./Application/Src/command.c ****         case 'p':{ /* :p <value> — set position in mm */
 149              		.loc 1 18 9 view .LVU27
 150 0044 742B     		cmp	r3, #116
 151 0046 44D0     		beq	.L12
 152 0048 0BD8     		bhi	.L13
 153 004a 722B     		cmp	r3, #114
 154 004c 00F0BA80 		beq	.L39
ARM GAS  C:\Users\admin\AppData\Local\Temp\ccxrCYWe.s 			page 7


 155 0050 732B     		cmp	r3, #115
 156 0052 04D1     		bne	.L54
 157              	.LBB5:
  46:./Application/Src/command.c ****             return 0;
 158              		.loc 1 46 13 is_stmt 1 view .LVU28
  46:./Application/Src/command.c ****             return 0;
 159              		.loc 1 46 28 is_stmt 0 view .LVU29
 160 0054 614B     		ldr	r3, .L65+4
 161 0056 0122     		movs	r2, #1
 162 0058 1A60     		str	r2, [r3]
  47:./Application/Src/command.c ****         case 'r': /* :r — reset encoder position */
 163              		.loc 1 47 13 is_stmt 1 view .LVU30
  47:./Application/Src/command.c ****         case 'r': /* :r — reset encoder position */
 164              		.loc 1 47 20 is_stmt 0 view .LVU31
 165 005a 0020     		movs	r0, #0
 166              	.LVL12:
  47:./Application/Src/command.c ****         case 'r': /* :r — reset encoder position */
 167              		.loc 1 47 20 view .LVU32
 168 005c D7E7     		b	.L3
 169              	.LVL13:
 170              	.L54:
  73:./Application/Src/command.c ****         }
 171              		.loc 1 73 20 view .LVU33
 172 005e 0120     		movs	r0, #1
 173              	.LVL14:
  73:./Application/Src/command.c ****         }
 174              		.loc 1 73 20 view .LVU34
 175 0060 D5E7     		b	.L3
 176              	.LVL15:
 177              	.L13:
  73:./Application/Src/command.c ****         }
 178              		.loc 1 73 20 view .LVU35
 179              	.LBE5:
  18:./Application/Src/command.c ****         case 'p':{ /* :p <value> — set position in mm */
 180              		.loc 1 18 9 view .LVU36
 181 0062 772B     		cmp	r3, #119
 182 0064 04D1     		bne	.L55
 183              	.LBB6:
  43:./Application/Src/command.c ****             return 0;
 184              		.loc 1 43 13 is_stmt 1 view .LVU37
  43:./Application/Src/command.c ****             return 0;
 185              		.loc 1 43 26 is_stmt 0 view .LVU38
 186 0066 5E4B     		ldr	r3, .L65+8
 187 0068 0122     		movs	r2, #1
 188 006a 1A60     		str	r2, [r3]
  44:./Application/Src/command.c ****         case 's': /* :s — menu move down */
 189              		.loc 1 44 13 is_stmt 1 view .LVU39
  44:./Application/Src/command.c ****         case 's': /* :s — menu move down */
 190              		.loc 1 44 20 is_stmt 0 view .LVU40
 191 006c 0020     		movs	r0, #0
 192              	.LVL16:
  44:./Application/Src/command.c ****         case 's': /* :s — menu move down */
 193              		.loc 1 44 20 view .LVU41
 194 006e CEE7     		b	.L3
 195              	.LVL17:
 196              	.L55:
  73:./Application/Src/command.c ****         }
ARM GAS  C:\Users\admin\AppData\Local\Temp\ccxrCYWe.s 			page 8


 197              		.loc 1 73 20 view .LVU42
 198 0070 0120     		movs	r0, #1
 199              	.LVL18:
  73:./Application/Src/command.c ****         }
 200              		.loc 1 73 20 view .LVU43
 201 0072 CCE7     		b	.L3
 202              	.LVL19:
 203              	.L5:
 204              	.LBB3:
  20:./Application/Src/command.c ****             while (*arg == ' ')
 205              		.loc 1 20 13 is_stmt 1 view .LVU44
  20:./Application/Src/command.c ****             while (*arg == ' ')
 206              		.loc 1 20 19 is_stmt 0 view .LVU45
 207 0074 C31C     		adds	r3, r0, #3
 208              	.LVL20:
  21:./Application/Src/command.c ****                 arg++;
 209              		.loc 1 21 13 is_stmt 1 view .LVU46
  21:./Application/Src/command.c ****                 arg++;
 210              		.loc 1 21 19 is_stmt 0 view .LVU47
 211 0076 00E0     		b	.L16
 212              	.L17:
  22:./Application/Src/command.c ****             if (*arg == '\0')
 213              		.loc 1 22 17 is_stmt 1 view .LVU48
  22:./Application/Src/command.c ****             if (*arg == '\0')
 214              		.loc 1 22 20 is_stmt 0 view .LVU49
 215 0078 0133     		adds	r3, r3, #1
 216              	.LVL21:
 217              	.L16:
  21:./Application/Src/command.c ****                 arg++;
 218              		.loc 1 21 25 is_stmt 1 view .LVU50
  21:./Application/Src/command.c ****                 arg++;
 219              		.loc 1 21 20 is_stmt 0 view .LVU51
 220 007a 1A78     		ldrb	r2, [r3]	@ zero_extendqisi2
  21:./Application/Src/command.c ****                 arg++;
 221              		.loc 1 21 25 view .LVU52
 222 007c 202A     		cmp	r2, #32
 223 007e FBD0     		beq	.L17
  23:./Application/Src/command.c ****                 return 3; /* incomplete */
 224              		.loc 1 23 13 is_stmt 1 view .LVU53
  23:./Application/Src/command.c ****                 return 3; /* incomplete */
 225              		.loc 1 23 16 is_stmt 0 view .LVU54
 226 0080 002A     		cmp	r2, #0
 227 0082 00F0A180 		beq	.L40
  27:./Application/Src/command.c ****                 left_motor.target_pos = strtof(arg, NULL);
 228              		.loc 1 27 13 is_stmt 1 view .LVU55
  27:./Application/Src/command.c ****                 left_motor.target_pos = strtof(arg, NULL);
 229              		.loc 1 27 20 is_stmt 0 view .LVU56
 230 0086 8278     		ldrb	r2, [r0, #2]	@ zero_extendqisi2
  27:./Application/Src/command.c ****                 left_motor.target_pos = strtof(arg, NULL);
 231              		.loc 1 27 16 view .LVU57
 232 0088 6C2A     		cmp	r2, #108
 233 008a 03D0     		beq	.L56
  30:./Application/Src/command.c ****                 right_motor.target_pos = strtof(arg, NULL);
 234              		.loc 1 30 18 is_stmt 1 view .LVU58
  30:./Application/Src/command.c ****                 right_motor.target_pos = strtof(arg, NULL);
 235              		.loc 1 30 21 is_stmt 0 view .LVU59
 236 008c 722A     		cmp	r2, #114
ARM GAS  C:\Users\admin\AppData\Local\Temp\ccxrCYWe.s 			page 9


 237 008e 09D0     		beq	.L57
  34:./Application/Src/command.c ****             }
 238              		.loc 1 34 24 view .LVU60
 239 0090 0120     		movs	r0, #1
 240              	.LVL22:
  34:./Application/Src/command.c ****             }
 241              		.loc 1 34 24 view .LVU61
 242 0092 BCE7     		b	.L3
 243              	.LVL23:
 244              	.L56:
  28:./Application/Src/command.c ****             }
 245              		.loc 1 28 17 is_stmt 1 view .LVU62
  28:./Application/Src/command.c ****             }
 246              		.loc 1 28 41 is_stmt 0 view .LVU63
 247 0094 0021     		movs	r1, #0
 248 0096 1846     		mov	r0, r3
 249              	.LVL24:
  28:./Application/Src/command.c ****             }
 250              		.loc 1 28 41 view .LVU64
 251 0098 FFF7FEFF 		bl	strtof
 252              	.LVL25:
  28:./Application/Src/command.c ****             }
 253              		.loc 1 28 39 discriminator 1 view .LVU65
 254 009c 514B     		ldr	r3, .L65+12
 255 009e 83ED050A 		vstr.32	s0, [r3, #20]
 256 00a2 06E0     		b	.L19
 257              	.LVL26:
 258              	.L57:
  31:./Application/Src/command.c ****             }
 259              		.loc 1 31 17 is_stmt 1 view .LVU66
  31:./Application/Src/command.c ****             }
 260              		.loc 1 31 42 is_stmt 0 view .LVU67
 261 00a4 0021     		movs	r1, #0
 262 00a6 1846     		mov	r0, r3
 263              	.LVL27:
  31:./Application/Src/command.c ****             }
 264              		.loc 1 31 42 view .LVU68
 265 00a8 FFF7FEFF 		bl	strtof
 266              	.LVL28:
  31:./Application/Src/command.c ****             }
 267              		.loc 1 31 40 discriminator 1 view .LVU69
 268 00ac 4E4B     		ldr	r3, .L65+16
 269 00ae 83ED050A 		vstr.32	s0, [r3, #20]
 270              	.L19:
  36:./Application/Src/command.c ****         }
 271              		.loc 1 36 13 is_stmt 1 view .LVU70
  36:./Application/Src/command.c ****         }
 272              		.loc 1 36 20 is_stmt 0 view .LVU71
 273 00b2 0020     		movs	r0, #0
 274 00b4 ABE7     		b	.L3
 275              	.LVL29:
 276              	.L7:
  36:./Application/Src/command.c ****         }
 277              		.loc 1 36 20 view .LVU72
 278              	.LBE3:
  39:./Application/Src/command.c ****             HAL_GPIO_TogglePin(GPIOD, GPIO_PIN_5);
 279              		.loc 1 39 13 is_stmt 1 view .LVU73
ARM GAS  C:\Users\admin\AppData\Local\Temp\ccxrCYWe.s 			page 10


 280 00b6 1021     		movs	r1, #16
 281 00b8 4C48     		ldr	r0, .L65+20
 282              	.LVL30:
  39:./Application/Src/command.c ****             HAL_GPIO_TogglePin(GPIOD, GPIO_PIN_5);
 283              		.loc 1 39 13 is_stmt 0 view .LVU74
 284 00ba FFF7FEFF 		bl	HAL_GPIO_TogglePin
 285              	.LVL31:
  40:./Application/Src/command.c ****             return 0;
 286              		.loc 1 40 13 is_stmt 1 view .LVU75
 287 00be 2021     		movs	r1, #32
 288 00c0 4A48     		ldr	r0, .L65+20
 289 00c2 FFF7FEFF 		bl	HAL_GPIO_TogglePin
 290              	.LVL32:
  41:./Application/Src/command.c ****         case 'w': /* :w — menu move up */
 291              		.loc 1 41 13 view .LVU76
  41:./Application/Src/command.c ****         case 'w': /* :w — menu move up */
 292              		.loc 1 41 20 is_stmt 0 view .LVU77
 293 00c6 0020     		movs	r0, #0
 294 00c8 A1E7     		b	.L3
 295              	.LVL33:
 296              	.L9:
  55:./Application/Src/command.c ****             return 0;
 297              		.loc 1 55 13 is_stmt 1 view .LVU78
  55:./Application/Src/command.c ****             return 0;
 298              		.loc 1 55 24 is_stmt 0 view .LVU79
 299 00ca 0020     		movs	r0, #0
 300              	.LVL34:
  55:./Application/Src/command.c ****             return 0;
 301              		.loc 1 55 24 view .LVU80
 302 00cc 424B     		ldr	r3, .L65
 303 00ce 1860     		str	r0, [r3]
  56:./Application/Src/command.c ****         case 't': // set text in LCD
 304              		.loc 1 56 13 is_stmt 1 view .LVU81
  56:./Application/Src/command.c ****         case 't': // set text in LCD
 305              		.loc 1 56 20 is_stmt 0 view .LVU82
 306 00d0 9DE7     		b	.L3
 307              	.LVL35:
 308              	.L12:
  58:./Application/Src/command.c ****             while (*arg == ' ')
 309              		.loc 1 58 13 is_stmt 1 view .LVU83
  58:./Application/Src/command.c ****             while (*arg == ' ')
 310              		.loc 1 58 19 is_stmt 0 view .LVU84
 311 00d2 0230     		adds	r0, r0, #2
 312              	.LVL36:
  59:./Application/Src/command.c ****                 arg++;
 313              		.loc 1 59 13 is_stmt 1 view .LVU85
  59:./Application/Src/command.c ****                 arg++;
 314              		.loc 1 59 19 is_stmt 0 view .LVU86
 315 00d4 00E0     		b	.L20
 316              	.LVL37:
 317              	.L21:
  60:./Application/Src/command.c ****             if (*arg == '\0')
 318              		.loc 1 60 17 is_stmt 1 view .LVU87
  60:./Application/Src/command.c ****             if (*arg == '\0')
 319              		.loc 1 60 20 is_stmt 0 view .LVU88
 320 00d6 0130     		adds	r0, r0, #1
 321              	.LVL38:
ARM GAS  C:\Users\admin\AppData\Local\Temp\ccxrCYWe.s 			page 11


 322              	.L20:
  59:./Application/Src/command.c ****                 arg++;
 323              		.loc 1 59 25 is_stmt 1 view .LVU89
  59:./Application/Src/command.c ****                 arg++;
 324              		.loc 1 59 20 is_stmt 0 view .LVU90
 325 00d8 0378     		ldrb	r3, [r0]	@ zero_extendqisi2
  59:./Application/Src/command.c ****                 arg++;
 326              		.loc 1 59 25 view .LVU91
 327 00da 202B     		cmp	r3, #32
 328 00dc FBD0     		beq	.L21
  61:./Application/Src/command.c ****                 return 3; /* incomplete */
 329              		.loc 1 61 13 is_stmt 1 view .LVU92
  61:./Application/Src/command.c ****                 return 3; /* incomplete */
 330              		.loc 1 61 16 is_stmt 0 view .LVU93
 331 00de 0BB9     		cbnz	r3, .L58
  62:./Application/Src/command.c ****             set_text((uint8_t *)arg);
 332              		.loc 1 62 24 view .LVU94
 333 00e0 0320     		movs	r0, #3
 334              	.LVL39:
  62:./Application/Src/command.c ****             set_text((uint8_t *)arg);
 335              		.loc 1 62 24 view .LVU95
 336 00e2 94E7     		b	.L3
 337              	.LVL40:
 338              	.L58:
  63:./Application/Src/command.c ****             return 0;
 339              		.loc 1 63 13 is_stmt 1 view .LVU96
 340 00e4 FFF7FEFF 		bl	set_text
 341              	.LVL41:
  64:./Application/Src/command.c ****         case 'o': // reset position
 342              		.loc 1 64 13 view .LVU97
  64:./Application/Src/command.c ****         case 'o': // reset position
 343              		.loc 1 64 20 is_stmt 0 view .LVU98
 344 00e8 0020     		movs	r0, #0
 345 00ea 90E7     		b	.L3
 346              	.LVL42:
 347              	.L52:
  64:./Application/Src/command.c ****         case 'o': // reset position
 348              		.loc 1 64 20 view .LVU99
 349              	.LBE6:
  78:./Application/Src/command.c ****         case 'p':{ /* :p <value> — set position in mm */
 350              		.loc 1 78 9 is_stmt 1 view .LVU100
  78:./Application/Src/command.c ****         case 'p':{ /* :p <value> — set position in mm */
 351              		.loc 1 78 20 is_stmt 0 view .LVU101
 352 00ec 4378     		ldrb	r3, [r0, #1]	@ zero_extendqisi2
  78:./Application/Src/command.c ****         case 'p':{ /* :p <value> — set position in mm */
 353              		.loc 1 78 9 view .LVU102
 354 00ee 692B     		cmp	r3, #105
 355 00f0 25D0     		beq	.L22
 356 00f2 702B     		cmp	r3, #112
 357 00f4 03D0     		beq	.L23
 358 00f6 642B     		cmp	r3, #100
 359 00f8 41D0     		beq	.L24
 360 00fa 0020     		movs	r0, #0
 361              	.LVL43:
  78:./Application/Src/command.c ****         case 'p':{ /* :p <value> — set position in mm */
 362              		.loc 1 78 9 view .LVU103
 363 00fc 87E7     		b	.L3
ARM GAS  C:\Users\admin\AppData\Local\Temp\ccxrCYWe.s 			page 12


 364              	.LVL44:
 365              	.L23:
 366              	.LBB7:
  80:./Application/Src/command.c ****             while (*arg == ' ')
 367              		.loc 1 80 13 is_stmt 1 view .LVU104
  80:./Application/Src/command.c ****             while (*arg == ' ')
 368              		.loc 1 80 19 is_stmt 0 view .LVU105
 369 00fe C31C     		adds	r3, r0, #3
 370              	.LVL45:
  81:./Application/Src/command.c ****                 arg++;
 371              		.loc 1 81 13 is_stmt 1 view .LVU106
  81:./Application/Src/command.c ****                 arg++;
 372              		.loc 1 81 19 is_stmt 0 view .LVU107
 373 0100 00E0     		b	.L25
 374              	.L26:
  82:./Application/Src/command.c ****             if (*arg == '\0')
 375              		.loc 1 82 17 is_stmt 1 view .LVU108
  82:./Application/Src/command.c ****             if (*arg == '\0')
 376              		.loc 1 82 20 is_stmt 0 view .LVU109
 377 0102 0133     		adds	r3, r3, #1
 378              	.LVL46:
 379              	.L25:
  81:./Application/Src/command.c ****                 arg++;
 380              		.loc 1 81 25 is_stmt 1 view .LVU110
  81:./Application/Src/command.c ****                 arg++;
 381              		.loc 1 81 20 is_stmt 0 view .LVU111
 382 0104 1A78     		ldrb	r2, [r3]	@ zero_extendqisi2
  81:./Application/Src/command.c ****                 arg++;
 383              		.loc 1 81 25 view .LVU112
 384 0106 202A     		cmp	r2, #32
 385 0108 FBD0     		beq	.L26
  83:./Application/Src/command.c ****                 return 3; /* incomplete */
 386              		.loc 1 83 13 is_stmt 1 view .LVU113
  83:./Application/Src/command.c ****                 return 3; /* incomplete */
 387              		.loc 1 83 16 is_stmt 0 view .LVU114
 388 010a 002A     		cmp	r2, #0
 389 010c 5ED0     		beq	.L44
  87:./Application/Src/command.c ****                 left_motor.Kp = strtof(arg, NULL);
 390              		.loc 1 87 13 is_stmt 1 view .LVU115
  87:./Application/Src/command.c ****                 left_motor.Kp = strtof(arg, NULL);
 391              		.loc 1 87 20 is_stmt 0 view .LVU116
 392 010e 8278     		ldrb	r2, [r0, #2]	@ zero_extendqisi2
  87:./Application/Src/command.c ****                 left_motor.Kp = strtof(arg, NULL);
 393              		.loc 1 87 16 view .LVU117
 394 0110 6C2A     		cmp	r2, #108
 395 0112 03D0     		beq	.L59
  90:./Application/Src/command.c ****                 left_motor.Kp = strtof(arg, NULL);
 396              		.loc 1 90 18 is_stmt 1 view .LVU118
  90:./Application/Src/command.c ****                 left_motor.Kp = strtof(arg, NULL);
 397              		.loc 1 90 21 is_stmt 0 view .LVU119
 398 0114 722A     		cmp	r2, #114
 399 0116 09D0     		beq	.L60
  94:./Application/Src/command.c ****             }
 400              		.loc 1 94 24 view .LVU120
 401 0118 0120     		movs	r0, #1
 402              	.LVL47:
  94:./Application/Src/command.c ****             }
ARM GAS  C:\Users\admin\AppData\Local\Temp\ccxrCYWe.s 			page 13


 403              		.loc 1 94 24 view .LVU121
 404 011a 78E7     		b	.L3
 405              	.LVL48:
 406              	.L59:
  88:./Application/Src/command.c ****             }
 407              		.loc 1 88 17 is_stmt 1 view .LVU122
  88:./Application/Src/command.c ****             }
 408              		.loc 1 88 33 is_stmt 0 view .LVU123
 409 011c 0021     		movs	r1, #0
 410 011e 1846     		mov	r0, r3
 411              	.LVL49:
  88:./Application/Src/command.c ****             }
 412              		.loc 1 88 33 view .LVU124
 413 0120 FFF7FEFF 		bl	strtof
 414              	.LVL50:
  88:./Application/Src/command.c ****             }
 415              		.loc 1 88 31 discriminator 1 view .LVU125
 416 0124 2F4B     		ldr	r3, .L65+12
 417 0126 83ED000A 		vstr.32	s0, [r3]
 418 012a 06E0     		b	.L28
 419              	.LVL51:
 420              	.L60:
  91:./Application/Src/command.c ****             }
 421              		.loc 1 91 17 is_stmt 1 view .LVU126
  91:./Application/Src/command.c ****             }
 422              		.loc 1 91 33 is_stmt 0 view .LVU127
 423 012c 0021     		movs	r1, #0
 424 012e 1846     		mov	r0, r3
 425              	.LVL52:
  91:./Application/Src/command.c ****             }
 426              		.loc 1 91 33 view .LVU128
 427 0130 FFF7FEFF 		bl	strtof
 428              	.LVL53:
  91:./Application/Src/command.c ****             }
 429              		.loc 1 91 31 discriminator 1 view .LVU129
 430 0134 2B4B     		ldr	r3, .L65+12
 431 0136 83ED000A 		vstr.32	s0, [r3]
 432              	.L28:
  96:./Application/Src/command.c ****         }
 433              		.loc 1 96 13 is_stmt 1 view .LVU130
  96:./Application/Src/command.c ****         }
 434              		.loc 1 96 20 is_stmt 0 view .LVU131
 435 013a 0020     		movs	r0, #0
 436 013c 67E7     		b	.L3
 437              	.LVL54:
 438              	.L22:
  96:./Application/Src/command.c ****         }
 439              		.loc 1 96 20 view .LVU132
 440              	.LBE7:
 441              	.LBB8:
  99:./Application/Src/command.c ****             while (*arg == ' ')
 442              		.loc 1 99 13 is_stmt 1 view .LVU133
  99:./Application/Src/command.c ****             while (*arg == ' ')
 443              		.loc 1 99 19 is_stmt 0 view .LVU134
 444 013e C31C     		adds	r3, r0, #3
 445              	.LVL55:
 100:./Application/Src/command.c ****                 arg++;
ARM GAS  C:\Users\admin\AppData\Local\Temp\ccxrCYWe.s 			page 14


 446              		.loc 1 100 13 is_stmt 1 view .LVU135
 100:./Application/Src/command.c ****                 arg++;
 447              		.loc 1 100 19 is_stmt 0 view .LVU136
 448 0140 00E0     		b	.L29
 449              	.L30:
 101:./Application/Src/command.c ****             if (*arg == '\0')
 450              		.loc 1 101 17 is_stmt 1 view .LVU137
 101:./Application/Src/command.c ****             if (*arg == '\0')
 451              		.loc 1 101 20 is_stmt 0 view .LVU138
 452 0142 0133     		adds	r3, r3, #1
 453              	.LVL56:
 454              	.L29:
 100:./Application/Src/command.c ****                 arg++;
 455              		.loc 1 100 25 is_stmt 1 view .LVU139
 100:./Application/Src/command.c ****                 arg++;
 456              		.loc 1 100 20 is_stmt 0 view .LVU140
 457 0144 1A78     		ldrb	r2, [r3]	@ zero_extendqisi2
 100:./Application/Src/command.c ****                 arg++;
 458              		.loc 1 100 25 view .LVU141
 459 0146 202A     		cmp	r2, #32
 460 0148 FBD0     		beq	.L30
 102:./Application/Src/command.c ****                 return 3; /* incomplete */
 461              		.loc 1 102 13 is_stmt 1 view .LVU142
 102:./Application/Src/command.c ****                 return 3; /* incomplete */
 462              		.loc 1 102 16 is_stmt 0 view .LVU143
 463 014a 002A     		cmp	r2, #0
 464 014c 40D0     		beq	.L46
 106:./Application/Src/command.c ****                 left_motor.Ki = strtof(arg, NULL);
 465              		.loc 1 106 13 is_stmt 1 view .LVU144
 106:./Application/Src/command.c ****                 left_motor.Ki = strtof(arg, NULL);
 466              		.loc 1 106 20 is_stmt 0 view .LVU145
 467 014e 8278     		ldrb	r2, [r0, #2]	@ zero_extendqisi2
 106:./Application/Src/command.c ****                 left_motor.Ki = strtof(arg, NULL);
 468              		.loc 1 106 16 view .LVU146
 469 0150 6C2A     		cmp	r2, #108
 470 0152 03D0     		beq	.L61
 109:./Application/Src/command.c ****                 left_motor.Ki = strtof(arg, NULL);
 471              		.loc 1 109 18 is_stmt 1 view .LVU147
 109:./Application/Src/command.c ****                 left_motor.Ki = strtof(arg, NULL);
 472              		.loc 1 109 21 is_stmt 0 view .LVU148
 473 0154 722A     		cmp	r2, #114
 474 0156 09D0     		beq	.L62
 113:./Application/Src/command.c ****             }
 475              		.loc 1 113 24 view .LVU149
 476 0158 0120     		movs	r0, #1
 477              	.LVL57:
 113:./Application/Src/command.c ****             }
 478              		.loc 1 113 24 view .LVU150
 479 015a 58E7     		b	.L3
 480              	.LVL58:
 481              	.L61:
 107:./Application/Src/command.c ****             }
 482              		.loc 1 107 17 is_stmt 1 view .LVU151
 107:./Application/Src/command.c ****             }
 483              		.loc 1 107 33 is_stmt 0 view .LVU152
 484 015c 0021     		movs	r1, #0
 485 015e 1846     		mov	r0, r3
ARM GAS  C:\Users\admin\AppData\Local\Temp\ccxrCYWe.s 			page 15


 486              	.LVL59:
 107:./Application/Src/command.c ****             }
 487              		.loc 1 107 33 view .LVU153
 488 0160 FFF7FEFF 		bl	strtof
 489              	.LVL60:
 107:./Application/Src/command.c ****             }
 490              		.loc 1 107 31 discriminator 1 view .LVU154
 491 0164 1F4B     		ldr	r3, .L65+12
 492 0166 83ED010A 		vstr.32	s0, [r3, #4]
 493 016a 06E0     		b	.L32
 494              	.LVL61:
 495              	.L62:
 110:./Application/Src/command.c ****             }
 496              		.loc 1 110 17 is_stmt 1 view .LVU155
 110:./Application/Src/command.c ****             }
 497              		.loc 1 110 33 is_stmt 0 view .LVU156
 498 016c 0021     		movs	r1, #0
 499 016e 1846     		mov	r0, r3
 500              	.LVL62:
 110:./Application/Src/command.c ****             }
 501              		.loc 1 110 33 view .LVU157
 502 0170 FFF7FEFF 		bl	strtof
 503              	.LVL63:
 110:./Application/Src/command.c ****             }
 504              		.loc 1 110 31 discriminator 1 view .LVU158
 505 0174 1B4B     		ldr	r3, .L65+12
 506 0176 83ED010A 		vstr.32	s0, [r3, #4]
 507              	.L32:
 115:./Application/Src/command.c ****         }
 508              		.loc 1 115 13 is_stmt 1 view .LVU159
 115:./Application/Src/command.c ****         }
 509              		.loc 1 115 20 is_stmt 0 view .LVU160
 510 017a 0020     		movs	r0, #0
 511 017c 47E7     		b	.L3
 512              	.LVL64:
 513              	.L24:
 115:./Application/Src/command.c ****         }
 514              		.loc 1 115 20 view .LVU161
 515              	.LBE8:
 516              	.LBB9:
 118:./Application/Src/command.c ****             while (*arg == ' ')
 517              		.loc 1 118 13 is_stmt 1 view .LVU162
 118:./Application/Src/command.c ****             while (*arg == ' ')
 518              		.loc 1 118 19 is_stmt 0 view .LVU163
 519 017e C31C     		adds	r3, r0, #3
 520              	.LVL65:
 119:./Application/Src/command.c ****                 arg++;
 521              		.loc 1 119 13 is_stmt 1 view .LVU164
 119:./Application/Src/command.c ****                 arg++;
 522              		.loc 1 119 19 is_stmt 0 view .LVU165
 523 0180 00E0     		b	.L33
 524              	.L34:
 120:./Application/Src/command.c ****             if (*arg == '\0')
 525              		.loc 1 120 17 is_stmt 1 view .LVU166
 120:./Application/Src/command.c ****             if (*arg == '\0')
 526              		.loc 1 120 20 is_stmt 0 view .LVU167
 527 0182 0133     		adds	r3, r3, #1
ARM GAS  C:\Users\admin\AppData\Local\Temp\ccxrCYWe.s 			page 16


 528              	.LVL66:
 529              	.L33:
 119:./Application/Src/command.c ****                 arg++;
 530              		.loc 1 119 25 is_stmt 1 view .LVU168
 119:./Application/Src/command.c ****                 arg++;
 531              		.loc 1 119 20 is_stmt 0 view .LVU169
 532 0184 1A78     		ldrb	r2, [r3]	@ zero_extendqisi2
 119:./Application/Src/command.c ****                 arg++;
 533              		.loc 1 119 25 view .LVU170
 534 0186 202A     		cmp	r2, #32
 535 0188 FBD0     		beq	.L34
 121:./Application/Src/command.c ****                 return 3; /* incomplete */
 536              		.loc 1 121 13 is_stmt 1 view .LVU171
 121:./Application/Src/command.c ****                 return 3; /* incomplete */
 537              		.loc 1 121 16 is_stmt 0 view .LVU172
 538 018a 1AB3     		cbz	r2, .L48
 125:./Application/Src/command.c ****                 left_motor.Kd = strtof(arg, NULL);
 539              		.loc 1 125 13 is_stmt 1 view .LVU173
 125:./Application/Src/command.c ****                 left_motor.Kd = strtof(arg, NULL);
 540              		.loc 1 125 20 is_stmt 0 view .LVU174
 541 018c 8278     		ldrb	r2, [r0, #2]	@ zero_extendqisi2
 125:./Application/Src/command.c ****                 left_motor.Kd = strtof(arg, NULL);
 542              		.loc 1 125 16 view .LVU175
 543 018e 6C2A     		cmp	r2, #108
 544 0190 03D0     		beq	.L63
 128:./Application/Src/command.c ****                 left_motor.Kd = strtof(arg, NULL);
 545              		.loc 1 128 18 is_stmt 1 view .LVU176
 128:./Application/Src/command.c ****                 left_motor.Kd = strtof(arg, NULL);
 546              		.loc 1 128 21 is_stmt 0 view .LVU177
 547 0192 722A     		cmp	r2, #114
 548 0194 09D0     		beq	.L64
 132:./Application/Src/command.c ****             }
 549              		.loc 1 132 24 view .LVU178
 550 0196 0120     		movs	r0, #1
 551              	.LVL67:
 132:./Application/Src/command.c ****             }
 552              		.loc 1 132 24 view .LVU179
 553 0198 39E7     		b	.L3
 554              	.LVL68:
 555              	.L63:
 126:./Application/Src/command.c ****             }
 556              		.loc 1 126 17 is_stmt 1 view .LVU180
 126:./Application/Src/command.c ****             }
 557              		.loc 1 126 33 is_stmt 0 view .LVU181
 558 019a 0021     		movs	r1, #0
 559 019c 1846     		mov	r0, r3
 560              	.LVL69:
 126:./Application/Src/command.c ****             }
 561              		.loc 1 126 33 view .LVU182
 562 019e FFF7FEFF 		bl	strtof
 563              	.LVL70:
 126:./Application/Src/command.c ****             }
 564              		.loc 1 126 31 discriminator 1 view .LVU183
 565 01a2 104B     		ldr	r3, .L65+12
 566 01a4 83ED020A 		vstr.32	s0, [r3, #8]
 567 01a8 06E0     		b	.L36
 568              	.LVL71:
ARM GAS  C:\Users\admin\AppData\Local\Temp\ccxrCYWe.s 			page 17


 569              	.L64:
 129:./Application/Src/command.c ****             }
 570              		.loc 1 129 17 is_stmt 1 view .LVU184
 129:./Application/Src/command.c ****             }
 571              		.loc 1 129 33 is_stmt 0 view .LVU185
 572 01aa 0021     		movs	r1, #0
 573 01ac 1846     		mov	r0, r3
 574              	.LVL72:
 129:./Application/Src/command.c ****             }
 575              		.loc 1 129 33 view .LVU186
 576 01ae FFF7FEFF 		bl	strtof
 577              	.LVL73:
 129:./Application/Src/command.c ****             }
 578              		.loc 1 129 31 discriminator 1 view .LVU187
 579 01b2 0C4B     		ldr	r3, .L65+12
 580 01b4 83ED020A 		vstr.32	s0, [r3, #8]
 581              	.L36:
 134:./Application/Src/command.c ****         }
 582              		.loc 1 134 13 is_stmt 1 view .LVU188
 134:./Application/Src/command.c ****         }
 583              		.loc 1 134 20 is_stmt 0 view .LVU189
 584 01b8 0020     		movs	r0, #0
 585 01ba 28E7     		b	.L3
 586              	.LVL74:
 587              	.L37:
 134:./Application/Src/command.c ****         }
 588              		.loc 1 134 20 view .LVU190
 589              	.LBE9:
  18:./Application/Src/command.c ****         case 'p':{ /* :p <value> — set position in mm */
 590              		.loc 1 18 9 view .LVU191
 591 01bc 0020     		movs	r0, #0
 592              	.LVL75:
  18:./Application/Src/command.c ****         case 'p':{ /* :p <value> — set position in mm */
 593              		.loc 1 18 9 view .LVU192
 594 01be 26E7     		b	.L3
 595              	.LVL76:
 596              	.L38:
 597              	.LBB10:
  73:./Application/Src/command.c ****         }
 598              		.loc 1 73 20 view .LVU193
 599 01c0 0120     		movs	r0, #1
 600              	.LVL77:
  73:./Application/Src/command.c ****         }
 601              		.loc 1 73 20 view .LVU194
 602 01c2 24E7     		b	.L3
 603              	.LVL78:
 604              	.L39:
  73:./Application/Src/command.c ****         }
 605              		.loc 1 73 20 view .LVU195
 606              	.LBE10:
  18:./Application/Src/command.c ****         case 'p':{ /* :p <value> — set position in mm */
 607              		.loc 1 18 9 view .LVU196
 608 01c4 0020     		movs	r0, #0
 609              	.LVL79:
  18:./Application/Src/command.c ****         case 'p':{ /* :p <value> — set position in mm */
 610              		.loc 1 18 9 view .LVU197
 611 01c6 22E7     		b	.L3
ARM GAS  C:\Users\admin\AppData\Local\Temp\ccxrCYWe.s 			page 18


 612              	.LVL80:
 613              	.L40:
 614              	.LBB11:
 615              	.LBB4:
  24:./Application/Src/command.c **** 
 616              		.loc 1 24 24 view .LVU198
 617 01c8 0320     		movs	r0, #3
 618              	.LVL81:
  24:./Application/Src/command.c **** 
 619              		.loc 1 24 24 view .LVU199
 620 01ca 20E7     		b	.L3
 621              	.LVL82:
 622              	.L44:
  24:./Application/Src/command.c **** 
 623              		.loc 1 24 24 view .LVU200
 624              	.LBE4:
 625              	.LBE11:
 626              	.LBB12:
  84:./Application/Src/command.c **** 
 627              		.loc 1 84 24 view .LVU201
 628 01cc 0320     		movs	r0, #3
 629              	.LVL83:
  84:./Application/Src/command.c **** 
 630              		.loc 1 84 24 view .LVU202
 631 01ce 1EE7     		b	.L3
 632              	.LVL84:
 633              	.L46:
  84:./Application/Src/command.c **** 
 634              		.loc 1 84 24 view .LVU203
 635              	.LBE12:
 636              	.LBB13:
 103:./Application/Src/command.c **** 
 637              		.loc 1 103 24 view .LVU204
 638 01d0 0320     		movs	r0, #3
 639              	.LVL85:
 103:./Application/Src/command.c **** 
 640              		.loc 1 103 24 view .LVU205
 641 01d2 1CE7     		b	.L3
 642              	.LVL86:
 643              	.L48:
 103:./Application/Src/command.c **** 
 644              		.loc 1 103 24 view .LVU206
 645              	.LBE13:
 646              	.LBB14:
 122:./Application/Src/command.c **** 
 647              		.loc 1 122 24 view .LVU207
 648 01d4 0320     		movs	r0, #3
 649              	.LVL87:
 122:./Application/Src/command.c **** 
 650              		.loc 1 122 24 view .LVU208
 651 01d6 1AE7     		b	.L3
 652              	.L66:
 653              		.align	2
 654              	.L65:
 655 01d8 00000000 		.word	menu_enter
 656 01dc 00000000 		.word	menu_move_down
 657 01e0 00000000 		.word	menu_move_up
ARM GAS  C:\Users\admin\AppData\Local\Temp\ccxrCYWe.s 			page 19


 658 01e4 00000000 		.word	left_motor
 659 01e8 00000000 		.word	right_motor
 660 01ec 000C0242 		.word	1107430400
 661              	.LBE14:
 662              		.cfi_endproc
 663              	.LFE359:
 665              		.section	.rodata.execute_command.str1.4,"aMS",%progbits,1
 666              		.align	2
 667              	.LC0:
 668 0000 4F4B2E20 		.ascii	"OK.                      \000"
 668      20202020 
 668      20202020 
 668      20202020 
 668      20202020 
 669 001a 0000     		.align	2
 670              	.LC1:
 671 001c 20202020 		.ascii	"                         \000"
 671      20202020 
 671      20202020 
 671      20202020 
 671      20202020 
 672 0036 0000     		.align	2
 673              	.LC2:
 674 0038 43616E6E 		.ascii	"Cannot parse!            \000"
 674      6F742070 
 674      61727365 
 674      21202020 
 674      20202020 
 675 0052 0000     		.align	2
 676              	.LC3:
 677 0054 456D7074 		.ascii	"Empty command!           \000"
 677      7920636F 
 677      6D6D616E 
 677      64212020 
 677      20202020 
 678 006e 0000     		.align	2
 679              	.LC4:
 680 0070 496E636F 		.ascii	"Incomplete command!      \000"
 680      6D706C65 
 680      74652063 
 680      6F6D6D61 
 680      6E642120 
 681              		.section	.text.execute_command,"ax",%progbits
 682              		.align	1
 683              		.global	execute_command
 684              		.syntax unified
 685              		.thumb
 686              		.thumb_func
 688              	execute_command:
 689              	.LVL88:
 690              	.LFB360:
 142:./Application/Src/command.c ****     int result = parse_command(command);
 691              		.loc 1 142 1 is_stmt 1 view -0
 692              		.cfi_startproc
 693              		@ args = 0, pretend = 0, frame = 0
 694              		@ frame_needed = 0, uses_anonymous_args = 0
 142:./Application/Src/command.c ****     int result = parse_command(command);
ARM GAS  C:\Users\admin\AppData\Local\Temp\ccxrCYWe.s 			page 20


 695              		.loc 1 142 1 is_stmt 0 view .LVU210
 696 0000 30B5     		push	{r4, r5, lr}
 697              	.LCFI4:
 698              		.cfi_def_cfa_offset 12
 699              		.cfi_offset 4, -12
 700              		.cfi_offset 5, -8
 701              		.cfi_offset 14, -4
 702 0002 83B0     		sub	sp, sp, #12
 703              	.LCFI5:
 704              		.cfi_def_cfa_offset 24
 705 0004 0546     		mov	r5, r0
 143:./Application/Src/command.c ****     if (result == 0)
 706              		.loc 1 143 5 is_stmt 1 view .LVU211
 143:./Application/Src/command.c ****     if (result == 0)
 707              		.loc 1 143 18 is_stmt 0 view .LVU212
 708 0006 FFF7FEFF 		bl	parse_command
 709              	.LVL89:
 144:./Application/Src/command.c ****     {
 710              		.loc 1 144 5 is_stmt 1 view .LVU213
 144:./Application/Src/command.c ****     {
 711              		.loc 1 144 8 is_stmt 0 view .LVU214
 712 000a 38B1     		cbz	r0, .L73
 149:./Application/Src/command.c ****     {
 713              		.loc 1 149 10 is_stmt 1 view .LVU215
 149:./Application/Src/command.c ****     {
 714              		.loc 1 149 13 is_stmt 0 view .LVU216
 715 000c 0128     		cmp	r0, #1
 716 000e 16D0     		beq	.L74
 154:./Application/Src/command.c ****     {
 717              		.loc 1 154 10 is_stmt 1 view .LVU217
 154:./Application/Src/command.c ****     {
 718              		.loc 1 154 13 is_stmt 0 view .LVU218
 719 0010 0228     		cmp	r0, #2
 720 0012 26D0     		beq	.L75
 158:./Application/Src/command.c ****     {
 721              		.loc 1 158 10 is_stmt 1 view .LVU219
 158:./Application/Src/command.c ****     {
 722              		.loc 1 158 13 is_stmt 0 view .LVU220
 723 0014 0328     		cmp	r0, #3
 724 0016 2ED0     		beq	.L76
 725              	.LVL90:
 726              	.L67:
 163:./Application/Src/command.c **** 
 727              		.loc 1 163 1 view .LVU221
 728 0018 03B0     		add	sp, sp, #12
 729              	.LCFI6:
 730              		.cfi_remember_state
 731              		.cfi_def_cfa_offset 12
 732              		@ sp needed
 733 001a 30BD     		pop	{r4, r5, pc}
 734              	.LVL91:
 735              	.L73:
 736              	.LCFI7:
 737              		.cfi_restore_state
 146:./Application/Src/command.c ****         LCD_draw_string(0, 15, "                         ", COLOR_BLACK, COLOR_WHITE);
 738              		.loc 1 146 9 is_stmt 1 view .LVU222
 739 001c 4FF6FF73 		movw	r3, #65535
ARM GAS  C:\Users\admin\AppData\Local\Temp\ccxrCYWe.s 			page 21


 740 0020 1C46     		mov	r4, r3
 741 0022 0093     		str	r3, [sp]
 742 0024 0346     		mov	r3, r0
 743 0026 1D4A     		ldr	r2, .L77
 744 0028 0E21     		movs	r1, #14
 745 002a FFF7FEFF 		bl	LCD_draw_string
 746              	.LVL92:
 147:./Application/Src/command.c ****     }
 747              		.loc 1 147 9 view .LVU223
 748 002e 0094     		str	r4, [sp]
 749 0030 0023     		movs	r3, #0
 750 0032 1B4A     		ldr	r2, .L77+4
 751 0034 0F21     		movs	r1, #15
 752 0036 1846     		mov	r0, r3
 753 0038 FFF7FEFF 		bl	LCD_draw_string
 754              	.LVL93:
 755 003c ECE7     		b	.L67
 756              	.LVL94:
 757              	.L74:
 151:./Application/Src/command.c ****         LCD_draw_string(0, 15, (char*)command, COLOR_BLACK, COLOR_WHITE);
 758              		.loc 1 151 9 view .LVU224
 759 003e 4FF6FF73 		movw	r3, #65535
 760 0042 1C46     		mov	r4, r3
 761 0044 0093     		str	r3, [sp]
 762 0046 0023     		movs	r3, #0
 763 0048 164A     		ldr	r2, .L77+8
 764 004a 0E21     		movs	r1, #14
 765 004c 1846     		mov	r0, r3
 766              	.LVL95:
 151:./Application/Src/command.c ****         LCD_draw_string(0, 15, (char*)command, COLOR_BLACK, COLOR_WHITE);
 767              		.loc 1 151 9 is_stmt 0 view .LVU225
 768 004e FFF7FEFF 		bl	LCD_draw_string
 769              	.LVL96:
 152:./Application/Src/command.c ****     }
 770              		.loc 1 152 9 is_stmt 1 view .LVU226
 771 0052 0094     		str	r4, [sp]
 772 0054 0023     		movs	r3, #0
 773 0056 2A46     		mov	r2, r5
 774 0058 0F21     		movs	r1, #15
 775 005a 1846     		mov	r0, r3
 776 005c FFF7FEFF 		bl	LCD_draw_string
 777              	.LVL97:
 778 0060 DAE7     		b	.L67
 779              	.LVL98:
 780              	.L75:
 156:./Application/Src/command.c ****     }
 781              		.loc 1 156 9 view .LVU227
 782 0062 4FF6FF73 		movw	r3, #65535
 783 0066 0093     		str	r3, [sp]
 784 0068 0023     		movs	r3, #0
 785 006a 0F4A     		ldr	r2, .L77+12
 786 006c 0E21     		movs	r1, #14
 787 006e 1846     		mov	r0, r3
 788              	.LVL99:
 156:./Application/Src/command.c ****     }
 789              		.loc 1 156 9 is_stmt 0 view .LVU228
 790 0070 FFF7FEFF 		bl	LCD_draw_string
ARM GAS  C:\Users\admin\AppData\Local\Temp\ccxrCYWe.s 			page 22


 791              	.LVL100:
 792 0074 D0E7     		b	.L67
 793              	.LVL101:
 794              	.L76:
 160:./Application/Src/command.c ****         LCD_draw_string(0, 15, (char*)command, COLOR_BLACK, COLOR_WHITE);
 795              		.loc 1 160 9 is_stmt 1 view .LVU229
 796 0076 4FF6FF73 		movw	r3, #65535
 797 007a 1C46     		mov	r4, r3
 798 007c 0093     		str	r3, [sp]
 799 007e 0023     		movs	r3, #0
 800 0080 0A4A     		ldr	r2, .L77+16
 801 0082 0E21     		movs	r1, #14
 802 0084 1846     		mov	r0, r3
 803              	.LVL102:
 160:./Application/Src/command.c ****         LCD_draw_string(0, 15, (char*)command, COLOR_BLACK, COLOR_WHITE);
 804              		.loc 1 160 9 is_stmt 0 view .LVU230
 805 0086 FFF7FEFF 		bl	LCD_draw_string
 806              	.LVL103:
 161:./Application/Src/command.c ****     }
 807              		.loc 1 161 9 is_stmt 1 view .LVU231
 808 008a 0094     		str	r4, [sp]
 809 008c 0023     		movs	r3, #0
 810 008e 2A46     		mov	r2, r5
 811 0090 0F21     		movs	r1, #15
 812 0092 1846     		mov	r0, r3
 813 0094 FFF7FEFF 		bl	LCD_draw_string
 814              	.LVL104:
 163:./Application/Src/command.c **** 
 815              		.loc 1 163 1 is_stmt 0 view .LVU232
 816 0098 BEE7     		b	.L67
 817              	.L78:
 818 009a 00BF     		.align	2
 819              	.L77:
 820 009c 00000000 		.word	.LC0
 821 00a0 1C000000 		.word	.LC1
 822 00a4 38000000 		.word	.LC2
 823 00a8 54000000 		.word	.LC3
 824 00ac 70000000 		.word	.LC4
 825              		.cfi_endproc
 826              	.LFE360:
 828              		.section	.text.reset_pos,"ax",%progbits
 829              		.align	1
 830              		.global	reset_pos
 831              		.syntax unified
 832              		.thumb
 833              		.thumb_func
 835              	reset_pos:
 836              	.LVL105:
 837              	.LFB362:
 169:./Application/Src/command.c **** 
 170:./Application/Src/command.c **** void reset_pos(TIM_HandleTypeDef *htim)
 171:./Application/Src/command.c **** {
 838              		.loc 1 171 1 is_stmt 1 view -0
 839              		.cfi_startproc
 840              		@ args = 0, pretend = 0, frame = 0
 841              		@ frame_needed = 0, uses_anonymous_args = 0
 842              		@ link register save eliminated.
ARM GAS  C:\Users\admin\AppData\Local\Temp\ccxrCYWe.s 			page 23


 172:./Application/Src/command.c ****     // encoder_old_position_mm = 0.0f;
 173:./Application/Src/command.c ****     __HAL_TIM_SET_COUNTER(htim, 0);
 843              		.loc 1 173 5 view .LVU234
 844 0000 0368     		ldr	r3, [r0]
 845 0002 0022     		movs	r2, #0
 846 0004 5A62     		str	r2, [r3, #36]
 174:./Application/Src/command.c **** }
 847              		.loc 1 174 1 is_stmt 0 view .LVU235
 848 0006 7047     		bx	lr
 849              		.cfi_endproc
 850              	.LFE362:
 852              		.section	.rodata.list_files_over_bt.str1.4,"aMS",%progbits,1
 853              		.align	2
 854              	.LC5:
 855 0000 454E440A 		.ascii	"END\012\000"
 855      00
 856              		.section	.text.list_files_over_bt,"ax",%progbits
 857              		.align	1
 858              		.global	list_files_over_bt
 859              		.syntax unified
 860              		.thumb
 861              		.thumb_func
 863              	list_files_over_bt:
 864              	.LFB363:
 175:./Application/Src/command.c **** 
 176:./Application/Src/command.c **** /*
 177:./Application/Src/command.c ****  * Send the TXT file list over Bluetooth in the format expected by hc04.py:
 178:./Application/Src/command.c ****  *   FILES:<count>\n
 179:./Application/Src/command.c ****  *   <filename>,<size>\n
 180:./Application/Src/command.c ****  *   ...
 181:./Application/Src/command.c ****  *   END\n
 182:./Application/Src/command.c ****  */
 183:./Application/Src/command.c **** void list_files_over_bt(void)
 184:./Application/Src/command.c **** {
 865              		.loc 1 184 1 is_stmt 1 view -0
 866              		.cfi_startproc
 867              		@ args = 0, pretend = 0, frame = 0
 868              		@ frame_needed = 0, uses_anonymous_args = 0
 869 0000 08B5     		push	{r3, lr}
 870              	.LCFI8:
 871              		.cfi_def_cfa_offset 8
 872              		.cfi_offset 3, -8
 873              		.cfi_offset 14, -4
 185:./Application/Src/command.c ****     // char buf[40];
 186:./Application/Src/command.c **** 
 187:./Application/Src/command.c ****     // /* Refresh file list from SD card */
 188:./Application/Src/command.c ****     // int count = sd_list_txt_files();
 189:./Application/Src/command.c **** 
 190:./Application/Src/command.c ****     // snprintf(buf, sizeof(buf), "FILES:%d\n", count);
 191:./Application/Src/command.c ****     // HC04_SendString(buf);
 192:./Application/Src/command.c **** 
 193:./Application/Src/command.c ****     // for (int i = 0; i < count; i++)
 194:./Application/Src/command.c ****     // {
 195:./Application/Src/command.c ****     //     snprintf(buf, sizeof(buf), "%s,%lu\n",
 196:./Application/Src/command.c ****     //              fileList[i].name, (unsigned long)fileList[i].size);
 197:./Application/Src/command.c ****     //     HC04_SendString(buf);
 198:./Application/Src/command.c ****     // }
ARM GAS  C:\Users\admin\AppData\Local\Temp\ccxrCYWe.s 			page 24


 199:./Application/Src/command.c **** 
 200:./Application/Src/command.c ****     hc04_send_string((uint8_t*)"END\n");
 874              		.loc 1 200 5 view .LVU237
 875 0002 0248     		ldr	r0, .L82
 876 0004 FFF7FEFF 		bl	hc04_send_string
 877              	.LVL106:
 201:./Application/Src/command.c **** }
 878              		.loc 1 201 1 is_stmt 0 view .LVU238
 879 0008 08BD     		pop	{r3, pc}
 880              	.L83:
 881 000a 00BF     		.align	2
 882              	.L82:
 883 000c 00000000 		.word	.LC5
 884              		.cfi_endproc
 885              	.LFE363:
 887              		.text
 888              	.Letext0:
 889              		.file 2 "C:/arm-bare-metal/arm-none-eabi/include/machine/_default_types.h"
 890              		.file 3 "C:/arm-bare-metal/arm-none-eabi/include/sys/_stdint.h"
 891              		.file 4 "Drivers/CMSIS/Device/ST/STM32H5xx/Include/stm32h523xx.h"
 892              		.file 5 "Drivers/STM32H5xx_HAL_Driver/Inc/stm32h5xx_hal_def.h"
 893              		.file 6 "Drivers/STM32H5xx_HAL_Driver/Inc/stm32h5xx_hal_dma.h"
 894              		.file 7 "Drivers/STM32H5xx_HAL_Driver/Inc/stm32h5xx_hal_dma_ex.h"
 895              		.file 8 "Drivers/STM32H5xx_HAL_Driver/Inc/stm32h5xx_hal_tim.h"
 896              		.file 9 "Application/Inc/menu.h"
 897              		.file 10 "Application/Inc/application.h"
 898              		.file 11 "Application/Inc/hc04.h"
 899              		.file 12 "Application/Inc/ILI9225.h"
 900              		.file 13 "Drivers/STM32H5xx_HAL_Driver/Inc/stm32h5xx_hal_gpio.h"
 901              		.file 14 "C:/arm-bare-metal/arm-none-eabi/include/stdlib.h"
ARM GAS  C:\Users\admin\AppData\Local\Temp\ccxrCYWe.s 			page 25


DEFINED SYMBOLS
                            *ABS*:00000000 command.c
C:\Users\admin\AppData\Local\Temp\ccxrCYWe.s:22     .text.set_text:00000000 $t
C:\Users\admin\AppData\Local\Temp\ccxrCYWe.s:28     .text.set_text:00000000 set_text
C:\Users\admin\AppData\Local\Temp\ccxrCYWe.s:64     .text.parse_command:00000000 $t
C:\Users\admin\AppData\Local\Temp\ccxrCYWe.s:70     .text.parse_command:00000000 parse_command
C:\Users\admin\AppData\Local\Temp\ccxrCYWe.s:655    .text.parse_command:000001d8 $d
C:\Users\admin\AppData\Local\Temp\ccxrCYWe.s:666    .rodata.execute_command.str1.4:00000000 $d
C:\Users\admin\AppData\Local\Temp\ccxrCYWe.s:682    .text.execute_command:00000000 $t
C:\Users\admin\AppData\Local\Temp\ccxrCYWe.s:688    .text.execute_command:00000000 execute_command
C:\Users\admin\AppData\Local\Temp\ccxrCYWe.s:820    .text.execute_command:0000009c $d
C:\Users\admin\AppData\Local\Temp\ccxrCYWe.s:829    .text.reset_pos:00000000 $t
C:\Users\admin\AppData\Local\Temp\ccxrCYWe.s:835    .text.reset_pos:00000000 reset_pos
C:\Users\admin\AppData\Local\Temp\ccxrCYWe.s:853    .rodata.list_files_over_bt.str1.4:00000000 $d
C:\Users\admin\AppData\Local\Temp\ccxrCYWe.s:857    .text.list_files_over_bt:00000000 $t
C:\Users\admin\AppData\Local\Temp\ccxrCYWe.s:863    .text.list_files_over_bt:00000000 list_files_over_bt
C:\Users\admin\AppData\Local\Temp\ccxrCYWe.s:883    .text.list_files_over_bt:0000000c $d

UNDEFINED SYMBOLS
LCD_draw_string
strtof
HAL_GPIO_TogglePin
menu_enter
menu_move_down
menu_move_up
left_motor
right_motor
hc04_send_string
