ARM GAS  C:\Users\admin\AppData\Local\Temp\ccR2JeRl.s 			page 1


   1              		.cpu cortex-m33
   2              		.arch armv8-m.main
   3              		.fpu fpv5-sp-d16
   4              		.arch_extension dsp
   5              		.eabi_attribute 27, 1
   6              		.eabi_attribute 28, 1
   7              		.eabi_attribute 20, 1
   8              		.eabi_attribute 21, 1
   9              		.eabi_attribute 23, 3
  10              		.eabi_attribute 24, 1
  11              		.eabi_attribute 25, 1
  12              		.eabi_attribute 26, 1
  13              		.eabi_attribute 30, 1
  14              		.eabi_attribute 34, 1
  15              		.eabi_attribute 18, 4
  16              		.file	"command.c"
  17              		.text
  18              	.Ltext0:
  19              		.cfi_sections	.debug_frame
  20              		.file 1 "./Application/Src/command.c"
  21              		.section	.text.count_total_chords,"ax",%progbits
  22              		.align	1
  23              		.syntax unified
  24              		.thumb
  25              		.thumb_func
  27              	count_total_chords:
  28              	.LFB365:
   1:./Application/Src/command.c **** #include <command.h>
   2:./Application/Src/command.c **** #include <stdio.h>
   3:./Application/Src/command.c **** #include <stdlib.h>
   4:./Application/Src/command.c **** #include "stm32h5xx_hal.h"
   5:./Application/Src/command.c **** #include <application.h>
   6:./Application/Src/command.c **** #include <diskio.h>
   7:./Application/Src/command.c **** #include <sd.h>
   8:./Application/Src/command.c **** #include <hc04.h>
   9:./Application/Src/command.c **** #include <menu.h>
  10:./Application/Src/command.c **** #include <user_timer.h>
  11:./Application/Src/command.c **** #include <tim.h>
  12:./Application/Src/command.c **** 
  13:./Application/Src/command.c **** static uint8_t cmd_listen[16];
  14:./Application/Src/command.c **** 
  15:./Application/Src/command.c **** extern PID_t left_motor;
  16:./Application/Src/command.c **** extern PID_t right_motor;
  17:./Application/Src/command.c **** 
  18:./Application/Src/command.c **** 
  19:./Application/Src/command.c **** int parse_command(uint8_t *cmd)
  20:./Application/Src/command.c **** {
  21:./Application/Src/command.c ****     /* ---- Colon commands (:p, :w, :s, :r, :d, :a) ---- */
  22:./Application/Src/command.c ****     if (cmd[0] == ':'){
  23:./Application/Src/command.c ****         switch (cmd[1]){
  24:./Application/Src/command.c ****         case 'p':{ /* :p <value> — set position in mm */
  25:./Application/Src/command.c ****             char *arg = (char *)cmd + 3;
  26:./Application/Src/command.c ****             while (*arg == ' ')
  27:./Application/Src/command.c ****                 arg++;
  28:./Application/Src/command.c ****             if (*arg == '\0')
  29:./Application/Src/command.c ****                 return 3; /* incomplete */
  30:./Application/Src/command.c **** 
ARM GAS  C:\Users\admin\AppData\Local\Temp\ccR2JeRl.s 			page 2


  31:./Application/Src/command.c ****             // separate left and right
  32:./Application/Src/command.c ****             if (cmd[2] == 'l'){
  33:./Application/Src/command.c ****                 left_motor.target_pos = strtof(arg, NULL);
  34:./Application/Src/command.c ****             }
  35:./Application/Src/command.c ****             else if (cmd[2] == 'r'){
  36:./Application/Src/command.c ****                 right_motor.target_pos = strtof(arg, NULL);
  37:./Application/Src/command.c ****             }
  38:./Application/Src/command.c ****             else {
  39:./Application/Src/command.c ****                 return 1;
  40:./Application/Src/command.c ****             }
  41:./Application/Src/command.c ****             return 0;
  42:./Application/Src/command.c ****         }
  43:./Application/Src/command.c ****         case 'w': /* :w — menu move up */
  44:./Application/Src/command.c ****             menu_move_up = 1;
  45:./Application/Src/command.c ****             return 0;
  46:./Application/Src/command.c ****         case 's': /* :s — menu move down */
  47:./Application/Src/command.c ****             menu_move_down = 1;
  48:./Application/Src/command.c ****             return 0;
  49:./Application/Src/command.c ****         case 'r': /* :r — reset encoder position */
  50:./Application/Src/command.c ****             return 0;
  51:./Application/Src/command.c ****         case 'd': /* :d — enter / select current menu item */
  52:./Application/Src/command.c ****             menu_enter = 1;
  53:./Application/Src/command.c ****             return 0;
  54:./Application/Src/command.c ****         case 'a': /* :a — back to main menu */
  55:./Application/Src/command.c ****             menu_back = 1;
  56:./Application/Src/command.c ****             return 0;
  57:./Application/Src/command.c ****         case 't': // set text in LCD
  58:./Application/Src/command.c ****             char *arg = (char *)cmd + 2;
  59:./Application/Src/command.c ****             while (*arg == ' ')
  60:./Application/Src/command.c ****                 arg++;
  61:./Application/Src/command.c ****             if (*arg == '\0')
  62:./Application/Src/command.c ****                 return 3; /* incomplete */
  63:./Application/Src/command.c ****             set_text((uint8_t *)arg);
  64:./Application/Src/command.c ****             return 0;
  65:./Application/Src/command.c ****         case 'o': // reset position
  66:./Application/Src/command.c ****             return 0;
  67:./Application/Src/command.c ****         case 'l': // list files on SD card via XOR packets
  68:./Application/Src/command.c ****             list_files_over_bt();
  69:./Application/Src/command.c ****             return 0;
  70:./Application/Src/command.c **** 
  71:./Application/Src/command.c ****         case 'z':
  72:./Application/Src/command.c ****             traversal();
  73:./Application/Src/command.c ****             return 0;
  74:./Application/Src/command.c **** 
  75:./Application/Src/command.c ****         case 'x':
  76:./Application/Src/command.c ****             debug_traversal();
  77:./Application/Src/command.c ****             return 0;
  78:./Application/Src/command.c **** 
  79:./Application/Src/command.c ****         case 'q': // stop playing current song:
  80:./Application/Src/command.c ****             stop_playing = 1;
  81:./Application/Src/command.c ****             return 0;
  82:./Application/Src/command.c **** 
  83:./Application/Src/command.c ****         // right now redirect all playing to Ji's song
  84:./Application/Src/command.c ****         case 'v': // Ji's song
  85:./Application/Src/command.c ****             load_debug_song2();
  86:./Application/Src/command.c ****             if (menu_get_state() == MENU_STATE_DEBUG) {
  87:./Application/Src/command.c ****                 traversal_debug_mode();
ARM GAS  C:\Users\admin\AppData\Local\Temp\ccR2JeRl.s 			page 3


  88:./Application/Src/command.c ****             } else {
  89:./Application/Src/command.c ****                 menu_set_state(MENU_STATE_PLAYING);
  90:./Application/Src/command.c ****                 pkt_send_ui_state((uint8_t)MENU_STATE_PLAYING, 0, 0, 0);
  91:./Application/Src/command.c ****                 traversal();
  92:./Application/Src/command.c ****                 menu_set_state(MENU_STATE_MAIN);
  93:./Application/Src/command.c ****             }
  94:./Application/Src/command.c ****             return 0;
  95:./Application/Src/command.c **** 
  96:./Application/Src/command.c ****         case 'b': // swan lake
  97:./Application/Src/command.c ****             load_debug_song3();
  98:./Application/Src/command.c ****             if (menu_get_state() == MENU_STATE_DEBUG) {
  99:./Application/Src/command.c ****                 traversal_debug_mode();
 100:./Application/Src/command.c ****             } else {
 101:./Application/Src/command.c ****                 menu_set_state(MENU_STATE_PLAYING);
 102:./Application/Src/command.c ****                 pkt_send_ui_state((uint8_t)MENU_STATE_PLAYING, 0, 0, 0);
 103:./Application/Src/command.c ****                 traversal();
 104:./Application/Src/command.c ****                 menu_set_state(MENU_STATE_MAIN);
 105:./Application/Src/command.c ****             }
 106:./Application/Src/command.c ****             return 0;
 107:./Application/Src/command.c **** 
 108:./Application/Src/command.c ****         case 'n': // Jamie song
 109:./Application/Src/command.c ****             load_debug_song();
 110:./Application/Src/command.c ****             if (menu_get_state() == MENU_STATE_DEBUG) {
 111:./Application/Src/command.c ****                 traversal_debug_mode();
 112:./Application/Src/command.c ****             } else {
 113:./Application/Src/command.c ****                 menu_set_state(MENU_STATE_PLAYING);
 114:./Application/Src/command.c ****                 pkt_send_ui_state((uint8_t)MENU_STATE_PLAYING, 0, 0, 0);
 115:./Application/Src/command.c ****                 traversal();
 116:./Application/Src/command.c ****                 menu_set_state(MENU_STATE_MAIN);
 117:./Application/Src/command.c ****             }
 118:./Application/Src/command.c ****             return 0;
 119:./Application/Src/command.c **** 
 120:./Application/Src/command.c **** 
 121:./Application/Src/command.c ****         default:
 122:./Application/Src/command.c ****             return 1; /* unknown colon command */
 123:./Application/Src/command.c ****         }
 124:./Application/Src/command.c ****     }
 125:./Application/Src/command.c **** 
 126:./Application/Src/command.c ****     // else if (cmd[0] == ';'){
 127:./Application/Src/command.c ****     //     switch (cmd[1]){
 128:./Application/Src/command.c ****     //     case 'p':{ /* ;p <value> — set Kp */
 129:./Application/Src/command.c ****     //         char *arg = (char *)cmd + 3;
 130:./Application/Src/command.c ****     //         while (*arg == ' ')
 131:./Application/Src/command.c ****     //             arg++;
 132:./Application/Src/command.c ****     //         if (*arg == '\0')
 133:./Application/Src/command.c ****     //             return 3; /* incomplete */
 134:./Application/Src/command.c **** 
 135:./Application/Src/command.c ****     //         if (cmd[2] == 'l'){
 136:./Application/Src/command.c ****     //             left_motor.Kp = strtof(arg, NULL);
 137:./Application/Src/command.c ****     //         }
 138:./Application/Src/command.c ****     //         else if (cmd[2] == 'r'){
 139:./Application/Src/command.c ****     //             left_motor.Kp = strtof(arg, NULL);
 140:./Application/Src/command.c ****     //         }
 141:./Application/Src/command.c ****     //         else {
 142:./Application/Src/command.c ****     //             return 1;
 143:./Application/Src/command.c ****     //         }
 144:./Application/Src/command.c ****     //         return 0;
ARM GAS  C:\Users\admin\AppData\Local\Temp\ccR2JeRl.s 			page 4


 145:./Application/Src/command.c ****     //     }
 146:./Application/Src/command.c ****     //     case 'i':{ /* ;i <value> — set Ki */
 147:./Application/Src/command.c ****     //         char *arg = (char *)cmd + 3;
 148:./Application/Src/command.c ****     //         while (*arg == ' ')
 149:./Application/Src/command.c ****     //             arg++;
 150:./Application/Src/command.c ****     //         if (*arg == '\0')
 151:./Application/Src/command.c ****     //             return 3; /* incomplete */
 152:./Application/Src/command.c **** 
 153:./Application/Src/command.c ****     //         if (cmd[2] == 'l'){
 154:./Application/Src/command.c ****     //             left_motor.Ki = strtof(arg, NULL);
 155:./Application/Src/command.c ****     //         }
 156:./Application/Src/command.c ****     //         else if (cmd[2] == 'r'){
 157:./Application/Src/command.c ****     //             left_motor.Ki = strtof(arg, NULL);
 158:./Application/Src/command.c ****     //         }
 159:./Application/Src/command.c ****     //         else {
 160:./Application/Src/command.c ****     //             return 1;
 161:./Application/Src/command.c ****     //         }
 162:./Application/Src/command.c ****     //         return 0;
 163:./Application/Src/command.c ****     //     }
 164:./Application/Src/command.c ****     //     case 'd':{ /* ;d <value> — set Kd */
 165:./Application/Src/command.c ****     //         char *arg = (char *)cmd + 3;
 166:./Application/Src/command.c ****     //         while (*arg == ' ')
 167:./Application/Src/command.c ****     //             arg++;
 168:./Application/Src/command.c ****     //         if (*arg == '\0')
 169:./Application/Src/command.c ****     //             return 3; /* incomplete */
 170:./Application/Src/command.c **** 
 171:./Application/Src/command.c ****     //         if (cmd[2] == 'l'){
 172:./Application/Src/command.c ****     //             left_motor.Kd = strtof(arg, NULL);
 173:./Application/Src/command.c ****     //         }
 174:./Application/Src/command.c ****     //         else if (cmd[2] == 'r'){
 175:./Application/Src/command.c ****     //             left_motor.Kd = strtof(arg, NULL);
 176:./Application/Src/command.c ****     //         }
 177:./Application/Src/command.c ****     //         else {
 178:./Application/Src/command.c ****     //             return 1;
 179:./Application/Src/command.c ****     //         }
 180:./Application/Src/command.c ****     //         return 0;
 181:./Application/Src/command.c ****     //     }
 182:./Application/Src/command.c ****     //     }
 183:./Application/Src/command.c ****     // }
 184:./Application/Src/command.c ****     return 1;
 185:./Application/Src/command.c **** }
 186:./Application/Src/command.c **** 
 187:./Application/Src/command.c **** void execute_command(uint8_t *command)
 188:./Application/Src/command.c **** {
 189:./Application/Src/command.c ****     int result = parse_command(command);
 190:./Application/Src/command.c ****     if (result == 0)
 191:./Application/Src/command.c ****     {
 192:./Application/Src/command.c ****         LCD_draw_string(0, 14, "OK.                      ", COLOR_BLACK, COLOR_WHITE);
 193:./Application/Src/command.c ****         LCD_draw_string(0, 15, "                         ", COLOR_BLACK, COLOR_WHITE);
 194:./Application/Src/command.c ****     }
 195:./Application/Src/command.c ****     else if (result == 1)
 196:./Application/Src/command.c ****     {
 197:./Application/Src/command.c ****         LCD_draw_string(0, 14, "Cannot parse!            ", COLOR_BLACK, COLOR_WHITE);
 198:./Application/Src/command.c ****         LCD_draw_string(0, 15, (char*)command, COLOR_BLACK, COLOR_WHITE);
 199:./Application/Src/command.c ****     }
 200:./Application/Src/command.c ****     else if (result == 2)
 201:./Application/Src/command.c ****     {
ARM GAS  C:\Users\admin\AppData\Local\Temp\ccR2JeRl.s 			page 5


 202:./Application/Src/command.c ****         LCD_draw_string(0, 14, "Empty command!           ", COLOR_BLACK, COLOR_WHITE);
 203:./Application/Src/command.c ****     }
 204:./Application/Src/command.c ****     else if (result == 3)
 205:./Application/Src/command.c ****     {
 206:./Application/Src/command.c ****         LCD_draw_string(0, 14, "Incomplete command!      ", COLOR_BLACK, COLOR_WHITE);
 207:./Application/Src/command.c ****         LCD_draw_string(0, 15, (char*)command, COLOR_BLACK, COLOR_WHITE);
 208:./Application/Src/command.c ****     }
 209:./Application/Src/command.c **** }
 210:./Application/Src/command.c **** 
 211:./Application/Src/command.c **** void set_text(uint8_t *displayedText)
 212:./Application/Src/command.c **** {
 213:./Application/Src/command.c ****     LCD_draw_string(0, 13, (char *)displayedText, COLOR_BLACK, COLOR_WHITE);
 214:./Application/Src/command.c **** }
 215:./Application/Src/command.c **** 
 216:./Application/Src/command.c **** void reset_pos(TIM_HandleTypeDef *htim)
 217:./Application/Src/command.c **** {
 218:./Application/Src/command.c ****     __HAL_TIM_SET_COUNTER(htim, 0);
 219:./Application/Src/command.c **** }
 220:./Application/Src/command.c **** 
 221:./Application/Src/command.c **** /*
 222:./Application/Src/command.c ****  * Send the TXT file list over Bluetooth using XOR packets.
 223:./Application/Src/command.c ****  */
 224:./Application/Src/command.c **** void list_files_over_bt(void)
 225:./Application/Src/command.c **** {
 226:./Application/Src/command.c ****     sd_list_txt_files();
 227:./Application/Src/command.c ****     for (int i = 0; i < fileCount; i++) {
 228:./Application/Src/command.c ****         /* Wait until UART TX is idle before sending next entry */
 229:./Application/Src/command.c ****         while (huart2.gState != HAL_UART_STATE_READY) { /* spin */ }
 230:./Application/Src/command.c ****         pkt_send_file_entry(fileList[i].name, fileList[i].size);
 231:./Application/Src/command.c ****     }
 232:./Application/Src/command.c ****     while (huart2.gState != HAL_UART_STATE_READY) { /* spin */ }
 233:./Application/Src/command.c ****     pkt_send_file_list_end((uint8_t)fileCount);
 234:./Application/Src/command.c **** }
 235:./Application/Src/command.c **** 
 236:./Application/Src/command.c **** void toggle_solenoid(uint16_t traversal_index){
 237:./Application/Src/command.c ****     pwm_mode = PWM_STOP;
 238:./Application/Src/command.c ****     for (int i = 0; i < 10; i++) {
 239:./Application/Src/command.c ****         HAL_GPIO_WritePin(solenoids[i].port, solenoids[i].pin, chord_events[traversal_index].presse
 240:./Application/Src/command.c ****     }
 241:./Application/Src/command.c ****     // wait for the duration of the chord:
 242:./Application/Src/command.c ****     wait_ms(chord_events[traversal_index].duration_ms);
 243:./Application/Src/command.c ****     // reset solenoids based on which hand changes position next
 244:./Application/Src/command.c ****     if (chord_events[traversal_index].long_pressed[0]){ // left hand long press, keep it pressed
 245:./Application/Src/command.c ****         for (int i = 0; i < 7; i++) {
 246:./Application/Src/command.c ****             HAL_GPIO_WritePin(solenoids[i].port, solenoids[i].pin, chord_events[traversal_index].pr
 247:./Application/Src/command.c ****         }
 248:./Application/Src/command.c ****     } else { // reset all left hand solenoids, since short click
 249:./Application/Src/command.c ****         for (int i = 0; i < 7; i++) {
 250:./Application/Src/command.c ****             HAL_GPIO_WritePin(solenoids[i].port, solenoids[i].pin, GPIO_PIN_RESET);
 251:./Application/Src/command.c ****         }
 252:./Application/Src/command.c **** 
 253:./Application/Src/command.c ****     }
 254:./Application/Src/command.c **** 
 255:./Application/Src/command.c ****     if (chord_events[traversal_index].long_pressed[1]){ // right hand long press
 256:./Application/Src/command.c ****         for (int i = 7; i < 10; i++) {
 257:./Application/Src/command.c ****             HAL_GPIO_WritePin(solenoids[i].port, solenoids[i].pin, chord_events[traversal_index].pr
 258:./Application/Src/command.c ****         }
ARM GAS  C:\Users\admin\AppData\Local\Temp\ccR2JeRl.s 			page 6


 259:./Application/Src/command.c ****     } else { // short click for right
 260:./Application/Src/command.c ****         for (int i = 7; i < 10; i++) {
 261:./Application/Src/command.c ****             HAL_GPIO_WritePin(solenoids[i].port, solenoids[i].pin, GPIO_PIN_RESET);
 262:./Application/Src/command.c ****         }
 263:./Application/Src/command.c ****     }
 264:./Application/Src/command.c ****     pwm_mode = PWM_PID;
 265:./Application/Src/command.c **** }
 266:./Application/Src/command.c **** 
 267:./Application/Src/command.c **** /* Count total chords in the loaded song (looks for end sentinel 1000,1000) */
 268:./Application/Src/command.c **** static uint16_t count_total_chords(void)
 269:./Application/Src/command.c **** {
  29              		.loc 1 269 1 view -0
  30              		.cfi_startproc
  31              		@ args = 0, pretend = 0, frame = 0
  32              		@ frame_needed = 0, uses_anonymous_args = 0
  33              		@ link register save eliminated.
 270:./Application/Src/command.c ****     for (uint16_t i = 0; i < MAX_CHORD_EVENTS; i++) {
  34              		.loc 1 270 5 view .LVU1
  35              	.LBB2:
  36              		.loc 1 270 10 view .LVU2
  37              	.LVL0:
  38              		.loc 1 270 19 is_stmt 0 view .LVU3
  39 0000 0020     		movs	r0, #0
  40              		.loc 1 270 5 view .LVU4
  41 0002 01E0     		b	.L2
  42              	.LVL1:
  43              	.L3:
  44              		.loc 1 270 49 is_stmt 1 discriminator 2 view .LVU5
  45 0004 0130     		adds	r0, r0, #1
  46              	.LVL2:
  47              		.loc 1 270 49 is_stmt 0 discriminator 2 view .LVU6
  48 0006 80B2     		uxth	r0, r0
  49              	.LVL3:
  50              	.L2:
  51              		.loc 1 270 28 is_stmt 1 discriminator 1 view .LVU7
  52 0008 B0F5806F 		cmp	r0, #1024
  53 000c 18D2     		bcs	.L6
 271:./Application/Src/command.c ****         if (chord_events[i].positions[0] == 1000.0f &&
  54              		.loc 1 271 9 view .LVU8
  55              		.loc 1 271 38 is_stmt 0 view .LVU9
  56 000e 00EB4002 		add	r2, r0, r0, lsl #1
  57 0012 0D4B     		ldr	r3, .L7
  58 0014 03EBC203 		add	r3, r3, r2, lsl #3
  59 0018 93ED007A 		vldr.32	s14, [r3]
  60              		.loc 1 271 12 view .LVU10
  61 001c DFED0B7A 		vldr.32	s15, .L7+4
  62 0020 B4EE677A 		vcmp.f32	s14, s15
  63 0024 F1EE10FA 		vmrs	APSR_nzcv, FPSCR
  64 0028 ECD1     		bne	.L3
 272:./Application/Src/command.c ****             chord_events[i].positions[1] == 1000.0f)
  65              		.loc 1 272 38 view .LVU11
  66 002a 074B     		ldr	r3, .L7
  67 002c 03EBC203 		add	r3, r3, r2, lsl #3
  68 0030 93ED017A 		vldr.32	s14, [r3, #4]
 271:./Application/Src/command.c ****         if (chord_events[i].positions[0] == 1000.0f &&
  69              		.loc 1 271 53 discriminator 1 view .LVU12
  70 0034 B4EE677A 		vcmp.f32	s14, s15
ARM GAS  C:\Users\admin\AppData\Local\Temp\ccR2JeRl.s 			page 7


  71 0038 F1EE10FA 		vmrs	APSR_nzcv, FPSCR
  72 003c E2D1     		bne	.L3
  73              	.LVL4:
  74              	.L4:
 271:./Application/Src/command.c ****         if (chord_events[i].positions[0] == 1000.0f &&
  75              		.loc 1 271 53 discriminator 1 view .LVU13
  76              	.LBE2:
 273:./Application/Src/command.c ****             return i;
 274:./Application/Src/command.c ****     }
 275:./Application/Src/command.c ****     return MAX_CHORD_EVENTS;
 276:./Application/Src/command.c **** }
  77              		.loc 1 276 1 view .LVU14
  78 003e 7047     		bx	lr
  79              	.LVL5:
  80              	.L6:
 275:./Application/Src/command.c **** }
  81              		.loc 1 275 12 view .LVU15
  82 0040 4FF48060 		mov	r0, #1024
  83              	.LVL6:
 275:./Application/Src/command.c **** }
  84              		.loc 1 275 12 view .LVU16
  85 0044 FBE7     		b	.L4
  86              	.L8:
  87 0046 00BF     		.align	2
  88              	.L7:
  89 0048 00000000 		.word	chord_events
  90 004c 00007A44 		.word	1148846080
  91              		.cfi_endproc
  92              	.LFE365:
  94              		.section	.text.set_text,"ax",%progbits
  95              		.align	1
  96              		.global	set_text
  97              		.syntax unified
  98              		.thumb
  99              		.thumb_func
 101              	set_text:
 102              	.LVL7:
 103              	.LFB361:
 212:./Application/Src/command.c ****     LCD_draw_string(0, 13, (char *)displayedText, COLOR_BLACK, COLOR_WHITE);
 104              		.loc 1 212 1 is_stmt 1 view -0
 105              		.cfi_startproc
 106              		@ args = 0, pretend = 0, frame = 0
 107              		@ frame_needed = 0, uses_anonymous_args = 0
 212:./Application/Src/command.c ****     LCD_draw_string(0, 13, (char *)displayedText, COLOR_BLACK, COLOR_WHITE);
 108              		.loc 1 212 1 is_stmt 0 view .LVU18
 109 0000 00B5     		push	{lr}
 110              	.LCFI0:
 111              		.cfi_def_cfa_offset 4
 112              		.cfi_offset 14, -4
 113 0002 83B0     		sub	sp, sp, #12
 114              	.LCFI1:
 115              		.cfi_def_cfa_offset 16
 116 0004 0246     		mov	r2, r0
 213:./Application/Src/command.c **** }
 117              		.loc 1 213 5 is_stmt 1 view .LVU19
 118 0006 4FF6FF73 		movw	r3, #65535
 119 000a 0093     		str	r3, [sp]
ARM GAS  C:\Users\admin\AppData\Local\Temp\ccR2JeRl.s 			page 8


 120 000c 0023     		movs	r3, #0
 121 000e 0D21     		movs	r1, #13
 122 0010 1846     		mov	r0, r3
 123              	.LVL8:
 213:./Application/Src/command.c **** }
 124              		.loc 1 213 5 is_stmt 0 view .LVU20
 125 0012 FFF7FEFF 		bl	LCD_draw_string
 126              	.LVL9:
 214:./Application/Src/command.c **** 
 127              		.loc 1 214 1 view .LVU21
 128 0016 03B0     		add	sp, sp, #12
 129              	.LCFI2:
 130              		.cfi_def_cfa_offset 4
 131              		@ sp needed
 132 0018 00BD     		pop	{pc}
 133              		.cfi_endproc
 134              	.LFE361:
 136              		.section	.text.reset_pos,"ax",%progbits
 137              		.align	1
 138              		.global	reset_pos
 139              		.syntax unified
 140              		.thumb
 141              		.thumb_func
 143              	reset_pos:
 144              	.LVL10:
 145              	.LFB362:
 217:./Application/Src/command.c ****     __HAL_TIM_SET_COUNTER(htim, 0);
 146              		.loc 1 217 1 is_stmt 1 view -0
 147              		.cfi_startproc
 148              		@ args = 0, pretend = 0, frame = 0
 149              		@ frame_needed = 0, uses_anonymous_args = 0
 150              		@ link register save eliminated.
 218:./Application/Src/command.c **** }
 151              		.loc 1 218 5 view .LVU23
 152 0000 0368     		ldr	r3, [r0]
 153 0002 0022     		movs	r2, #0
 154 0004 5A62     		str	r2, [r3, #36]
 219:./Application/Src/command.c **** 
 155              		.loc 1 219 1 is_stmt 0 view .LVU24
 156 0006 7047     		bx	lr
 157              		.cfi_endproc
 158              	.LFE362:
 160              		.section	.text.list_files_over_bt,"ax",%progbits
 161              		.align	1
 162              		.global	list_files_over_bt
 163              		.syntax unified
 164              		.thumb
 165              		.thumb_func
 167              	list_files_over_bt:
 168              	.LFB363:
 225:./Application/Src/command.c ****     sd_list_txt_files();
 169              		.loc 1 225 1 is_stmt 1 view -0
 170              		.cfi_startproc
 171              		@ args = 0, pretend = 0, frame = 0
 172              		@ frame_needed = 0, uses_anonymous_args = 0
 173 0000 10B5     		push	{r4, lr}
 174              	.LCFI3:
ARM GAS  C:\Users\admin\AppData\Local\Temp\ccR2JeRl.s 			page 9


 175              		.cfi_def_cfa_offset 8
 176              		.cfi_offset 4, -8
 177              		.cfi_offset 14, -4
 226:./Application/Src/command.c ****     for (int i = 0; i < fileCount; i++) {
 178              		.loc 1 226 5 view .LVU26
 179 0002 FFF7FEFF 		bl	sd_list_txt_files
 180              	.LVL11:
 227:./Application/Src/command.c ****         /* Wait until UART TX is idle before sending next entry */
 181              		.loc 1 227 5 view .LVU27
 182              	.LBB3:
 227:./Application/Src/command.c ****         /* Wait until UART TX is idle before sending next entry */
 183              		.loc 1 227 10 view .LVU28
 227:./Application/Src/command.c ****         /* Wait until UART TX is idle before sending next entry */
 184              		.loc 1 227 14 is_stmt 0 view .LVU29
 185 0006 0024     		movs	r4, #0
 227:./Application/Src/command.c ****         /* Wait until UART TX is idle before sending next entry */
 186              		.loc 1 227 5 view .LVU30
 187 0008 0DE0     		b	.L13
 188              	.LVL12:
 189              	.L14:
 229:./Application/Src/command.c ****         pkt_send_file_entry(fileList[i].name, fileList[i].size);
 190              		.loc 1 229 68 is_stmt 1 discriminator 1 view .LVU31
 229:./Application/Src/command.c ****         pkt_send_file_entry(fileList[i].name, fileList[i].size);
 191              		.loc 1 229 30 discriminator 1 view .LVU32
 229:./Application/Src/command.c ****         pkt_send_file_entry(fileList[i].name, fileList[i].size);
 192              		.loc 1 229 22 is_stmt 0 discriminator 1 view .LVU33
 193 000a 0D4B     		ldr	r3, .L17
 194 000c D3F88830 		ldr	r3, [r3, #136]
 229:./Application/Src/command.c ****         pkt_send_file_entry(fileList[i].name, fileList[i].size);
 195              		.loc 1 229 30 discriminator 1 view .LVU34
 196 0010 202B     		cmp	r3, #32
 197 0012 FAD1     		bne	.L14
 230:./Application/Src/command.c ****     }
 198              		.loc 1 230 9 is_stmt 1 view .LVU35
 230:./Application/Src/command.c ****     }
 199              		.loc 1 230 40 is_stmt 0 view .LVU36
 200 0014 04EB8403 		add	r3, r4, r4, lsl #2
 201 0018 0A48     		ldr	r0, .L17+4
 202 001a 00EB8300 		add	r0, r0, r3, lsl #2
 230:./Application/Src/command.c ****     }
 203              		.loc 1 230 9 view .LVU37
 204 001e 0169     		ldr	r1, [r0, #16]
 205 0020 FFF7FEFF 		bl	pkt_send_file_entry
 206              	.LVL13:
 227:./Application/Src/command.c ****         /* Wait until UART TX is idle before sending next entry */
 207              		.loc 1 227 37 is_stmt 1 discriminator 2 view .LVU38
 208 0024 0134     		adds	r4, r4, #1
 209              	.LVL14:
 210              	.L13:
 227:./Application/Src/command.c ****         /* Wait until UART TX is idle before sending next entry */
 211              		.loc 1 227 23 discriminator 1 view .LVU39
 212 0026 084B     		ldr	r3, .L17+8
 213 0028 1868     		ldr	r0, [r3]
 214 002a A042     		cmp	r0, r4
 215 002c EDDC     		bgt	.L14
 216              	.L15:
 217              	.LBE3:
ARM GAS  C:\Users\admin\AppData\Local\Temp\ccR2JeRl.s 			page 10


 232:./Application/Src/command.c ****     pkt_send_file_list_end((uint8_t)fileCount);
 218              		.loc 1 232 64 discriminator 1 view .LVU40
 232:./Application/Src/command.c ****     pkt_send_file_list_end((uint8_t)fileCount);
 219              		.loc 1 232 26 discriminator 1 view .LVU41
 232:./Application/Src/command.c ****     pkt_send_file_list_end((uint8_t)fileCount);
 220              		.loc 1 232 18 is_stmt 0 discriminator 1 view .LVU42
 221 002e 044B     		ldr	r3, .L17
 222 0030 D3F88830 		ldr	r3, [r3, #136]
 232:./Application/Src/command.c ****     pkt_send_file_list_end((uint8_t)fileCount);
 223              		.loc 1 232 26 discriminator 1 view .LVU43
 224 0034 202B     		cmp	r3, #32
 225 0036 FAD1     		bne	.L15
 233:./Application/Src/command.c **** }
 226              		.loc 1 233 5 is_stmt 1 view .LVU44
 227 0038 C0B2     		uxtb	r0, r0
 228 003a FFF7FEFF 		bl	pkt_send_file_list_end
 229              	.LVL15:
 234:./Application/Src/command.c **** 
 230              		.loc 1 234 1 is_stmt 0 view .LVU45
 231 003e 10BD     		pop	{r4, pc}
 232              	.LVL16:
 233              	.L18:
 234:./Application/Src/command.c **** 
 234              		.loc 1 234 1 view .LVU46
 235              		.align	2
 236              	.L17:
 237 0040 00000000 		.word	huart2
 238 0044 00000000 		.word	fileList
 239 0048 00000000 		.word	fileCount
 240              		.cfi_endproc
 241              	.LFE363:
 243              		.section	.text.toggle_solenoid,"ax",%progbits
 244              		.align	1
 245              		.global	toggle_solenoid
 246              		.syntax unified
 247              		.thumb
 248              		.thumb_func
 250              	toggle_solenoid:
 251              	.LVL17:
 252              	.LFB364:
 236:./Application/Src/command.c ****     pwm_mode = PWM_STOP;
 253              		.loc 1 236 47 is_stmt 1 view -0
 254              		.cfi_startproc
 255              		@ args = 0, pretend = 0, frame = 0
 256              		@ frame_needed = 0, uses_anonymous_args = 0
 236:./Application/Src/command.c ****     pwm_mode = PWM_STOP;
 257              		.loc 1 236 47 is_stmt 0 view .LVU48
 258 0000 38B5     		push	{r3, r4, r5, lr}
 259              	.LCFI4:
 260              		.cfi_def_cfa_offset 16
 261              		.cfi_offset 3, -16
 262              		.cfi_offset 4, -12
 263              		.cfi_offset 5, -8
 264              		.cfi_offset 14, -4
 265 0002 0546     		mov	r5, r0
 237:./Application/Src/command.c ****     for (int i = 0; i < 10; i++) {
 266              		.loc 1 237 5 is_stmt 1 view .LVU49
ARM GAS  C:\Users\admin\AppData\Local\Temp\ccR2JeRl.s 			page 11


 237:./Application/Src/command.c ****     for (int i = 0; i < 10; i++) {
 267              		.loc 1 237 14 is_stmt 0 view .LVU50
 268 0004 384B     		ldr	r3, .L35
 269 0006 0122     		movs	r2, #1
 270 0008 1A70     		strb	r2, [r3]
 238:./Application/Src/command.c ****         HAL_GPIO_WritePin(solenoids[i].port, solenoids[i].pin, chord_events[traversal_index].presse
 271              		.loc 1 238 5 is_stmt 1 view .LVU51
 272              	.LBB4:
 238:./Application/Src/command.c ****         HAL_GPIO_WritePin(solenoids[i].port, solenoids[i].pin, chord_events[traversal_index].presse
 273              		.loc 1 238 10 view .LVU52
 274              	.LVL18:
 238:./Application/Src/command.c ****         HAL_GPIO_WritePin(solenoids[i].port, solenoids[i].pin, chord_events[traversal_index].presse
 275              		.loc 1 238 14 is_stmt 0 view .LVU53
 276 000a 0024     		movs	r4, #0
 238:./Application/Src/command.c ****         HAL_GPIO_WritePin(solenoids[i].port, solenoids[i].pin, chord_events[traversal_index].presse
 277              		.loc 1 238 5 view .LVU54
 278 000c 0FE0     		b	.L20
 279              	.LVL19:
 280              	.L21:
 239:./Application/Src/command.c ****     }
 281              		.loc 1 239 9 is_stmt 1 view .LVU55
 239:./Application/Src/command.c ****     }
 282              		.loc 1 239 39 is_stmt 0 view .LVU56
 283 000e 3748     		ldr	r0, .L35+4
 239:./Application/Src/command.c ****     }
 284              		.loc 1 239 58 view .LVU57
 285 0010 00EBC401 		add	r1, r0, r4, lsl #3
 239:./Application/Src/command.c ****     }
 286              		.loc 1 239 101 view .LVU58
 287 0014 05EB4502 		add	r2, r5, r5, lsl #1
 288 0018 354B     		ldr	r3, .L35+8
 289 001a 03EBC203 		add	r3, r3, r2, lsl #3
 290 001e 2344     		add	r3, r3, r4
 239:./Application/Src/command.c ****     }
 291              		.loc 1 239 9 view .LVU59
 292 0020 1A7A     		ldrb	r2, [r3, #8]	@ zero_extendqisi2
 293 0022 8988     		ldrh	r1, [r1, #4]
 294 0024 50F83400 		ldr	r0, [r0, r4, lsl #3]
 295 0028 FFF7FEFF 		bl	HAL_GPIO_WritePin
 296              	.LVL20:
 238:./Application/Src/command.c ****         HAL_GPIO_WritePin(solenoids[i].port, solenoids[i].pin, chord_events[traversal_index].presse
 297              		.loc 1 238 30 is_stmt 1 discriminator 3 view .LVU60
 298 002c 0134     		adds	r4, r4, #1
 299              	.LVL21:
 300              	.L20:
 238:./Application/Src/command.c ****         HAL_GPIO_WritePin(solenoids[i].port, solenoids[i].pin, chord_events[traversal_index].presse
 301              		.loc 1 238 23 discriminator 1 view .LVU61
 302 002e 092C     		cmp	r4, #9
 303 0030 EDDD     		ble	.L21
 304              	.LBE4:
 242:./Application/Src/command.c ****     // reset solenoids based on which hand changes position next
 305              		.loc 1 242 5 view .LVU62
 306 0032 05EB4503 		add	r3, r5, r5, lsl #1
 307 0036 2E4C     		ldr	r4, .L35+8
 308              	.LVL22:
 242:./Application/Src/command.c ****     // reset solenoids based on which hand changes position next
 309              		.loc 1 242 5 is_stmt 0 view .LVU63
ARM GAS  C:\Users\admin\AppData\Local\Temp\ccR2JeRl.s 			page 12


 310 0038 04EBC304 		add	r4, r4, r3, lsl #3
 311 003c 608A     		ldrh	r0, [r4, #18]
 312 003e FFF7FEFF 		bl	wait_ms
 313              	.LVL23:
 244:./Application/Src/command.c ****         for (int i = 0; i < 7; i++) {
 314              		.loc 1 244 5 is_stmt 1 view .LVU64
 244:./Application/Src/command.c ****         for (int i = 0; i < 7; i++) {
 315              		.loc 1 244 51 is_stmt 0 view .LVU65
 316 0042 237D     		ldrb	r3, [r4, #20]	@ zero_extendqisi2
 244:./Application/Src/command.c ****         for (int i = 0; i < 7; i++) {
 317              		.loc 1 244 8 view .LVU66
 318 0044 E3B9     		cbnz	r3, .L32
 319              	.LBB5:
 249:./Application/Src/command.c ****             HAL_GPIO_WritePin(solenoids[i].port, solenoids[i].pin, GPIO_PIN_RESET);
 320              		.loc 1 249 18 view .LVU67
 321 0046 1C46     		mov	r4, r3
 322 0048 26E0     		b	.L23
 323              	.LVL24:
 324              	.L24:
 249:./Application/Src/command.c ****             HAL_GPIO_WritePin(solenoids[i].port, solenoids[i].pin, GPIO_PIN_RESET);
 325              		.loc 1 249 18 view .LVU68
 326              	.LBE5:
 327              	.LBB6:
 246:./Application/Src/command.c ****         }
 328              		.loc 1 246 13 is_stmt 1 view .LVU69
 246:./Application/Src/command.c ****         }
 329              		.loc 1 246 43 is_stmt 0 view .LVU70
 330 004a 2848     		ldr	r0, .L35+4
 246:./Application/Src/command.c ****         }
 331              		.loc 1 246 62 view .LVU71
 332 004c 00EBC401 		add	r1, r0, r4, lsl #3
 246:./Application/Src/command.c ****         }
 333              		.loc 1 246 105 view .LVU72
 334 0050 05EB4502 		add	r2, r5, r5, lsl #1
 335 0054 264B     		ldr	r3, .L35+8
 336 0056 03EBC203 		add	r3, r3, r2, lsl #3
 337 005a 2344     		add	r3, r3, r4
 246:./Application/Src/command.c ****         }
 338              		.loc 1 246 13 view .LVU73
 339 005c 1A7A     		ldrb	r2, [r3, #8]	@ zero_extendqisi2
 340 005e 8988     		ldrh	r1, [r1, #4]
 341 0060 50F83400 		ldr	r0, [r0, r4, lsl #3]
 342 0064 FFF7FEFF 		bl	HAL_GPIO_WritePin
 343              	.LVL25:
 245:./Application/Src/command.c ****             HAL_GPIO_WritePin(solenoids[i].port, solenoids[i].pin, chord_events[traversal_index].pr
 344              		.loc 1 245 33 is_stmt 1 discriminator 3 view .LVU74
 345 0068 0134     		adds	r4, r4, #1
 346              	.LVL26:
 347              	.L22:
 245:./Application/Src/command.c ****             HAL_GPIO_WritePin(solenoids[i].port, solenoids[i].pin, chord_events[traversal_index].pr
 348              		.loc 1 245 27 discriminator 1 view .LVU75
 349 006a 062C     		cmp	r4, #6
 350 006c EDDD     		ble	.L24
 351              	.LVL27:
 352              	.L25:
 245:./Application/Src/command.c ****             HAL_GPIO_WritePin(solenoids[i].port, solenoids[i].pin, chord_events[traversal_index].pr
 353              		.loc 1 245 27 is_stmt 0 discriminator 1 view .LVU76
ARM GAS  C:\Users\admin\AppData\Local\Temp\ccR2JeRl.s 			page 13


 354              	.LBE6:
 255:./Application/Src/command.c ****         for (int i = 7; i < 10; i++) {
 355              		.loc 1 255 5 is_stmt 1 view .LVU77
 255:./Application/Src/command.c ****         for (int i = 7; i < 10; i++) {
 356              		.loc 1 255 51 is_stmt 0 view .LVU78
 357 006e 05EB4502 		add	r2, r5, r5, lsl #1
 358 0072 1F4B     		ldr	r3, .L35+8
 359 0074 03EBC203 		add	r3, r3, r2, lsl #3
 360 0078 5B7D     		ldrb	r3, [r3, #21]	@ zero_extendqisi2
 255:./Application/Src/command.c ****         for (int i = 7; i < 10; i++) {
 361              		.loc 1 255 8 view .LVU79
 362 007a 33BB     		cbnz	r3, .L33
 363              	.LBB7:
 260:./Application/Src/command.c ****             HAL_GPIO_WritePin(solenoids[i].port, solenoids[i].pin, GPIO_PIN_RESET);
 364              		.loc 1 260 18 view .LVU80
 365 007c 0724     		movs	r4, #7
 366 007e 30E0     		b	.L28
 367              	.L32:
 260:./Application/Src/command.c ****             HAL_GPIO_WritePin(solenoids[i].port, solenoids[i].pin, GPIO_PIN_RESET);
 368              		.loc 1 260 18 view .LVU81
 369              	.LBE7:
 370              	.LBB8:
 245:./Application/Src/command.c ****             HAL_GPIO_WritePin(solenoids[i].port, solenoids[i].pin, chord_events[traversal_index].pr
 371              		.loc 1 245 18 view .LVU82
 372 0080 0024     		movs	r4, #0
 373 0082 F2E7     		b	.L22
 374              	.LVL28:
 375              	.L26:
 245:./Application/Src/command.c ****             HAL_GPIO_WritePin(solenoids[i].port, solenoids[i].pin, chord_events[traversal_index].pr
 376              		.loc 1 245 18 view .LVU83
 377              	.LBE8:
 378              	.LBB9:
 250:./Application/Src/command.c ****         }
 379              		.loc 1 250 13 is_stmt 1 view .LVU84
 250:./Application/Src/command.c ****         }
 380              		.loc 1 250 43 is_stmt 0 view .LVU85
 381 0084 194B     		ldr	r3, .L35+4
 250:./Application/Src/command.c ****         }
 382              		.loc 1 250 62 view .LVU86
 383 0086 03EBC401 		add	r1, r3, r4, lsl #3
 250:./Application/Src/command.c ****         }
 384              		.loc 1 250 13 view .LVU87
 385 008a 0022     		movs	r2, #0
 386 008c 8988     		ldrh	r1, [r1, #4]
 387 008e 53F83400 		ldr	r0, [r3, r4, lsl #3]
 388 0092 FFF7FEFF 		bl	HAL_GPIO_WritePin
 389              	.LVL29:
 249:./Application/Src/command.c ****             HAL_GPIO_WritePin(solenoids[i].port, solenoids[i].pin, GPIO_PIN_RESET);
 390              		.loc 1 249 33 is_stmt 1 discriminator 3 view .LVU88
 391 0096 0134     		adds	r4, r4, #1
 392              	.LVL30:
 393              	.L23:
 249:./Application/Src/command.c ****             HAL_GPIO_WritePin(solenoids[i].port, solenoids[i].pin, GPIO_PIN_RESET);
 394              		.loc 1 249 27 discriminator 1 view .LVU89
 395 0098 062C     		cmp	r4, #6
 396 009a F3DD     		ble	.L26
 397 009c E7E7     		b	.L25
ARM GAS  C:\Users\admin\AppData\Local\Temp\ccR2JeRl.s 			page 14


 398              	.LVL31:
 399              	.L29:
 249:./Application/Src/command.c ****             HAL_GPIO_WritePin(solenoids[i].port, solenoids[i].pin, GPIO_PIN_RESET);
 400              		.loc 1 249 27 is_stmt 0 discriminator 1 view .LVU90
 401              	.LBE9:
 402              	.LBB10:
 257:./Application/Src/command.c ****         }
 403              		.loc 1 257 13 is_stmt 1 view .LVU91
 257:./Application/Src/command.c ****         }
 404              		.loc 1 257 43 is_stmt 0 view .LVU92
 405 009e 1348     		ldr	r0, .L35+4
 257:./Application/Src/command.c ****         }
 406              		.loc 1 257 62 view .LVU93
 407 00a0 00EBC401 		add	r1, r0, r4, lsl #3
 257:./Application/Src/command.c ****         }
 408              		.loc 1 257 105 view .LVU94
 409 00a4 05EB4502 		add	r2, r5, r5, lsl #1
 410 00a8 114B     		ldr	r3, .L35+8
 411 00aa 03EBC203 		add	r3, r3, r2, lsl #3
 412 00ae 2344     		add	r3, r3, r4
 257:./Application/Src/command.c ****         }
 413              		.loc 1 257 13 view .LVU95
 414 00b0 1A7A     		ldrb	r2, [r3, #8]	@ zero_extendqisi2
 415 00b2 8988     		ldrh	r1, [r1, #4]
 416 00b4 50F83400 		ldr	r0, [r0, r4, lsl #3]
 417 00b8 FFF7FEFF 		bl	HAL_GPIO_WritePin
 418              	.LVL32:
 256:./Application/Src/command.c ****             HAL_GPIO_WritePin(solenoids[i].port, solenoids[i].pin, chord_events[traversal_index].pr
 419              		.loc 1 256 34 is_stmt 1 discriminator 3 view .LVU96
 420 00bc 0134     		adds	r4, r4, #1
 421              	.LVL33:
 422              	.L27:
 256:./Application/Src/command.c ****             HAL_GPIO_WritePin(solenoids[i].port, solenoids[i].pin, chord_events[traversal_index].pr
 423              		.loc 1 256 27 discriminator 1 view .LVU97
 424 00be 092C     		cmp	r4, #9
 425 00c0 EDDD     		ble	.L29
 426              	.LVL34:
 427              	.L30:
 256:./Application/Src/command.c ****             HAL_GPIO_WritePin(solenoids[i].port, solenoids[i].pin, chord_events[traversal_index].pr
 428              		.loc 1 256 27 is_stmt 0 discriminator 1 view .LVU98
 429              	.LBE10:
 264:./Application/Src/command.c **** }
 430              		.loc 1 264 5 is_stmt 1 view .LVU99
 264:./Application/Src/command.c **** }
 431              		.loc 1 264 14 is_stmt 0 view .LVU100
 432 00c2 094B     		ldr	r3, .L35
 433 00c4 0022     		movs	r2, #0
 434 00c6 1A70     		strb	r2, [r3]
 265:./Application/Src/command.c **** 
 435              		.loc 1 265 1 view .LVU101
 436 00c8 38BD     		pop	{r3, r4, r5, pc}
 437              	.LVL35:
 438              	.L33:
 439              	.LBB11:
 256:./Application/Src/command.c ****             HAL_GPIO_WritePin(solenoids[i].port, solenoids[i].pin, chord_events[traversal_index].pr
 440              		.loc 1 256 18 view .LVU102
 441 00ca 0724     		movs	r4, #7
ARM GAS  C:\Users\admin\AppData\Local\Temp\ccR2JeRl.s 			page 15


 442 00cc F7E7     		b	.L27
 443              	.LVL36:
 444              	.L31:
 256:./Application/Src/command.c ****             HAL_GPIO_WritePin(solenoids[i].port, solenoids[i].pin, chord_events[traversal_index].pr
 445              		.loc 1 256 18 view .LVU103
 446              	.LBE11:
 447              	.LBB12:
 261:./Application/Src/command.c ****         }
 448              		.loc 1 261 13 is_stmt 1 view .LVU104
 261:./Application/Src/command.c ****         }
 449              		.loc 1 261 43 is_stmt 0 view .LVU105
 450 00ce 074B     		ldr	r3, .L35+4
 261:./Application/Src/command.c ****         }
 451              		.loc 1 261 62 view .LVU106
 452 00d0 03EBC401 		add	r1, r3, r4, lsl #3
 261:./Application/Src/command.c ****         }
 453              		.loc 1 261 13 view .LVU107
 454 00d4 0022     		movs	r2, #0
 455 00d6 8988     		ldrh	r1, [r1, #4]
 456 00d8 53F83400 		ldr	r0, [r3, r4, lsl #3]
 457 00dc FFF7FEFF 		bl	HAL_GPIO_WritePin
 458              	.LVL37:
 260:./Application/Src/command.c ****             HAL_GPIO_WritePin(solenoids[i].port, solenoids[i].pin, GPIO_PIN_RESET);
 459              		.loc 1 260 34 is_stmt 1 discriminator 3 view .LVU108
 460 00e0 0134     		adds	r4, r4, #1
 461              	.LVL38:
 462              	.L28:
 260:./Application/Src/command.c ****             HAL_GPIO_WritePin(solenoids[i].port, solenoids[i].pin, GPIO_PIN_RESET);
 463              		.loc 1 260 27 discriminator 1 view .LVU109
 464 00e2 092C     		cmp	r4, #9
 465 00e4 F3DD     		ble	.L31
 466 00e6 ECE7     		b	.L30
 467              	.L36:
 468              		.align	2
 469              	.L35:
 470 00e8 00000000 		.word	pwm_mode
 471 00ec 00000000 		.word	solenoids
 472 00f0 00000000 		.word	chord_events
 473              	.LBE12:
 474              		.cfi_endproc
 475              	.LFE364:
 477              		.section	.text.debug_traversal,"ax",%progbits
 478              		.align	1
 479              		.global	debug_traversal
 480              		.syntax unified
 481              		.thumb
 482              		.thumb_func
 484              	debug_traversal:
 485              	.LFB368:
 277:./Application/Src/command.c **** 
 278:./Application/Src/command.c **** void traversal(void){
 279:./Application/Src/command.c **** 
 280:./Application/Src/command.c ****     pwm_mode = PWM_PID;
 281:./Application/Src/command.c ****     uint16_t traversal_index = 0;
 282:./Application/Src/command.c ****     if (chord_events[traversal_index].positions[0] == 0.0f && chord_events[traversal_index].positio
 283:./Application/Src/command.c ****         LCD_draw_string(0, 9, "No Song loaded!     ", COLOR_BLACK, COLOR_WHITE);
 284:./Application/Src/command.c ****         pkt_send_play_status(2, 0, 0); /* 2 = error/no song */
ARM GAS  C:\Users\admin\AppData\Local\Temp\ccR2JeRl.s 			page 16


 285:./Application/Src/command.c ****         return;
 286:./Application/Src/command.c ****     }
 287:./Application/Src/command.c **** 
 288:./Application/Src/command.c ****     uint16_t total_chords = count_total_chords();
 289:./Application/Src/command.c **** 
 290:./Application/Src/command.c ****     /* Clear LCD for playing UI */
 291:./Application/Src/command.c ****     for (int r = 1; r <= 9; r++)
 292:./Application/Src/command.c ****         LCD_draw_string(0, r, "                        ", COLOR_BLACK, COLOR_WHITE);
 293:./Application/Src/command.c ****     LCD_draw_string(0, 1, "[Playing Song]          ", COLOR_BLACK, COLOR_WHITE);
 294:./Application/Src/command.c ****     LCD_draw_string(0, 8, ":q to stop              ", COLOR_BLACK, COLOR_WHITE);
 295:./Application/Src/command.c **** 
 296:./Application/Src/command.c ****     pkt_send_play_status(1, 0, total_chords); /* 1 = playing */
 297:./Application/Src/command.c **** 
 298:./Application/Src/command.c ****     while (1){
 299:./Application/Src/command.c ****         if (chord_events[traversal_index].positions[0] == 1000.0f && chord_events[traversal_index].
 300:./Application/Src/command.c ****             LCD_draw_string(0, 9, "Song ends     ", COLOR_BLACK, COLOR_WHITE);
 301:./Application/Src/command.c ****             pkt_send_play_status(0, traversal_index, total_chords); /* 0 = done */
 302:./Application/Src/command.c ****             pwm_mode = PWM_STOP;
 303:./Application/Src/command.c ****             break;
 304:./Application/Src/command.c ****         }
 305:./Application/Src/command.c **** 
 306:./Application/Src/command.c ****         // listen to incoming commands only, check for :q only
 307:./Application/Src/command.c ****         if (rx_complete) {
 308:./Application/Src/command.c ****             uint16_t cmd_len = rx_valid;
 309:./Application/Src/command.c ****             memcpy(cmd_listen, rx_message, cmd_len + 1);
 310:./Application/Src/command.c ****             rx_complete = 0;
 311:./Application/Src/command.c ****             cmd_listen[cmd_len] = '\0';
 312:./Application/Src/command.c ****             if (cmd_len > 0 && cmd_listen[cmd_len - 1] == '\n') {
 313:./Application/Src/command.c ****                 cmd_listen[cmd_len - 1] = '\0';
 314:./Application/Src/command.c ****                 cmd_len--;
 315:./Application/Src/command.c ****             }
 316:./Application/Src/command.c ****             menu_process_message(cmd_listen, cmd_len);
 317:./Application/Src/command.c ****             execute_command(cmd_listen);
 318:./Application/Src/command.c ****         }
 319:./Application/Src/command.c **** 
 320:./Application/Src/command.c ****         if (stop_playing) {
 321:./Application/Src/command.c ****             LCD_draw_string(0, 9, "Stopped by user     ", COLOR_BLACK, COLOR_WHITE);
 322:./Application/Src/command.c ****             pkt_send_play_status(2, traversal_index, total_chords); /* 2 = stopped */
 323:./Application/Src/command.c ****             
 324:./Application/Src/command.c ****             // first disable all solenoids:
 325:./Application/Src/command.c ****             for (int i = 0; i < 10; i++) {
 326:./Application/Src/command.c ****                 HAL_GPIO_WritePin(solenoids[i].port, solenoids[i].pin, GPIO_PIN_RESET);
 327:./Application/Src/command.c ****             }
 328:./Application/Src/command.c **** 
 329:./Application/Src/command.c ****             wait_ms(500); // wait for solenoids to reset before resetting the motors
 330:./Application/Src/command.c **** 
 331:./Application/Src/command.c ****             stop_playing = 0;
 332:./Application/Src/command.c ****             left_motor.target_pos = 0.0f;
 333:./Application/Src/command.c ****             right_motor.target_pos = 0.0f;
 334:./Application/Src/command.c ****             wait_ms(500);
 335:./Application/Src/command.c ****             pwm_mode = PWM_STOP;
 336:./Application/Src/command.c ****             break;
 337:./Application/Src/command.c ****         }
 338:./Application/Src/command.c **** 
 339:./Application/Src/command.c ****         // set the target position:
 340:./Application/Src/command.c ****         left_motor.target_pos = chord_events[traversal_index].positions[0];
 341:./Application/Src/command.c ****         right_motor.target_pos = chord_events[traversal_index].positions[1];
ARM GAS  C:\Users\admin\AppData\Local\Temp\ccR2JeRl.s 			page 17


 342:./Application/Src/command.c **** 
 343:./Application/Src/command.c ****         wait_ms(5);
 344:./Application/Src/command.c **** 
 345:./Application/Src/command.c ****         // blocking: send bt data meanwhile wait controller update a while
 346:./Application/Src/command.c ****         // these total use 700us blocking
 347:./Application/Src/command.c ****         pkt_send_play_status(1, traversal_index, total_chords);
 348:./Application/Src/command.c ****         pkt_send_heartbeat();
 349:./Application/Src/command.c **** 
 350:./Application/Src/command.c ****         while(left_motor_arrived == 0 || right_motor_arrived == 0);
 351:./Application/Src/command.c **** 
 352:./Application/Src/command.c ****         wait_ms(20);
 353:./Application/Src/command.c ****         toggle_solenoid(traversal_index);
 354:./Application/Src/command.c **** 
 355:./Application/Src/command.c ****         traversal_index++;
 356:./Application/Src/command.c ****     }
 357:./Application/Src/command.c **** 
 358:./Application/Src/command.c **** }
 359:./Application/Src/command.c **** 
 360:./Application/Src/command.c **** void traversal_debug_mode(void){
 361:./Application/Src/command.c **** 
 362:./Application/Src/command.c ****     pwm_mode = PWM_PID;
 363:./Application/Src/command.c ****     uint16_t traversal_index = 0;
 364:./Application/Src/command.c ****     if (chord_events[traversal_index].positions[0] == 0.0f && chord_events[traversal_index].positio
 365:./Application/Src/command.c ****         LCD_draw_string(0, 9, "No Song loaded!     ", COLOR_BLACK, COLOR_WHITE);
 366:./Application/Src/command.c ****         return;
 367:./Application/Src/command.c ****     }
 368:./Application/Src/command.c **** 
 369:./Application/Src/command.c ****     /* Stay in DEBUG state so VOFA keeps flowing from controller_step() */
 370:./Application/Src/command.c ****     LCD_draw_string(0, 1, "[Debug Play] :q stop    ", COLOR_BLACK, COLOR_WHITE);
 371:./Application/Src/command.c **** 
 372:./Application/Src/command.c ****     while (1){
 373:./Application/Src/command.c ****         if (chord_events[traversal_index].positions[0] == 1000.0f && chord_events[traversal_index].
 374:./Application/Src/command.c ****             LCD_draw_string(0, 9, "Song ends     ", COLOR_BLACK, COLOR_WHITE);
 375:./Application/Src/command.c ****             pwm_mode = PWM_STOP;
 376:./Application/Src/command.c ****             break;
 377:./Application/Src/command.c ****         }
 378:./Application/Src/command.c **** 
 379:./Application/Src/command.c ****         // listen for :q
 380:./Application/Src/command.c ****         if (rx_complete) {
 381:./Application/Src/command.c ****             uint16_t cmd_len = rx_valid;
 382:./Application/Src/command.c ****             memcpy(cmd_listen, rx_message, cmd_len + 1);
 383:./Application/Src/command.c ****             rx_complete = 0;
 384:./Application/Src/command.c ****             cmd_listen[cmd_len] = '\0';
 385:./Application/Src/command.c ****             if (cmd_len > 0 && cmd_listen[cmd_len - 1] == '\n') {
 386:./Application/Src/command.c ****                 cmd_listen[cmd_len - 1] = '\0';
 387:./Application/Src/command.c ****                 cmd_len--;
 388:./Application/Src/command.c ****             }
 389:./Application/Src/command.c ****             execute_command(cmd_listen);
 390:./Application/Src/command.c ****         }
 391:./Application/Src/command.c **** 
 392:./Application/Src/command.c ****         if (stop_playing) {
 393:./Application/Src/command.c ****             LCD_draw_string(0, 9, "Stopped by user     ", COLOR_BLACK, COLOR_WHITE);
 394:./Application/Src/command.c **** 
 395:./Application/Src/command.c ****             for (int i = 0; i < 10; i++) {
 396:./Application/Src/command.c ****                 HAL_GPIO_WritePin(solenoids[i].port, solenoids[i].pin, GPIO_PIN_RESET);
 397:./Application/Src/command.c ****             }
 398:./Application/Src/command.c ****             wait_ms(500);
ARM GAS  C:\Users\admin\AppData\Local\Temp\ccR2JeRl.s 			page 18


 399:./Application/Src/command.c **** 
 400:./Application/Src/command.c ****             stop_playing = 0;
 401:./Application/Src/command.c ****             left_motor.target_pos = 0.0f;
 402:./Application/Src/command.c ****             right_motor.target_pos = 0.0f;
 403:./Application/Src/command.c ****             wait_ms(500);
 404:./Application/Src/command.c ****             pwm_mode = PWM_STOP;
 405:./Application/Src/command.c ****             break;
 406:./Application/Src/command.c ****         }
 407:./Application/Src/command.c **** 
 408:./Application/Src/command.c ****         // set the target position:
 409:./Application/Src/command.c ****         left_motor.target_pos = chord_events[traversal_index].positions[0];
 410:./Application/Src/command.c ****         right_motor.target_pos = chord_events[traversal_index].positions[1];
 411:./Application/Src/command.c **** 
 412:./Application/Src/command.c ****         wait_ms(5);
 413:./Application/Src/command.c ****         while(left_motor_arrived == 0 || right_motor_arrived == 0);
 414:./Application/Src/command.c **** 
 415:./Application/Src/command.c ****         /* No packets here — VOFA is sent by controller_step() at 1kHz */
 416:./Application/Src/command.c ****         wait_ms(20);
 417:./Application/Src/command.c ****         toggle_solenoid(traversal_index);
 418:./Application/Src/command.c **** 
 419:./Application/Src/command.c ****         traversal_index++;
 420:./Application/Src/command.c ****     }
 421:./Application/Src/command.c **** }
 422:./Application/Src/command.c **** 
 423:./Application/Src/command.c **** void debug_traversal(void){
 486              		.loc 1 423 27 view -0
 487              		.cfi_startproc
 488              		@ args = 0, pretend = 0, frame = 0
 489              		@ frame_needed = 0, uses_anonymous_args = 0
 490 0000 70B5     		push	{r4, r5, r6, lr}
 491              	.LCFI5:
 492              		.cfi_def_cfa_offset 16
 493              		.cfi_offset 4, -16
 494              		.cfi_offset 5, -12
 495              		.cfi_offset 6, -8
 496              		.cfi_offset 14, -4
 424:./Application/Src/command.c ****     pwm_mode = PWM_PID;
 497              		.loc 1 424 5 view .LVU111
 498              		.loc 1 424 14 is_stmt 0 view .LVU112
 499 0002 2D4B     		ldr	r3, .L46
 500 0004 0022     		movs	r2, #0
 501 0006 1A70     		strb	r2, [r3]
 425:./Application/Src/command.c ****     while (right_motor.target_pos < 138.0f || left_motor.target_pos < 138.0f) {
 502              		.loc 1 425 5 is_stmt 1 view .LVU113
 503              		.loc 1 425 11 is_stmt 0 view .LVU114
 504 0008 1EE0     		b	.L38
 505              	.LVL39:
 506              	.L42:
 507              	.LBB13:
 426:./Application/Src/command.c ****         right_motor.target_pos += 21.0f;
 427:./Application/Src/command.c ****         left_motor.target_pos += 21.0f;
 428:./Application/Src/command.c ****         wait_ms(10); // small delay so controller gets updated
 429:./Application/Src/command.c ****         while(!right_motor_arrived || !left_motor_arrived);
 430:./Application/Src/command.c **** 
 431:./Application/Src/command.c ****         // stop the motor when pressing
 432:./Application/Src/command.c ****         __HAL_TIM_SET_COMPARE(&htim1, TIM_CHANNEL_2, 500);
 433:./Application/Src/command.c ****         __HAL_TIM_SET_COMPARE(&htim1, TIM_CHANNEL_1, 500);
ARM GAS  C:\Users\admin\AppData\Local\Temp\ccR2JeRl.s 			page 19


 434:./Application/Src/command.c **** 
 435:./Application/Src/command.c ****         for (int i = 0; i < 10; i++) {
 436:./Application/Src/command.c ****             HAL_GPIO_WritePin(solenoids[i].port, solenoids[i].pin, GPIO_PIN_SET);
 508              		.loc 1 436 13 is_stmt 1 view .LVU115
 509              		.loc 1 436 43 is_stmt 0 view .LVU116
 510 000a 2C4B     		ldr	r3, .L46+4
 511 000c 53F83450 		ldr	r5, [r3, r4, lsl #3]
 512              		.loc 1 436 62 view .LVU117
 513 0010 03EBC403 		add	r3, r3, r4, lsl #3
 514 0014 9E88     		ldrh	r6, [r3, #4]
 515              		.loc 1 436 13 view .LVU118
 516 0016 0122     		movs	r2, #1
 517 0018 3146     		mov	r1, r6
 518 001a 2846     		mov	r0, r5
 519 001c FFF7FEFF 		bl	HAL_GPIO_WritePin
 520              	.LVL40:
 437:./Application/Src/command.c ****             wait_ms(300);
 521              		.loc 1 437 13 is_stmt 1 view .LVU119
 522 0020 4FF49670 		mov	r0, #300
 523 0024 FFF7FEFF 		bl	wait_ms
 524              	.LVL41:
 438:./Application/Src/command.c ****             HAL_GPIO_WritePin(solenoids[i].port, solenoids[i].pin, GPIO_PIN_RESET);
 525              		.loc 1 438 13 view .LVU120
 526 0028 0022     		movs	r2, #0
 527 002a 3146     		mov	r1, r6
 528 002c 2846     		mov	r0, r5
 529 002e FFF7FEFF 		bl	HAL_GPIO_WritePin
 530              	.LVL42:
 439:./Application/Src/command.c ****             wait_ms(300);
 531              		.loc 1 439 13 view .LVU121
 532 0032 4FF49670 		mov	r0, #300
 533 0036 FFF7FEFF 		bl	wait_ms
 534              	.LVL43:
 435:./Application/Src/command.c ****             HAL_GPIO_WritePin(solenoids[i].port, solenoids[i].pin, GPIO_PIN_SET);
 535              		.loc 1 435 34 discriminator 3 view .LVU122
 536 003a 0134     		adds	r4, r4, #1
 537              	.LVL44:
 538              	.L41:
 435:./Application/Src/command.c ****             HAL_GPIO_WritePin(solenoids[i].port, solenoids[i].pin, GPIO_PIN_SET);
 539              		.loc 1 435 27 discriminator 1 view .LVU123
 540 003c 092C     		cmp	r4, #9
 541 003e E4DD     		ble	.L42
 542              	.LBE13:
 440:./Application/Src/command.c ****         }
 441:./Application/Src/command.c **** 
 442:./Application/Src/command.c ****         wait_ms(1000);
 543              		.loc 1 442 9 view .LVU124
 544 0040 4FF47A70 		mov	r0, #1000
 545 0044 FFF7FEFF 		bl	wait_ms
 546              	.LVL45:
 547              	.L38:
 425:./Application/Src/command.c ****         right_motor.target_pos += 21.0f;
 548              		.loc 1 425 44 view .LVU125
 425:./Application/Src/command.c ****         right_motor.target_pos += 21.0f;
 549              		.loc 1 425 23 is_stmt 0 view .LVU126
 550 0048 1D4B     		ldr	r3, .L46+8
 551 004a D3ED057A 		vldr.32	s15, [r3, #20]
ARM GAS  C:\Users\admin\AppData\Local\Temp\ccR2JeRl.s 			page 20


 425:./Application/Src/command.c ****         right_motor.target_pos += 21.0f;
 552              		.loc 1 425 44 view .LVU127
 553 004e 9FED1D7A 		vldr.32	s14, .L46+12
 554 0052 F4EEC77A 		vcmpe.f32	s15, s14
 555 0056 F1EE10FA 		vmrs	APSR_nzcv, FPSCR
 556 005a 07D4     		bmi	.L43
 425:./Application/Src/command.c ****         right_motor.target_pos += 21.0f;
 557              		.loc 1 425 57 discriminator 1 view .LVU128
 558 005c 1A4B     		ldr	r3, .L46+16
 559 005e D3ED056A 		vldr.32	s13, [r3, #20]
 425:./Application/Src/command.c ****         right_motor.target_pos += 21.0f;
 560              		.loc 1 425 44 discriminator 1 view .LVU129
 561 0062 F4EEC76A 		vcmpe.f32	s13, s14
 562 0066 F1EE10FA 		vmrs	APSR_nzcv, FPSCR
 563 006a 20D5     		bpl	.L45
 564              	.L43:
 426:./Application/Src/command.c ****         left_motor.target_pos += 21.0f;
 565              		.loc 1 426 9 is_stmt 1 view .LVU130
 426:./Application/Src/command.c ****         left_motor.target_pos += 21.0f;
 566              		.loc 1 426 32 is_stmt 0 view .LVU131
 567 006c B3EE057A 		vmov.f32	s14, #2.1e+1
 568 0070 77EE877A 		vadd.f32	s15, s15, s14
 569 0074 124B     		ldr	r3, .L46+8
 570 0076 C3ED057A 		vstr.32	s15, [r3, #20]
 427:./Application/Src/command.c ****         wait_ms(10); // small delay so controller gets updated
 571              		.loc 1 427 9 is_stmt 1 view .LVU132
 427:./Application/Src/command.c ****         wait_ms(10); // small delay so controller gets updated
 572              		.loc 1 427 19 is_stmt 0 view .LVU133
 573 007a 134B     		ldr	r3, .L46+16
 574 007c D3ED057A 		vldr.32	s15, [r3, #20]
 427:./Application/Src/command.c ****         wait_ms(10); // small delay so controller gets updated
 575              		.loc 1 427 31 view .LVU134
 576 0080 77EE877A 		vadd.f32	s15, s15, s14
 577 0084 C3ED057A 		vstr.32	s15, [r3, #20]
 428:./Application/Src/command.c ****         while(!right_motor_arrived || !left_motor_arrived);
 578              		.loc 1 428 9 is_stmt 1 view .LVU135
 579 0088 0A20     		movs	r0, #10
 580 008a FFF7FEFF 		bl	wait_ms
 581              	.LVL46:
 429:./Application/Src/command.c **** 
 582              		.loc 1 429 9 view .LVU136
 583              	.L39:
 429:./Application/Src/command.c **** 
 584              		.loc 1 429 36 discriminator 3 view .LVU137
 429:./Application/Src/command.c **** 
 585              		.loc 1 429 15 is_stmt 0 discriminator 3 view .LVU138
 586 008e 0F4B     		ldr	r3, .L46+20
 587 0090 1B68     		ldr	r3, [r3]
 429:./Application/Src/command.c **** 
 588              		.loc 1 429 36 discriminator 3 view .LVU139
 589 0092 002B     		cmp	r3, #0
 590 0094 FBD0     		beq	.L39
 429:./Application/Src/command.c **** 
 591              		.loc 1 429 39 discriminator 2 view .LVU140
 592 0096 0E4B     		ldr	r3, .L46+24
 593 0098 1B68     		ldr	r3, [r3]
 429:./Application/Src/command.c **** 
ARM GAS  C:\Users\admin\AppData\Local\Temp\ccR2JeRl.s 			page 21


 594              		.loc 1 429 36 discriminator 2 view .LVU141
 595 009a 002B     		cmp	r3, #0
 596 009c F7D0     		beq	.L39
 432:./Application/Src/command.c ****         __HAL_TIM_SET_COMPARE(&htim1, TIM_CHANNEL_1, 500);
 597              		.loc 1 432 9 is_stmt 1 view .LVU142
 598 009e 0D4B     		ldr	r3, .L46+28
 599 00a0 1B68     		ldr	r3, [r3]
 600 00a2 4FF4FA72 		mov	r2, #500
 601 00a6 9A63     		str	r2, [r3, #56]
 433:./Application/Src/command.c **** 
 602              		.loc 1 433 9 view .LVU143
 603 00a8 5A63     		str	r2, [r3, #52]
 435:./Application/Src/command.c ****             HAL_GPIO_WritePin(solenoids[i].port, solenoids[i].pin, GPIO_PIN_SET);
 604              		.loc 1 435 9 view .LVU144
 605              	.LBB14:
 435:./Application/Src/command.c ****             HAL_GPIO_WritePin(solenoids[i].port, solenoids[i].pin, GPIO_PIN_SET);
 606              		.loc 1 435 14 view .LVU145
 607              	.LVL47:
 435:./Application/Src/command.c ****             HAL_GPIO_WritePin(solenoids[i].port, solenoids[i].pin, GPIO_PIN_SET);
 608              		.loc 1 435 18 is_stmt 0 view .LVU146
 609 00aa 0024     		movs	r4, #0
 435:./Application/Src/command.c ****             HAL_GPIO_WritePin(solenoids[i].port, solenoids[i].pin, GPIO_PIN_SET);
 610              		.loc 1 435 9 view .LVU147
 611 00ac C6E7     		b	.L41
 612              	.LVL48:
 613              	.L45:
 435:./Application/Src/command.c ****             HAL_GPIO_WritePin(solenoids[i].port, solenoids[i].pin, GPIO_PIN_SET);
 614              		.loc 1 435 9 view .LVU148
 615              	.LBE14:
 443:./Application/Src/command.c ****     }
 444:./Application/Src/command.c ****     pwm_mode = PWM_STOP;
 616              		.loc 1 444 5 is_stmt 1 view .LVU149
 617              		.loc 1 444 14 is_stmt 0 view .LVU150
 618 00ae 024B     		ldr	r3, .L46
 619 00b0 0122     		movs	r2, #1
 620 00b2 1A70     		strb	r2, [r3]
 445:./Application/Src/command.c **** }
 621              		.loc 1 445 1 view .LVU151
 622 00b4 70BD     		pop	{r4, r5, r6, pc}
 623              	.L47:
 624 00b6 00BF     		.align	2
 625              	.L46:
 626 00b8 00000000 		.word	pwm_mode
 627 00bc 00000000 		.word	solenoids
 628 00c0 00000000 		.word	right_motor
 629 00c4 00000A43 		.word	1124728832
 630 00c8 00000000 		.word	left_motor
 631 00cc 00000000 		.word	right_motor_arrived
 632 00d0 00000000 		.word	left_motor_arrived
 633 00d4 00000000 		.word	htim1
 634              		.cfi_endproc
 635              	.LFE368:
 637              		.section	.text.parse_command,"ax",%progbits
 638              		.align	1
 639              		.global	parse_command
 640              		.syntax unified
 641              		.thumb
ARM GAS  C:\Users\admin\AppData\Local\Temp\ccR2JeRl.s 			page 22


 642              		.thumb_func
 644              	parse_command:
 645              	.LVL49:
 646              	.LFB359:
  20:./Application/Src/command.c ****     /* ---- Colon commands (:p, :w, :s, :r, :d, :a) ---- */
 647              		.loc 1 20 1 is_stmt 1 view -0
 648              		.cfi_startproc
 649              		@ args = 0, pretend = 0, frame = 0
 650              		@ frame_needed = 0, uses_anonymous_args = 0
  20:./Application/Src/command.c ****     /* ---- Colon commands (:p, :w, :s, :r, :d, :a) ---- */
 651              		.loc 1 20 1 is_stmt 0 view .LVU153
 652 0000 08B5     		push	{r3, lr}
 653              	.LCFI6:
 654              		.cfi_def_cfa_offset 8
 655              		.cfi_offset 3, -8
 656              		.cfi_offset 14, -4
  22:./Application/Src/command.c ****         switch (cmd[1]){
 657              		.loc 1 22 5 is_stmt 1 view .LVU154
  22:./Application/Src/command.c ****         switch (cmd[1]){
 658              		.loc 1 22 12 is_stmt 0 view .LVU155
 659 0002 0378     		ldrb	r3, [r0]	@ zero_extendqisi2
  22:./Application/Src/command.c ****         switch (cmd[1]){
 660              		.loc 1 22 8 view .LVU156
 661 0004 3A2B     		cmp	r3, #58
 662 0006 01D0     		beq	.L85
 184:./Application/Src/command.c **** }
 663              		.loc 1 184 12 view .LVU157
 664 0008 0120     		movs	r0, #1
 665              	.LVL50:
 666              	.L48:
 185:./Application/Src/command.c **** 
 667              		.loc 1 185 1 view .LVU158
 668 000a 08BD     		pop	{r3, pc}
 669              	.LVL51:
 670              	.L85:
  23:./Application/Src/command.c ****         case 'p':{ /* :p <value> — set position in mm */
 671              		.loc 1 23 9 is_stmt 1 view .LVU159
  23:./Application/Src/command.c ****         case 'p':{ /* :p <value> — set position in mm */
 672              		.loc 1 23 20 is_stmt 0 view .LVU160
 673 000c 4378     		ldrb	r3, [r0, #1]	@ zero_extendqisi2
  23:./Application/Src/command.c ****         case 'p':{ /* :p <value> — set position in mm */
 674              		.loc 1 23 9 view .LVU161
 675 000e 712B     		cmp	r3, #113
 676 0010 00F08E80 		beq	.L50
 677 0014 30D8     		bhi	.L51
 678 0016 6C2B     		cmp	r3, #108
 679 0018 7ED0     		beq	.L52
 680 001a 0DD8     		bhi	.L53
 681 001c 622B     		cmp	r3, #98
 682 001e 00F0A580 		beq	.L54
 683 0022 642B     		cmp	r3, #100
 684 0024 66D0     		beq	.L55
 685 0026 612B     		cmp	r3, #97
 686 0028 04D1     		bne	.L86
 687              	.LBB15:
  55:./Application/Src/command.c ****             return 0;
 688              		.loc 1 55 13 is_stmt 1 view .LVU162
ARM GAS  C:\Users\admin\AppData\Local\Temp\ccR2JeRl.s 			page 23


  55:./Application/Src/command.c ****             return 0;
 689              		.loc 1 55 23 is_stmt 0 view .LVU163
 690 002a 614B     		ldr	r3, .L95
 691 002c 0122     		movs	r2, #1
 692 002e 1A60     		str	r2, [r3]
  56:./Application/Src/command.c ****         case 't': // set text in LCD
 693              		.loc 1 56 13 is_stmt 1 view .LVU164
  56:./Application/Src/command.c ****         case 't': // set text in LCD
 694              		.loc 1 56 20 is_stmt 0 view .LVU165
 695 0030 0020     		movs	r0, #0
 696              	.LVL52:
  56:./Application/Src/command.c ****         case 't': // set text in LCD
 697              		.loc 1 56 20 view .LVU166
 698 0032 EAE7     		b	.L48
 699              	.LVL53:
 700              	.L86:
 122:./Application/Src/command.c ****         }
 701              		.loc 1 122 20 view .LVU167
 702 0034 0120     		movs	r0, #1
 703              	.LVL54:
 122:./Application/Src/command.c ****         }
 704              		.loc 1 122 20 view .LVU168
 705 0036 E8E7     		b	.L48
 706              	.LVL55:
 707              	.L53:
 122:./Application/Src/command.c ****         }
 708              		.loc 1 122 20 view .LVU169
 709              	.LBE15:
  23:./Application/Src/command.c ****         case 'p':{ /* :p <value> — set position in mm */
 710              		.loc 1 23 9 view .LVU170
 711 0038 6F2B     		cmp	r3, #111
 712 003a 00F0B380 		beq	.L79
 713 003e 702B     		cmp	r3, #112
 714 0040 33D0     		beq	.L57
 715 0042 6E2B     		cmp	r3, #110
 716 0044 16D1     		bne	.L87
 717              	.LBB18:
 109:./Application/Src/command.c ****             if (menu_get_state() == MENU_STATE_DEBUG) {
 718              		.loc 1 109 13 is_stmt 1 view .LVU171
 719 0046 FFF7FEFF 		bl	load_debug_song
 720              	.LVL56:
 110:./Application/Src/command.c ****                 traversal_debug_mode();
 721              		.loc 1 110 13 view .LVU172
 110:./Application/Src/command.c ****                 traversal_debug_mode();
 722              		.loc 1 110 17 is_stmt 0 view .LVU173
 723 004a FFF7FEFF 		bl	menu_get_state
 724              	.LVL57:
 110:./Application/Src/command.c ****                 traversal_debug_mode();
 725              		.loc 1 110 16 discriminator 1 view .LVU174
 726 004e 0528     		cmp	r0, #5
 727 0050 00F0A580 		beq	.L88
 113:./Application/Src/command.c ****                 pkt_send_ui_state((uint8_t)MENU_STATE_PLAYING, 0, 0, 0);
 728              		.loc 1 113 17 is_stmt 1 view .LVU175
 729 0054 0420     		movs	r0, #4
 730 0056 FFF7FEFF 		bl	menu_set_state
 731              	.LVL58:
 114:./Application/Src/command.c ****                 traversal();
ARM GAS  C:\Users\admin\AppData\Local\Temp\ccR2JeRl.s 			page 24


 732              		.loc 1 114 17 view .LVU176
 733 005a 0023     		movs	r3, #0
 734 005c 1A46     		mov	r2, r3
 735 005e 1946     		mov	r1, r3
 736 0060 0420     		movs	r0, #4
 737 0062 FFF7FEFF 		bl	pkt_send_ui_state
 738              	.LVL59:
 115:./Application/Src/command.c ****                 menu_set_state(MENU_STATE_MAIN);
 739              		.loc 1 115 17 view .LVU177
 740 0066 FFF7FEFF 		bl	traversal
 741              	.LVL60:
 116:./Application/Src/command.c ****             }
 742              		.loc 1 116 17 view .LVU178
 743 006a 0020     		movs	r0, #0
 744 006c FFF7FEFF 		bl	menu_set_state
 745              	.LVL61:
 746              	.L77:
 118:./Application/Src/command.c **** 
 747              		.loc 1 118 13 view .LVU179
 118:./Application/Src/command.c **** 
 748              		.loc 1 118 20 is_stmt 0 view .LVU180
 749 0070 0020     		movs	r0, #0
 750 0072 CAE7     		b	.L48
 751              	.LVL62:
 752              	.L87:
 122:./Application/Src/command.c ****         }
 753              		.loc 1 122 20 view .LVU181
 754 0074 0120     		movs	r0, #1
 755              	.LVL63:
 122:./Application/Src/command.c ****         }
 756              		.loc 1 122 20 view .LVU182
 757 0076 C8E7     		b	.L48
 758              	.LVL64:
 759              	.L51:
 122:./Application/Src/command.c ****         }
 760              		.loc 1 122 20 view .LVU183
 761              	.LBE18:
  23:./Application/Src/command.c ****         case 'p':{ /* :p <value> — set position in mm */
 762              		.loc 1 23 9 view .LVU184
 763 0078 762B     		cmp	r3, #118
 764 007a 5ED0     		beq	.L59
 765 007c 08D8     		bhi	.L60
 766 007e 732B     		cmp	r3, #115
 767 0080 33D0     		beq	.L61
 768 0082 742B     		cmp	r3, #116
 769 0084 3BD0     		beq	.L62
 770 0086 722B     		cmp	r3, #114
 771 0088 40F08E80 		bne	.L80
 772 008c 0020     		movs	r0, #0
 773              	.LVL65:
  23:./Application/Src/command.c ****         case 'p':{ /* :p <value> — set position in mm */
 774              		.loc 1 23 9 view .LVU185
 775 008e BCE7     		b	.L48
 776              	.LVL66:
 777              	.L60:
  23:./Application/Src/command.c ****         case 'p':{ /* :p <value> — set position in mm */
 778              		.loc 1 23 9 view .LVU186
ARM GAS  C:\Users\admin\AppData\Local\Temp\ccR2JeRl.s 			page 25


 779 0090 782B     		cmp	r3, #120
 780 0092 49D0     		beq	.L63
 781 0094 7A2B     		cmp	r3, #122
 782 0096 43D0     		beq	.L64
 783 0098 772B     		cmp	r3, #119
 784 009a 04D1     		bne	.L89
 785              	.LBB19:
  44:./Application/Src/command.c ****             return 0;
 786              		.loc 1 44 13 is_stmt 1 view .LVU187
  44:./Application/Src/command.c ****             return 0;
 787              		.loc 1 44 26 is_stmt 0 view .LVU188
 788 009c 454B     		ldr	r3, .L95+4
 789 009e 0122     		movs	r2, #1
 790 00a0 1A60     		str	r2, [r3]
  45:./Application/Src/command.c ****         case 's': /* :s — menu move down */
 791              		.loc 1 45 13 is_stmt 1 view .LVU189
  45:./Application/Src/command.c ****         case 's': /* :s — menu move down */
 792              		.loc 1 45 20 is_stmt 0 view .LVU190
 793 00a2 0020     		movs	r0, #0
 794              	.LVL67:
  45:./Application/Src/command.c ****         case 's': /* :s — menu move down */
 795              		.loc 1 45 20 view .LVU191
 796 00a4 B1E7     		b	.L48
 797              	.LVL68:
 798              	.L89:
 122:./Application/Src/command.c ****         }
 799              		.loc 1 122 20 view .LVU192
 800 00a6 0120     		movs	r0, #1
 801              	.LVL69:
 122:./Application/Src/command.c ****         }
 802              		.loc 1 122 20 view .LVU193
 803 00a8 AFE7     		b	.L48
 804              	.LVL70:
 805              	.L57:
 806              	.LBB16:
  25:./Application/Src/command.c ****             while (*arg == ' ')
 807              		.loc 1 25 13 is_stmt 1 view .LVU194
  25:./Application/Src/command.c ****             while (*arg == ' ')
 808              		.loc 1 25 19 is_stmt 0 view .LVU195
 809 00aa C31C     		adds	r3, r0, #3
 810              	.LVL71:
  26:./Application/Src/command.c ****                 arg++;
 811              		.loc 1 26 13 is_stmt 1 view .LVU196
  26:./Application/Src/command.c ****                 arg++;
 812              		.loc 1 26 19 is_stmt 0 view .LVU197
 813 00ac 00E0     		b	.L66
 814              	.L67:
  27:./Application/Src/command.c ****             if (*arg == '\0')
 815              		.loc 1 27 17 is_stmt 1 view .LVU198
  27:./Application/Src/command.c ****             if (*arg == '\0')
 816              		.loc 1 27 20 is_stmt 0 view .LVU199
 817 00ae 0133     		adds	r3, r3, #1
 818              	.LVL72:
 819              	.L66:
  26:./Application/Src/command.c ****                 arg++;
 820              		.loc 1 26 25 is_stmt 1 view .LVU200
  26:./Application/Src/command.c ****                 arg++;
ARM GAS  C:\Users\admin\AppData\Local\Temp\ccR2JeRl.s 			page 26


 821              		.loc 1 26 20 is_stmt 0 view .LVU201
 822 00b0 1A78     		ldrb	r2, [r3]	@ zero_extendqisi2
  26:./Application/Src/command.c ****                 arg++;
 823              		.loc 1 26 25 view .LVU202
 824 00b2 202A     		cmp	r2, #32
 825 00b4 FBD0     		beq	.L67
  28:./Application/Src/command.c ****                 return 3; /* incomplete */
 826              		.loc 1 28 13 is_stmt 1 view .LVU203
  28:./Application/Src/command.c ****                 return 3; /* incomplete */
 827              		.loc 1 28 16 is_stmt 0 view .LVU204
 828 00b6 002A     		cmp	r2, #0
 829 00b8 78D0     		beq	.L81
  32:./Application/Src/command.c ****                 left_motor.target_pos = strtof(arg, NULL);
 830              		.loc 1 32 13 is_stmt 1 view .LVU205
  32:./Application/Src/command.c ****                 left_motor.target_pos = strtof(arg, NULL);
 831              		.loc 1 32 20 is_stmt 0 view .LVU206
 832 00ba 8278     		ldrb	r2, [r0, #2]	@ zero_extendqisi2
  32:./Application/Src/command.c ****                 left_motor.target_pos = strtof(arg, NULL);
 833              		.loc 1 32 16 view .LVU207
 834 00bc 6C2A     		cmp	r2, #108
 835 00be 03D0     		beq	.L90
  35:./Application/Src/command.c ****                 right_motor.target_pos = strtof(arg, NULL);
 836              		.loc 1 35 18 is_stmt 1 view .LVU208
  35:./Application/Src/command.c ****                 right_motor.target_pos = strtof(arg, NULL);
 837              		.loc 1 35 21 is_stmt 0 view .LVU209
 838 00c0 722A     		cmp	r2, #114
 839 00c2 09D0     		beq	.L91
  39:./Application/Src/command.c ****             }
 840              		.loc 1 39 24 view .LVU210
 841 00c4 0120     		movs	r0, #1
 842              	.LVL73:
  39:./Application/Src/command.c ****             }
 843              		.loc 1 39 24 view .LVU211
 844 00c6 A0E7     		b	.L48
 845              	.LVL74:
 846              	.L90:
  33:./Application/Src/command.c ****             }
 847              		.loc 1 33 17 is_stmt 1 view .LVU212
  33:./Application/Src/command.c ****             }
 848              		.loc 1 33 41 is_stmt 0 view .LVU213
 849 00c8 0021     		movs	r1, #0
 850 00ca 1846     		mov	r0, r3
 851              	.LVL75:
  33:./Application/Src/command.c ****             }
 852              		.loc 1 33 41 view .LVU214
 853 00cc FFF7FEFF 		bl	strtof
 854              	.LVL76:
  33:./Application/Src/command.c ****             }
 855              		.loc 1 33 39 discriminator 1 view .LVU215
 856 00d0 394B     		ldr	r3, .L95+8
 857 00d2 83ED050A 		vstr.32	s0, [r3, #20]
 858 00d6 06E0     		b	.L69
 859              	.LVL77:
 860              	.L91:
  36:./Application/Src/command.c ****             }
 861              		.loc 1 36 17 is_stmt 1 view .LVU216
  36:./Application/Src/command.c ****             }
ARM GAS  C:\Users\admin\AppData\Local\Temp\ccR2JeRl.s 			page 27


 862              		.loc 1 36 42 is_stmt 0 view .LVU217
 863 00d8 0021     		movs	r1, #0
 864 00da 1846     		mov	r0, r3
 865              	.LVL78:
  36:./Application/Src/command.c ****             }
 866              		.loc 1 36 42 view .LVU218
 867 00dc FFF7FEFF 		bl	strtof
 868              	.LVL79:
  36:./Application/Src/command.c ****             }
 869              		.loc 1 36 40 discriminator 1 view .LVU219
 870 00e0 364B     		ldr	r3, .L95+12
 871 00e2 83ED050A 		vstr.32	s0, [r3, #20]
 872              	.L69:
  41:./Application/Src/command.c ****         }
 873              		.loc 1 41 13 is_stmt 1 view .LVU220
  41:./Application/Src/command.c ****         }
 874              		.loc 1 41 20 is_stmt 0 view .LVU221
 875 00e6 0020     		movs	r0, #0
 876 00e8 8FE7     		b	.L48
 877              	.LVL80:
 878              	.L61:
  41:./Application/Src/command.c ****         }
 879              		.loc 1 41 20 view .LVU222
 880              	.LBE16:
  47:./Application/Src/command.c ****             return 0;
 881              		.loc 1 47 13 is_stmt 1 view .LVU223
  47:./Application/Src/command.c ****             return 0;
 882              		.loc 1 47 28 is_stmt 0 view .LVU224
 883 00ea 354B     		ldr	r3, .L95+16
 884 00ec 0122     		movs	r2, #1
 885 00ee 1A60     		str	r2, [r3]
  48:./Application/Src/command.c ****         case 'r': /* :r — reset encoder position */
 886              		.loc 1 48 13 is_stmt 1 view .LVU225
  48:./Application/Src/command.c ****         case 'r': /* :r — reset encoder position */
 887              		.loc 1 48 20 is_stmt 0 view .LVU226
 888 00f0 0020     		movs	r0, #0
 889              	.LVL81:
  48:./Application/Src/command.c ****         case 'r': /* :r — reset encoder position */
 890              		.loc 1 48 20 view .LVU227
 891 00f2 8AE7     		b	.L48
 892              	.LVL82:
 893              	.L55:
  52:./Application/Src/command.c ****             return 0;
 894              		.loc 1 52 13 is_stmt 1 view .LVU228
  52:./Application/Src/command.c ****             return 0;
 895              		.loc 1 52 24 is_stmt 0 view .LVU229
 896 00f4 334B     		ldr	r3, .L95+20
 897 00f6 0122     		movs	r2, #1
 898 00f8 1A60     		str	r2, [r3]
  53:./Application/Src/command.c ****         case 'a': /* :a — back to main menu */
 899              		.loc 1 53 13 is_stmt 1 view .LVU230
  53:./Application/Src/command.c ****         case 'a': /* :a — back to main menu */
 900              		.loc 1 53 20 is_stmt 0 view .LVU231
 901 00fa 0020     		movs	r0, #0
 902              	.LVL83:
  53:./Application/Src/command.c ****         case 'a': /* :a — back to main menu */
 903              		.loc 1 53 20 view .LVU232
ARM GAS  C:\Users\admin\AppData\Local\Temp\ccR2JeRl.s 			page 28


 904 00fc 85E7     		b	.L48
 905              	.LVL84:
 906              	.L62:
  58:./Application/Src/command.c ****             while (*arg == ' ')
 907              		.loc 1 58 13 is_stmt 1 view .LVU233
  58:./Application/Src/command.c ****             while (*arg == ' ')
 908              		.loc 1 58 19 is_stmt 0 view .LVU234
 909 00fe 0230     		adds	r0, r0, #2
 910              	.LVL85:
  59:./Application/Src/command.c ****                 arg++;
 911              		.loc 1 59 13 is_stmt 1 view .LVU235
  59:./Application/Src/command.c ****                 arg++;
 912              		.loc 1 59 19 is_stmt 0 view .LVU236
 913 0100 00E0     		b	.L70
 914              	.LVL86:
 915              	.L71:
  60:./Application/Src/command.c ****             if (*arg == '\0')
 916              		.loc 1 60 17 is_stmt 1 view .LVU237
  60:./Application/Src/command.c ****             if (*arg == '\0')
 917              		.loc 1 60 20 is_stmt 0 view .LVU238
 918 0102 0130     		adds	r0, r0, #1
 919              	.LVL87:
 920              	.L70:
  59:./Application/Src/command.c ****                 arg++;
 921              		.loc 1 59 25 is_stmt 1 view .LVU239
  59:./Application/Src/command.c ****                 arg++;
 922              		.loc 1 59 20 is_stmt 0 view .LVU240
 923 0104 0378     		ldrb	r3, [r0]	@ zero_extendqisi2
  59:./Application/Src/command.c ****                 arg++;
 924              		.loc 1 59 25 view .LVU241
 925 0106 202B     		cmp	r3, #32
 926 0108 FBD0     		beq	.L71
  61:./Application/Src/command.c ****                 return 3; /* incomplete */
 927              		.loc 1 61 13 is_stmt 1 view .LVU242
  61:./Application/Src/command.c ****                 return 3; /* incomplete */
 928              		.loc 1 61 16 is_stmt 0 view .LVU243
 929 010a 0BB9     		cbnz	r3, .L92
  62:./Application/Src/command.c ****             set_text((uint8_t *)arg);
 930              		.loc 1 62 24 view .LVU244
 931 010c 0320     		movs	r0, #3
 932              	.LVL88:
  62:./Application/Src/command.c ****             set_text((uint8_t *)arg);
 933              		.loc 1 62 24 view .LVU245
 934 010e 7CE7     		b	.L48
 935              	.LVL89:
 936              	.L92:
  63:./Application/Src/command.c ****             return 0;
 937              		.loc 1 63 13 is_stmt 1 view .LVU246
 938 0110 FFF7FEFF 		bl	set_text
 939              	.LVL90:
  64:./Application/Src/command.c ****         case 'o': // reset position
 940              		.loc 1 64 13 view .LVU247
  64:./Application/Src/command.c ****         case 'o': // reset position
 941              		.loc 1 64 20 is_stmt 0 view .LVU248
 942 0114 0020     		movs	r0, #0
 943 0116 78E7     		b	.L48
 944              	.LVL91:
ARM GAS  C:\Users\admin\AppData\Local\Temp\ccR2JeRl.s 			page 29


 945              	.L52:
  68:./Application/Src/command.c ****             return 0;
 946              		.loc 1 68 13 is_stmt 1 view .LVU249
 947 0118 FFF7FEFF 		bl	list_files_over_bt
 948              	.LVL92:
  69:./Application/Src/command.c **** 
 949              		.loc 1 69 13 view .LVU250
  69:./Application/Src/command.c **** 
 950              		.loc 1 69 20 is_stmt 0 view .LVU251
 951 011c 0020     		movs	r0, #0
 952 011e 74E7     		b	.L48
 953              	.LVL93:
 954              	.L64:
  72:./Application/Src/command.c ****             return 0;
 955              		.loc 1 72 13 is_stmt 1 view .LVU252
 956 0120 FFF7FEFF 		bl	traversal
 957              	.LVL94:
  73:./Application/Src/command.c **** 
 958              		.loc 1 73 13 view .LVU253
  73:./Application/Src/command.c **** 
 959              		.loc 1 73 20 is_stmt 0 view .LVU254
 960 0124 0020     		movs	r0, #0
 961 0126 70E7     		b	.L48
 962              	.LVL95:
 963              	.L63:
  76:./Application/Src/command.c ****             return 0;
 964              		.loc 1 76 13 is_stmt 1 view .LVU255
 965 0128 FFF7FEFF 		bl	debug_traversal
 966              	.LVL96:
  77:./Application/Src/command.c **** 
 967              		.loc 1 77 13 view .LVU256
  77:./Application/Src/command.c **** 
 968              		.loc 1 77 20 is_stmt 0 view .LVU257
 969 012c 0020     		movs	r0, #0
 970 012e 6CE7     		b	.L48
 971              	.LVL97:
 972              	.L50:
  80:./Application/Src/command.c ****             return 0;
 973              		.loc 1 80 13 is_stmt 1 view .LVU258
  80:./Application/Src/command.c ****             return 0;
 974              		.loc 1 80 26 is_stmt 0 view .LVU259
 975 0130 254B     		ldr	r3, .L95+24
 976 0132 0122     		movs	r2, #1
 977 0134 1A60     		str	r2, [r3]
  81:./Application/Src/command.c **** 
 978              		.loc 1 81 13 is_stmt 1 view .LVU260
  81:./Application/Src/command.c **** 
 979              		.loc 1 81 20 is_stmt 0 view .LVU261
 980 0136 0020     		movs	r0, #0
 981              	.LVL98:
  81:./Application/Src/command.c **** 
 982              		.loc 1 81 20 view .LVU262
 983 0138 67E7     		b	.L48
 984              	.LVL99:
 985              	.L59:
  85:./Application/Src/command.c ****             if (menu_get_state() == MENU_STATE_DEBUG) {
 986              		.loc 1 85 13 is_stmt 1 view .LVU263
ARM GAS  C:\Users\admin\AppData\Local\Temp\ccR2JeRl.s 			page 30


 987 013a FFF7FEFF 		bl	load_debug_song2
 988              	.LVL100:
  86:./Application/Src/command.c ****                 traversal_debug_mode();
 989              		.loc 1 86 13 view .LVU264
  86:./Application/Src/command.c ****                 traversal_debug_mode();
 990              		.loc 1 86 17 is_stmt 0 view .LVU265
 991 013e FFF7FEFF 		bl	menu_get_state
 992              	.LVL101:
  86:./Application/Src/command.c ****                 traversal_debug_mode();
 993              		.loc 1 86 16 discriminator 1 view .LVU266
 994 0142 0528     		cmp	r0, #5
 995 0144 0FD0     		beq	.L93
  89:./Application/Src/command.c ****                 pkt_send_ui_state((uint8_t)MENU_STATE_PLAYING, 0, 0, 0);
 996              		.loc 1 89 17 is_stmt 1 view .LVU267
 997 0146 0420     		movs	r0, #4
 998 0148 FFF7FEFF 		bl	menu_set_state
 999              	.LVL102:
  90:./Application/Src/command.c ****                 traversal();
 1000              		.loc 1 90 17 view .LVU268
 1001 014c 0023     		movs	r3, #0
 1002 014e 1A46     		mov	r2, r3
 1003 0150 1946     		mov	r1, r3
 1004 0152 0420     		movs	r0, #4
 1005 0154 FFF7FEFF 		bl	pkt_send_ui_state
 1006              	.LVL103:
  91:./Application/Src/command.c ****                 menu_set_state(MENU_STATE_MAIN);
 1007              		.loc 1 91 17 view .LVU269
 1008 0158 FFF7FEFF 		bl	traversal
 1009              	.LVL104:
  92:./Application/Src/command.c ****             }
 1010              		.loc 1 92 17 view .LVU270
 1011 015c 0020     		movs	r0, #0
 1012 015e FFF7FEFF 		bl	menu_set_state
 1013              	.LVL105:
 1014              	.L73:
  94:./Application/Src/command.c **** 
 1015              		.loc 1 94 13 view .LVU271
  94:./Application/Src/command.c **** 
 1016              		.loc 1 94 20 is_stmt 0 view .LVU272
 1017 0162 0020     		movs	r0, #0
 1018 0164 51E7     		b	.L48
 1019              	.L93:
  87:./Application/Src/command.c ****             } else {
 1020              		.loc 1 87 17 is_stmt 1 view .LVU273
 1021 0166 FFF7FEFF 		bl	traversal_debug_mode
 1022              	.LVL106:
 1023 016a FAE7     		b	.L73
 1024              	.LVL107:
 1025              	.L54:
  97:./Application/Src/command.c ****             if (menu_get_state() == MENU_STATE_DEBUG) {
 1026              		.loc 1 97 13 view .LVU274
 1027 016c FFF7FEFF 		bl	load_debug_song3
 1028              	.LVL108:
  98:./Application/Src/command.c ****                 traversal_debug_mode();
 1029              		.loc 1 98 13 view .LVU275
  98:./Application/Src/command.c ****                 traversal_debug_mode();
 1030              		.loc 1 98 17 is_stmt 0 view .LVU276
ARM GAS  C:\Users\admin\AppData\Local\Temp\ccR2JeRl.s 			page 31


 1031 0170 FFF7FEFF 		bl	menu_get_state
 1032              	.LVL109:
  98:./Application/Src/command.c ****                 traversal_debug_mode();
 1033              		.loc 1 98 16 discriminator 1 view .LVU277
 1034 0174 0528     		cmp	r0, #5
 1035 0176 0FD0     		beq	.L94
 101:./Application/Src/command.c ****                 pkt_send_ui_state((uint8_t)MENU_STATE_PLAYING, 0, 0, 0);
 1036              		.loc 1 101 17 is_stmt 1 view .LVU278
 1037 0178 0420     		movs	r0, #4
 1038 017a FFF7FEFF 		bl	menu_set_state
 1039              	.LVL110:
 102:./Application/Src/command.c ****                 traversal();
 1040              		.loc 1 102 17 view .LVU279
 1041 017e 0023     		movs	r3, #0
 1042 0180 1A46     		mov	r2, r3
 1043 0182 1946     		mov	r1, r3
 1044 0184 0420     		movs	r0, #4
 1045 0186 FFF7FEFF 		bl	pkt_send_ui_state
 1046              	.LVL111:
 103:./Application/Src/command.c ****                 menu_set_state(MENU_STATE_MAIN);
 1047              		.loc 1 103 17 view .LVU280
 1048 018a FFF7FEFF 		bl	traversal
 1049              	.LVL112:
 104:./Application/Src/command.c ****             }
 1050              		.loc 1 104 17 view .LVU281
 1051 018e 0020     		movs	r0, #0
 1052 0190 FFF7FEFF 		bl	menu_set_state
 1053              	.LVL113:
 1054              	.L75:
 106:./Application/Src/command.c **** 
 1055              		.loc 1 106 13 view .LVU282
 106:./Application/Src/command.c **** 
 1056              		.loc 1 106 20 is_stmt 0 view .LVU283
 1057 0194 0020     		movs	r0, #0
 1058 0196 38E7     		b	.L48
 1059              	.L94:
  99:./Application/Src/command.c ****             } else {
 1060              		.loc 1 99 17 is_stmt 1 view .LVU284
 1061 0198 FFF7FEFF 		bl	traversal_debug_mode
 1062              	.LVL114:
 1063 019c FAE7     		b	.L75
 1064              	.L88:
 111:./Application/Src/command.c ****             } else {
 1065              		.loc 1 111 17 view .LVU285
 1066 019e FFF7FEFF 		bl	traversal_debug_mode
 1067              	.LVL115:
 1068 01a2 65E7     		b	.L77
 1069              	.LVL116:
 1070              	.L79:
 111:./Application/Src/command.c ****             } else {
 1071              		.loc 1 111 17 is_stmt 0 view .LVU286
 1072              	.LBE19:
  23:./Application/Src/command.c ****         case 'p':{ /* :p <value> — set position in mm */
 1073              		.loc 1 23 9 view .LVU287
 1074 01a4 0020     		movs	r0, #0
 1075              	.LVL117:
  23:./Application/Src/command.c ****         case 'p':{ /* :p <value> — set position in mm */
ARM GAS  C:\Users\admin\AppData\Local\Temp\ccR2JeRl.s 			page 32


 1076              		.loc 1 23 9 view .LVU288
 1077 01a6 30E7     		b	.L48
 1078              	.LVL118:
 1079              	.L80:
 1080              	.LBB20:
 122:./Application/Src/command.c ****         }
 1081              		.loc 1 122 20 view .LVU289
 1082 01a8 0120     		movs	r0, #1
 1083              	.LVL119:
 122:./Application/Src/command.c ****         }
 1084              		.loc 1 122 20 view .LVU290
 1085 01aa 2EE7     		b	.L48
 1086              	.LVL120:
 1087              	.L81:
 1088              	.LBB17:
  29:./Application/Src/command.c **** 
 1089              		.loc 1 29 24 view .LVU291
 1090 01ac 0320     		movs	r0, #3
 1091              	.LVL121:
  29:./Application/Src/command.c **** 
 1092              		.loc 1 29 24 view .LVU292
 1093 01ae 2CE7     		b	.L48
 1094              	.L96:
 1095              		.align	2
 1096              	.L95:
 1097 01b0 00000000 		.word	menu_back
 1098 01b4 00000000 		.word	menu_move_up
 1099 01b8 00000000 		.word	left_motor
 1100 01bc 00000000 		.word	right_motor
 1101 01c0 00000000 		.word	menu_move_down
 1102 01c4 00000000 		.word	menu_enter
 1103 01c8 00000000 		.word	stop_playing
 1104              	.LBE17:
 1105              	.LBE20:
 1106              		.cfi_endproc
 1107              	.LFE359:
 1109              		.section	.rodata.execute_command.str1.4,"aMS",%progbits,1
 1110              		.align	2
 1111              	.LC0:
 1112 0000 4F4B2E20 		.ascii	"OK.                      \000"
 1112      20202020 
 1112      20202020 
 1112      20202020 
 1112      20202020 
 1113 001a 0000     		.align	2
 1114              	.LC1:
 1115 001c 20202020 		.ascii	"                         \000"
 1115      20202020 
 1115      20202020 
 1115      20202020 
 1115      20202020 
 1116 0036 0000     		.align	2
 1117              	.LC2:
 1118 0038 43616E6E 		.ascii	"Cannot parse!            \000"
 1118      6F742070 
 1118      61727365 
 1118      21202020 
ARM GAS  C:\Users\admin\AppData\Local\Temp\ccR2JeRl.s 			page 33


 1118      20202020 
 1119 0052 0000     		.align	2
 1120              	.LC3:
 1121 0054 456D7074 		.ascii	"Empty command!           \000"
 1121      7920636F 
 1121      6D6D616E 
 1121      64212020 
 1121      20202020 
 1122 006e 0000     		.align	2
 1123              	.LC4:
 1124 0070 496E636F 		.ascii	"Incomplete command!      \000"
 1124      6D706C65 
 1124      74652063 
 1124      6F6D6D61 
 1124      6E642120 
 1125              		.section	.text.execute_command,"ax",%progbits
 1126              		.align	1
 1127              		.global	execute_command
 1128              		.syntax unified
 1129              		.thumb
 1130              		.thumb_func
 1132              	execute_command:
 1133              	.LVL122:
 1134              	.LFB360:
 188:./Application/Src/command.c ****     int result = parse_command(command);
 1135              		.loc 1 188 1 is_stmt 1 view -0
 1136              		.cfi_startproc
 1137              		@ args = 0, pretend = 0, frame = 0
 1138              		@ frame_needed = 0, uses_anonymous_args = 0
 188:./Application/Src/command.c ****     int result = parse_command(command);
 1139              		.loc 1 188 1 is_stmt 0 view .LVU294
 1140 0000 30B5     		push	{r4, r5, lr}
 1141              	.LCFI7:
 1142              		.cfi_def_cfa_offset 12
 1143              		.cfi_offset 4, -12
 1144              		.cfi_offset 5, -8
 1145              		.cfi_offset 14, -4
 1146 0002 83B0     		sub	sp, sp, #12
 1147              	.LCFI8:
 1148              		.cfi_def_cfa_offset 24
 1149 0004 0546     		mov	r5, r0
 189:./Application/Src/command.c ****     if (result == 0)
 1150              		.loc 1 189 5 is_stmt 1 view .LVU295
 189:./Application/Src/command.c ****     if (result == 0)
 1151              		.loc 1 189 18 is_stmt 0 view .LVU296
 1152 0006 FFF7FEFF 		bl	parse_command
 1153              	.LVL123:
 190:./Application/Src/command.c ****     {
 1154              		.loc 1 190 5 is_stmt 1 view .LVU297
 190:./Application/Src/command.c ****     {
 1155              		.loc 1 190 8 is_stmt 0 view .LVU298
 1156 000a 38B1     		cbz	r0, .L103
 195:./Application/Src/command.c ****     {
 1157              		.loc 1 195 10 is_stmt 1 view .LVU299
 195:./Application/Src/command.c ****     {
 1158              		.loc 1 195 13 is_stmt 0 view .LVU300
 1159 000c 0128     		cmp	r0, #1
ARM GAS  C:\Users\admin\AppData\Local\Temp\ccR2JeRl.s 			page 34


 1160 000e 16D0     		beq	.L104
 200:./Application/Src/command.c ****     {
 1161              		.loc 1 200 10 is_stmt 1 view .LVU301
 200:./Application/Src/command.c ****     {
 1162              		.loc 1 200 13 is_stmt 0 view .LVU302
 1163 0010 0228     		cmp	r0, #2
 1164 0012 26D0     		beq	.L105
 204:./Application/Src/command.c ****     {
 1165              		.loc 1 204 10 is_stmt 1 view .LVU303
 204:./Application/Src/command.c ****     {
 1166              		.loc 1 204 13 is_stmt 0 view .LVU304
 1167 0014 0328     		cmp	r0, #3
 1168 0016 2ED0     		beq	.L106
 1169              	.LVL124:
 1170              	.L97:
 209:./Application/Src/command.c **** 
 1171              		.loc 1 209 1 view .LVU305
 1172 0018 03B0     		add	sp, sp, #12
 1173              	.LCFI9:
 1174              		.cfi_remember_state
 1175              		.cfi_def_cfa_offset 12
 1176              		@ sp needed
 1177 001a 30BD     		pop	{r4, r5, pc}
 1178              	.LVL125:
 1179              	.L103:
 1180              	.LCFI10:
 1181              		.cfi_restore_state
 192:./Application/Src/command.c ****         LCD_draw_string(0, 15, "                         ", COLOR_BLACK, COLOR_WHITE);
 1182              		.loc 1 192 9 is_stmt 1 view .LVU306
 1183 001c 4FF6FF73 		movw	r3, #65535
 1184 0020 1C46     		mov	r4, r3
 1185 0022 0093     		str	r3, [sp]
 1186 0024 0346     		mov	r3, r0
 1187 0026 1D4A     		ldr	r2, .L107
 1188 0028 0E21     		movs	r1, #14
 1189 002a FFF7FEFF 		bl	LCD_draw_string
 1190              	.LVL126:
 193:./Application/Src/command.c ****     }
 1191              		.loc 1 193 9 view .LVU307
 1192 002e 0094     		str	r4, [sp]
 1193 0030 0023     		movs	r3, #0
 1194 0032 1B4A     		ldr	r2, .L107+4
 1195 0034 0F21     		movs	r1, #15
 1196 0036 1846     		mov	r0, r3
 1197 0038 FFF7FEFF 		bl	LCD_draw_string
 1198              	.LVL127:
 1199 003c ECE7     		b	.L97
 1200              	.LVL128:
 1201              	.L104:
 197:./Application/Src/command.c ****         LCD_draw_string(0, 15, (char*)command, COLOR_BLACK, COLOR_WHITE);
 1202              		.loc 1 197 9 view .LVU308
 1203 003e 4FF6FF73 		movw	r3, #65535
 1204 0042 1C46     		mov	r4, r3
 1205 0044 0093     		str	r3, [sp]
 1206 0046 0023     		movs	r3, #0
 1207 0048 164A     		ldr	r2, .L107+8
 1208 004a 0E21     		movs	r1, #14
ARM GAS  C:\Users\admin\AppData\Local\Temp\ccR2JeRl.s 			page 35


 1209 004c 1846     		mov	r0, r3
 1210              	.LVL129:
 197:./Application/Src/command.c ****         LCD_draw_string(0, 15, (char*)command, COLOR_BLACK, COLOR_WHITE);
 1211              		.loc 1 197 9 is_stmt 0 view .LVU309
 1212 004e FFF7FEFF 		bl	LCD_draw_string
 1213              	.LVL130:
 198:./Application/Src/command.c ****     }
 1214              		.loc 1 198 9 is_stmt 1 view .LVU310
 1215 0052 0094     		str	r4, [sp]
 1216 0054 0023     		movs	r3, #0
 1217 0056 2A46     		mov	r2, r5
 1218 0058 0F21     		movs	r1, #15
 1219 005a 1846     		mov	r0, r3
 1220 005c FFF7FEFF 		bl	LCD_draw_string
 1221              	.LVL131:
 1222 0060 DAE7     		b	.L97
 1223              	.LVL132:
 1224              	.L105:
 202:./Application/Src/command.c ****     }
 1225              		.loc 1 202 9 view .LVU311
 1226 0062 4FF6FF73 		movw	r3, #65535
 1227 0066 0093     		str	r3, [sp]
 1228 0068 0023     		movs	r3, #0
 1229 006a 0F4A     		ldr	r2, .L107+12
 1230 006c 0E21     		movs	r1, #14
 1231 006e 1846     		mov	r0, r3
 1232              	.LVL133:
 202:./Application/Src/command.c ****     }
 1233              		.loc 1 202 9 is_stmt 0 view .LVU312
 1234 0070 FFF7FEFF 		bl	LCD_draw_string
 1235              	.LVL134:
 1236 0074 D0E7     		b	.L97
 1237              	.LVL135:
 1238              	.L106:
 206:./Application/Src/command.c ****         LCD_draw_string(0, 15, (char*)command, COLOR_BLACK, COLOR_WHITE);
 1239              		.loc 1 206 9 is_stmt 1 view .LVU313
 1240 0076 4FF6FF73 		movw	r3, #65535
 1241 007a 1C46     		mov	r4, r3
 1242 007c 0093     		str	r3, [sp]
 1243 007e 0023     		movs	r3, #0
 1244 0080 0A4A     		ldr	r2, .L107+16
 1245 0082 0E21     		movs	r1, #14
 1246 0084 1846     		mov	r0, r3
 1247              	.LVL136:
 206:./Application/Src/command.c ****         LCD_draw_string(0, 15, (char*)command, COLOR_BLACK, COLOR_WHITE);
 1248              		.loc 1 206 9 is_stmt 0 view .LVU314
 1249 0086 FFF7FEFF 		bl	LCD_draw_string
 1250              	.LVL137:
 207:./Application/Src/command.c ****     }
 1251              		.loc 1 207 9 is_stmt 1 view .LVU315
 1252 008a 0094     		str	r4, [sp]
 1253 008c 0023     		movs	r3, #0
 1254 008e 2A46     		mov	r2, r5
 1255 0090 0F21     		movs	r1, #15
 1256 0092 1846     		mov	r0, r3
 1257 0094 FFF7FEFF 		bl	LCD_draw_string
 1258              	.LVL138:
ARM GAS  C:\Users\admin\AppData\Local\Temp\ccR2JeRl.s 			page 36


 209:./Application/Src/command.c **** 
 1259              		.loc 1 209 1 is_stmt 0 view .LVU316
 1260 0098 BEE7     		b	.L97
 1261              	.L108:
 1262 009a 00BF     		.align	2
 1263              	.L107:
 1264 009c 00000000 		.word	.LC0
 1265 00a0 1C000000 		.word	.LC1
 1266 00a4 38000000 		.word	.LC2
 1267 00a8 54000000 		.word	.LC3
 1268 00ac 70000000 		.word	.LC4
 1269              		.cfi_endproc
 1270              	.LFE360:
 1272              		.section	.rodata.traversal.str1.4,"aMS",%progbits,1
 1273              		.align	2
 1274              	.LC5:
 1275 0000 4E6F2053 		.ascii	"No Song loaded!     \000"
 1275      6F6E6720 
 1275      6C6F6164 
 1275      65642120 
 1275      20202020 
 1276 0015 000000   		.align	2
 1277              	.LC6:
 1278 0018 20202020 		.ascii	"                        \000"
 1278      20202020 
 1278      20202020 
 1278      20202020 
 1278      20202020 
 1279 0031 000000   		.align	2
 1280              	.LC7:
 1281 0034 5B506C61 		.ascii	"[Playing Song]          \000"
 1281      79696E67 
 1281      20536F6E 
 1281      675D2020 
 1281      20202020 
 1282 004d 000000   		.align	2
 1283              	.LC8:
 1284 0050 3A712074 		.ascii	":q to stop              \000"
 1284      6F207374 
 1284      6F702020 
 1284      20202020 
 1284      20202020 
 1285 0069 000000   		.align	2
 1286              	.LC9:
 1287 006c 536F6E67 		.ascii	"Song ends     \000"
 1287      20656E64 
 1287      73202020 
 1287      202000
 1288 007b 00       		.align	2
 1289              	.LC10:
 1290 007c 53746F70 		.ascii	"Stopped by user     \000"
 1290      70656420 
 1290      62792075 
 1290      73657220 
 1290      20202020 
 1291              		.section	.text.traversal,"ax",%progbits
 1292              		.align	1
ARM GAS  C:\Users\admin\AppData\Local\Temp\ccR2JeRl.s 			page 37


 1293              		.global	traversal
 1294              		.syntax unified
 1295              		.thumb
 1296              		.thumb_func
 1298              	traversal:
 1299              	.LFB366:
 278:./Application/Src/command.c **** 
 1300              		.loc 1 278 21 is_stmt 1 view -0
 1301              		.cfi_startproc
 1302              		@ args = 0, pretend = 0, frame = 0
 1303              		@ frame_needed = 0, uses_anonymous_args = 0
 1304 0000 2DE9F041 		push	{r4, r5, r6, r7, r8, lr}
 1305              	.LCFI11:
 1306              		.cfi_def_cfa_offset 24
 1307              		.cfi_offset 4, -24
 1308              		.cfi_offset 5, -20
 1309              		.cfi_offset 6, -16
 1310              		.cfi_offset 7, -12
 1311              		.cfi_offset 8, -8
 1312              		.cfi_offset 14, -4
 1313 0004 82B0     		sub	sp, sp, #8
 1314              	.LCFI12:
 1315              		.cfi_def_cfa_offset 32
 280:./Application/Src/command.c ****     uint16_t traversal_index = 0;
 1316              		.loc 1 280 5 view .LVU318
 280:./Application/Src/command.c ****     uint16_t traversal_index = 0;
 1317              		.loc 1 280 14 is_stmt 0 view .LVU319
 1318 0006 7D4B     		ldr	r3, .L128
 1319 0008 0022     		movs	r2, #0
 1320 000a 1A70     		strb	r2, [r3]
 281:./Application/Src/command.c ****     if (chord_events[traversal_index].positions[0] == 0.0f && chord_events[traversal_index].positio
 1321              		.loc 1 281 5 is_stmt 1 view .LVU320
 1322              	.LVL139:
 282:./Application/Src/command.c ****         LCD_draw_string(0, 9, "No Song loaded!     ", COLOR_BLACK, COLOR_WHITE);
 1323              		.loc 1 282 5 view .LVU321
 282:./Application/Src/command.c ****         LCD_draw_string(0, 9, "No Song loaded!     ", COLOR_BLACK, COLOR_WHITE);
 1324              		.loc 1 282 48 is_stmt 0 view .LVU322
 1325 000c 7C4B     		ldr	r3, .L128+4
 1326 000e D3ED007A 		vldr.32	s15, [r3]
 282:./Application/Src/command.c ****         LCD_draw_string(0, 9, "No Song loaded!     ", COLOR_BLACK, COLOR_WHITE);
 1327              		.loc 1 282 8 view .LVU323
 1328 0012 F5EE407A 		vcmp.f32	s15, #0
 1329 0016 F1EE10FA 		vmrs	APSR_nzcv, FPSCR
 1330 001a 06D1     		bne	.L110
 282:./Application/Src/command.c ****         LCD_draw_string(0, 9, "No Song loaded!     ", COLOR_BLACK, COLOR_WHITE);
 1331              		.loc 1 282 102 discriminator 1 view .LVU324
 1332 001c D3ED017A 		vldr.32	s15, [r3, #4]
 282:./Application/Src/command.c ****         LCD_draw_string(0, 9, "No Song loaded!     ", COLOR_BLACK, COLOR_WHITE);
 1333              		.loc 1 282 60 discriminator 1 view .LVU325
 1334 0020 F5EE407A 		vcmp.f32	s15, #0
 1335 0024 F1EE10FA 		vmrs	APSR_nzcv, FPSCR
 1336 0028 04D0     		beq	.L124
 1337              	.L110:
 288:./Application/Src/command.c **** 
 1338              		.loc 1 288 5 is_stmt 1 view .LVU326
 288:./Application/Src/command.c **** 
 1339              		.loc 1 288 29 is_stmt 0 view .LVU327
ARM GAS  C:\Users\admin\AppData\Local\Temp\ccR2JeRl.s 			page 38


 1340 002a FFF7FEFF 		bl	count_total_chords
 1341              	.LVL140:
 1342 002e 0646     		mov	r6, r0
 1343              	.LVL141:
 291:./Application/Src/command.c ****         LCD_draw_string(0, r, "                        ", COLOR_BLACK, COLOR_WHITE);
 1344              		.loc 1 291 5 is_stmt 1 view .LVU328
 1345              	.LBB21:
 291:./Application/Src/command.c ****         LCD_draw_string(0, r, "                        ", COLOR_BLACK, COLOR_WHITE);
 1346              		.loc 1 291 10 view .LVU329
 291:./Application/Src/command.c ****         LCD_draw_string(0, r, "                        ", COLOR_BLACK, COLOR_WHITE);
 1347              		.loc 1 291 14 is_stmt 0 view .LVU330
 1348 0030 0124     		movs	r4, #1
 291:./Application/Src/command.c ****         LCD_draw_string(0, r, "                        ", COLOR_BLACK, COLOR_WHITE);
 1349              		.loc 1 291 5 view .LVU331
 1350 0032 18E0     		b	.L112
 1351              	.LVL142:
 1352              	.L124:
 291:./Application/Src/command.c ****         LCD_draw_string(0, r, "                        ", COLOR_BLACK, COLOR_WHITE);
 1353              		.loc 1 291 5 view .LVU332
 1354              	.LBE21:
 283:./Application/Src/command.c ****         pkt_send_play_status(2, 0, 0); /* 2 = error/no song */
 1355              		.loc 1 283 9 is_stmt 1 view .LVU333
 1356 0034 4FF6FF73 		movw	r3, #65535
 1357 0038 0093     		str	r3, [sp]
 1358 003a 1346     		mov	r3, r2
 1359 003c 714A     		ldr	r2, .L128+8
 1360 003e 0921     		movs	r1, #9
 1361 0040 1846     		mov	r0, r3
 1362 0042 FFF7FEFF 		bl	LCD_draw_string
 1363              	.LVL143:
 284:./Application/Src/command.c ****         return;
 1364              		.loc 1 284 9 view .LVU334
 1365 0046 0022     		movs	r2, #0
 1366 0048 1146     		mov	r1, r2
 1367 004a 0220     		movs	r0, #2
 1368 004c FFF7FEFF 		bl	pkt_send_play_status
 1369              	.LVL144:
 285:./Application/Src/command.c ****     }
 1370              		.loc 1 285 9 view .LVU335
 1371 0050 D0E0     		b	.L109
 1372              	.LVL145:
 1373              	.L113:
 1374              	.LBB22:
 292:./Application/Src/command.c ****     LCD_draw_string(0, 1, "[Playing Song]          ", COLOR_BLACK, COLOR_WHITE);
 1375              		.loc 1 292 9 view .LVU336
 1376 0052 4FF6FF73 		movw	r3, #65535
 1377 0056 0093     		str	r3, [sp]
 1378 0058 0023     		movs	r3, #0
 1379 005a 6B4A     		ldr	r2, .L128+12
 1380 005c A1B2     		uxth	r1, r4
 1381 005e 1846     		mov	r0, r3
 1382 0060 FFF7FEFF 		bl	LCD_draw_string
 1383              	.LVL146:
 291:./Application/Src/command.c ****         LCD_draw_string(0, r, "                        ", COLOR_BLACK, COLOR_WHITE);
 1384              		.loc 1 291 30 discriminator 3 view .LVU337
 1385 0064 0134     		adds	r4, r4, #1
 1386              	.LVL147:
ARM GAS  C:\Users\admin\AppData\Local\Temp\ccR2JeRl.s 			page 39


 1387              	.L112:
 291:./Application/Src/command.c ****         LCD_draw_string(0, r, "                        ", COLOR_BLACK, COLOR_WHITE);
 1388              		.loc 1 291 23 discriminator 1 view .LVU338
 1389 0066 092C     		cmp	r4, #9
 1390 0068 F3DD     		ble	.L113
 1391              	.LBE22:
 293:./Application/Src/command.c ****     LCD_draw_string(0, 8, ":q to stop              ", COLOR_BLACK, COLOR_WHITE);
 1392              		.loc 1 293 5 view .LVU339
 1393 006a 4FF6FF74 		movw	r4, #65535
 1394              	.LVL148:
 293:./Application/Src/command.c ****     LCD_draw_string(0, 8, ":q to stop              ", COLOR_BLACK, COLOR_WHITE);
 1395              		.loc 1 293 5 is_stmt 0 view .LVU340
 1396 006e 0094     		str	r4, [sp]
 1397 0070 0023     		movs	r3, #0
 1398 0072 664A     		ldr	r2, .L128+16
 1399 0074 0121     		movs	r1, #1
 1400 0076 1846     		mov	r0, r3
 1401 0078 FFF7FEFF 		bl	LCD_draw_string
 1402              	.LVL149:
 294:./Application/Src/command.c **** 
 1403              		.loc 1 294 5 is_stmt 1 view .LVU341
 1404 007c 0094     		str	r4, [sp]
 1405 007e 0023     		movs	r3, #0
 1406 0080 634A     		ldr	r2, .L128+20
 1407 0082 0821     		movs	r1, #8
 1408 0084 1846     		mov	r0, r3
 1409 0086 FFF7FEFF 		bl	LCD_draw_string
 1410              	.LVL150:
 296:./Application/Src/command.c **** 
 1411              		.loc 1 296 5 view .LVU342
 1412 008a 3246     		mov	r2, r6
 1413 008c 0021     		movs	r1, #0
 1414 008e 0120     		movs	r0, #1
 1415 0090 FFF7FEFF 		bl	pkt_send_play_status
 1416              	.LVL151:
 281:./Application/Src/command.c ****     if (chord_events[traversal_index].positions[0] == 0.0f && chord_events[traversal_index].positio
 1417              		.loc 1 281 14 is_stmt 0 view .LVU343
 1418 0094 0024     		movs	r4, #0
 1419 0096 30E0     		b	.L122
 1420              	.LVL152:
 1421              	.L114:
 307:./Application/Src/command.c ****             uint16_t cmd_len = rx_valid;
 1422              		.loc 1 307 9 is_stmt 1 view .LVU344
 307:./Application/Src/command.c ****             uint16_t cmd_len = rx_valid;
 1423              		.loc 1 307 13 is_stmt 0 view .LVU345
 1424 0098 5E4B     		ldr	r3, .L128+24
 1425 009a 1B68     		ldr	r3, [r3]
 307:./Application/Src/command.c ****             uint16_t cmd_len = rx_valid;
 1426              		.loc 1 307 12 view .LVU346
 1427 009c 002B     		cmp	r3, #0
 1428 009e 57D1     		bne	.L125
 1429              	.L115:
 320:./Application/Src/command.c ****             LCD_draw_string(0, 9, "Stopped by user     ", COLOR_BLACK, COLOR_WHITE);
 1430              		.loc 1 320 9 is_stmt 1 view .LVU347
 320:./Application/Src/command.c ****             LCD_draw_string(0, 9, "Stopped by user     ", COLOR_BLACK, COLOR_WHITE);
 1431              		.loc 1 320 13 is_stmt 0 view .LVU348
 1432 00a0 5D4B     		ldr	r3, .L128+28
ARM GAS  C:\Users\admin\AppData\Local\Temp\ccR2JeRl.s 			page 40


 1433 00a2 1B68     		ldr	r3, [r3]
 320:./Application/Src/command.c ****             LCD_draw_string(0, 9, "Stopped by user     ", COLOR_BLACK, COLOR_WHITE);
 1434              		.loc 1 320 12 view .LVU349
 1435 00a4 002B     		cmp	r3, #0
 1436 00a6 76D1     		bne	.L126
 340:./Application/Src/command.c ****         right_motor.target_pos = chord_events[traversal_index].positions[1];
 1437              		.loc 1 340 9 is_stmt 1 view .LVU350
 340:./Application/Src/command.c ****         right_motor.target_pos = chord_events[traversal_index].positions[1];
 1438              		.loc 1 340 72 is_stmt 0 view .LVU351
 1439 00a8 554B     		ldr	r3, .L128+4
 1440 00aa 05EB4502 		add	r2, r5, r5, lsl #1
 1441 00ae 03EBC202 		add	r2, r3, r2, lsl #3
 1442 00b2 1168     		ldr	r1, [r2]	@ float
 340:./Application/Src/command.c ****         right_motor.target_pos = chord_events[traversal_index].positions[1];
 1443              		.loc 1 340 31 view .LVU352
 1444 00b4 594A     		ldr	r2, .L128+32
 1445 00b6 5161     		str	r1, [r2, #20]	@ float
 341:./Application/Src/command.c **** 
 1446              		.loc 1 341 9 is_stmt 1 view .LVU353
 341:./Application/Src/command.c **** 
 1447              		.loc 1 341 73 is_stmt 0 view .LVU354
 1448 00b8 05EB4505 		add	r5, r5, r5, lsl #1
 1449 00bc 03EBC503 		add	r3, r3, r5, lsl #3
 1450 00c0 5A68     		ldr	r2, [r3, #4]	@ float
 341:./Application/Src/command.c **** 
 1451              		.loc 1 341 32 view .LVU355
 1452 00c2 574B     		ldr	r3, .L128+36
 1453 00c4 5A61     		str	r2, [r3, #20]	@ float
 343:./Application/Src/command.c **** 
 1454              		.loc 1 343 9 is_stmt 1 view .LVU356
 1455 00c6 0520     		movs	r0, #5
 1456 00c8 FFF7FEFF 		bl	wait_ms
 1457              	.LVL153:
 347:./Application/Src/command.c ****         pkt_send_heartbeat();
 1458              		.loc 1 347 9 view .LVU357
 1459 00cc 3246     		mov	r2, r6
 1460 00ce 2146     		mov	r1, r4
 1461 00d0 0120     		movs	r0, #1
 1462 00d2 FFF7FEFF 		bl	pkt_send_play_status
 1463              	.LVL154:
 348:./Application/Src/command.c **** 
 1464              		.loc 1 348 9 view .LVU358
 1465 00d6 FFF7FEFF 		bl	pkt_send_heartbeat
 1466              	.LVL155:
 350:./Application/Src/command.c **** 
 1467              		.loc 1 350 9 view .LVU359
 1468              	.L120:
 350:./Application/Src/command.c **** 
 1469              		.loc 1 350 39 discriminator 3 view .LVU360
 350:./Application/Src/command.c **** 
 1470              		.loc 1 350 34 is_stmt 0 discriminator 3 view .LVU361
 1471 00da 524B     		ldr	r3, .L128+40
 1472 00dc 1B68     		ldr	r3, [r3]
 350:./Application/Src/command.c **** 
 1473              		.loc 1 350 39 discriminator 3 view .LVU362
 1474 00de 002B     		cmp	r3, #0
 1475 00e0 FBD0     		beq	.L120
ARM GAS  C:\Users\admin\AppData\Local\Temp\ccR2JeRl.s 			page 41


 350:./Application/Src/command.c **** 
 1476              		.loc 1 350 62 discriminator 2 view .LVU363
 1477 00e2 514B     		ldr	r3, .L128+44
 1478 00e4 1B68     		ldr	r3, [r3]
 350:./Application/Src/command.c **** 
 1479              		.loc 1 350 39 discriminator 2 view .LVU364
 1480 00e6 002B     		cmp	r3, #0
 1481 00e8 F7D0     		beq	.L120
 352:./Application/Src/command.c ****         toggle_solenoid(traversal_index);
 1482              		.loc 1 352 9 is_stmt 1 view .LVU365
 1483 00ea 1420     		movs	r0, #20
 1484 00ec FFF7FEFF 		bl	wait_ms
 1485              	.LVL156:
 353:./Application/Src/command.c **** 
 1486              		.loc 1 353 9 view .LVU366
 1487 00f0 2046     		mov	r0, r4
 1488 00f2 FFF7FEFF 		bl	toggle_solenoid
 1489              	.LVL157:
 355:./Application/Src/command.c ****     }
 1490              		.loc 1 355 9 view .LVU367
 355:./Application/Src/command.c ****     }
 1491              		.loc 1 355 24 is_stmt 0 view .LVU368
 1492 00f6 0134     		adds	r4, r4, #1
 1493              	.LVL158:
 355:./Application/Src/command.c ****     }
 1494              		.loc 1 355 24 view .LVU369
 1495 00f8 A4B2     		uxth	r4, r4
 1496              	.LVL159:
 298:./Application/Src/command.c ****         if (chord_events[traversal_index].positions[0] == 1000.0f && chord_events[traversal_index].
 1497              		.loc 1 298 11 is_stmt 1 view .LVU370
 1498              	.L122:
 298:./Application/Src/command.c ****         if (chord_events[traversal_index].positions[0] == 1000.0f && chord_events[traversal_index].
 1499              		.loc 1 298 5 view .LVU371
 299:./Application/Src/command.c ****             LCD_draw_string(0, 9, "Song ends     ", COLOR_BLACK, COLOR_WHITE);
 1500              		.loc 1 299 9 view .LVU372
 299:./Application/Src/command.c ****             LCD_draw_string(0, 9, "Song ends     ", COLOR_BLACK, COLOR_WHITE);
 1501              		.loc 1 299 52 is_stmt 0 view .LVU373
 1502 00fa 2546     		mov	r5, r4
 1503 00fc 04EB4402 		add	r2, r4, r4, lsl #1
 1504 0100 3F4B     		ldr	r3, .L128+4
 1505 0102 03EBC203 		add	r3, r3, r2, lsl #3
 1506 0106 93ED007A 		vldr.32	s14, [r3]
 299:./Application/Src/command.c ****             LCD_draw_string(0, 9, "Song ends     ", COLOR_BLACK, COLOR_WHITE);
 1507              		.loc 1 299 12 view .LVU374
 1508 010a DFED487A 		vldr.32	s15, .L128+48
 1509 010e B4EE677A 		vcmp.f32	s14, s15
 1510 0112 F1EE10FA 		vmrs	APSR_nzcv, FPSCR
 1511 0116 BFD1     		bne	.L114
 299:./Application/Src/command.c ****             LCD_draw_string(0, 9, "Song ends     ", COLOR_BLACK, COLOR_WHITE);
 1512              		.loc 1 299 109 discriminator 1 view .LVU375
 1513 0118 394B     		ldr	r3, .L128+4
 1514 011a 03EBC203 		add	r3, r3, r2, lsl #3
 1515 011e 93ED017A 		vldr.32	s14, [r3, #4]
 299:./Application/Src/command.c ****             LCD_draw_string(0, 9, "Song ends     ", COLOR_BLACK, COLOR_WHITE);
 1516              		.loc 1 299 67 discriminator 1 view .LVU376
 1517 0122 B4EE677A 		vcmp.f32	s14, s15
 1518 0126 F1EE10FA 		vmrs	APSR_nzcv, FPSCR
ARM GAS  C:\Users\admin\AppData\Local\Temp\ccR2JeRl.s 			page 42


 1519 012a B5D1     		bne	.L114
 300:./Application/Src/command.c ****             pkt_send_play_status(0, traversal_index, total_chords); /* 0 = done */
 1520              		.loc 1 300 13 is_stmt 1 view .LVU377
 1521 012c 4FF6FF73 		movw	r3, #65535
 1522 0130 0093     		str	r3, [sp]
 1523 0132 0023     		movs	r3, #0
 1524 0134 3E4A     		ldr	r2, .L128+52
 1525 0136 0921     		movs	r1, #9
 1526 0138 1846     		mov	r0, r3
 1527 013a FFF7FEFF 		bl	LCD_draw_string
 1528              	.LVL160:
 301:./Application/Src/command.c ****             pwm_mode = PWM_STOP;
 1529              		.loc 1 301 13 view .LVU378
 1530 013e 3246     		mov	r2, r6
 1531 0140 2146     		mov	r1, r4
 1532 0142 0020     		movs	r0, #0
 1533 0144 FFF7FEFF 		bl	pkt_send_play_status
 1534              	.LVL161:
 302:./Application/Src/command.c ****             break;
 1535              		.loc 1 302 13 view .LVU379
 302:./Application/Src/command.c ****             break;
 1536              		.loc 1 302 22 is_stmt 0 view .LVU380
 1537 0148 2C4B     		ldr	r3, .L128
 1538 014a 0122     		movs	r2, #1
 1539 014c 1A70     		strb	r2, [r3]
 303:./Application/Src/command.c ****         }
 1540              		.loc 1 303 13 is_stmt 1 view .LVU381
 1541 014e 51E0     		b	.L109
 1542              	.L125:
 1543              	.LBB23:
 308:./Application/Src/command.c ****             memcpy(cmd_listen, rx_message, cmd_len + 1);
 1544              		.loc 1 308 13 view .LVU382
 308:./Application/Src/command.c ****             memcpy(cmd_listen, rx_message, cmd_len + 1);
 1545              		.loc 1 308 22 is_stmt 0 view .LVU383
 1546 0150 384B     		ldr	r3, .L128+56
 1547 0152 1F88     		ldrh	r7, [r3]
 1548              	.LVL162:
 309:./Application/Src/command.c ****             rx_complete = 0;
 1549              		.loc 1 309 13 is_stmt 1 view .LVU384
 1550 0154 DFF8EC80 		ldr	r8, .L128+72
 1551 0158 7A1C     		adds	r2, r7, #1
 1552 015a 3749     		ldr	r1, .L128+60
 1553 015c 4046     		mov	r0, r8
 1554 015e FFF7FEFF 		bl	memcpy
 1555              	.LVL163:
 310:./Application/Src/command.c ****             cmd_listen[cmd_len] = '\0';
 1556              		.loc 1 310 13 view .LVU385
 310:./Application/Src/command.c ****             cmd_listen[cmd_len] = '\0';
 1557              		.loc 1 310 25 is_stmt 0 view .LVU386
 1558 0162 0023     		movs	r3, #0
 1559 0164 2B4A     		ldr	r2, .L128+24
 1560 0166 1360     		str	r3, [r2]
 311:./Application/Src/command.c ****             if (cmd_len > 0 && cmd_listen[cmd_len - 1] == '\n') {
 1561              		.loc 1 311 13 is_stmt 1 view .LVU387
 311:./Application/Src/command.c ****             if (cmd_len > 0 && cmd_listen[cmd_len - 1] == '\n') {
 1562              		.loc 1 311 33 is_stmt 0 view .LVU388
 1563 0168 08F80730 		strb	r3, [r8, r7]
ARM GAS  C:\Users\admin\AppData\Local\Temp\ccR2JeRl.s 			page 43


 312:./Application/Src/command.c ****                 cmd_listen[cmd_len - 1] = '\0';
 1564              		.loc 1 312 13 is_stmt 1 view .LVU389
 312:./Application/Src/command.c ****                 cmd_listen[cmd_len - 1] = '\0';
 1565              		.loc 1 312 16 is_stmt 0 view .LVU390
 1566 016c 27B1     		cbz	r7, .L116
 312:./Application/Src/command.c ****                 cmd_listen[cmd_len - 1] = '\0';
 1567              		.loc 1 312 51 discriminator 1 view .LVU391
 1568 016e 7B1E     		subs	r3, r7, #1
 312:./Application/Src/command.c ****                 cmd_listen[cmd_len - 1] = '\0';
 1569              		.loc 1 312 42 discriminator 1 view .LVU392
 1570 0170 18F80320 		ldrb	r2, [r8, r3]	@ zero_extendqisi2
 312:./Application/Src/command.c ****                 cmd_listen[cmd_len - 1] = '\0';
 1571              		.loc 1 312 29 discriminator 1 view .LVU393
 1572 0174 0A2A     		cmp	r2, #10
 1573 0176 09D0     		beq	.L127
 1574              	.LVL164:
 1575              	.L116:
 316:./Application/Src/command.c ****             execute_command(cmd_listen);
 1576              		.loc 1 316 13 is_stmt 1 view .LVU394
 1577 0178 DFF8C880 		ldr	r8, .L128+72
 1578 017c 3946     		mov	r1, r7
 1579 017e 4046     		mov	r0, r8
 1580 0180 FFF7FEFF 		bl	menu_process_message
 1581              	.LVL165:
 317:./Application/Src/command.c ****         }
 1582              		.loc 1 317 13 view .LVU395
 1583 0184 4046     		mov	r0, r8
 1584 0186 FFF7FEFF 		bl	execute_command
 1585              	.LVL166:
 1586 018a 89E7     		b	.L115
 1587              	.L127:
 313:./Application/Src/command.c ****                 cmd_len--;
 1588              		.loc 1 313 17 view .LVU396
 313:./Application/Src/command.c ****                 cmd_len--;
 1589              		.loc 1 313 41 is_stmt 0 view .LVU397
 1590 018c 0021     		movs	r1, #0
 1591 018e 08F80310 		strb	r1, [r8, r3]
 314:./Application/Src/command.c ****             }
 1592              		.loc 1 314 17 is_stmt 1 view .LVU398
 314:./Application/Src/command.c ****             }
 1593              		.loc 1 314 24 is_stmt 0 view .LVU399
 1594 0192 9FB2     		uxth	r7, r3
 1595              	.LVL167:
 314:./Application/Src/command.c ****             }
 1596              		.loc 1 314 24 view .LVU400
 1597 0194 F0E7     		b	.L116
 1598              	.LVL168:
 1599              	.L126:
 314:./Application/Src/command.c ****             }
 1600              		.loc 1 314 24 view .LVU401
 1601              	.LBE23:
 321:./Application/Src/command.c ****             pkt_send_play_status(2, traversal_index, total_chords); /* 2 = stopped */
 1602              		.loc 1 321 13 is_stmt 1 view .LVU402
 1603 0196 4FF6FF73 		movw	r3, #65535
 1604 019a 0093     		str	r3, [sp]
 1605 019c 0023     		movs	r3, #0
 1606 019e 274A     		ldr	r2, .L128+64
ARM GAS  C:\Users\admin\AppData\Local\Temp\ccR2JeRl.s 			page 44


 1607 01a0 0921     		movs	r1, #9
 1608 01a2 1846     		mov	r0, r3
 1609 01a4 FFF7FEFF 		bl	LCD_draw_string
 1610              	.LVL169:
 322:./Application/Src/command.c ****             
 1611              		.loc 1 322 13 view .LVU403
 1612 01a8 3246     		mov	r2, r6
 1613 01aa 2146     		mov	r1, r4
 1614 01ac 0220     		movs	r0, #2
 1615 01ae FFF7FEFF 		bl	pkt_send_play_status
 1616              	.LVL170:
 325:./Application/Src/command.c ****                 HAL_GPIO_WritePin(solenoids[i].port, solenoids[i].pin, GPIO_PIN_RESET);
 1617              		.loc 1 325 13 view .LVU404
 1618              	.LBB24:
 325:./Application/Src/command.c ****                 HAL_GPIO_WritePin(solenoids[i].port, solenoids[i].pin, GPIO_PIN_RESET);
 1619              		.loc 1 325 18 view .LVU405
 325:./Application/Src/command.c ****                 HAL_GPIO_WritePin(solenoids[i].port, solenoids[i].pin, GPIO_PIN_RESET);
 1620              		.loc 1 325 22 is_stmt 0 view .LVU406
 1621 01b2 0024     		movs	r4, #0
 1622              	.LVL171:
 325:./Application/Src/command.c ****                 HAL_GPIO_WritePin(solenoids[i].port, solenoids[i].pin, GPIO_PIN_RESET);
 1623              		.loc 1 325 13 view .LVU407
 1624 01b4 09E0     		b	.L118
 1625              	.LVL172:
 1626              	.L119:
 326:./Application/Src/command.c ****             }
 1627              		.loc 1 326 17 is_stmt 1 view .LVU408
 326:./Application/Src/command.c ****             }
 1628              		.loc 1 326 47 is_stmt 0 view .LVU409
 1629 01b6 224B     		ldr	r3, .L128+68
 326:./Application/Src/command.c ****             }
 1630              		.loc 1 326 66 view .LVU410
 1631 01b8 03EBC401 		add	r1, r3, r4, lsl #3
 326:./Application/Src/command.c ****             }
 1632              		.loc 1 326 17 view .LVU411
 1633 01bc 0022     		movs	r2, #0
 1634 01be 8988     		ldrh	r1, [r1, #4]
 1635 01c0 53F83400 		ldr	r0, [r3, r4, lsl #3]
 1636 01c4 FFF7FEFF 		bl	HAL_GPIO_WritePin
 1637              	.LVL173:
 325:./Application/Src/command.c ****                 HAL_GPIO_WritePin(solenoids[i].port, solenoids[i].pin, GPIO_PIN_RESET);
 1638              		.loc 1 325 38 is_stmt 1 discriminator 3 view .LVU412
 1639 01c8 0134     		adds	r4, r4, #1
 1640              	.LVL174:
 1641              	.L118:
 325:./Application/Src/command.c ****                 HAL_GPIO_WritePin(solenoids[i].port, solenoids[i].pin, GPIO_PIN_RESET);
 1642              		.loc 1 325 31 discriminator 1 view .LVU413
 1643 01ca 092C     		cmp	r4, #9
 1644 01cc F3DD     		ble	.L119
 1645              	.LBE24:
 329:./Application/Src/command.c **** 
 1646              		.loc 1 329 13 view .LVU414
 1647 01ce 4FF4FA70 		mov	r0, #500
 1648 01d2 FFF7FEFF 		bl	wait_ms
 1649              	.LVL175:
 331:./Application/Src/command.c ****             left_motor.target_pos = 0.0f;
 1650              		.loc 1 331 13 view .LVU415
ARM GAS  C:\Users\admin\AppData\Local\Temp\ccR2JeRl.s 			page 45


 331:./Application/Src/command.c ****             left_motor.target_pos = 0.0f;
 1651              		.loc 1 331 26 is_stmt 0 view .LVU416
 1652 01d6 104B     		ldr	r3, .L128+28
 1653 01d8 0022     		movs	r2, #0
 1654 01da 1A60     		str	r2, [r3]
 332:./Application/Src/command.c ****             right_motor.target_pos = 0.0f;
 1655              		.loc 1 332 13 is_stmt 1 view .LVU417
 332:./Application/Src/command.c ****             right_motor.target_pos = 0.0f;
 1656              		.loc 1 332 35 is_stmt 0 view .LVU418
 1657 01dc 0023     		movs	r3, #0
 1658 01de 0F4A     		ldr	r2, .L128+32
 1659 01e0 5361     		str	r3, [r2, #20]	@ float
 333:./Application/Src/command.c ****             wait_ms(500);
 1660              		.loc 1 333 13 is_stmt 1 view .LVU419
 333:./Application/Src/command.c ****             wait_ms(500);
 1661              		.loc 1 333 36 is_stmt 0 view .LVU420
 1662 01e2 0F4A     		ldr	r2, .L128+36
 1663 01e4 5361     		str	r3, [r2, #20]	@ float
 334:./Application/Src/command.c ****             pwm_mode = PWM_STOP;
 1664              		.loc 1 334 13 is_stmt 1 view .LVU421
 1665 01e6 4FF4FA70 		mov	r0, #500
 1666 01ea FFF7FEFF 		bl	wait_ms
 1667              	.LVL176:
 335:./Application/Src/command.c ****             break;
 1668              		.loc 1 335 13 view .LVU422
 335:./Application/Src/command.c ****             break;
 1669              		.loc 1 335 22 is_stmt 0 view .LVU423
 1670 01ee 034B     		ldr	r3, .L128
 1671 01f0 0122     		movs	r2, #1
 1672 01f2 1A70     		strb	r2, [r3]
 336:./Application/Src/command.c ****         }
 1673              		.loc 1 336 13 is_stmt 1 view .LVU424
 1674              	.LVL177:
 1675              	.L109:
 358:./Application/Src/command.c **** 
 1676              		.loc 1 358 1 is_stmt 0 view .LVU425
 1677 01f4 02B0     		add	sp, sp, #8
 1678              	.LCFI13:
 1679              		.cfi_def_cfa_offset 24
 1680              		@ sp needed
 1681 01f6 BDE8F081 		pop	{r4, r5, r6, r7, r8, pc}
 1682              	.L129:
 1683 01fa 00BF     		.align	2
 1684              	.L128:
 1685 01fc 00000000 		.word	pwm_mode
 1686 0200 00000000 		.word	chord_events
 1687 0204 00000000 		.word	.LC5
 1688 0208 18000000 		.word	.LC6
 1689 020c 34000000 		.word	.LC7
 1690 0210 50000000 		.word	.LC8
 1691 0214 00000000 		.word	rx_complete
 1692 0218 00000000 		.word	stop_playing
 1693 021c 00000000 		.word	left_motor
 1694 0220 00000000 		.word	right_motor
 1695 0224 00000000 		.word	left_motor_arrived
 1696 0228 00000000 		.word	right_motor_arrived
 1697 022c 00007A44 		.word	1148846080
ARM GAS  C:\Users\admin\AppData\Local\Temp\ccR2JeRl.s 			page 46


 1698 0230 6C000000 		.word	.LC9
 1699 0234 00000000 		.word	rx_valid
 1700 0238 00000000 		.word	rx_message
 1701 023c 7C000000 		.word	.LC10
 1702 0240 00000000 		.word	solenoids
 1703 0244 00000000 		.word	cmd_listen
 1704              		.cfi_endproc
 1705              	.LFE366:
 1707              		.section	.rodata.traversal_debug_mode.str1.4,"aMS",%progbits,1
 1708              		.align	2
 1709              	.LC11:
 1710 0000 5B446562 		.ascii	"[Debug Play] :q stop    \000"
 1710      75672050 
 1710      6C61795D 
 1710      203A7120 
 1710      73746F70 
 1711              		.section	.text.traversal_debug_mode,"ax",%progbits
 1712              		.align	1
 1713              		.global	traversal_debug_mode
 1714              		.syntax unified
 1715              		.thumb
 1716              		.thumb_func
 1718              	traversal_debug_mode:
 1719              	.LFB367:
 360:./Application/Src/command.c **** 
 1720              		.loc 1 360 32 is_stmt 1 view -0
 1721              		.cfi_startproc
 1722              		@ args = 0, pretend = 0, frame = 0
 1723              		@ frame_needed = 0, uses_anonymous_args = 0
 1724 0000 F0B5     		push	{r4, r5, r6, r7, lr}
 1725              	.LCFI14:
 1726              		.cfi_def_cfa_offset 20
 1727              		.cfi_offset 4, -20
 1728              		.cfi_offset 5, -16
 1729              		.cfi_offset 6, -12
 1730              		.cfi_offset 7, -8
 1731              		.cfi_offset 14, -4
 1732 0002 83B0     		sub	sp, sp, #12
 1733              	.LCFI15:
 1734              		.cfi_def_cfa_offset 32
 362:./Application/Src/command.c ****     uint16_t traversal_index = 0;
 1735              		.loc 1 362 5 view .LVU427
 362:./Application/Src/command.c ****     uint16_t traversal_index = 0;
 1736              		.loc 1 362 14 is_stmt 0 view .LVU428
 1737 0004 5D4B     		ldr	r3, .L147
 1738 0006 0022     		movs	r2, #0
 1739 0008 1A70     		strb	r2, [r3]
 363:./Application/Src/command.c ****     if (chord_events[traversal_index].positions[0] == 0.0f && chord_events[traversal_index].positio
 1740              		.loc 1 363 5 is_stmt 1 view .LVU429
 1741              	.LVL178:
 364:./Application/Src/command.c ****         LCD_draw_string(0, 9, "No Song loaded!     ", COLOR_BLACK, COLOR_WHITE);
 1742              		.loc 1 364 5 view .LVU430
 364:./Application/Src/command.c ****         LCD_draw_string(0, 9, "No Song loaded!     ", COLOR_BLACK, COLOR_WHITE);
 1743              		.loc 1 364 48 is_stmt 0 view .LVU431
 1744 000a 5D4B     		ldr	r3, .L147+4
 1745 000c D3ED007A 		vldr.32	s15, [r3]
 364:./Application/Src/command.c ****         LCD_draw_string(0, 9, "No Song loaded!     ", COLOR_BLACK, COLOR_WHITE);
ARM GAS  C:\Users\admin\AppData\Local\Temp\ccR2JeRl.s 			page 47


 1746              		.loc 1 364 8 view .LVU432
 1747 0010 F5EE407A 		vcmp.f32	s15, #0
 1748 0014 F1EE10FA 		vmrs	APSR_nzcv, FPSCR
 1749 0018 06D1     		bne	.L131
 364:./Application/Src/command.c ****         LCD_draw_string(0, 9, "No Song loaded!     ", COLOR_BLACK, COLOR_WHITE);
 1750              		.loc 1 364 102 discriminator 1 view .LVU433
 1751 001a D3ED017A 		vldr.32	s15, [r3, #4]
 364:./Application/Src/command.c ****         LCD_draw_string(0, 9, "No Song loaded!     ", COLOR_BLACK, COLOR_WHITE);
 1752              		.loc 1 364 60 discriminator 1 view .LVU434
 1753 001e F5EE407A 		vcmp.f32	s15, #0
 1754 0022 F1EE10FA 		vmrs	APSR_nzcv, FPSCR
 1755 0026 0AD0     		beq	.L143
 1756              	.L131:
 370:./Application/Src/command.c **** 
 1757              		.loc 1 370 5 is_stmt 1 view .LVU435
 1758 0028 4FF6FF73 		movw	r3, #65535
 1759 002c 0093     		str	r3, [sp]
 1760 002e 0023     		movs	r3, #0
 1761 0030 544A     		ldr	r2, .L147+8
 1762 0032 0121     		movs	r1, #1
 1763 0034 1846     		mov	r0, r3
 1764 0036 FFF7FEFF 		bl	LCD_draw_string
 1765              	.LVL179:
 363:./Application/Src/command.c ****     if (chord_events[traversal_index].positions[0] == 0.0f && chord_events[traversal_index].positio
 1766              		.loc 1 363 14 is_stmt 0 view .LVU436
 1767 003a 0024     		movs	r4, #0
 1768 003c 33E0     		b	.L141
 1769              	.L143:
 365:./Application/Src/command.c ****         return;
 1770              		.loc 1 365 9 is_stmt 1 view .LVU437
 1771 003e 4FF6FF73 		movw	r3, #65535
 1772 0042 0093     		str	r3, [sp]
 1773 0044 1346     		mov	r3, r2
 1774 0046 504A     		ldr	r2, .L147+12
 1775 0048 0921     		movs	r1, #9
 1776 004a 1846     		mov	r0, r3
 1777 004c FFF7FEFF 		bl	LCD_draw_string
 1778              	.LVL180:
 366:./Application/Src/command.c ****     }
 1779              		.loc 1 366 9 view .LVU438
 1780 0050 91E0     		b	.L130
 1781              	.LVL181:
 1782              	.L133:
 380:./Application/Src/command.c ****             uint16_t cmd_len = rx_valid;
 1783              		.loc 1 380 9 view .LVU439
 380:./Application/Src/command.c ****             uint16_t cmd_len = rx_valid;
 1784              		.loc 1 380 13 is_stmt 0 view .LVU440
 1785 0052 4E4B     		ldr	r3, .L147+16
 1786 0054 1B68     		ldr	r3, [r3]
 380:./Application/Src/command.c ****             uint16_t cmd_len = rx_valid;
 1787              		.loc 1 380 12 view .LVU441
 1788 0056 002B     		cmp	r3, #0
 1789 0058 4BD1     		bne	.L144
 1790              	.L134:
 392:./Application/Src/command.c ****             LCD_draw_string(0, 9, "Stopped by user     ", COLOR_BLACK, COLOR_WHITE);
 1791              		.loc 1 392 9 is_stmt 1 view .LVU442
 392:./Application/Src/command.c ****             LCD_draw_string(0, 9, "Stopped by user     ", COLOR_BLACK, COLOR_WHITE);
ARM GAS  C:\Users\admin\AppData\Local\Temp\ccR2JeRl.s 			page 48


 1792              		.loc 1 392 13 is_stmt 0 view .LVU443
 1793 005a 4D4B     		ldr	r3, .L147+20
 1794 005c 1B68     		ldr	r3, [r3]
 392:./Application/Src/command.c ****             LCD_draw_string(0, 9, "Stopped by user     ", COLOR_BLACK, COLOR_WHITE);
 1795              		.loc 1 392 12 view .LVU444
 1796 005e 002B     		cmp	r3, #0
 1797 0060 5FD1     		bne	.L145
 409:./Application/Src/command.c ****         right_motor.target_pos = chord_events[traversal_index].positions[1];
 1798              		.loc 1 409 9 is_stmt 1 view .LVU445
 409:./Application/Src/command.c ****         right_motor.target_pos = chord_events[traversal_index].positions[1];
 1799              		.loc 1 409 72 is_stmt 0 view .LVU446
 1800 0062 474B     		ldr	r3, .L147+4
 1801 0064 05EB4502 		add	r2, r5, r5, lsl #1
 1802 0068 03EBC202 		add	r2, r3, r2, lsl #3
 1803 006c 1168     		ldr	r1, [r2]	@ float
 409:./Application/Src/command.c ****         right_motor.target_pos = chord_events[traversal_index].positions[1];
 1804              		.loc 1 409 31 view .LVU447
 1805 006e 494A     		ldr	r2, .L147+24
 1806 0070 5161     		str	r1, [r2, #20]	@ float
 410:./Application/Src/command.c **** 
 1807              		.loc 1 410 9 is_stmt 1 view .LVU448
 410:./Application/Src/command.c **** 
 1808              		.loc 1 410 73 is_stmt 0 view .LVU449
 1809 0072 05EB4505 		add	r5, r5, r5, lsl #1
 1810 0076 03EBC503 		add	r3, r3, r5, lsl #3
 1811 007a 5A68     		ldr	r2, [r3, #4]	@ float
 410:./Application/Src/command.c **** 
 1812              		.loc 1 410 32 view .LVU450
 1813 007c 464B     		ldr	r3, .L147+28
 1814 007e 5A61     		str	r2, [r3, #20]	@ float
 412:./Application/Src/command.c ****         while(left_motor_arrived == 0 || right_motor_arrived == 0);
 1815              		.loc 1 412 9 is_stmt 1 view .LVU451
 1816 0080 0520     		movs	r0, #5
 1817 0082 FFF7FEFF 		bl	wait_ms
 1818              	.LVL182:
 413:./Application/Src/command.c **** 
 1819              		.loc 1 413 9 view .LVU452
 1820              	.L139:
 413:./Application/Src/command.c **** 
 1821              		.loc 1 413 39 discriminator 3 view .LVU453
 413:./Application/Src/command.c **** 
 1822              		.loc 1 413 34 is_stmt 0 discriminator 3 view .LVU454
 1823 0086 454B     		ldr	r3, .L147+32
 1824 0088 1B68     		ldr	r3, [r3]
 413:./Application/Src/command.c **** 
 1825              		.loc 1 413 39 discriminator 3 view .LVU455
 1826 008a 002B     		cmp	r3, #0
 1827 008c FBD0     		beq	.L139
 413:./Application/Src/command.c **** 
 1828              		.loc 1 413 62 discriminator 2 view .LVU456
 1829 008e 444B     		ldr	r3, .L147+36
 1830 0090 1B68     		ldr	r3, [r3]
 413:./Application/Src/command.c **** 
 1831              		.loc 1 413 39 discriminator 2 view .LVU457
 1832 0092 002B     		cmp	r3, #0
 1833 0094 F7D0     		beq	.L139
 416:./Application/Src/command.c ****         toggle_solenoid(traversal_index);
ARM GAS  C:\Users\admin\AppData\Local\Temp\ccR2JeRl.s 			page 49


 1834              		.loc 1 416 9 is_stmt 1 view .LVU458
 1835 0096 1420     		movs	r0, #20
 1836 0098 FFF7FEFF 		bl	wait_ms
 1837              	.LVL183:
 417:./Application/Src/command.c **** 
 1838              		.loc 1 417 9 view .LVU459
 1839 009c 2046     		mov	r0, r4
 1840 009e FFF7FEFF 		bl	toggle_solenoid
 1841              	.LVL184:
 419:./Application/Src/command.c ****     }
 1842              		.loc 1 419 9 view .LVU460
 419:./Application/Src/command.c ****     }
 1843              		.loc 1 419 24 is_stmt 0 view .LVU461
 1844 00a2 0134     		adds	r4, r4, #1
 1845              	.LVL185:
 419:./Application/Src/command.c ****     }
 1846              		.loc 1 419 24 view .LVU462
 1847 00a4 A4B2     		uxth	r4, r4
 1848              	.LVL186:
 372:./Application/Src/command.c ****         if (chord_events[traversal_index].positions[0] == 1000.0f && chord_events[traversal_index].
 1849              		.loc 1 372 11 is_stmt 1 view .LVU463
 1850              	.L141:
 372:./Application/Src/command.c ****         if (chord_events[traversal_index].positions[0] == 1000.0f && chord_events[traversal_index].
 1851              		.loc 1 372 5 view .LVU464
 373:./Application/Src/command.c ****             LCD_draw_string(0, 9, "Song ends     ", COLOR_BLACK, COLOR_WHITE);
 1852              		.loc 1 373 9 view .LVU465
 373:./Application/Src/command.c ****             LCD_draw_string(0, 9, "Song ends     ", COLOR_BLACK, COLOR_WHITE);
 1853              		.loc 1 373 52 is_stmt 0 view .LVU466
 1854 00a6 2546     		mov	r5, r4
 1855 00a8 04EB4402 		add	r2, r4, r4, lsl #1
 1856 00ac 344B     		ldr	r3, .L147+4
 1857 00ae 03EBC203 		add	r3, r3, r2, lsl #3
 1858 00b2 93ED007A 		vldr.32	s14, [r3]
 373:./Application/Src/command.c ****             LCD_draw_string(0, 9, "Song ends     ", COLOR_BLACK, COLOR_WHITE);
 1859              		.loc 1 373 12 view .LVU467
 1860 00b6 DFED3B7A 		vldr.32	s15, .L147+40
 1861 00ba B4EE677A 		vcmp.f32	s14, s15
 1862 00be F1EE10FA 		vmrs	APSR_nzcv, FPSCR
 1863 00c2 C6D1     		bne	.L133
 373:./Application/Src/command.c ****             LCD_draw_string(0, 9, "Song ends     ", COLOR_BLACK, COLOR_WHITE);
 1864              		.loc 1 373 109 discriminator 1 view .LVU468
 1865 00c4 2E4B     		ldr	r3, .L147+4
 1866 00c6 03EBC203 		add	r3, r3, r2, lsl #3
 1867 00ca 93ED017A 		vldr.32	s14, [r3, #4]
 373:./Application/Src/command.c ****             LCD_draw_string(0, 9, "Song ends     ", COLOR_BLACK, COLOR_WHITE);
 1868              		.loc 1 373 67 discriminator 1 view .LVU469
 1869 00ce B4EE677A 		vcmp.f32	s14, s15
 1870 00d2 F1EE10FA 		vmrs	APSR_nzcv, FPSCR
 1871 00d6 BCD1     		bne	.L133
 374:./Application/Src/command.c ****             pwm_mode = PWM_STOP;
 1872              		.loc 1 374 13 is_stmt 1 view .LVU470
 1873 00d8 4FF6FF73 		movw	r3, #65535
 1874 00dc 0093     		str	r3, [sp]
 1875 00de 0023     		movs	r3, #0
 1876 00e0 314A     		ldr	r2, .L147+44
 1877 00e2 0921     		movs	r1, #9
 1878 00e4 1846     		mov	r0, r3
ARM GAS  C:\Users\admin\AppData\Local\Temp\ccR2JeRl.s 			page 50


 1879 00e6 FFF7FEFF 		bl	LCD_draw_string
 1880              	.LVL187:
 375:./Application/Src/command.c ****             break;
 1881              		.loc 1 375 13 view .LVU471
 375:./Application/Src/command.c ****             break;
 1882              		.loc 1 375 22 is_stmt 0 view .LVU472
 1883 00ea 244B     		ldr	r3, .L147
 1884 00ec 0122     		movs	r2, #1
 1885 00ee 1A70     		strb	r2, [r3]
 376:./Application/Src/command.c ****         }
 1886              		.loc 1 376 13 is_stmt 1 view .LVU473
 1887 00f0 41E0     		b	.L130
 1888              	.L144:
 1889              	.LBB25:
 381:./Application/Src/command.c ****             memcpy(cmd_listen, rx_message, cmd_len + 1);
 1890              		.loc 1 381 13 view .LVU474
 381:./Application/Src/command.c ****             memcpy(cmd_listen, rx_message, cmd_len + 1);
 1891              		.loc 1 381 22 is_stmt 0 view .LVU475
 1892 00f2 2E4B     		ldr	r3, .L147+48
 1893 00f4 1E88     		ldrh	r6, [r3]
 1894              	.LVL188:
 382:./Application/Src/command.c ****             rx_complete = 0;
 1895              		.loc 1 382 13 is_stmt 1 view .LVU476
 1896 00f6 2E4F     		ldr	r7, .L147+52
 1897 00f8 721C     		adds	r2, r6, #1
 1898 00fa 2E49     		ldr	r1, .L147+56
 1899 00fc 3846     		mov	r0, r7
 1900 00fe FFF7FEFF 		bl	memcpy
 1901              	.LVL189:
 383:./Application/Src/command.c ****             cmd_listen[cmd_len] = '\0';
 1902              		.loc 1 383 13 view .LVU477
 383:./Application/Src/command.c ****             cmd_listen[cmd_len] = '\0';
 1903              		.loc 1 383 25 is_stmt 0 view .LVU478
 1904 0102 0023     		movs	r3, #0
 1905 0104 214A     		ldr	r2, .L147+16
 1906 0106 1360     		str	r3, [r2]
 384:./Application/Src/command.c ****             if (cmd_len > 0 && cmd_listen[cmd_len - 1] == '\n') {
 1907              		.loc 1 384 13 is_stmt 1 view .LVU479
 384:./Application/Src/command.c ****             if (cmd_len > 0 && cmd_listen[cmd_len - 1] == '\n') {
 1908              		.loc 1 384 33 is_stmt 0 view .LVU480
 1909 0108 BB55     		strb	r3, [r7, r6]
 385:./Application/Src/command.c ****                 cmd_listen[cmd_len - 1] = '\0';
 1910              		.loc 1 385 13 is_stmt 1 view .LVU481
 385:./Application/Src/command.c ****                 cmd_listen[cmd_len - 1] = '\0';
 1911              		.loc 1 385 16 is_stmt 0 view .LVU482
 1912 010a 1EB1     		cbz	r6, .L135
 385:./Application/Src/command.c ****                 cmd_listen[cmd_len - 1] = '\0';
 1913              		.loc 1 385 51 discriminator 1 view .LVU483
 1914 010c 013E     		subs	r6, r6, #1
 385:./Application/Src/command.c ****                 cmd_listen[cmd_len - 1] = '\0';
 1915              		.loc 1 385 42 discriminator 1 view .LVU484
 1916 010e BB5D     		ldrb	r3, [r7, r6]	@ zero_extendqisi2
 385:./Application/Src/command.c ****                 cmd_listen[cmd_len - 1] = '\0';
 1917              		.loc 1 385 29 discriminator 1 view .LVU485
 1918 0110 0A2B     		cmp	r3, #10
 1919 0112 03D0     		beq	.L146
 1920              	.LVL190:
ARM GAS  C:\Users\admin\AppData\Local\Temp\ccR2JeRl.s 			page 51


 1921              	.L135:
 389:./Application/Src/command.c ****         }
 1922              		.loc 1 389 13 is_stmt 1 view .LVU486
 1923 0114 2648     		ldr	r0, .L147+52
 1924 0116 FFF7FEFF 		bl	execute_command
 1925              	.LVL191:
 1926 011a 9EE7     		b	.L134
 1927              	.LVL192:
 1928              	.L146:
 386:./Application/Src/command.c ****                 cmd_len--;
 1929              		.loc 1 386 17 view .LVU487
 386:./Application/Src/command.c ****                 cmd_len--;
 1930              		.loc 1 386 41 is_stmt 0 view .LVU488
 1931 011c 0022     		movs	r2, #0
 1932 011e BA55     		strb	r2, [r7, r6]
 387:./Application/Src/command.c ****             }
 1933              		.loc 1 387 17 is_stmt 1 view .LVU489
 387:./Application/Src/command.c ****             }
 1934              		.loc 1 387 17 is_stmt 0 view .LVU490
 1935 0120 F8E7     		b	.L135
 1936              	.LVL193:
 1937              	.L145:
 387:./Application/Src/command.c ****             }
 1938              		.loc 1 387 17 view .LVU491
 1939              	.LBE25:
 393:./Application/Src/command.c **** 
 1940              		.loc 1 393 13 is_stmt 1 view .LVU492
 1941 0122 4FF6FF73 		movw	r3, #65535
 1942 0126 0093     		str	r3, [sp]
 1943 0128 0023     		movs	r3, #0
 1944 012a 234A     		ldr	r2, .L147+60
 1945 012c 0921     		movs	r1, #9
 1946 012e 1846     		mov	r0, r3
 1947 0130 FFF7FEFF 		bl	LCD_draw_string
 1948              	.LVL194:
 395:./Application/Src/command.c ****                 HAL_GPIO_WritePin(solenoids[i].port, solenoids[i].pin, GPIO_PIN_RESET);
 1949              		.loc 1 395 13 view .LVU493
 1950              	.LBB26:
 395:./Application/Src/command.c ****                 HAL_GPIO_WritePin(solenoids[i].port, solenoids[i].pin, GPIO_PIN_RESET);
 1951              		.loc 1 395 18 view .LVU494
 395:./Application/Src/command.c ****                 HAL_GPIO_WritePin(solenoids[i].port, solenoids[i].pin, GPIO_PIN_RESET);
 1952              		.loc 1 395 22 is_stmt 0 view .LVU495
 1953 0134 0024     		movs	r4, #0
 1954              	.LVL195:
 395:./Application/Src/command.c ****                 HAL_GPIO_WritePin(solenoids[i].port, solenoids[i].pin, GPIO_PIN_RESET);
 1955              		.loc 1 395 13 view .LVU496
 1956 0136 09E0     		b	.L137
 1957              	.LVL196:
 1958              	.L138:
 396:./Application/Src/command.c ****             }
 1959              		.loc 1 396 17 is_stmt 1 view .LVU497
 396:./Application/Src/command.c ****             }
 1960              		.loc 1 396 47 is_stmt 0 view .LVU498
 1961 0138 204B     		ldr	r3, .L147+64
 396:./Application/Src/command.c ****             }
 1962              		.loc 1 396 66 view .LVU499
 1963 013a 03EBC401 		add	r1, r3, r4, lsl #3
ARM GAS  C:\Users\admin\AppData\Local\Temp\ccR2JeRl.s 			page 52


 396:./Application/Src/command.c ****             }
 1964              		.loc 1 396 17 view .LVU500
 1965 013e 0022     		movs	r2, #0
 1966 0140 8988     		ldrh	r1, [r1, #4]
 1967 0142 53F83400 		ldr	r0, [r3, r4, lsl #3]
 1968 0146 FFF7FEFF 		bl	HAL_GPIO_WritePin
 1969              	.LVL197:
 395:./Application/Src/command.c ****                 HAL_GPIO_WritePin(solenoids[i].port, solenoids[i].pin, GPIO_PIN_RESET);
 1970              		.loc 1 395 38 is_stmt 1 discriminator 3 view .LVU501
 1971 014a 0134     		adds	r4, r4, #1
 1972              	.LVL198:
 1973              	.L137:
 395:./Application/Src/command.c ****                 HAL_GPIO_WritePin(solenoids[i].port, solenoids[i].pin, GPIO_PIN_RESET);
 1974              		.loc 1 395 31 discriminator 1 view .LVU502
 1975 014c 092C     		cmp	r4, #9
 1976 014e F3DD     		ble	.L138
 1977              	.LBE26:
 398:./Application/Src/command.c **** 
 1978              		.loc 1 398 13 view .LVU503
 1979 0150 4FF4FA70 		mov	r0, #500
 1980 0154 FFF7FEFF 		bl	wait_ms
 1981              	.LVL199:
 400:./Application/Src/command.c ****             left_motor.target_pos = 0.0f;
 1982              		.loc 1 400 13 view .LVU504
 400:./Application/Src/command.c ****             left_motor.target_pos = 0.0f;
 1983              		.loc 1 400 26 is_stmt 0 view .LVU505
 1984 0158 0D4B     		ldr	r3, .L147+20
 1985 015a 0022     		movs	r2, #0
 1986 015c 1A60     		str	r2, [r3]
 401:./Application/Src/command.c ****             right_motor.target_pos = 0.0f;
 1987              		.loc 1 401 13 is_stmt 1 view .LVU506
 401:./Application/Src/command.c ****             right_motor.target_pos = 0.0f;
 1988              		.loc 1 401 35 is_stmt 0 view .LVU507
 1989 015e 0023     		movs	r3, #0
 1990 0160 0C4A     		ldr	r2, .L147+24
 1991 0162 5361     		str	r3, [r2, #20]	@ float
 402:./Application/Src/command.c ****             wait_ms(500);
 1992              		.loc 1 402 13 is_stmt 1 view .LVU508
 402:./Application/Src/command.c ****             wait_ms(500);
 1993              		.loc 1 402 36 is_stmt 0 view .LVU509
 1994 0164 0C4A     		ldr	r2, .L147+28
 1995 0166 5361     		str	r3, [r2, #20]	@ float
 403:./Application/Src/command.c ****             pwm_mode = PWM_STOP;
 1996              		.loc 1 403 13 is_stmt 1 view .LVU510
 1997 0168 4FF4FA70 		mov	r0, #500
 1998 016c FFF7FEFF 		bl	wait_ms
 1999              	.LVL200:
 404:./Application/Src/command.c ****             break;
 2000              		.loc 1 404 13 view .LVU511
 404:./Application/Src/command.c ****             break;
 2001              		.loc 1 404 22 is_stmt 0 view .LVU512
 2002 0170 024B     		ldr	r3, .L147
 2003 0172 0122     		movs	r2, #1
 2004 0174 1A70     		strb	r2, [r3]
 405:./Application/Src/command.c ****         }
 2005              		.loc 1 405 13 is_stmt 1 view .LVU513
 2006              	.LVL201:
ARM GAS  C:\Users\admin\AppData\Local\Temp\ccR2JeRl.s 			page 53


 2007              	.L130:
 421:./Application/Src/command.c **** 
 2008              		.loc 1 421 1 is_stmt 0 view .LVU514
 2009 0176 03B0     		add	sp, sp, #12
 2010              	.LCFI16:
 2011              		.cfi_def_cfa_offset 20
 2012              		@ sp needed
 2013 0178 F0BD     		pop	{r4, r5, r6, r7, pc}
 2014              	.L148:
 2015 017a 00BF     		.align	2
 2016              	.L147:
 2017 017c 00000000 		.word	pwm_mode
 2018 0180 00000000 		.word	chord_events
 2019 0184 00000000 		.word	.LC11
 2020 0188 00000000 		.word	.LC5
 2021 018c 00000000 		.word	rx_complete
 2022 0190 00000000 		.word	stop_playing
 2023 0194 00000000 		.word	left_motor
 2024 0198 00000000 		.word	right_motor
 2025 019c 00000000 		.word	left_motor_arrived
 2026 01a0 00000000 		.word	right_motor_arrived
 2027 01a4 00007A44 		.word	1148846080
 2028 01a8 6C000000 		.word	.LC9
 2029 01ac 00000000 		.word	rx_valid
 2030 01b0 00000000 		.word	cmd_listen
 2031 01b4 00000000 		.word	rx_message
 2032 01b8 7C000000 		.word	.LC10
 2033 01bc 00000000 		.word	solenoids
 2034              		.cfi_endproc
 2035              	.LFE367:
 2037              		.section	.bss.cmd_listen,"aw",%nobits
 2038              		.align	2
 2041              	cmd_listen:
 2042 0000 00000000 		.space	16
 2042      00000000 
 2042      00000000 
 2042      00000000 
 2043              		.section	.rodata.solenoids,"a"
 2044              		.align	2
 2047              	solenoids:
 2048 0000 00040242 		.word	1107428352
 2049 0004 8000     		.short	128
 2050 0006 0000     		.space	2
 2051 0008 00040242 		.word	1107428352
 2052 000c 0001     		.short	256
 2053 000e 0000     		.space	2
 2054 0010 00040242 		.word	1107428352
 2055 0014 0002     		.short	512
 2056 0016 0000     		.space	2
 2057 0018 00100242 		.word	1107431424
 2058 001c 0100     		.short	1
 2059 001e 0000     		.space	2
 2060 0020 00100242 		.word	1107431424
 2061 0024 0400     		.short	4
 2062 0026 0000     		.space	2
 2063 0028 00100242 		.word	1107431424
 2064 002c 0800     		.short	8
ARM GAS  C:\Users\admin\AppData\Local\Temp\ccR2JeRl.s 			page 54


 2065 002e 0000     		.space	2
 2066 0030 00100242 		.word	1107431424
 2067 0034 1000     		.short	16
 2068 0036 0000     		.space	2
 2069 0038 00100242 		.word	1107431424
 2070 003c 4000     		.short	64
 2071 003e 0000     		.space	2
 2072 0040 00080242 		.word	1107429376
 2073 0044 0040     		.short	16384
 2074 0046 0000     		.space	2
 2075 0048 00080242 		.word	1107429376
 2076 004c 0080     		.short	-32768
 2077 004e 0000     		.space	2
 2078              		.text
 2079              	.Letext0:
 2080              		.file 2 "C:/arm-bare-metal/arm-none-eabi/include/machine/_default_types.h"
 2081              		.file 3 "C:/arm-bare-metal/arm-none-eabi/include/sys/_stdint.h"
 2082              		.file 4 "Drivers/CMSIS/Device/ST/STM32H5xx/Include/stm32h523xx.h"
 2083              		.file 5 "Drivers/STM32H5xx_HAL_Driver/Inc/stm32h5xx_hal_def.h"
 2084              		.file 6 "Drivers/STM32H5xx_HAL_Driver/Inc/stm32h5xx_hal_gpio.h"
 2085              		.file 7 "Drivers/STM32H5xx_HAL_Driver/Inc/stm32h5xx_hal_dma.h"
 2086              		.file 8 "Drivers/STM32H5xx_HAL_Driver/Inc/stm32h5xx_hal_dma_ex.h"
 2087              		.file 9 "Drivers/STM32H5xx_HAL_Driver/Inc/stm32h5xx_hal_tim.h"
 2088              		.file 10 "Drivers/STM32H5xx_HAL_Driver/Inc/stm32h5xx_hal_uart.h"
 2089              		.file 11 "Application/Inc/sd.h"
 2090              		.file 12 "Core/Inc/usart.h"
 2091              		.file 13 "Application/Inc/menu.h"
 2092              		.file 14 "Core/Inc/tim.h"
 2093              		.file 15 "Application/Inc/application.h"
 2094              		.file 16 "Application/Inc/packet.h"
 2095              		.file 17 "Application/Inc/user_timer.h"
 2096              		.file 18 "Application/Inc/ILI9225.h"
 2097              		.file 19 "Application/Inc/debug_song.h"
 2098              		.file 20 "C:/arm-bare-metal/arm-none-eabi/include/string.h"
 2099              		.file 21 "C:/arm-bare-metal/arm-none-eabi/include/stdlib.h"
 2100              		.file 22 "<built-in>"
ARM GAS  C:\Users\admin\AppData\Local\Temp\ccR2JeRl.s 			page 55


DEFINED SYMBOLS
                            *ABS*:00000000 command.c
C:\Users\admin\AppData\Local\Temp\ccR2JeRl.s:22     .text.count_total_chords:00000000 $t
C:\Users\admin\AppData\Local\Temp\ccR2JeRl.s:27     .text.count_total_chords:00000000 count_total_chords
C:\Users\admin\AppData\Local\Temp\ccR2JeRl.s:89     .text.count_total_chords:00000048 $d
C:\Users\admin\AppData\Local\Temp\ccR2JeRl.s:95     .text.set_text:00000000 $t
C:\Users\admin\AppData\Local\Temp\ccR2JeRl.s:101    .text.set_text:00000000 set_text
C:\Users\admin\AppData\Local\Temp\ccR2JeRl.s:137    .text.reset_pos:00000000 $t
C:\Users\admin\AppData\Local\Temp\ccR2JeRl.s:143    .text.reset_pos:00000000 reset_pos
C:\Users\admin\AppData\Local\Temp\ccR2JeRl.s:161    .text.list_files_over_bt:00000000 $t
C:\Users\admin\AppData\Local\Temp\ccR2JeRl.s:167    .text.list_files_over_bt:00000000 list_files_over_bt
C:\Users\admin\AppData\Local\Temp\ccR2JeRl.s:237    .text.list_files_over_bt:00000040 $d
C:\Users\admin\AppData\Local\Temp\ccR2JeRl.s:244    .text.toggle_solenoid:00000000 $t
C:\Users\admin\AppData\Local\Temp\ccR2JeRl.s:250    .text.toggle_solenoid:00000000 toggle_solenoid
C:\Users\admin\AppData\Local\Temp\ccR2JeRl.s:470    .text.toggle_solenoid:000000e8 $d
C:\Users\admin\AppData\Local\Temp\ccR2JeRl.s:2047   .rodata.solenoids:00000000 solenoids
C:\Users\admin\AppData\Local\Temp\ccR2JeRl.s:478    .text.debug_traversal:00000000 $t
C:\Users\admin\AppData\Local\Temp\ccR2JeRl.s:484    .text.debug_traversal:00000000 debug_traversal
C:\Users\admin\AppData\Local\Temp\ccR2JeRl.s:626    .text.debug_traversal:000000b8 $d
C:\Users\admin\AppData\Local\Temp\ccR2JeRl.s:638    .text.parse_command:00000000 $t
C:\Users\admin\AppData\Local\Temp\ccR2JeRl.s:644    .text.parse_command:00000000 parse_command
C:\Users\admin\AppData\Local\Temp\ccR2JeRl.s:1298   .text.traversal:00000000 traversal
C:\Users\admin\AppData\Local\Temp\ccR2JeRl.s:1718   .text.traversal_debug_mode:00000000 traversal_debug_mode
C:\Users\admin\AppData\Local\Temp\ccR2JeRl.s:1097   .text.parse_command:000001b0 $d
C:\Users\admin\AppData\Local\Temp\ccR2JeRl.s:1110   .rodata.execute_command.str1.4:00000000 $d
C:\Users\admin\AppData\Local\Temp\ccR2JeRl.s:1126   .text.execute_command:00000000 $t
C:\Users\admin\AppData\Local\Temp\ccR2JeRl.s:1132   .text.execute_command:00000000 execute_command
C:\Users\admin\AppData\Local\Temp\ccR2JeRl.s:1264   .text.execute_command:0000009c $d
C:\Users\admin\AppData\Local\Temp\ccR2JeRl.s:1273   .rodata.traversal.str1.4:00000000 $d
C:\Users\admin\AppData\Local\Temp\ccR2JeRl.s:1292   .text.traversal:00000000 $t
C:\Users\admin\AppData\Local\Temp\ccR2JeRl.s:1685   .text.traversal:000001fc $d
C:\Users\admin\AppData\Local\Temp\ccR2JeRl.s:2041   .bss.cmd_listen:00000000 cmd_listen
C:\Users\admin\AppData\Local\Temp\ccR2JeRl.s:1708   .rodata.traversal_debug_mode.str1.4:00000000 $d
C:\Users\admin\AppData\Local\Temp\ccR2JeRl.s:1712   .text.traversal_debug_mode:00000000 $t
C:\Users\admin\AppData\Local\Temp\ccR2JeRl.s:2017   .text.traversal_debug_mode:0000017c $d
C:\Users\admin\AppData\Local\Temp\ccR2JeRl.s:2038   .bss.cmd_listen:00000000 $d
C:\Users\admin\AppData\Local\Temp\ccR2JeRl.s:2044   .rodata.solenoids:00000000 $d

UNDEFINED SYMBOLS
chord_events
LCD_draw_string
sd_list_txt_files
pkt_send_file_entry
pkt_send_file_list_end
huart2
fileList
fileCount
HAL_GPIO_WritePin
wait_ms
pwm_mode
right_motor
left_motor
right_motor_arrived
left_motor_arrived
htim1
load_debug_song
menu_get_state
ARM GAS  C:\Users\admin\AppData\Local\Temp\ccR2JeRl.s 			page 56


menu_set_state
pkt_send_ui_state
strtof
load_debug_song2
load_debug_song3
menu_back
menu_move_up
menu_move_down
menu_enter
stop_playing
pkt_send_play_status
pkt_send_heartbeat
memcpy
menu_process_message
rx_complete
rx_valid
rx_message
