ARM GAS  C:\Users\admin\AppData\Local\Temp\ccfiAF59.s 			page 1


   1              		.cpu cortex-m33
   2              		.arch armv8-m.main
   3              		.fpu fpv5-sp-d16
   4              		.arch_extension dsp
   5              		.eabi_attribute 27, 1
   6              		.eabi_attribute 28, 1
   7              		.eabi_attribute 20, 1
   8              		.eabi_attribute 21, 1
   9              		.eabi_attribute 23, 3
  10              		.eabi_attribute 24, 1
  11              		.eabi_attribute 25, 1
  12              		.eabi_attribute 26, 1
  13              		.eabi_attribute 30, 1
  14              		.eabi_attribute 34, 1
  15              		.eabi_attribute 18, 4
  16              		.file	"command.c"
  17              		.text
  18              	.Ltext0:
  19              		.cfi_sections	.debug_frame
  20              		.file 1 "./Application/Src/command.c"
  21              		.section	.text.set_text,"ax",%progbits
  22              		.align	1
  23              		.global	set_text
  24              		.syntax unified
  25              		.thumb
  26              		.thumb_func
  28              	set_text:
  29              	.LVL0:
  30              	.LFB361:
   1:./Application/Src/command.c **** #include <command.h>
   2:./Application/Src/command.c **** #include <stdio.h>
   3:./Application/Src/command.c **** #include <stdlib.h>
   4:./Application/Src/command.c **** #include "stm32h5xx_hal.h"
   5:./Application/Src/command.c **** #include <application.h>
   6:./Application/Src/command.c **** #include <diskio.h>
   7:./Application/Src/command.c **** #include <sd.h>
   8:./Application/Src/command.c **** #include <hc04.h>
   9:./Application/Src/command.c **** #include <menu.h>
  10:./Application/Src/command.c **** #include <user_timer.h>
  11:./Application/Src/command.c **** #include <tim.h>
  12:./Application/Src/command.c **** 
  13:./Application/Src/command.c **** extern PID_t left_motor;
  14:./Application/Src/command.c **** extern PID_t right_motor;
  15:./Application/Src/command.c **** 
  16:./Application/Src/command.c **** uint8_t motor_off;
  17:./Application/Src/command.c **** 
  18:./Application/Src/command.c **** int parse_command(uint8_t *cmd)
  19:./Application/Src/command.c **** {
  20:./Application/Src/command.c ****     /* ---- Colon commands (:p, :w, :s, :r, :d, :a) ---- */
  21:./Application/Src/command.c ****     if (cmd[0] == ':'){
  22:./Application/Src/command.c ****         switch (cmd[1]){
  23:./Application/Src/command.c ****         case 'p':{ /* :p <value> — set position in mm */
  24:./Application/Src/command.c ****             char *arg = (char *)cmd + 3;
  25:./Application/Src/command.c ****             while (*arg == ' ')
  26:./Application/Src/command.c ****                 arg++;
  27:./Application/Src/command.c ****             if (*arg == '\0')
  28:./Application/Src/command.c ****                 return 3; /* incomplete */
ARM GAS  C:\Users\admin\AppData\Local\Temp\ccfiAF59.s 			page 2


  29:./Application/Src/command.c **** 
  30:./Application/Src/command.c ****             // separate left and right
  31:./Application/Src/command.c ****             if (cmd[2] == 'l'){
  32:./Application/Src/command.c ****                 left_motor.target_pos = strtof(arg, NULL);
  33:./Application/Src/command.c ****             }
  34:./Application/Src/command.c ****             else if (cmd[2] == 'r'){
  35:./Application/Src/command.c ****                 right_motor.target_pos = strtof(arg, NULL);
  36:./Application/Src/command.c ****             }
  37:./Application/Src/command.c ****             else {
  38:./Application/Src/command.c ****                 return 1;
  39:./Application/Src/command.c ****             }
  40:./Application/Src/command.c ****             return 0;
  41:./Application/Src/command.c ****         }
  42:./Application/Src/command.c ****         case 'w': /* :w — menu move up */
  43:./Application/Src/command.c ****             menu_move_up = 1;
  44:./Application/Src/command.c ****             return 0;
  45:./Application/Src/command.c ****         case 's': /* :s — menu move down */
  46:./Application/Src/command.c ****             menu_move_down = 1;
  47:./Application/Src/command.c ****             return 0;
  48:./Application/Src/command.c ****         case 'r': /* :r — reset encoder position */
  49:./Application/Src/command.c ****             // reset_pos(&htim2);
  50:./Application/Src/command.c ****             return 0;
  51:./Application/Src/command.c ****         case 'd': /* :d — enter / select current menu item */
  52:./Application/Src/command.c ****             menu_enter = 1;
  53:./Application/Src/command.c ****             return 0;
  54:./Application/Src/command.c ****         case 'a': /* :a — back to main menu */
  55:./Application/Src/command.c ****             menu_back = 1;
  56:./Application/Src/command.c ****             return 0;
  57:./Application/Src/command.c ****         case 't': // set text in LCD
  58:./Application/Src/command.c ****             char *arg = (char *)cmd + 2;
  59:./Application/Src/command.c ****             while (*arg == ' ')
  60:./Application/Src/command.c ****                 arg++;
  61:./Application/Src/command.c ****             if (*arg == '\0')
  62:./Application/Src/command.c ****                 return 3; /* incomplete */
  63:./Application/Src/command.c ****             set_text((uint8_t *)arg);
  64:./Application/Src/command.c ****             return 0;
  65:./Application/Src/command.c ****         case 'o': // reset position
  66:./Application/Src/command.c ****             // reset_pos(&htim2);
  67:./Application/Src/command.c ****             return 0;
  68:./Application/Src/command.c ****         case 'l':
  69:./Application/Src/command.c ****             // list_files_over_bt();
  70:./Application/Src/command.c ****             return 0;
  71:./Application/Src/command.c **** 
  72:./Application/Src/command.c ****         case 'z':
  73:./Application/Src/command.c ****             // here begin test traversal:
  74:./Application/Src/command.c ****             traversal();
  75:./Application/Src/command.c ****             // debug_traversal();
  76:./Application/Src/command.c ****             return 0;
  77:./Application/Src/command.c ****         
  78:./Application/Src/command.c ****         case 'x':
  79:./Application/Src/command.c ****             // here begin test traversal:
  80:./Application/Src/command.c ****             debug_traversal();
  81:./Application/Src/command.c ****             // debug_traversal();
  82:./Application/Src/command.c ****             return 0;
  83:./Application/Src/command.c **** 
  84:./Application/Src/command.c ****         default:
  85:./Application/Src/command.c ****             return 1; /* unknown colon command */
ARM GAS  C:\Users\admin\AppData\Local\Temp\ccfiAF59.s 			page 3


  86:./Application/Src/command.c ****         }
  87:./Application/Src/command.c ****     }
  88:./Application/Src/command.c **** 
  89:./Application/Src/command.c ****     else if (cmd[0] == ';'){
  90:./Application/Src/command.c ****         switch (cmd[1]){
  91:./Application/Src/command.c ****         case 'p':{ /* :p <value> — set position in mm */
  92:./Application/Src/command.c ****             char *arg = (char *)cmd + 3;
  93:./Application/Src/command.c ****             while (*arg == ' ')
  94:./Application/Src/command.c ****                 arg++;
  95:./Application/Src/command.c ****             if (*arg == '\0')
  96:./Application/Src/command.c ****                 return 3; /* incomplete */
  97:./Application/Src/command.c **** 
  98:./Application/Src/command.c ****             // separate left and right
  99:./Application/Src/command.c ****             if (cmd[2] == 'l'){
 100:./Application/Src/command.c ****                 left_motor.Kp = strtof(arg, NULL);
 101:./Application/Src/command.c ****             }
 102:./Application/Src/command.c ****             else if (cmd[2] == 'r'){
 103:./Application/Src/command.c ****                 left_motor.Kp = strtof(arg, NULL);
 104:./Application/Src/command.c ****             }
 105:./Application/Src/command.c ****             else {
 106:./Application/Src/command.c ****                 return 1;
 107:./Application/Src/command.c ****             }
 108:./Application/Src/command.c ****             return 0;
 109:./Application/Src/command.c ****         }
 110:./Application/Src/command.c ****         case 'i':{ /* :p <value> — set position in mm */
 111:./Application/Src/command.c ****             char *arg = (char *)cmd + 3;
 112:./Application/Src/command.c ****             while (*arg == ' ')
 113:./Application/Src/command.c ****                 arg++;
 114:./Application/Src/command.c ****             if (*arg == '\0')
 115:./Application/Src/command.c ****                 return 3; /* incomplete */
 116:./Application/Src/command.c **** 
 117:./Application/Src/command.c ****             // separate left and right
 118:./Application/Src/command.c ****             if (cmd[2] == 'l'){
 119:./Application/Src/command.c ****                 left_motor.Ki = strtof(arg, NULL);
 120:./Application/Src/command.c ****             }
 121:./Application/Src/command.c ****             else if (cmd[2] == 'r'){
 122:./Application/Src/command.c ****                 left_motor.Ki = strtof(arg, NULL);
 123:./Application/Src/command.c ****             }
 124:./Application/Src/command.c ****             else {
 125:./Application/Src/command.c ****                 return 1;
 126:./Application/Src/command.c ****             }
 127:./Application/Src/command.c ****             return 0;
 128:./Application/Src/command.c ****         }
 129:./Application/Src/command.c ****         case 'd':{ /* :p <value> — set position in mm */
 130:./Application/Src/command.c ****             char *arg = (char *)cmd + 3;
 131:./Application/Src/command.c ****             while (*arg == ' ')
 132:./Application/Src/command.c ****                 arg++;
 133:./Application/Src/command.c ****             if (*arg == '\0')
 134:./Application/Src/command.c ****                 return 3; /* incomplete */
 135:./Application/Src/command.c **** 
 136:./Application/Src/command.c ****             // separate left and right
 137:./Application/Src/command.c ****             if (cmd[2] == 'l'){
 138:./Application/Src/command.c ****                 left_motor.Kd = strtof(arg, NULL);
 139:./Application/Src/command.c ****             }
 140:./Application/Src/command.c ****             else if (cmd[2] == 'r'){
 141:./Application/Src/command.c ****                 left_motor.Kd = strtof(arg, NULL);
 142:./Application/Src/command.c ****             }
ARM GAS  C:\Users\admin\AppData\Local\Temp\ccfiAF59.s 			page 4


 143:./Application/Src/command.c ****             else {
 144:./Application/Src/command.c ****                 return 1;
 145:./Application/Src/command.c ****             }
 146:./Application/Src/command.c ****             return 0;
 147:./Application/Src/command.c ****         }
 148:./Application/Src/command.c ****         }
 149:./Application/Src/command.c ****     }
 150:./Application/Src/command.c ****     return 1;
 151:./Application/Src/command.c **** }
 152:./Application/Src/command.c **** 
 153:./Application/Src/command.c **** void execute_command(uint8_t *command)
 154:./Application/Src/command.c **** {
 155:./Application/Src/command.c ****     int result = parse_command(command);
 156:./Application/Src/command.c ****     if (result == 0)
 157:./Application/Src/command.c ****     {
 158:./Application/Src/command.c ****         LCD_draw_string(0, 14, "OK.                      ", COLOR_BLACK, COLOR_WHITE);
 159:./Application/Src/command.c ****         LCD_draw_string(0, 15, "                         ", COLOR_BLACK, COLOR_WHITE);
 160:./Application/Src/command.c ****     }
 161:./Application/Src/command.c ****     else if (result == 1)
 162:./Application/Src/command.c ****     {
 163:./Application/Src/command.c ****         LCD_draw_string(0, 14, "Cannot parse!            ", COLOR_BLACK, COLOR_WHITE);
 164:./Application/Src/command.c ****         LCD_draw_string(0, 15, (char*)command, COLOR_BLACK, COLOR_WHITE);
 165:./Application/Src/command.c ****     }
 166:./Application/Src/command.c ****     else if (result == 2)
 167:./Application/Src/command.c ****     {
 168:./Application/Src/command.c ****         LCD_draw_string(0, 14, "Empty command!           ", COLOR_BLACK, COLOR_WHITE);
 169:./Application/Src/command.c ****     }
 170:./Application/Src/command.c ****     else if (result == 3)
 171:./Application/Src/command.c ****     {
 172:./Application/Src/command.c ****         LCD_draw_string(0, 14, "Incomplete command!      ", COLOR_BLACK, COLOR_WHITE);
 173:./Application/Src/command.c ****         LCD_draw_string(0, 15, (char*)command, COLOR_BLACK, COLOR_WHITE);
 174:./Application/Src/command.c ****     }
 175:./Application/Src/command.c **** }
 176:./Application/Src/command.c **** 
 177:./Application/Src/command.c **** void set_text(uint8_t *displayedText)
 178:./Application/Src/command.c **** {
  31              		.loc 1 178 1 view -0
  32              		.cfi_startproc
  33              		@ args = 0, pretend = 0, frame = 0
  34              		@ frame_needed = 0, uses_anonymous_args = 0
  35              		.loc 1 178 1 is_stmt 0 view .LVU1
  36 0000 00B5     		push	{lr}
  37              	.LCFI0:
  38              		.cfi_def_cfa_offset 4
  39              		.cfi_offset 14, -4
  40 0002 83B0     		sub	sp, sp, #12
  41              	.LCFI1:
  42              		.cfi_def_cfa_offset 16
  43 0004 0246     		mov	r2, r0
 179:./Application/Src/command.c ****     LCD_draw_string(0, 13, (char *)displayedText, COLOR_BLACK, COLOR_WHITE);
  44              		.loc 1 179 5 is_stmt 1 view .LVU2
  45 0006 4FF6FF73 		movw	r3, #65535
  46 000a 0093     		str	r3, [sp]
  47 000c 0023     		movs	r3, #0
  48 000e 0D21     		movs	r1, #13
  49 0010 1846     		mov	r0, r3
  50              	.LVL1:
ARM GAS  C:\Users\admin\AppData\Local\Temp\ccfiAF59.s 			page 5


  51              		.loc 1 179 5 is_stmt 0 view .LVU3
  52 0012 FFF7FEFF 		bl	LCD_draw_string
  53              	.LVL2:
 180:./Application/Src/command.c **** }
  54              		.loc 1 180 1 view .LVU4
  55 0016 03B0     		add	sp, sp, #12
  56              	.LCFI2:
  57              		.cfi_def_cfa_offset 4
  58              		@ sp needed
  59 0018 00BD     		pop	{pc}
  60              		.cfi_endproc
  61              	.LFE361:
  63              		.section	.text.reset_pos,"ax",%progbits
  64              		.align	1
  65              		.global	reset_pos
  66              		.syntax unified
  67              		.thumb
  68              		.thumb_func
  70              	reset_pos:
  71              	.LVL3:
  72              	.LFB362:
 181:./Application/Src/command.c **** 
 182:./Application/Src/command.c **** void reset_pos(TIM_HandleTypeDef *htim)
 183:./Application/Src/command.c **** {
  73              		.loc 1 183 1 is_stmt 1 view -0
  74              		.cfi_startproc
  75              		@ args = 0, pretend = 0, frame = 0
  76              		@ frame_needed = 0, uses_anonymous_args = 0
  77              		@ link register save eliminated.
 184:./Application/Src/command.c ****     // encoder_old_position_mm = 0.0f;
 185:./Application/Src/command.c ****     __HAL_TIM_SET_COUNTER(htim, 0);
  78              		.loc 1 185 5 view .LVU6
  79 0000 0368     		ldr	r3, [r0]
  80 0002 0022     		movs	r2, #0
  81 0004 5A62     		str	r2, [r3, #36]
 186:./Application/Src/command.c **** }
  82              		.loc 1 186 1 is_stmt 0 view .LVU7
  83 0006 7047     		bx	lr
  84              		.cfi_endproc
  85              	.LFE362:
  87              		.section	.rodata.list_files_over_bt.str1.4,"aMS",%progbits,1
  88              		.align	2
  89              	.LC0:
  90 0000 454E440A 		.ascii	"END\012\000"
  90      00
  91              		.section	.text.list_files_over_bt,"ax",%progbits
  92              		.align	1
  93              		.global	list_files_over_bt
  94              		.syntax unified
  95              		.thumb
  96              		.thumb_func
  98              	list_files_over_bt:
  99              	.LFB363:
 187:./Application/Src/command.c **** 
 188:./Application/Src/command.c **** /*
 189:./Application/Src/command.c ****  * Send the TXT file list over Bluetooth in the format expected by hc04.py:
 190:./Application/Src/command.c ****  *   FILES:<count>\n
ARM GAS  C:\Users\admin\AppData\Local\Temp\ccfiAF59.s 			page 6


 191:./Application/Src/command.c ****  *   <filename>,<size>\n
 192:./Application/Src/command.c ****  *   ...
 193:./Application/Src/command.c ****  *   END\n
 194:./Application/Src/command.c ****  */
 195:./Application/Src/command.c **** void list_files_over_bt(void)
 196:./Application/Src/command.c **** {
 100              		.loc 1 196 1 is_stmt 1 view -0
 101              		.cfi_startproc
 102              		@ args = 0, pretend = 0, frame = 0
 103              		@ frame_needed = 0, uses_anonymous_args = 0
 104 0000 08B5     		push	{r3, lr}
 105              	.LCFI3:
 106              		.cfi_def_cfa_offset 8
 107              		.cfi_offset 3, -8
 108              		.cfi_offset 14, -4
 197:./Application/Src/command.c ****     // char buf[40];
 198:./Application/Src/command.c **** 
 199:./Application/Src/command.c ****     // /* Refresh file list from SD card */
 200:./Application/Src/command.c ****     // int count = sd_list_txt_files();
 201:./Application/Src/command.c **** 
 202:./Application/Src/command.c ****     // snprintf(buf, sizeof(buf), "FILES:%d\n", count);
 203:./Application/Src/command.c ****     // HC04_SendString(buf);
 204:./Application/Src/command.c **** 
 205:./Application/Src/command.c ****     // for (int i = 0; i < count; i++)
 206:./Application/Src/command.c ****     // {
 207:./Application/Src/command.c ****     //     snprintf(buf, sizeof(buf), "%s,%lu\n",
 208:./Application/Src/command.c ****     //              fileList[i].name, (unsigned long)fileList[i].size);
 209:./Application/Src/command.c ****     //     HC04_SendString(buf);
 210:./Application/Src/command.c ****     // }
 211:./Application/Src/command.c **** 
 212:./Application/Src/command.c ****     hc04_send_string((uint8_t*)"END\n");
 109              		.loc 1 212 5 view .LVU9
 110 0002 0248     		ldr	r0, .L6
 111 0004 FFF7FEFF 		bl	hc04_send_string
 112              	.LVL4:
 213:./Application/Src/command.c **** }
 113              		.loc 1 213 1 is_stmt 0 view .LVU10
 114 0008 08BD     		pop	{r3, pc}
 115              	.L7:
 116 000a 00BF     		.align	2
 117              	.L6:
 118 000c 00000000 		.word	.LC0
 119              		.cfi_endproc
 120              	.LFE363:
 122              		.section	.text.toggle_solenoid,"ax",%progbits
 123              		.align	1
 124              		.global	toggle_solenoid
 125              		.syntax unified
 126              		.thumb
 127              		.thumb_func
 129              	toggle_solenoid:
 130              	.LVL5:
 131              	.LFB364:
 214:./Application/Src/command.c **** 
 215:./Application/Src/command.c **** void toggle_solenoid(uint16_t traversal_index){
 132              		.loc 1 215 47 is_stmt 1 view -0
 133              		.cfi_startproc
ARM GAS  C:\Users\admin\AppData\Local\Temp\ccfiAF59.s 			page 7


 134              		@ args = 0, pretend = 0, frame = 0
 135              		@ frame_needed = 0, uses_anonymous_args = 0
 136              		.loc 1 215 47 is_stmt 0 view .LVU12
 137 0000 38B5     		push	{r3, r4, r5, lr}
 138              	.LCFI4:
 139              		.cfi_def_cfa_offset 16
 140              		.cfi_offset 3, -16
 141              		.cfi_offset 4, -12
 142              		.cfi_offset 5, -8
 143              		.cfi_offset 14, -4
 144 0002 0546     		mov	r5, r0
 216:./Application/Src/command.c ****     motor_off = 1;
 145              		.loc 1 216 5 is_stmt 1 view .LVU13
 146              		.loc 1 216 15 is_stmt 0 view .LVU14
 147 0004 384B     		ldr	r3, .L24
 148 0006 0122     		movs	r2, #1
 149 0008 1A70     		strb	r2, [r3]
 217:./Application/Src/command.c ****     for (int i = 0; i < 10; i++) {
 150              		.loc 1 217 5 is_stmt 1 view .LVU15
 151              	.LBB2:
 152              		.loc 1 217 10 view .LVU16
 153              	.LVL6:
 154              		.loc 1 217 14 is_stmt 0 view .LVU17
 155 000a 0024     		movs	r4, #0
 156              		.loc 1 217 5 view .LVU18
 157 000c 0FE0     		b	.L9
 158              	.LVL7:
 159              	.L10:
 218:./Application/Src/command.c ****         HAL_GPIO_WritePin(solenoids[i].port, solenoids[i].pin, chord_events[traversal_index].presse
 160              		.loc 1 218 9 is_stmt 1 view .LVU19
 161              		.loc 1 218 39 is_stmt 0 view .LVU20
 162 000e 3748     		ldr	r0, .L24+4
 163              		.loc 1 218 58 view .LVU21
 164 0010 00EBC401 		add	r1, r0, r4, lsl #3
 165              		.loc 1 218 101 view .LVU22
 166 0014 05EB4502 		add	r2, r5, r5, lsl #1
 167 0018 354B     		ldr	r3, .L24+8
 168 001a 03EBC203 		add	r3, r3, r2, lsl #3
 169 001e 2344     		add	r3, r3, r4
 170              		.loc 1 218 9 view .LVU23
 171 0020 1A7A     		ldrb	r2, [r3, #8]	@ zero_extendqisi2
 172 0022 8988     		ldrh	r1, [r1, #4]
 173 0024 50F83400 		ldr	r0, [r0, r4, lsl #3]
 174 0028 FFF7FEFF 		bl	HAL_GPIO_WritePin
 175              	.LVL8:
 217:./Application/Src/command.c ****     for (int i = 0; i < 10; i++) {
 176              		.loc 1 217 30 is_stmt 1 discriminator 3 view .LVU24
 177 002c 0134     		adds	r4, r4, #1
 178              	.LVL9:
 179              	.L9:
 217:./Application/Src/command.c ****     for (int i = 0; i < 10; i++) {
 180              		.loc 1 217 23 discriminator 1 view .LVU25
 181 002e 092C     		cmp	r4, #9
 182 0030 EDDD     		ble	.L10
 183              	.LBE2:
 219:./Application/Src/command.c ****     }
 220:./Application/Src/command.c ****     // wait for the duration of the chord:
ARM GAS  C:\Users\admin\AppData\Local\Temp\ccfiAF59.s 			page 8


 221:./Application/Src/command.c ****     wait_ms(chord_events[traversal_index].duration_ms);
 184              		.loc 1 221 5 view .LVU26
 185 0032 05EB4503 		add	r3, r5, r5, lsl #1
 186 0036 2E4C     		ldr	r4, .L24+8
 187              	.LVL10:
 188              		.loc 1 221 5 is_stmt 0 view .LVU27
 189 0038 04EBC304 		add	r4, r4, r3, lsl #3
 190 003c 608A     		ldrh	r0, [r4, #18]
 191 003e FFF7FEFF 		bl	wait_ms
 192              	.LVL11:
 222:./Application/Src/command.c ****     // reset solenoids based on which hand changes position next
 223:./Application/Src/command.c ****     if (chord_events[traversal_index].long_pressed[0]){ // left hand long press, keep it pressed
 193              		.loc 1 223 5 is_stmt 1 view .LVU28
 194              		.loc 1 223 51 is_stmt 0 view .LVU29
 195 0042 237D     		ldrb	r3, [r4, #20]	@ zero_extendqisi2
 196              		.loc 1 223 8 view .LVU30
 197 0044 E3B9     		cbnz	r3, .L21
 198              	.LBB3:
 224:./Application/Src/command.c ****         for (int i = 0; i < 7; i++) {
 225:./Application/Src/command.c ****             HAL_GPIO_WritePin(solenoids[i].port, solenoids[i].pin, chord_events[traversal_index].pr
 226:./Application/Src/command.c ****         }
 227:./Application/Src/command.c ****     } else { // reset all left hand solenoids, since short click
 228:./Application/Src/command.c ****         for (int i = 0; i < 7; i++) {
 199              		.loc 1 228 18 view .LVU31
 200 0046 1C46     		mov	r4, r3
 201 0048 26E0     		b	.L12
 202              	.LVL12:
 203              	.L13:
 204              		.loc 1 228 18 view .LVU32
 205              	.LBE3:
 206              	.LBB4:
 225:./Application/Src/command.c ****         }
 207              		.loc 1 225 13 is_stmt 1 view .LVU33
 225:./Application/Src/command.c ****         }
 208              		.loc 1 225 43 is_stmt 0 view .LVU34
 209 004a 2848     		ldr	r0, .L24+4
 225:./Application/Src/command.c ****         }
 210              		.loc 1 225 62 view .LVU35
 211 004c 00EBC401 		add	r1, r0, r4, lsl #3
 225:./Application/Src/command.c ****         }
 212              		.loc 1 225 105 view .LVU36
 213 0050 05EB4502 		add	r2, r5, r5, lsl #1
 214 0054 264B     		ldr	r3, .L24+8
 215 0056 03EBC203 		add	r3, r3, r2, lsl #3
 216 005a 2344     		add	r3, r3, r4
 225:./Application/Src/command.c ****         }
 217              		.loc 1 225 13 view .LVU37
 218 005c 1A7A     		ldrb	r2, [r3, #8]	@ zero_extendqisi2
 219 005e 8988     		ldrh	r1, [r1, #4]
 220 0060 50F83400 		ldr	r0, [r0, r4, lsl #3]
 221 0064 FFF7FEFF 		bl	HAL_GPIO_WritePin
 222              	.LVL13:
 224:./Application/Src/command.c ****         for (int i = 0; i < 7; i++) {
 223              		.loc 1 224 33 is_stmt 1 discriminator 3 view .LVU38
 224 0068 0134     		adds	r4, r4, #1
 225              	.LVL14:
 226              	.L11:
ARM GAS  C:\Users\admin\AppData\Local\Temp\ccfiAF59.s 			page 9


 224:./Application/Src/command.c ****         for (int i = 0; i < 7; i++) {
 227              		.loc 1 224 27 discriminator 1 view .LVU39
 228 006a 062C     		cmp	r4, #6
 229 006c EDDD     		ble	.L13
 230              	.LVL15:
 231              	.L14:
 224:./Application/Src/command.c ****         for (int i = 0; i < 7; i++) {
 232              		.loc 1 224 27 is_stmt 0 discriminator 1 view .LVU40
 233              	.LBE4:
 229:./Application/Src/command.c ****             HAL_GPIO_WritePin(solenoids[i].port, solenoids[i].pin, GPIO_PIN_RESET);
 230:./Application/Src/command.c ****         }
 231:./Application/Src/command.c **** 
 232:./Application/Src/command.c ****     }
 233:./Application/Src/command.c ****     
 234:./Application/Src/command.c ****     if (chord_events[traversal_index].long_pressed[1]){ // right hand long press, reset left hand s
 234              		.loc 1 234 5 is_stmt 1 view .LVU41
 235              		.loc 1 234 51 is_stmt 0 view .LVU42
 236 006e 05EB4502 		add	r2, r5, r5, lsl #1
 237 0072 1F4B     		ldr	r3, .L24+8
 238 0074 03EBC203 		add	r3, r3, r2, lsl #3
 239 0078 5B7D     		ldrb	r3, [r3, #21]	@ zero_extendqisi2
 240              		.loc 1 234 8 view .LVU43
 241 007a 33BB     		cbnz	r3, .L22
 242              	.LBB5:
 235:./Application/Src/command.c ****         for (int i = 7; i < 10; i++) {
 236:./Application/Src/command.c ****             HAL_GPIO_WritePin(solenoids[i].port, solenoids[i].pin, chord_events[traversal_index].pr
 237:./Application/Src/command.c ****         }
 238:./Application/Src/command.c ****     } else { // short click for right
 239:./Application/Src/command.c ****         for (int i = 7; i < 10; i++) {
 243              		.loc 1 239 18 view .LVU44
 244 007c 0724     		movs	r4, #7
 245 007e 30E0     		b	.L17
 246              	.L21:
 247              		.loc 1 239 18 view .LVU45
 248              	.LBE5:
 249              	.LBB6:
 224:./Application/Src/command.c ****             HAL_GPIO_WritePin(solenoids[i].port, solenoids[i].pin, chord_events[traversal_index].pr
 250              		.loc 1 224 18 view .LVU46
 251 0080 0024     		movs	r4, #0
 252 0082 F2E7     		b	.L11
 253              	.LVL16:
 254              	.L15:
 224:./Application/Src/command.c ****             HAL_GPIO_WritePin(solenoids[i].port, solenoids[i].pin, chord_events[traversal_index].pr
 255              		.loc 1 224 18 view .LVU47
 256              	.LBE6:
 257              	.LBB7:
 229:./Application/Src/command.c ****             HAL_GPIO_WritePin(solenoids[i].port, solenoids[i].pin, GPIO_PIN_RESET);
 258              		.loc 1 229 13 is_stmt 1 view .LVU48
 229:./Application/Src/command.c ****             HAL_GPIO_WritePin(solenoids[i].port, solenoids[i].pin, GPIO_PIN_RESET);
 259              		.loc 1 229 43 is_stmt 0 view .LVU49
 260 0084 194B     		ldr	r3, .L24+4
 229:./Application/Src/command.c ****             HAL_GPIO_WritePin(solenoids[i].port, solenoids[i].pin, GPIO_PIN_RESET);
 261              		.loc 1 229 62 view .LVU50
 262 0086 03EBC401 		add	r1, r3, r4, lsl #3
 229:./Application/Src/command.c ****             HAL_GPIO_WritePin(solenoids[i].port, solenoids[i].pin, GPIO_PIN_RESET);
 263              		.loc 1 229 13 view .LVU51
 264 008a 0022     		movs	r2, #0
ARM GAS  C:\Users\admin\AppData\Local\Temp\ccfiAF59.s 			page 10


 265 008c 8988     		ldrh	r1, [r1, #4]
 266 008e 53F83400 		ldr	r0, [r3, r4, lsl #3]
 267 0092 FFF7FEFF 		bl	HAL_GPIO_WritePin
 268              	.LVL17:
 228:./Application/Src/command.c ****             HAL_GPIO_WritePin(solenoids[i].port, solenoids[i].pin, GPIO_PIN_RESET);
 269              		.loc 1 228 33 is_stmt 1 discriminator 3 view .LVU52
 270 0096 0134     		adds	r4, r4, #1
 271              	.LVL18:
 272              	.L12:
 228:./Application/Src/command.c ****             HAL_GPIO_WritePin(solenoids[i].port, solenoids[i].pin, GPIO_PIN_RESET);
 273              		.loc 1 228 27 discriminator 1 view .LVU53
 274 0098 062C     		cmp	r4, #6
 275 009a F3DD     		ble	.L15
 276 009c E7E7     		b	.L14
 277              	.LVL19:
 278              	.L18:
 228:./Application/Src/command.c ****             HAL_GPIO_WritePin(solenoids[i].port, solenoids[i].pin, GPIO_PIN_RESET);
 279              		.loc 1 228 27 is_stmt 0 discriminator 1 view .LVU54
 280              	.LBE7:
 281              	.LBB8:
 236:./Application/Src/command.c ****         }
 282              		.loc 1 236 13 is_stmt 1 view .LVU55
 236:./Application/Src/command.c ****         }
 283              		.loc 1 236 43 is_stmt 0 view .LVU56
 284 009e 1348     		ldr	r0, .L24+4
 236:./Application/Src/command.c ****         }
 285              		.loc 1 236 62 view .LVU57
 286 00a0 00EBC401 		add	r1, r0, r4, lsl #3
 236:./Application/Src/command.c ****         }
 287              		.loc 1 236 105 view .LVU58
 288 00a4 05EB4502 		add	r2, r5, r5, lsl #1
 289 00a8 114B     		ldr	r3, .L24+8
 290 00aa 03EBC203 		add	r3, r3, r2, lsl #3
 291 00ae 2344     		add	r3, r3, r4
 236:./Application/Src/command.c ****         }
 292              		.loc 1 236 13 view .LVU59
 293 00b0 1A7A     		ldrb	r2, [r3, #8]	@ zero_extendqisi2
 294 00b2 8988     		ldrh	r1, [r1, #4]
 295 00b4 50F83400 		ldr	r0, [r0, r4, lsl #3]
 296 00b8 FFF7FEFF 		bl	HAL_GPIO_WritePin
 297              	.LVL20:
 235:./Application/Src/command.c ****             HAL_GPIO_WritePin(solenoids[i].port, solenoids[i].pin, chord_events[traversal_index].pr
 298              		.loc 1 235 34 is_stmt 1 discriminator 3 view .LVU60
 299 00bc 0134     		adds	r4, r4, #1
 300              	.LVL21:
 301              	.L16:
 235:./Application/Src/command.c ****             HAL_GPIO_WritePin(solenoids[i].port, solenoids[i].pin, chord_events[traversal_index].pr
 302              		.loc 1 235 27 discriminator 1 view .LVU61
 303 00be 092C     		cmp	r4, #9
 304 00c0 EDDD     		ble	.L18
 305              	.LVL22:
 306              	.L19:
 235:./Application/Src/command.c ****             HAL_GPIO_WritePin(solenoids[i].port, solenoids[i].pin, chord_events[traversal_index].pr
 307              		.loc 1 235 27 is_stmt 0 discriminator 1 view .LVU62
 308              	.LBE8:
 240:./Application/Src/command.c ****             HAL_GPIO_WritePin(solenoids[i].port, solenoids[i].pin, GPIO_PIN_RESET);
 241:./Application/Src/command.c ****         }
ARM GAS  C:\Users\admin\AppData\Local\Temp\ccfiAF59.s 			page 11


 242:./Application/Src/command.c ****     }
 243:./Application/Src/command.c ****     motor_off = 0;
 309              		.loc 1 243 5 is_stmt 1 view .LVU63
 310              		.loc 1 243 15 is_stmt 0 view .LVU64
 311 00c2 094B     		ldr	r3, .L24
 312 00c4 0022     		movs	r2, #0
 313 00c6 1A70     		strb	r2, [r3]
 244:./Application/Src/command.c **** }
 314              		.loc 1 244 1 view .LVU65
 315 00c8 38BD     		pop	{r3, r4, r5, pc}
 316              	.LVL23:
 317              	.L22:
 318              	.LBB9:
 235:./Application/Src/command.c ****             HAL_GPIO_WritePin(solenoids[i].port, solenoids[i].pin, chord_events[traversal_index].pr
 319              		.loc 1 235 18 view .LVU66
 320 00ca 0724     		movs	r4, #7
 321 00cc F7E7     		b	.L16
 322              	.LVL24:
 323              	.L20:
 235:./Application/Src/command.c ****             HAL_GPIO_WritePin(solenoids[i].port, solenoids[i].pin, chord_events[traversal_index].pr
 324              		.loc 1 235 18 view .LVU67
 325              	.LBE9:
 326              	.LBB10:
 240:./Application/Src/command.c ****             HAL_GPIO_WritePin(solenoids[i].port, solenoids[i].pin, GPIO_PIN_RESET);
 327              		.loc 1 240 13 is_stmt 1 view .LVU68
 240:./Application/Src/command.c ****             HAL_GPIO_WritePin(solenoids[i].port, solenoids[i].pin, GPIO_PIN_RESET);
 328              		.loc 1 240 43 is_stmt 0 view .LVU69
 329 00ce 074B     		ldr	r3, .L24+4
 240:./Application/Src/command.c ****             HAL_GPIO_WritePin(solenoids[i].port, solenoids[i].pin, GPIO_PIN_RESET);
 330              		.loc 1 240 62 view .LVU70
 331 00d0 03EBC401 		add	r1, r3, r4, lsl #3
 240:./Application/Src/command.c ****             HAL_GPIO_WritePin(solenoids[i].port, solenoids[i].pin, GPIO_PIN_RESET);
 332              		.loc 1 240 13 view .LVU71
 333 00d4 0022     		movs	r2, #0
 334 00d6 8988     		ldrh	r1, [r1, #4]
 335 00d8 53F83400 		ldr	r0, [r3, r4, lsl #3]
 336 00dc FFF7FEFF 		bl	HAL_GPIO_WritePin
 337              	.LVL25:
 239:./Application/Src/command.c ****             HAL_GPIO_WritePin(solenoids[i].port, solenoids[i].pin, GPIO_PIN_RESET);
 338              		.loc 1 239 34 is_stmt 1 discriminator 3 view .LVU72
 339 00e0 0134     		adds	r4, r4, #1
 340              	.LVL26:
 341              	.L17:
 239:./Application/Src/command.c ****             HAL_GPIO_WritePin(solenoids[i].port, solenoids[i].pin, GPIO_PIN_RESET);
 342              		.loc 1 239 27 discriminator 1 view .LVU73
 343 00e2 092C     		cmp	r4, #9
 344 00e4 F3DD     		ble	.L20
 345 00e6 ECE7     		b	.L19
 346              	.L25:
 347              		.align	2
 348              	.L24:
 349 00e8 00000000 		.word	motor_off
 350 00ec 00000000 		.word	solenoids
 351 00f0 00000000 		.word	chord_events
 352              	.LBE10:
 353              		.cfi_endproc
 354              	.LFE364:
ARM GAS  C:\Users\admin\AppData\Local\Temp\ccfiAF59.s 			page 12


 356              		.section	.rodata.traversal.str1.4,"aMS",%progbits,1
 357              		.align	2
 358              	.LC1:
 359 0000 4E6F2073 		.ascii	"No song in RAM!       \000"
 359      6F6E6720 
 359      696E2052 
 359      414D2120 
 359      20202020 
 360              		.section	.text.traversal,"ax",%progbits
 361              		.align	1
 362              		.global	traversal
 363              		.syntax unified
 364              		.thumb
 365              		.thumb_func
 367              	traversal:
 368              	.LFB365:
 245:./Application/Src/command.c **** 
 246:./Application/Src/command.c **** void traversal(void){
 369              		.loc 1 246 21 view -0
 370              		.cfi_startproc
 371              		@ args = 0, pretend = 0, frame = 0
 372              		@ frame_needed = 0, uses_anonymous_args = 0
 373 0000 10B5     		push	{r4, lr}
 374              	.LCFI5:
 375              		.cfi_def_cfa_offset 8
 376              		.cfi_offset 4, -8
 377              		.cfi_offset 14, -4
 378 0002 82B0     		sub	sp, sp, #8
 379              	.LCFI6:
 380              		.cfi_def_cfa_offset 16
 247:./Application/Src/command.c ****     
 248:./Application/Src/command.c ****     uint16_t traversal_index = 0;
 381              		.loc 1 248 5 view .LVU75
 382              	.LVL27:
 383              		.loc 1 248 14 is_stmt 0 view .LVU76
 384 0004 0024     		movs	r4, #0
 385 0006 1DE0     		b	.L30
 386              	.LVL28:
 387              	.L27:
 249:./Application/Src/command.c ****     while (1){
 250:./Application/Src/command.c ****         if (chord_events[traversal_index].positions[0] == 1000.0f && chord_events[traversal_index].
 251:./Application/Src/command.c ****             LCD_draw_string(0, 9, "No song in RAM!       ", COLOR_BLACK, COLOR_WHITE);
 252:./Application/Src/command.c ****             break;
 253:./Application/Src/command.c ****         }
 254:./Application/Src/command.c **** 
 255:./Application/Src/command.c ****         // otherwise set the target position:
 256:./Application/Src/command.c ****         left_motor.target_pos = chord_events[traversal_index].positions[0];
 388              		.loc 1 256 9 is_stmt 1 view .LVU77
 389              		.loc 1 256 31 is_stmt 0 view .LVU78
 390 0008 204A     		ldr	r2, .L33
 391 000a C2ED057A 		vstr.32	s15, [r2, #20]
 257:./Application/Src/command.c ****         right_motor.target_pos = chord_events[traversal_index].positions[1];
 392              		.loc 1 257 9 is_stmt 1 view .LVU79
 393              		.loc 1 257 73 is_stmt 0 view .LVU80
 394 000e 03EB4303 		add	r3, r3, r3, lsl #1
 395 0012 1F4A     		ldr	r2, .L33+4
 396 0014 02EBC303 		add	r3, r2, r3, lsl #3
ARM GAS  C:\Users\admin\AppData\Local\Temp\ccfiAF59.s 			page 13


 397 0018 5A68     		ldr	r2, [r3, #4]	@ float
 398              		.loc 1 257 32 view .LVU81
 399 001a 1E4B     		ldr	r3, .L33+8
 400 001c 5A61     		str	r2, [r3, #20]	@ float
 258:./Application/Src/command.c **** 
 259:./Application/Src/command.c ****         // stop the motor when pressing
 260:./Application/Src/command.c ****         wait_ms(5);
 401              		.loc 1 260 9 is_stmt 1 view .LVU82
 402 001e 0520     		movs	r0, #5
 403 0020 FFF7FEFF 		bl	wait_ms
 404              	.LVL29:
 261:./Application/Src/command.c ****         while(left_motor_arrived == 0 || right_motor_arrived == 0);
 405              		.loc 1 261 9 view .LVU83
 406              	.L28:
 407              		.loc 1 261 39 discriminator 3 view .LVU84
 408              		.loc 1 261 34 is_stmt 0 discriminator 3 view .LVU85
 409 0024 1C4B     		ldr	r3, .L33+12
 410 0026 1B68     		ldr	r3, [r3]
 411              		.loc 1 261 39 discriminator 3 view .LVU86
 412 0028 002B     		cmp	r3, #0
 413 002a FBD0     		beq	.L28
 414              		.loc 1 261 62 discriminator 2 view .LVU87
 415 002c 1B4B     		ldr	r3, .L33+16
 416 002e 1B68     		ldr	r3, [r3]
 417              		.loc 1 261 39 discriminator 2 view .LVU88
 418 0030 002B     		cmp	r3, #0
 419 0032 F7D0     		beq	.L28
 262:./Application/Src/command.c **** 
 263:./Application/Src/command.c ****         // here just wait for pressing:
 264:./Application/Src/command.c ****         wait_ms(20);
 420              		.loc 1 264 9 is_stmt 1 view .LVU89
 421 0034 1420     		movs	r0, #20
 422 0036 FFF7FEFF 		bl	wait_ms
 423              	.LVL30:
 265:./Application/Src/command.c ****         toggle_solenoid(traversal_index);
 424              		.loc 1 265 9 view .LVU90
 425 003a 2046     		mov	r0, r4
 426 003c FFF7FEFF 		bl	toggle_solenoid
 427              	.LVL31:
 266:./Application/Src/command.c **** 
 267:./Application/Src/command.c ****         traversal_index++;
 428              		.loc 1 267 9 view .LVU91
 429              		.loc 1 267 24 is_stmt 0 view .LVU92
 430 0040 0134     		adds	r4, r4, #1
 431              	.LVL32:
 432              		.loc 1 267 24 view .LVU93
 433 0042 A4B2     		uxth	r4, r4
 434              	.LVL33:
 249:./Application/Src/command.c ****         if (chord_events[traversal_index].positions[0] == 1000.0f && chord_events[traversal_index].
 435              		.loc 1 249 11 is_stmt 1 view .LVU94
 436              	.L30:
 249:./Application/Src/command.c ****         if (chord_events[traversal_index].positions[0] == 1000.0f && chord_events[traversal_index].
 437              		.loc 1 249 5 view .LVU95
 250:./Application/Src/command.c ****             LCD_draw_string(0, 9, "No song in RAM!       ", COLOR_BLACK, COLOR_WHITE);
 438              		.loc 1 250 9 view .LVU96
 250:./Application/Src/command.c ****             LCD_draw_string(0, 9, "No song in RAM!       ", COLOR_BLACK, COLOR_WHITE);
 439              		.loc 1 250 52 is_stmt 0 view .LVU97
ARM GAS  C:\Users\admin\AppData\Local\Temp\ccfiAF59.s 			page 14


 440 0044 2346     		mov	r3, r4
 441 0046 04EB4401 		add	r1, r4, r4, lsl #1
 442 004a 114A     		ldr	r2, .L33+4
 443 004c 02EBC102 		add	r2, r2, r1, lsl #3
 444 0050 D2ED007A 		vldr.32	s15, [r2]
 250:./Application/Src/command.c ****             LCD_draw_string(0, 9, "No song in RAM!       ", COLOR_BLACK, COLOR_WHITE);
 445              		.loc 1 250 12 view .LVU98
 446 0054 9FED127A 		vldr.32	s14, .L33+20
 447 0058 F4EE477A 		vcmp.f32	s15, s14
 448 005c F1EE10FA 		vmrs	APSR_nzcv, FPSCR
 449 0060 D2D1     		bne	.L27
 250:./Application/Src/command.c ****             LCD_draw_string(0, 9, "No song in RAM!       ", COLOR_BLACK, COLOR_WHITE);
 450              		.loc 1 250 109 discriminator 1 view .LVU99
 451 0062 0B4A     		ldr	r2, .L33+4
 452 0064 02EBC102 		add	r2, r2, r1, lsl #3
 453 0068 D2ED016A 		vldr.32	s13, [r2, #4]
 250:./Application/Src/command.c ****             LCD_draw_string(0, 9, "No song in RAM!       ", COLOR_BLACK, COLOR_WHITE);
 454              		.loc 1 250 67 discriminator 1 view .LVU100
 455 006c F4EE476A 		vcmp.f32	s13, s14
 456 0070 F1EE10FA 		vmrs	APSR_nzcv, FPSCR
 457 0074 C8D1     		bne	.L27
 251:./Application/Src/command.c ****             break;
 458              		.loc 1 251 13 is_stmt 1 view .LVU101
 459 0076 4FF6FF73 		movw	r3, #65535
 460 007a 0093     		str	r3, [sp]
 461 007c 0023     		movs	r3, #0
 462 007e 094A     		ldr	r2, .L33+24
 463 0080 0921     		movs	r1, #9
 464 0082 1846     		mov	r0, r3
 465 0084 FFF7FEFF 		bl	LCD_draw_string
 466              	.LVL34:
 252:./Application/Src/command.c ****         }
 467              		.loc 1 252 13 view .LVU102
 268:./Application/Src/command.c ****     }
 269:./Application/Src/command.c **** 
 270:./Application/Src/command.c **** }
 468              		.loc 1 270 1 is_stmt 0 view .LVU103
 469 0088 02B0     		add	sp, sp, #8
 470              	.LCFI7:
 471              		.cfi_def_cfa_offset 8
 472              		@ sp needed
 473 008a 10BD     		pop	{r4, pc}
 474              	.LVL35:
 475              	.L34:
 476              		.loc 1 270 1 view .LVU104
 477              		.align	2
 478              	.L33:
 479 008c 00000000 		.word	left_motor
 480 0090 00000000 		.word	chord_events
 481 0094 00000000 		.word	right_motor
 482 0098 00000000 		.word	left_motor_arrived
 483 009c 00000000 		.word	right_motor_arrived
 484 00a0 00007A44 		.word	1148846080
 485 00a4 00000000 		.word	.LC1
 486              		.cfi_endproc
 487              	.LFE365:
 489              		.section	.text.debug_traversal,"ax",%progbits
ARM GAS  C:\Users\admin\AppData\Local\Temp\ccfiAF59.s 			page 15


 490              		.align	1
 491              		.global	debug_traversal
 492              		.syntax unified
 493              		.thumb
 494              		.thumb_func
 496              	debug_traversal:
 497              	.LFB366:
 271:./Application/Src/command.c **** 
 272:./Application/Src/command.c **** void debug_traversal(void){
 498              		.loc 1 272 27 is_stmt 1 view -0
 499              		.cfi_startproc
 500              		@ args = 0, pretend = 0, frame = 0
 501              		@ frame_needed = 0, uses_anonymous_args = 0
 502 0000 70B5     		push	{r4, r5, r6, lr}
 503              	.LCFI8:
 504              		.cfi_def_cfa_offset 16
 505              		.cfi_offset 4, -16
 506              		.cfi_offset 5, -12
 507              		.cfi_offset 6, -8
 508              		.cfi_offset 14, -4
 273:./Application/Src/command.c ****     while (right_motor.target_pos < 138.0f || left_motor.target_pos < 138.0f) {
 509              		.loc 1 273 5 view .LVU106
 510              		.loc 1 273 11 is_stmt 0 view .LVU107
 511 0002 1EE0     		b	.L36
 512              	.LVL36:
 513              	.L40:
 514              	.LBB11:
 274:./Application/Src/command.c ****         right_motor.target_pos += 21.0f;
 275:./Application/Src/command.c ****         left_motor.target_pos += 21.0f;
 276:./Application/Src/command.c ****         wait_ms(10); // small delay so controller gets updated
 277:./Application/Src/command.c ****         while(!right_motor_arrived || !left_motor_arrived);
 278:./Application/Src/command.c **** 
 279:./Application/Src/command.c ****         // stop the motor when pressing
 280:./Application/Src/command.c ****         __HAL_TIM_SET_COMPARE(&htim1, TIM_CHANNEL_2, 500);
 281:./Application/Src/command.c ****         __HAL_TIM_SET_COMPARE(&htim1, TIM_CHANNEL_1, 500);
 282:./Application/Src/command.c **** 
 283:./Application/Src/command.c ****         for (int i = 0; i < 10; i++) {
 284:./Application/Src/command.c ****             HAL_GPIO_WritePin(solenoids[i].port, solenoids[i].pin, GPIO_PIN_SET);
 515              		.loc 1 284 13 is_stmt 1 view .LVU108
 516              		.loc 1 284 43 is_stmt 0 view .LVU109
 517 0004 294B     		ldr	r3, .L44
 518 0006 53F83450 		ldr	r5, [r3, r4, lsl #3]
 519              		.loc 1 284 62 view .LVU110
 520 000a 03EBC403 		add	r3, r3, r4, lsl #3
 521 000e 9E88     		ldrh	r6, [r3, #4]
 522              		.loc 1 284 13 view .LVU111
 523 0010 0122     		movs	r2, #1
 524 0012 3146     		mov	r1, r6
 525 0014 2846     		mov	r0, r5
 526 0016 FFF7FEFF 		bl	HAL_GPIO_WritePin
 527              	.LVL37:
 285:./Application/Src/command.c ****             wait_ms(300);
 528              		.loc 1 285 13 is_stmt 1 view .LVU112
 529 001a 4FF49670 		mov	r0, #300
 530 001e FFF7FEFF 		bl	wait_ms
 531              	.LVL38:
 286:./Application/Src/command.c ****             HAL_GPIO_WritePin(solenoids[i].port, solenoids[i].pin, GPIO_PIN_RESET);
ARM GAS  C:\Users\admin\AppData\Local\Temp\ccfiAF59.s 			page 16


 532              		.loc 1 286 13 view .LVU113
 533 0022 0022     		movs	r2, #0
 534 0024 3146     		mov	r1, r6
 535 0026 2846     		mov	r0, r5
 536 0028 FFF7FEFF 		bl	HAL_GPIO_WritePin
 537              	.LVL39:
 287:./Application/Src/command.c ****             wait_ms(300);
 538              		.loc 1 287 13 view .LVU114
 539 002c 4FF49670 		mov	r0, #300
 540 0030 FFF7FEFF 		bl	wait_ms
 541              	.LVL40:
 283:./Application/Src/command.c ****             HAL_GPIO_WritePin(solenoids[i].port, solenoids[i].pin, GPIO_PIN_SET);
 542              		.loc 1 283 34 discriminator 3 view .LVU115
 543 0034 0134     		adds	r4, r4, #1
 544              	.LVL41:
 545              	.L39:
 283:./Application/Src/command.c ****             HAL_GPIO_WritePin(solenoids[i].port, solenoids[i].pin, GPIO_PIN_SET);
 546              		.loc 1 283 27 discriminator 1 view .LVU116
 547 0036 092C     		cmp	r4, #9
 548 0038 E4DD     		ble	.L40
 549              	.LBE11:
 288:./Application/Src/command.c ****         }
 289:./Application/Src/command.c ****         
 290:./Application/Src/command.c ****         wait_ms(1000);
 550              		.loc 1 290 9 view .LVU117
 551 003a 4FF47A70 		mov	r0, #1000
 552 003e FFF7FEFF 		bl	wait_ms
 553              	.LVL42:
 554              	.L36:
 273:./Application/Src/command.c ****         right_motor.target_pos += 21.0f;
 555              		.loc 1 273 44 view .LVU118
 273:./Application/Src/command.c ****         right_motor.target_pos += 21.0f;
 556              		.loc 1 273 23 is_stmt 0 view .LVU119
 557 0042 1B4B     		ldr	r3, .L44+4
 558 0044 D3ED057A 		vldr.32	s15, [r3, #20]
 273:./Application/Src/command.c ****         right_motor.target_pos += 21.0f;
 559              		.loc 1 273 44 view .LVU120
 560 0048 9FED1A7A 		vldr.32	s14, .L44+8
 561 004c F4EEC77A 		vcmpe.f32	s15, s14
 562 0050 F1EE10FA 		vmrs	APSR_nzcv, FPSCR
 563 0054 07D4     		bmi	.L41
 273:./Application/Src/command.c ****         right_motor.target_pos += 21.0f;
 564              		.loc 1 273 57 discriminator 1 view .LVU121
 565 0056 184B     		ldr	r3, .L44+12
 566 0058 D3ED056A 		vldr.32	s13, [r3, #20]
 273:./Application/Src/command.c ****         right_motor.target_pos += 21.0f;
 567              		.loc 1 273 44 discriminator 1 view .LVU122
 568 005c F4EEC76A 		vcmpe.f32	s13, s14
 569 0060 F1EE10FA 		vmrs	APSR_nzcv, FPSCR
 570 0064 20D5     		bpl	.L43
 571              	.L41:
 274:./Application/Src/command.c ****         left_motor.target_pos += 21.0f;
 572              		.loc 1 274 9 is_stmt 1 view .LVU123
 274:./Application/Src/command.c ****         left_motor.target_pos += 21.0f;
 573              		.loc 1 274 32 is_stmt 0 view .LVU124
 574 0066 B3EE057A 		vmov.f32	s14, #2.1e+1
 575 006a 77EE877A 		vadd.f32	s15, s15, s14
ARM GAS  C:\Users\admin\AppData\Local\Temp\ccfiAF59.s 			page 17


 576 006e 104B     		ldr	r3, .L44+4
 577 0070 C3ED057A 		vstr.32	s15, [r3, #20]
 275:./Application/Src/command.c ****         wait_ms(10); // small delay so controller gets updated
 578              		.loc 1 275 9 is_stmt 1 view .LVU125
 275:./Application/Src/command.c ****         wait_ms(10); // small delay so controller gets updated
 579              		.loc 1 275 19 is_stmt 0 view .LVU126
 580 0074 104B     		ldr	r3, .L44+12
 581 0076 D3ED057A 		vldr.32	s15, [r3, #20]
 275:./Application/Src/command.c ****         wait_ms(10); // small delay so controller gets updated
 582              		.loc 1 275 31 view .LVU127
 583 007a 77EE877A 		vadd.f32	s15, s15, s14
 584 007e C3ED057A 		vstr.32	s15, [r3, #20]
 276:./Application/Src/command.c ****         while(!right_motor_arrived || !left_motor_arrived);
 585              		.loc 1 276 9 is_stmt 1 view .LVU128
 586 0082 0A20     		movs	r0, #10
 587 0084 FFF7FEFF 		bl	wait_ms
 588              	.LVL43:
 277:./Application/Src/command.c **** 
 589              		.loc 1 277 9 view .LVU129
 590              	.L37:
 277:./Application/Src/command.c **** 
 591              		.loc 1 277 36 discriminator 3 view .LVU130
 277:./Application/Src/command.c **** 
 592              		.loc 1 277 15 is_stmt 0 discriminator 3 view .LVU131
 593 0088 0C4B     		ldr	r3, .L44+16
 594 008a 1B68     		ldr	r3, [r3]
 277:./Application/Src/command.c **** 
 595              		.loc 1 277 36 discriminator 3 view .LVU132
 596 008c 002B     		cmp	r3, #0
 597 008e FBD0     		beq	.L37
 277:./Application/Src/command.c **** 
 598              		.loc 1 277 39 discriminator 2 view .LVU133
 599 0090 0B4B     		ldr	r3, .L44+20
 600 0092 1B68     		ldr	r3, [r3]
 277:./Application/Src/command.c **** 
 601              		.loc 1 277 36 discriminator 2 view .LVU134
 602 0094 002B     		cmp	r3, #0
 603 0096 F7D0     		beq	.L37
 280:./Application/Src/command.c ****         __HAL_TIM_SET_COMPARE(&htim1, TIM_CHANNEL_1, 500);
 604              		.loc 1 280 9 is_stmt 1 view .LVU135
 605 0098 0A4B     		ldr	r3, .L44+24
 606 009a 1B68     		ldr	r3, [r3]
 607 009c 4FF4FA72 		mov	r2, #500
 608 00a0 9A63     		str	r2, [r3, #56]
 281:./Application/Src/command.c **** 
 609              		.loc 1 281 9 view .LVU136
 610 00a2 5A63     		str	r2, [r3, #52]
 283:./Application/Src/command.c ****             HAL_GPIO_WritePin(solenoids[i].port, solenoids[i].pin, GPIO_PIN_SET);
 611              		.loc 1 283 9 view .LVU137
 612              	.LBB12:
 283:./Application/Src/command.c ****             HAL_GPIO_WritePin(solenoids[i].port, solenoids[i].pin, GPIO_PIN_SET);
 613              		.loc 1 283 14 view .LVU138
 614              	.LVL44:
 283:./Application/Src/command.c ****             HAL_GPIO_WritePin(solenoids[i].port, solenoids[i].pin, GPIO_PIN_SET);
 615              		.loc 1 283 18 is_stmt 0 view .LVU139
 616 00a4 0024     		movs	r4, #0
 283:./Application/Src/command.c ****             HAL_GPIO_WritePin(solenoids[i].port, solenoids[i].pin, GPIO_PIN_SET);
ARM GAS  C:\Users\admin\AppData\Local\Temp\ccfiAF59.s 			page 18


 617              		.loc 1 283 9 view .LVU140
 618 00a6 C6E7     		b	.L39
 619              	.LVL45:
 620              	.L43:
 283:./Application/Src/command.c ****             HAL_GPIO_WritePin(solenoids[i].port, solenoids[i].pin, GPIO_PIN_SET);
 621              		.loc 1 283 9 view .LVU141
 622              	.LBE12:
 291:./Application/Src/command.c ****     }
 292:./Application/Src/command.c **** }
 623              		.loc 1 292 1 view .LVU142
 624 00a8 70BD     		pop	{r4, r5, r6, pc}
 625              	.L45:
 626 00aa 00BF     		.align	2
 627              	.L44:
 628 00ac 00000000 		.word	solenoids
 629 00b0 00000000 		.word	right_motor
 630 00b4 00000A43 		.word	1124728832
 631 00b8 00000000 		.word	left_motor
 632 00bc 00000000 		.word	right_motor_arrived
 633 00c0 00000000 		.word	left_motor_arrived
 634 00c4 00000000 		.word	htim1
 635              		.cfi_endproc
 636              	.LFE366:
 638              		.section	.text.parse_command,"ax",%progbits
 639              		.align	1
 640              		.global	parse_command
 641              		.syntax unified
 642              		.thumb
 643              		.thumb_func
 645              	parse_command:
 646              	.LVL46:
 647              	.LFB359:
  19:./Application/Src/command.c ****     /* ---- Colon commands (:p, :w, :s, :r, :d, :a) ---- */
 648              		.loc 1 19 1 is_stmt 1 view -0
 649              		.cfi_startproc
 650              		@ args = 0, pretend = 0, frame = 0
 651              		@ frame_needed = 0, uses_anonymous_args = 0
  19:./Application/Src/command.c ****     /* ---- Colon commands (:p, :w, :s, :r, :d, :a) ---- */
 652              		.loc 1 19 1 is_stmt 0 view .LVU144
 653 0000 08B5     		push	{r3, lr}
 654              	.LCFI9:
 655              		.cfi_def_cfa_offset 8
 656              		.cfi_offset 3, -8
 657              		.cfi_offset 14, -4
  21:./Application/Src/command.c ****         switch (cmd[1]){
 658              		.loc 1 21 5 is_stmt 1 view .LVU145
  21:./Application/Src/command.c ****         switch (cmd[1]){
 659              		.loc 1 21 12 is_stmt 0 view .LVU146
 660 0002 0378     		ldrb	r3, [r0]	@ zero_extendqisi2
  21:./Application/Src/command.c ****         switch (cmd[1]){
 661              		.loc 1 21 8 view .LVU147
 662 0004 3A2B     		cmp	r3, #58
 663 0006 03D0     		beq	.L95
  89:./Application/Src/command.c ****         switch (cmd[1]){
 664              		.loc 1 89 10 is_stmt 1 view .LVU148
  89:./Application/Src/command.c ****         switch (cmd[1]){
 665              		.loc 1 89 13 is_stmt 0 view .LVU149
ARM GAS  C:\Users\admin\AppData\Local\Temp\ccfiAF59.s 			page 19


 666 0008 3B2B     		cmp	r3, #59
 667 000a 70D0     		beq	.L96
 150:./Application/Src/command.c **** }
 668              		.loc 1 150 12 view .LVU150
 669 000c 0120     		movs	r0, #1
 670              	.LVL47:
 671              	.L46:
 151:./Application/Src/command.c **** 
 672              		.loc 1 151 1 view .LVU151
 673 000e 08BD     		pop	{r3, pc}
 674              	.LVL48:
 675              	.L95:
  22:./Application/Src/command.c ****         case 'p':{ /* :p <value> — set position in mm */
 676              		.loc 1 22 9 is_stmt 1 view .LVU152
  22:./Application/Src/command.c ****         case 'p':{ /* :p <value> — set position in mm */
 677              		.loc 1 22 20 is_stmt 0 view .LVU153
 678 0010 4378     		ldrb	r3, [r0, #1]	@ zero_extendqisi2
  22:./Application/Src/command.c ****         case 'p':{ /* :p <value> — set position in mm */
 679              		.loc 1 22 9 view .LVU154
 680 0012 722B     		cmp	r3, #114
 681 0014 00F0D380 		beq	.L81
 682 0018 08D9     		bls	.L97
 683 001a 772B     		cmp	r3, #119
 684 001c 49D0     		beq	.L54
 685 001e 1FD8     		bhi	.L55
 686 0020 732B     		cmp	r3, #115
 687 0022 4BD0     		beq	.L56
 688 0024 742B     		cmp	r3, #116
 689 0026 19D1     		bne	.L98
 690              	.LBB13:
  58:./Application/Src/command.c ****             while (*arg == ' ')
 691              		.loc 1 58 13 is_stmt 1 view .LVU155
  58:./Application/Src/command.c ****             while (*arg == ' ')
 692              		.loc 1 58 19 is_stmt 0 view .LVU156
 693 0028 0230     		adds	r0, r0, #2
 694              	.LVL49:
  59:./Application/Src/command.c ****                 arg++;
 695              		.loc 1 59 13 is_stmt 1 view .LVU157
  59:./Application/Src/command.c ****                 arg++;
 696              		.loc 1 59 19 is_stmt 0 view .LVU158
 697 002a 52E0     		b	.L64
 698              	.LVL50:
 699              	.L97:
  59:./Application/Src/command.c ****                 arg++;
 700              		.loc 1 59 19 view .LVU159
 701              	.LBE13:
  22:./Application/Src/command.c ****         case 'p':{ /* :p <value> — set position in mm */
 702              		.loc 1 22 9 view .LVU160
 703 002c 6C2B     		cmp	r3, #108
 704 002e 00F0C880 		beq	.L82
 705 0032 0AD8     		bhi	.L50
 706 0034 612B     		cmp	r3, #97
 707 0036 46D0     		beq	.L51
 708 0038 642B     		cmp	r3, #100
 709 003a 04D1     		bne	.L99
 710              	.LBB17:
  52:./Application/Src/command.c ****             return 0;
ARM GAS  C:\Users\admin\AppData\Local\Temp\ccfiAF59.s 			page 20


 711              		.loc 1 52 13 is_stmt 1 view .LVU161
  52:./Application/Src/command.c ****             return 0;
 712              		.loc 1 52 24 is_stmt 0 view .LVU162
 713 003c 674B     		ldr	r3, .L111
 714 003e 0122     		movs	r2, #1
 715 0040 1A60     		str	r2, [r3]
  53:./Application/Src/command.c ****         case 'a': /* :a — back to main menu */
 716              		.loc 1 53 13 is_stmt 1 view .LVU163
  53:./Application/Src/command.c ****         case 'a': /* :a — back to main menu */
 717              		.loc 1 53 20 is_stmt 0 view .LVU164
 718 0042 0020     		movs	r0, #0
 719              	.LVL51:
  53:./Application/Src/command.c ****         case 'a': /* :a — back to main menu */
 720              		.loc 1 53 20 view .LVU165
 721 0044 E3E7     		b	.L46
 722              	.LVL52:
 723              	.L99:
  85:./Application/Src/command.c ****         }
 724              		.loc 1 85 20 view .LVU166
 725 0046 0120     		movs	r0, #1
 726              	.LVL53:
  85:./Application/Src/command.c ****         }
 727              		.loc 1 85 20 view .LVU167
 728 0048 E1E7     		b	.L46
 729              	.LVL54:
 730              	.L50:
  85:./Application/Src/command.c ****         }
 731              		.loc 1 85 20 view .LVU168
 732              	.LBE17:
  22:./Application/Src/command.c ****         case 'p':{ /* :p <value> — set position in mm */
 733              		.loc 1 22 9 view .LVU169
 734 004a 6F2B     		cmp	r3, #111
 735 004c 00F0BB80 		beq	.L83
 736 0050 702B     		cmp	r3, #112
 737 0052 01D1     		bne	.L100
 738              	.LBB18:
 739              	.LBB14:
  24:./Application/Src/command.c ****             while (*arg == ' ')
 740              		.loc 1 24 13 is_stmt 1 view .LVU170
  24:./Application/Src/command.c ****             while (*arg == ' ')
 741              		.loc 1 24 19 is_stmt 0 view .LVU171
 742 0054 C31C     		adds	r3, r0, #3
 743              	.LVL55:
  25:./Application/Src/command.c ****                 arg++;
 744              		.loc 1 25 13 is_stmt 1 view .LVU172
  25:./Application/Src/command.c ****                 arg++;
 745              		.loc 1 25 19 is_stmt 0 view .LVU173
 746 0056 0EE0     		b	.L60
 747              	.LVL56:
 748              	.L100:
  25:./Application/Src/command.c ****                 arg++;
 749              		.loc 1 25 19 view .LVU174
 750              	.LBE14:
  85:./Application/Src/command.c ****         }
 751              		.loc 1 85 20 view .LVU175
 752 0058 0120     		movs	r0, #1
 753              	.LVL57:
ARM GAS  C:\Users\admin\AppData\Local\Temp\ccfiAF59.s 			page 21


  85:./Application/Src/command.c ****         }
 754              		.loc 1 85 20 view .LVU176
 755 005a D8E7     		b	.L46
 756              	.LVL58:
 757              	.L98:
  85:./Application/Src/command.c ****         }
 758              		.loc 1 85 20 view .LVU177
 759 005c 0120     		movs	r0, #1
 760              	.LVL59:
  85:./Application/Src/command.c ****         }
 761              		.loc 1 85 20 view .LVU178
 762 005e D6E7     		b	.L46
 763              	.LVL60:
 764              	.L55:
  85:./Application/Src/command.c ****         }
 765              		.loc 1 85 20 view .LVU179
 766              	.LBE18:
  22:./Application/Src/command.c ****         case 'p':{ /* :p <value> — set position in mm */
 767              		.loc 1 22 9 view .LVU180
 768 0060 782B     		cmp	r3, #120
 769 0062 40D0     		beq	.L58
 770 0064 7A2B     		cmp	r3, #122
 771 0066 03D1     		bne	.L101
 772              	.LBB19:
  74:./Application/Src/command.c ****             // debug_traversal();
 773              		.loc 1 74 13 is_stmt 1 view .LVU181
 774 0068 FFF7FEFF 		bl	traversal
 775              	.LVL61:
  76:./Application/Src/command.c ****         
 776              		.loc 1 76 13 view .LVU182
  76:./Application/Src/command.c ****         
 777              		.loc 1 76 20 is_stmt 0 view .LVU183
 778 006c 0020     		movs	r0, #0
 779 006e CEE7     		b	.L46
 780              	.LVL62:
 781              	.L101:
  85:./Application/Src/command.c ****         }
 782              		.loc 1 85 20 view .LVU184
 783 0070 0120     		movs	r0, #1
 784              	.LVL63:
  85:./Application/Src/command.c ****         }
 785              		.loc 1 85 20 view .LVU185
 786 0072 CCE7     		b	.L46
 787              	.LVL64:
 788              	.L61:
 789              	.LBB15:
  26:./Application/Src/command.c ****             if (*arg == '\0')
 790              		.loc 1 26 17 is_stmt 1 view .LVU186
  26:./Application/Src/command.c ****             if (*arg == '\0')
 791              		.loc 1 26 20 is_stmt 0 view .LVU187
 792 0074 0133     		adds	r3, r3, #1
 793              	.LVL65:
 794              	.L60:
  25:./Application/Src/command.c ****                 arg++;
 795              		.loc 1 25 25 is_stmt 1 view .LVU188
  25:./Application/Src/command.c ****                 arg++;
 796              		.loc 1 25 20 is_stmt 0 view .LVU189
ARM GAS  C:\Users\admin\AppData\Local\Temp\ccfiAF59.s 			page 22


 797 0076 1A78     		ldrb	r2, [r3]	@ zero_extendqisi2
  25:./Application/Src/command.c ****                 arg++;
 798              		.loc 1 25 25 view .LVU190
 799 0078 202A     		cmp	r2, #32
 800 007a FBD0     		beq	.L61
  27:./Application/Src/command.c ****                 return 3; /* incomplete */
 801              		.loc 1 27 13 is_stmt 1 view .LVU191
  27:./Application/Src/command.c ****                 return 3; /* incomplete */
 802              		.loc 1 27 16 is_stmt 0 view .LVU192
 803 007c 002A     		cmp	r2, #0
 804 007e 00F0A480 		beq	.L84
  31:./Application/Src/command.c ****                 left_motor.target_pos = strtof(arg, NULL);
 805              		.loc 1 31 13 is_stmt 1 view .LVU193
  31:./Application/Src/command.c ****                 left_motor.target_pos = strtof(arg, NULL);
 806              		.loc 1 31 20 is_stmt 0 view .LVU194
 807 0082 8278     		ldrb	r2, [r0, #2]	@ zero_extendqisi2
  31:./Application/Src/command.c ****                 left_motor.target_pos = strtof(arg, NULL);
 808              		.loc 1 31 16 view .LVU195
 809 0084 6C2A     		cmp	r2, #108
 810 0086 03D0     		beq	.L102
  34:./Application/Src/command.c ****                 right_motor.target_pos = strtof(arg, NULL);
 811              		.loc 1 34 18 is_stmt 1 view .LVU196
  34:./Application/Src/command.c ****                 right_motor.target_pos = strtof(arg, NULL);
 812              		.loc 1 34 21 is_stmt 0 view .LVU197
 813 0088 722A     		cmp	r2, #114
 814 008a 09D0     		beq	.L103
  38:./Application/Src/command.c ****             }
 815              		.loc 1 38 24 view .LVU198
 816 008c 0120     		movs	r0, #1
 817              	.LVL66:
  38:./Application/Src/command.c ****             }
 818              		.loc 1 38 24 view .LVU199
 819 008e BEE7     		b	.L46
 820              	.LVL67:
 821              	.L102:
  32:./Application/Src/command.c ****             }
 822              		.loc 1 32 17 is_stmt 1 view .LVU200
  32:./Application/Src/command.c ****             }
 823              		.loc 1 32 41 is_stmt 0 view .LVU201
 824 0090 0021     		movs	r1, #0
 825 0092 1846     		mov	r0, r3
 826              	.LVL68:
  32:./Application/Src/command.c ****             }
 827              		.loc 1 32 41 view .LVU202
 828 0094 FFF7FEFF 		bl	strtof
 829              	.LVL69:
  32:./Application/Src/command.c ****             }
 830              		.loc 1 32 39 discriminator 1 view .LVU203
 831 0098 514B     		ldr	r3, .L111+4
 832 009a 83ED050A 		vstr.32	s0, [r3, #20]
 833 009e 06E0     		b	.L63
 834              	.LVL70:
 835              	.L103:
  35:./Application/Src/command.c ****             }
 836              		.loc 1 35 17 is_stmt 1 view .LVU204
  35:./Application/Src/command.c ****             }
 837              		.loc 1 35 42 is_stmt 0 view .LVU205
ARM GAS  C:\Users\admin\AppData\Local\Temp\ccfiAF59.s 			page 23


 838 00a0 0021     		movs	r1, #0
 839 00a2 1846     		mov	r0, r3
 840              	.LVL71:
  35:./Application/Src/command.c ****             }
 841              		.loc 1 35 42 view .LVU206
 842 00a4 FFF7FEFF 		bl	strtof
 843              	.LVL72:
  35:./Application/Src/command.c ****             }
 844              		.loc 1 35 40 discriminator 1 view .LVU207
 845 00a8 4E4B     		ldr	r3, .L111+8
 846 00aa 83ED050A 		vstr.32	s0, [r3, #20]
 847              	.L63:
  40:./Application/Src/command.c ****         }
 848              		.loc 1 40 13 is_stmt 1 view .LVU208
  40:./Application/Src/command.c ****         }
 849              		.loc 1 40 20 is_stmt 0 view .LVU209
 850 00ae 0020     		movs	r0, #0
 851 00b0 ADE7     		b	.L46
 852              	.LVL73:
 853              	.L54:
  40:./Application/Src/command.c ****         }
 854              		.loc 1 40 20 view .LVU210
 855              	.LBE15:
  43:./Application/Src/command.c ****             return 0;
 856              		.loc 1 43 13 is_stmt 1 view .LVU211
  43:./Application/Src/command.c ****             return 0;
 857              		.loc 1 43 26 is_stmt 0 view .LVU212
 858 00b2 4D4B     		ldr	r3, .L111+12
 859 00b4 0122     		movs	r2, #1
 860 00b6 1A60     		str	r2, [r3]
  44:./Application/Src/command.c ****         case 's': /* :s — menu move down */
 861              		.loc 1 44 13 is_stmt 1 view .LVU213
  44:./Application/Src/command.c ****         case 's': /* :s — menu move down */
 862              		.loc 1 44 20 is_stmt 0 view .LVU214
 863 00b8 0020     		movs	r0, #0
 864              	.LVL74:
  44:./Application/Src/command.c ****         case 's': /* :s — menu move down */
 865              		.loc 1 44 20 view .LVU215
 866 00ba A8E7     		b	.L46
 867              	.LVL75:
 868              	.L56:
  46:./Application/Src/command.c ****             return 0;
 869              		.loc 1 46 13 is_stmt 1 view .LVU216
  46:./Application/Src/command.c ****             return 0;
 870              		.loc 1 46 28 is_stmt 0 view .LVU217
 871 00bc 4B4B     		ldr	r3, .L111+16
 872 00be 0122     		movs	r2, #1
 873 00c0 1A60     		str	r2, [r3]
  47:./Application/Src/command.c ****         case 'r': /* :r — reset encoder position */
 874              		.loc 1 47 13 is_stmt 1 view .LVU218
  47:./Application/Src/command.c ****         case 'r': /* :r — reset encoder position */
 875              		.loc 1 47 20 is_stmt 0 view .LVU219
 876 00c2 0020     		movs	r0, #0
 877              	.LVL76:
  47:./Application/Src/command.c ****         case 'r': /* :r — reset encoder position */
 878              		.loc 1 47 20 view .LVU220
 879 00c4 A3E7     		b	.L46
ARM GAS  C:\Users\admin\AppData\Local\Temp\ccfiAF59.s 			page 24


 880              	.LVL77:
 881              	.L51:
  55:./Application/Src/command.c ****             return 0;
 882              		.loc 1 55 13 is_stmt 1 view .LVU221
  55:./Application/Src/command.c ****             return 0;
 883              		.loc 1 55 23 is_stmt 0 view .LVU222
 884 00c6 4A4B     		ldr	r3, .L111+20
 885 00c8 0122     		movs	r2, #1
 886 00ca 1A60     		str	r2, [r3]
  56:./Application/Src/command.c ****         case 't': // set text in LCD
 887              		.loc 1 56 13 is_stmt 1 view .LVU223
  56:./Application/Src/command.c ****         case 't': // set text in LCD
 888              		.loc 1 56 20 is_stmt 0 view .LVU224
 889 00cc 0020     		movs	r0, #0
 890              	.LVL78:
  56:./Application/Src/command.c ****         case 't': // set text in LCD
 891              		.loc 1 56 20 view .LVU225
 892 00ce 9EE7     		b	.L46
 893              	.LVL79:
 894              	.L65:
  60:./Application/Src/command.c ****             if (*arg == '\0')
 895              		.loc 1 60 17 is_stmt 1 view .LVU226
  60:./Application/Src/command.c ****             if (*arg == '\0')
 896              		.loc 1 60 20 is_stmt 0 view .LVU227
 897 00d0 0130     		adds	r0, r0, #1
 898              	.LVL80:
 899              	.L64:
  59:./Application/Src/command.c ****                 arg++;
 900              		.loc 1 59 25 is_stmt 1 view .LVU228
  59:./Application/Src/command.c ****                 arg++;
 901              		.loc 1 59 20 is_stmt 0 view .LVU229
 902 00d2 0378     		ldrb	r3, [r0]	@ zero_extendqisi2
  59:./Application/Src/command.c ****                 arg++;
 903              		.loc 1 59 25 view .LVU230
 904 00d4 202B     		cmp	r3, #32
 905 00d6 FBD0     		beq	.L65
  61:./Application/Src/command.c ****                 return 3; /* incomplete */
 906              		.loc 1 61 13 is_stmt 1 view .LVU231
  61:./Application/Src/command.c ****                 return 3; /* incomplete */
 907              		.loc 1 61 16 is_stmt 0 view .LVU232
 908 00d8 0BB9     		cbnz	r3, .L104
  62:./Application/Src/command.c ****             set_text((uint8_t *)arg);
 909              		.loc 1 62 24 view .LVU233
 910 00da 0320     		movs	r0, #3
 911              	.LVL81:
  62:./Application/Src/command.c ****             set_text((uint8_t *)arg);
 912              		.loc 1 62 24 view .LVU234
 913 00dc 97E7     		b	.L46
 914              	.LVL82:
 915              	.L104:
  63:./Application/Src/command.c ****             return 0;
 916              		.loc 1 63 13 is_stmt 1 view .LVU235
 917 00de FFF7FEFF 		bl	set_text
 918              	.LVL83:
  64:./Application/Src/command.c ****         case 'o': // reset position
 919              		.loc 1 64 13 view .LVU236
  64:./Application/Src/command.c ****         case 'o': // reset position
ARM GAS  C:\Users\admin\AppData\Local\Temp\ccfiAF59.s 			page 25


 920              		.loc 1 64 20 is_stmt 0 view .LVU237
 921 00e2 0020     		movs	r0, #0
 922 00e4 93E7     		b	.L46
 923              	.LVL84:
 924              	.L58:
  80:./Application/Src/command.c ****             // debug_traversal();
 925              		.loc 1 80 13 is_stmt 1 view .LVU238
 926 00e6 FFF7FEFF 		bl	debug_traversal
 927              	.LVL85:
  82:./Application/Src/command.c **** 
 928              		.loc 1 82 13 view .LVU239
  82:./Application/Src/command.c **** 
 929              		.loc 1 82 20 is_stmt 0 view .LVU240
 930 00ea 0020     		movs	r0, #0
 931 00ec 8FE7     		b	.L46
 932              	.LVL86:
 933              	.L96:
  82:./Application/Src/command.c **** 
 934              		.loc 1 82 20 view .LVU241
 935              	.LBE19:
  90:./Application/Src/command.c ****         case 'p':{ /* :p <value> — set position in mm */
 936              		.loc 1 90 9 is_stmt 1 view .LVU242
  90:./Application/Src/command.c ****         case 'p':{ /* :p <value> — set position in mm */
 937              		.loc 1 90 20 is_stmt 0 view .LVU243
 938 00ee 4378     		ldrb	r3, [r0, #1]	@ zero_extendqisi2
  90:./Application/Src/command.c ****         case 'p':{ /* :p <value> — set position in mm */
 939              		.loc 1 90 9 view .LVU244
 940 00f0 692B     		cmp	r3, #105
 941 00f2 25D0     		beq	.L66
 942 00f4 702B     		cmp	r3, #112
 943 00f6 03D0     		beq	.L67
 944 00f8 642B     		cmp	r3, #100
 945 00fa 41D0     		beq	.L68
 946 00fc 0120     		movs	r0, #1
 947              	.LVL87:
  90:./Application/Src/command.c ****         case 'p':{ /* :p <value> — set position in mm */
 948              		.loc 1 90 9 view .LVU245
 949 00fe 86E7     		b	.L46
 950              	.LVL88:
 951              	.L67:
 952              	.LBB20:
  92:./Application/Src/command.c ****             while (*arg == ' ')
 953              		.loc 1 92 13 is_stmt 1 view .LVU246
  92:./Application/Src/command.c ****             while (*arg == ' ')
 954              		.loc 1 92 19 is_stmt 0 view .LVU247
 955 0100 C31C     		adds	r3, r0, #3
 956              	.LVL89:
  93:./Application/Src/command.c ****                 arg++;
 957              		.loc 1 93 13 is_stmt 1 view .LVU248
  93:./Application/Src/command.c ****                 arg++;
 958              		.loc 1 93 19 is_stmt 0 view .LVU249
 959 0102 00E0     		b	.L69
 960              	.L70:
  94:./Application/Src/command.c ****             if (*arg == '\0')
 961              		.loc 1 94 17 is_stmt 1 view .LVU250
  94:./Application/Src/command.c ****             if (*arg == '\0')
 962              		.loc 1 94 20 is_stmt 0 view .LVU251
ARM GAS  C:\Users\admin\AppData\Local\Temp\ccfiAF59.s 			page 26


 963 0104 0133     		adds	r3, r3, #1
 964              	.LVL90:
 965              	.L69:
  93:./Application/Src/command.c ****                 arg++;
 966              		.loc 1 93 25 is_stmt 1 view .LVU252
  93:./Application/Src/command.c ****                 arg++;
 967              		.loc 1 93 20 is_stmt 0 view .LVU253
 968 0106 1A78     		ldrb	r2, [r3]	@ zero_extendqisi2
  93:./Application/Src/command.c ****                 arg++;
 969              		.loc 1 93 25 view .LVU254
 970 0108 202A     		cmp	r2, #32
 971 010a FBD0     		beq	.L70
  95:./Application/Src/command.c ****                 return 3; /* incomplete */
 972              		.loc 1 95 13 is_stmt 1 view .LVU255
  95:./Application/Src/command.c ****                 return 3; /* incomplete */
 973              		.loc 1 95 16 is_stmt 0 view .LVU256
 974 010c 002A     		cmp	r2, #0
 975 010e 5ED0     		beq	.L88
  99:./Application/Src/command.c ****                 left_motor.Kp = strtof(arg, NULL);
 976              		.loc 1 99 13 is_stmt 1 view .LVU257
  99:./Application/Src/command.c ****                 left_motor.Kp = strtof(arg, NULL);
 977              		.loc 1 99 20 is_stmt 0 view .LVU258
 978 0110 8278     		ldrb	r2, [r0, #2]	@ zero_extendqisi2
  99:./Application/Src/command.c ****                 left_motor.Kp = strtof(arg, NULL);
 979              		.loc 1 99 16 view .LVU259
 980 0112 6C2A     		cmp	r2, #108
 981 0114 03D0     		beq	.L105
 102:./Application/Src/command.c ****                 left_motor.Kp = strtof(arg, NULL);
 982              		.loc 1 102 18 is_stmt 1 view .LVU260
 102:./Application/Src/command.c ****                 left_motor.Kp = strtof(arg, NULL);
 983              		.loc 1 102 21 is_stmt 0 view .LVU261
 984 0116 722A     		cmp	r2, #114
 985 0118 09D0     		beq	.L106
 106:./Application/Src/command.c ****             }
 986              		.loc 1 106 24 view .LVU262
 987 011a 0120     		movs	r0, #1
 988              	.LVL91:
 106:./Application/Src/command.c ****             }
 989              		.loc 1 106 24 view .LVU263
 990 011c 77E7     		b	.L46
 991              	.LVL92:
 992              	.L105:
 100:./Application/Src/command.c ****             }
 993              		.loc 1 100 17 is_stmt 1 view .LVU264
 100:./Application/Src/command.c ****             }
 994              		.loc 1 100 33 is_stmt 0 view .LVU265
 995 011e 0021     		movs	r1, #0
 996 0120 1846     		mov	r0, r3
 997              	.LVL93:
 100:./Application/Src/command.c ****             }
 998              		.loc 1 100 33 view .LVU266
 999 0122 FFF7FEFF 		bl	strtof
 1000              	.LVL94:
 100:./Application/Src/command.c ****             }
 1001              		.loc 1 100 31 discriminator 1 view .LVU267
 1002 0126 2E4B     		ldr	r3, .L111+4
 1003 0128 83ED000A 		vstr.32	s0, [r3]
ARM GAS  C:\Users\admin\AppData\Local\Temp\ccfiAF59.s 			page 27


 1004 012c 06E0     		b	.L72
 1005              	.LVL95:
 1006              	.L106:
 103:./Application/Src/command.c ****             }
 1007              		.loc 1 103 17 is_stmt 1 view .LVU268
 103:./Application/Src/command.c ****             }
 1008              		.loc 1 103 33 is_stmt 0 view .LVU269
 1009 012e 0021     		movs	r1, #0
 1010 0130 1846     		mov	r0, r3
 1011              	.LVL96:
 103:./Application/Src/command.c ****             }
 1012              		.loc 1 103 33 view .LVU270
 1013 0132 FFF7FEFF 		bl	strtof
 1014              	.LVL97:
 103:./Application/Src/command.c ****             }
 1015              		.loc 1 103 31 discriminator 1 view .LVU271
 1016 0136 2A4B     		ldr	r3, .L111+4
 1017 0138 83ED000A 		vstr.32	s0, [r3]
 1018              	.L72:
 108:./Application/Src/command.c ****         }
 1019              		.loc 1 108 13 is_stmt 1 view .LVU272
 108:./Application/Src/command.c ****         }
 1020              		.loc 1 108 20 is_stmt 0 view .LVU273
 1021 013c 0020     		movs	r0, #0
 1022 013e 66E7     		b	.L46
 1023              	.LVL98:
 1024              	.L66:
 108:./Application/Src/command.c ****         }
 1025              		.loc 1 108 20 view .LVU274
 1026              	.LBE20:
 1027              	.LBB21:
 111:./Application/Src/command.c ****             while (*arg == ' ')
 1028              		.loc 1 111 13 is_stmt 1 view .LVU275
 111:./Application/Src/command.c ****             while (*arg == ' ')
 1029              		.loc 1 111 19 is_stmt 0 view .LVU276
 1030 0140 C31C     		adds	r3, r0, #3
 1031              	.LVL99:
 112:./Application/Src/command.c ****                 arg++;
 1032              		.loc 1 112 13 is_stmt 1 view .LVU277
 112:./Application/Src/command.c ****                 arg++;
 1033              		.loc 1 112 19 is_stmt 0 view .LVU278
 1034 0142 00E0     		b	.L73
 1035              	.L74:
 113:./Application/Src/command.c ****             if (*arg == '\0')
 1036              		.loc 1 113 17 is_stmt 1 view .LVU279
 113:./Application/Src/command.c ****             if (*arg == '\0')
 1037              		.loc 1 113 20 is_stmt 0 view .LVU280
 1038 0144 0133     		adds	r3, r3, #1
 1039              	.LVL100:
 1040              	.L73:
 112:./Application/Src/command.c ****                 arg++;
 1041              		.loc 1 112 25 is_stmt 1 view .LVU281
 112:./Application/Src/command.c ****                 arg++;
 1042              		.loc 1 112 20 is_stmt 0 view .LVU282
 1043 0146 1A78     		ldrb	r2, [r3]	@ zero_extendqisi2
 112:./Application/Src/command.c ****                 arg++;
 1044              		.loc 1 112 25 view .LVU283
ARM GAS  C:\Users\admin\AppData\Local\Temp\ccfiAF59.s 			page 28


 1045 0148 202A     		cmp	r2, #32
 1046 014a FBD0     		beq	.L74
 114:./Application/Src/command.c ****                 return 3; /* incomplete */
 1047              		.loc 1 114 13 is_stmt 1 view .LVU284
 114:./Application/Src/command.c ****                 return 3; /* incomplete */
 1048              		.loc 1 114 16 is_stmt 0 view .LVU285
 1049 014c 002A     		cmp	r2, #0
 1050 014e 40D0     		beq	.L90
 118:./Application/Src/command.c ****                 left_motor.Ki = strtof(arg, NULL);
 1051              		.loc 1 118 13 is_stmt 1 view .LVU286
 118:./Application/Src/command.c ****                 left_motor.Ki = strtof(arg, NULL);
 1052              		.loc 1 118 20 is_stmt 0 view .LVU287
 1053 0150 8278     		ldrb	r2, [r0, #2]	@ zero_extendqisi2
 118:./Application/Src/command.c ****                 left_motor.Ki = strtof(arg, NULL);
 1054              		.loc 1 118 16 view .LVU288
 1055 0152 6C2A     		cmp	r2, #108
 1056 0154 03D0     		beq	.L107
 121:./Application/Src/command.c ****                 left_motor.Ki = strtof(arg, NULL);
 1057              		.loc 1 121 18 is_stmt 1 view .LVU289
 121:./Application/Src/command.c ****                 left_motor.Ki = strtof(arg, NULL);
 1058              		.loc 1 121 21 is_stmt 0 view .LVU290
 1059 0156 722A     		cmp	r2, #114
 1060 0158 09D0     		beq	.L108
 125:./Application/Src/command.c ****             }
 1061              		.loc 1 125 24 view .LVU291
 1062 015a 0120     		movs	r0, #1
 1063              	.LVL101:
 125:./Application/Src/command.c ****             }
 1064              		.loc 1 125 24 view .LVU292
 1065 015c 57E7     		b	.L46
 1066              	.LVL102:
 1067              	.L107:
 119:./Application/Src/command.c ****             }
 1068              		.loc 1 119 17 is_stmt 1 view .LVU293
 119:./Application/Src/command.c ****             }
 1069              		.loc 1 119 33 is_stmt 0 view .LVU294
 1070 015e 0021     		movs	r1, #0
 1071 0160 1846     		mov	r0, r3
 1072              	.LVL103:
 119:./Application/Src/command.c ****             }
 1073              		.loc 1 119 33 view .LVU295
 1074 0162 FFF7FEFF 		bl	strtof
 1075              	.LVL104:
 119:./Application/Src/command.c ****             }
 1076              		.loc 1 119 31 discriminator 1 view .LVU296
 1077 0166 1E4B     		ldr	r3, .L111+4
 1078 0168 83ED010A 		vstr.32	s0, [r3, #4]
 1079 016c 06E0     		b	.L76
 1080              	.LVL105:
 1081              	.L108:
 122:./Application/Src/command.c ****             }
 1082              		.loc 1 122 17 is_stmt 1 view .LVU297
 122:./Application/Src/command.c ****             }
 1083              		.loc 1 122 33 is_stmt 0 view .LVU298
 1084 016e 0021     		movs	r1, #0
 1085 0170 1846     		mov	r0, r3
 1086              	.LVL106:
ARM GAS  C:\Users\admin\AppData\Local\Temp\ccfiAF59.s 			page 29


 122:./Application/Src/command.c ****             }
 1087              		.loc 1 122 33 view .LVU299
 1088 0172 FFF7FEFF 		bl	strtof
 1089              	.LVL107:
 122:./Application/Src/command.c ****             }
 1090              		.loc 1 122 31 discriminator 1 view .LVU300
 1091 0176 1A4B     		ldr	r3, .L111+4
 1092 0178 83ED010A 		vstr.32	s0, [r3, #4]
 1093              	.L76:
 127:./Application/Src/command.c ****         }
 1094              		.loc 1 127 13 is_stmt 1 view .LVU301
 127:./Application/Src/command.c ****         }
 1095              		.loc 1 127 20 is_stmt 0 view .LVU302
 1096 017c 0020     		movs	r0, #0
 1097 017e 46E7     		b	.L46
 1098              	.LVL108:
 1099              	.L68:
 127:./Application/Src/command.c ****         }
 1100              		.loc 1 127 20 view .LVU303
 1101              	.LBE21:
 1102              	.LBB22:
 130:./Application/Src/command.c ****             while (*arg == ' ')
 1103              		.loc 1 130 13 is_stmt 1 view .LVU304
 130:./Application/Src/command.c ****             while (*arg == ' ')
 1104              		.loc 1 130 19 is_stmt 0 view .LVU305
 1105 0180 C31C     		adds	r3, r0, #3
 1106              	.LVL109:
 131:./Application/Src/command.c ****                 arg++;
 1107              		.loc 1 131 13 is_stmt 1 view .LVU306
 131:./Application/Src/command.c ****                 arg++;
 1108              		.loc 1 131 19 is_stmt 0 view .LVU307
 1109 0182 00E0     		b	.L77
 1110              	.L78:
 132:./Application/Src/command.c ****             if (*arg == '\0')
 1111              		.loc 1 132 17 is_stmt 1 view .LVU308
 132:./Application/Src/command.c ****             if (*arg == '\0')
 1112              		.loc 1 132 20 is_stmt 0 view .LVU309
 1113 0184 0133     		adds	r3, r3, #1
 1114              	.LVL110:
 1115              	.L77:
 131:./Application/Src/command.c ****                 arg++;
 1116              		.loc 1 131 25 is_stmt 1 view .LVU310
 131:./Application/Src/command.c ****                 arg++;
 1117              		.loc 1 131 20 is_stmt 0 view .LVU311
 1118 0186 1A78     		ldrb	r2, [r3]	@ zero_extendqisi2
 131:./Application/Src/command.c ****                 arg++;
 1119              		.loc 1 131 25 view .LVU312
 1120 0188 202A     		cmp	r2, #32
 1121 018a FBD0     		beq	.L78
 133:./Application/Src/command.c ****                 return 3; /* incomplete */
 1122              		.loc 1 133 13 is_stmt 1 view .LVU313
 133:./Application/Src/command.c ****                 return 3; /* incomplete */
 1123              		.loc 1 133 16 is_stmt 0 view .LVU314
 1124 018c 1AB3     		cbz	r2, .L92
 137:./Application/Src/command.c ****                 left_motor.Kd = strtof(arg, NULL);
 1125              		.loc 1 137 13 is_stmt 1 view .LVU315
 137:./Application/Src/command.c ****                 left_motor.Kd = strtof(arg, NULL);
ARM GAS  C:\Users\admin\AppData\Local\Temp\ccfiAF59.s 			page 30


 1126              		.loc 1 137 20 is_stmt 0 view .LVU316
 1127 018e 8278     		ldrb	r2, [r0, #2]	@ zero_extendqisi2
 137:./Application/Src/command.c ****                 left_motor.Kd = strtof(arg, NULL);
 1128              		.loc 1 137 16 view .LVU317
 1129 0190 6C2A     		cmp	r2, #108
 1130 0192 03D0     		beq	.L109
 140:./Application/Src/command.c ****                 left_motor.Kd = strtof(arg, NULL);
 1131              		.loc 1 140 18 is_stmt 1 view .LVU318
 140:./Application/Src/command.c ****                 left_motor.Kd = strtof(arg, NULL);
 1132              		.loc 1 140 21 is_stmt 0 view .LVU319
 1133 0194 722A     		cmp	r2, #114
 1134 0196 09D0     		beq	.L110
 144:./Application/Src/command.c ****             }
 1135              		.loc 1 144 24 view .LVU320
 1136 0198 0120     		movs	r0, #1
 1137              	.LVL111:
 144:./Application/Src/command.c ****             }
 1138              		.loc 1 144 24 view .LVU321
 1139 019a 38E7     		b	.L46
 1140              	.LVL112:
 1141              	.L109:
 138:./Application/Src/command.c ****             }
 1142              		.loc 1 138 17 is_stmt 1 view .LVU322
 138:./Application/Src/command.c ****             }
 1143              		.loc 1 138 33 is_stmt 0 view .LVU323
 1144 019c 0021     		movs	r1, #0
 1145 019e 1846     		mov	r0, r3
 1146              	.LVL113:
 138:./Application/Src/command.c ****             }
 1147              		.loc 1 138 33 view .LVU324
 1148 01a0 FFF7FEFF 		bl	strtof
 1149              	.LVL114:
 138:./Application/Src/command.c ****             }
 1150              		.loc 1 138 31 discriminator 1 view .LVU325
 1151 01a4 0E4B     		ldr	r3, .L111+4
 1152 01a6 83ED020A 		vstr.32	s0, [r3, #8]
 1153 01aa 06E0     		b	.L80
 1154              	.LVL115:
 1155              	.L110:
 141:./Application/Src/command.c ****             }
 1156              		.loc 1 141 17 is_stmt 1 view .LVU326
 141:./Application/Src/command.c ****             }
 1157              		.loc 1 141 33 is_stmt 0 view .LVU327
 1158 01ac 0021     		movs	r1, #0
 1159 01ae 1846     		mov	r0, r3
 1160              	.LVL116:
 141:./Application/Src/command.c ****             }
 1161              		.loc 1 141 33 view .LVU328
 1162 01b0 FFF7FEFF 		bl	strtof
 1163              	.LVL117:
 141:./Application/Src/command.c ****             }
 1164              		.loc 1 141 31 discriminator 1 view .LVU329
 1165 01b4 0A4B     		ldr	r3, .L111+4
 1166 01b6 83ED020A 		vstr.32	s0, [r3, #8]
 1167              	.L80:
 146:./Application/Src/command.c ****         }
 1168              		.loc 1 146 13 is_stmt 1 view .LVU330
ARM GAS  C:\Users\admin\AppData\Local\Temp\ccfiAF59.s 			page 31


 146:./Application/Src/command.c ****         }
 1169              		.loc 1 146 20 is_stmt 0 view .LVU331
 1170 01ba 0020     		movs	r0, #0
 1171 01bc 27E7     		b	.L46
 1172              	.LVL118:
 1173              	.L81:
 146:./Application/Src/command.c ****         }
 1174              		.loc 1 146 20 view .LVU332
 1175              	.LBE22:
  22:./Application/Src/command.c ****         case 'p':{ /* :p <value> — set position in mm */
 1176              		.loc 1 22 9 view .LVU333
 1177 01be 0020     		movs	r0, #0
 1178              	.LVL119:
  22:./Application/Src/command.c ****         case 'p':{ /* :p <value> — set position in mm */
 1179              		.loc 1 22 9 view .LVU334
 1180 01c0 25E7     		b	.L46
 1181              	.LVL120:
 1182              	.L82:
  22:./Application/Src/command.c ****         case 'p':{ /* :p <value> — set position in mm */
 1183              		.loc 1 22 9 view .LVU335
 1184 01c2 0020     		movs	r0, #0
 1185              	.LVL121:
  22:./Application/Src/command.c ****         case 'p':{ /* :p <value> — set position in mm */
 1186              		.loc 1 22 9 view .LVU336
 1187 01c4 23E7     		b	.L46
 1188              	.LVL122:
 1189              	.L83:
  22:./Application/Src/command.c ****         case 'p':{ /* :p <value> — set position in mm */
 1190              		.loc 1 22 9 view .LVU337
 1191 01c6 0020     		movs	r0, #0
 1192              	.LVL123:
  22:./Application/Src/command.c ****         case 'p':{ /* :p <value> — set position in mm */
 1193              		.loc 1 22 9 view .LVU338
 1194 01c8 21E7     		b	.L46
 1195              	.LVL124:
 1196              	.L84:
 1197              	.LBB23:
 1198              	.LBB16:
  28:./Application/Src/command.c **** 
 1199              		.loc 1 28 24 view .LVU339
 1200 01ca 0320     		movs	r0, #3
 1201              	.LVL125:
  28:./Application/Src/command.c **** 
 1202              		.loc 1 28 24 view .LVU340
 1203 01cc 1FE7     		b	.L46
 1204              	.LVL126:
 1205              	.L88:
  28:./Application/Src/command.c **** 
 1206              		.loc 1 28 24 view .LVU341
 1207              	.LBE16:
 1208              	.LBE23:
 1209              	.LBB24:
  96:./Application/Src/command.c **** 
 1210              		.loc 1 96 24 view .LVU342
 1211 01ce 0320     		movs	r0, #3
 1212              	.LVL127:
  96:./Application/Src/command.c **** 
ARM GAS  C:\Users\admin\AppData\Local\Temp\ccfiAF59.s 			page 32


 1213              		.loc 1 96 24 view .LVU343
 1214 01d0 1DE7     		b	.L46
 1215              	.LVL128:
 1216              	.L90:
  96:./Application/Src/command.c **** 
 1217              		.loc 1 96 24 view .LVU344
 1218              	.LBE24:
 1219              	.LBB25:
 115:./Application/Src/command.c **** 
 1220              		.loc 1 115 24 view .LVU345
 1221 01d2 0320     		movs	r0, #3
 1222              	.LVL129:
 115:./Application/Src/command.c **** 
 1223              		.loc 1 115 24 view .LVU346
 1224 01d4 1BE7     		b	.L46
 1225              	.LVL130:
 1226              	.L92:
 115:./Application/Src/command.c **** 
 1227              		.loc 1 115 24 view .LVU347
 1228              	.LBE25:
 1229              	.LBB26:
 134:./Application/Src/command.c **** 
 1230              		.loc 1 134 24 view .LVU348
 1231 01d6 0320     		movs	r0, #3
 1232              	.LVL131:
 134:./Application/Src/command.c **** 
 1233              		.loc 1 134 24 view .LVU349
 1234 01d8 19E7     		b	.L46
 1235              	.L112:
 1236 01da 00BF     		.align	2
 1237              	.L111:
 1238 01dc 00000000 		.word	menu_enter
 1239 01e0 00000000 		.word	left_motor
 1240 01e4 00000000 		.word	right_motor
 1241 01e8 00000000 		.word	menu_move_up
 1242 01ec 00000000 		.word	menu_move_down
 1243 01f0 00000000 		.word	menu_back
 1244              	.LBE26:
 1245              		.cfi_endproc
 1246              	.LFE359:
 1248              		.section	.rodata.execute_command.str1.4,"aMS",%progbits,1
 1249              		.align	2
 1250              	.LC2:
 1251 0000 4F4B2E20 		.ascii	"OK.                      \000"
 1251      20202020 
 1251      20202020 
 1251      20202020 
 1251      20202020 
 1252 001a 0000     		.align	2
 1253              	.LC3:
 1254 001c 20202020 		.ascii	"                         \000"
 1254      20202020 
 1254      20202020 
 1254      20202020 
 1254      20202020 
 1255 0036 0000     		.align	2
 1256              	.LC4:
ARM GAS  C:\Users\admin\AppData\Local\Temp\ccfiAF59.s 			page 33


 1257 0038 43616E6E 		.ascii	"Cannot parse!            \000"
 1257      6F742070 
 1257      61727365 
 1257      21202020 
 1257      20202020 
 1258 0052 0000     		.align	2
 1259              	.LC5:
 1260 0054 456D7074 		.ascii	"Empty command!           \000"
 1260      7920636F 
 1260      6D6D616E 
 1260      64212020 
 1260      20202020 
 1261 006e 0000     		.align	2
 1262              	.LC6:
 1263 0070 496E636F 		.ascii	"Incomplete command!      \000"
 1263      6D706C65 
 1263      74652063 
 1263      6F6D6D61 
 1263      6E642120 
 1264              		.section	.text.execute_command,"ax",%progbits
 1265              		.align	1
 1266              		.global	execute_command
 1267              		.syntax unified
 1268              		.thumb
 1269              		.thumb_func
 1271              	execute_command:
 1272              	.LVL132:
 1273              	.LFB360:
 154:./Application/Src/command.c ****     int result = parse_command(command);
 1274              		.loc 1 154 1 is_stmt 1 view -0
 1275              		.cfi_startproc
 1276              		@ args = 0, pretend = 0, frame = 0
 1277              		@ frame_needed = 0, uses_anonymous_args = 0
 154:./Application/Src/command.c ****     int result = parse_command(command);
 1278              		.loc 1 154 1 is_stmt 0 view .LVU351
 1279 0000 30B5     		push	{r4, r5, lr}
 1280              	.LCFI10:
 1281              		.cfi_def_cfa_offset 12
 1282              		.cfi_offset 4, -12
 1283              		.cfi_offset 5, -8
 1284              		.cfi_offset 14, -4
 1285 0002 83B0     		sub	sp, sp, #12
 1286              	.LCFI11:
 1287              		.cfi_def_cfa_offset 24
 1288 0004 0546     		mov	r5, r0
 155:./Application/Src/command.c ****     if (result == 0)
 1289              		.loc 1 155 5 is_stmt 1 view .LVU352
 155:./Application/Src/command.c ****     if (result == 0)
 1290              		.loc 1 155 18 is_stmt 0 view .LVU353
 1291 0006 FFF7FEFF 		bl	parse_command
 1292              	.LVL133:
 156:./Application/Src/command.c ****     {
 1293              		.loc 1 156 5 is_stmt 1 view .LVU354
 156:./Application/Src/command.c ****     {
 1294              		.loc 1 156 8 is_stmt 0 view .LVU355
 1295 000a 38B1     		cbz	r0, .L119
 161:./Application/Src/command.c ****     {
ARM GAS  C:\Users\admin\AppData\Local\Temp\ccfiAF59.s 			page 34


 1296              		.loc 1 161 10 is_stmt 1 view .LVU356
 161:./Application/Src/command.c ****     {
 1297              		.loc 1 161 13 is_stmt 0 view .LVU357
 1298 000c 0128     		cmp	r0, #1
 1299 000e 16D0     		beq	.L120
 166:./Application/Src/command.c ****     {
 1300              		.loc 1 166 10 is_stmt 1 view .LVU358
 166:./Application/Src/command.c ****     {
 1301              		.loc 1 166 13 is_stmt 0 view .LVU359
 1302 0010 0228     		cmp	r0, #2
 1303 0012 26D0     		beq	.L121
 170:./Application/Src/command.c ****     {
 1304              		.loc 1 170 10 is_stmt 1 view .LVU360
 170:./Application/Src/command.c ****     {
 1305              		.loc 1 170 13 is_stmt 0 view .LVU361
 1306 0014 0328     		cmp	r0, #3
 1307 0016 2ED0     		beq	.L122
 1308              	.LVL134:
 1309              	.L113:
 175:./Application/Src/command.c **** 
 1310              		.loc 1 175 1 view .LVU362
 1311 0018 03B0     		add	sp, sp, #12
 1312              	.LCFI12:
 1313              		.cfi_remember_state
 1314              		.cfi_def_cfa_offset 12
 1315              		@ sp needed
 1316 001a 30BD     		pop	{r4, r5, pc}
 1317              	.LVL135:
 1318              	.L119:
 1319              	.LCFI13:
 1320              		.cfi_restore_state
 158:./Application/Src/command.c ****         LCD_draw_string(0, 15, "                         ", COLOR_BLACK, COLOR_WHITE);
 1321              		.loc 1 158 9 is_stmt 1 view .LVU363
 1322 001c 4FF6FF73 		movw	r3, #65535
 1323 0020 1C46     		mov	r4, r3
 1324 0022 0093     		str	r3, [sp]
 1325 0024 0346     		mov	r3, r0
 1326 0026 1D4A     		ldr	r2, .L123
 1327 0028 0E21     		movs	r1, #14
 1328 002a FFF7FEFF 		bl	LCD_draw_string
 1329              	.LVL136:
 159:./Application/Src/command.c ****     }
 1330              		.loc 1 159 9 view .LVU364
 1331 002e 0094     		str	r4, [sp]
 1332 0030 0023     		movs	r3, #0
 1333 0032 1B4A     		ldr	r2, .L123+4
 1334 0034 0F21     		movs	r1, #15
 1335 0036 1846     		mov	r0, r3
 1336 0038 FFF7FEFF 		bl	LCD_draw_string
 1337              	.LVL137:
 1338 003c ECE7     		b	.L113
 1339              	.LVL138:
 1340              	.L120:
 163:./Application/Src/command.c ****         LCD_draw_string(0, 15, (char*)command, COLOR_BLACK, COLOR_WHITE);
 1341              		.loc 1 163 9 view .LVU365
 1342 003e 4FF6FF73 		movw	r3, #65535
 1343 0042 1C46     		mov	r4, r3
ARM GAS  C:\Users\admin\AppData\Local\Temp\ccfiAF59.s 			page 35


 1344 0044 0093     		str	r3, [sp]
 1345 0046 0023     		movs	r3, #0
 1346 0048 164A     		ldr	r2, .L123+8
 1347 004a 0E21     		movs	r1, #14
 1348 004c 1846     		mov	r0, r3
 1349              	.LVL139:
 163:./Application/Src/command.c ****         LCD_draw_string(0, 15, (char*)command, COLOR_BLACK, COLOR_WHITE);
 1350              		.loc 1 163 9 is_stmt 0 view .LVU366
 1351 004e FFF7FEFF 		bl	LCD_draw_string
 1352              	.LVL140:
 164:./Application/Src/command.c ****     }
 1353              		.loc 1 164 9 is_stmt 1 view .LVU367
 1354 0052 0094     		str	r4, [sp]
 1355 0054 0023     		movs	r3, #0
 1356 0056 2A46     		mov	r2, r5
 1357 0058 0F21     		movs	r1, #15
 1358 005a 1846     		mov	r0, r3
 1359 005c FFF7FEFF 		bl	LCD_draw_string
 1360              	.LVL141:
 1361 0060 DAE7     		b	.L113
 1362              	.LVL142:
 1363              	.L121:
 168:./Application/Src/command.c ****     }
 1364              		.loc 1 168 9 view .LVU368
 1365 0062 4FF6FF73 		movw	r3, #65535
 1366 0066 0093     		str	r3, [sp]
 1367 0068 0023     		movs	r3, #0
 1368 006a 0F4A     		ldr	r2, .L123+12
 1369 006c 0E21     		movs	r1, #14
 1370 006e 1846     		mov	r0, r3
 1371              	.LVL143:
 168:./Application/Src/command.c ****     }
 1372              		.loc 1 168 9 is_stmt 0 view .LVU369
 1373 0070 FFF7FEFF 		bl	LCD_draw_string
 1374              	.LVL144:
 1375 0074 D0E7     		b	.L113
 1376              	.LVL145:
 1377              	.L122:
 172:./Application/Src/command.c ****         LCD_draw_string(0, 15, (char*)command, COLOR_BLACK, COLOR_WHITE);
 1378              		.loc 1 172 9 is_stmt 1 view .LVU370
 1379 0076 4FF6FF73 		movw	r3, #65535
 1380 007a 1C46     		mov	r4, r3
 1381 007c 0093     		str	r3, [sp]
 1382 007e 0023     		movs	r3, #0
 1383 0080 0A4A     		ldr	r2, .L123+16
 1384 0082 0E21     		movs	r1, #14
 1385 0084 1846     		mov	r0, r3
 1386              	.LVL146:
 172:./Application/Src/command.c ****         LCD_draw_string(0, 15, (char*)command, COLOR_BLACK, COLOR_WHITE);
 1387              		.loc 1 172 9 is_stmt 0 view .LVU371
 1388 0086 FFF7FEFF 		bl	LCD_draw_string
 1389              	.LVL147:
 173:./Application/Src/command.c ****     }
 1390              		.loc 1 173 9 is_stmt 1 view .LVU372
 1391 008a 0094     		str	r4, [sp]
 1392 008c 0023     		movs	r3, #0
 1393 008e 2A46     		mov	r2, r5
ARM GAS  C:\Users\admin\AppData\Local\Temp\ccfiAF59.s 			page 36


 1394 0090 0F21     		movs	r1, #15
 1395 0092 1846     		mov	r0, r3
 1396 0094 FFF7FEFF 		bl	LCD_draw_string
 1397              	.LVL148:
 175:./Application/Src/command.c **** 
 1398              		.loc 1 175 1 is_stmt 0 view .LVU373
 1399 0098 BEE7     		b	.L113
 1400              	.L124:
 1401 009a 00BF     		.align	2
 1402              	.L123:
 1403 009c 00000000 		.word	.LC2
 1404 00a0 1C000000 		.word	.LC3
 1405 00a4 38000000 		.word	.LC4
 1406 00a8 54000000 		.word	.LC5
 1407 00ac 70000000 		.word	.LC6
 1408              		.cfi_endproc
 1409              	.LFE360:
 1411              		.global	motor_off
 1412              		.section	.bss.motor_off,"aw",%nobits
 1415              	motor_off:
 1416 0000 00       		.space	1
 1417              		.section	.rodata.solenoids,"a"
 1418              		.align	2
 1421              	solenoids:
 1422 0000 00040242 		.word	1107428352
 1423 0004 8000     		.short	128
 1424 0006 0000     		.space	2
 1425 0008 00040242 		.word	1107428352
 1426 000c 0001     		.short	256
 1427 000e 0000     		.space	2
 1428 0010 00040242 		.word	1107428352
 1429 0014 0002     		.short	512
 1430 0016 0000     		.space	2
 1431 0018 00100242 		.word	1107431424
 1432 001c 0100     		.short	1
 1433 001e 0000     		.space	2
 1434 0020 00100242 		.word	1107431424
 1435 0024 0400     		.short	4
 1436 0026 0000     		.space	2
 1437 0028 00100242 		.word	1107431424
 1438 002c 0800     		.short	8
 1439 002e 0000     		.space	2
 1440 0030 00100242 		.word	1107431424
 1441 0034 1000     		.short	16
 1442 0036 0000     		.space	2
 1443 0038 00100242 		.word	1107431424
 1444 003c 4000     		.short	64
 1445 003e 0000     		.space	2
 1446 0040 00080242 		.word	1107429376
 1447 0044 0040     		.short	16384
 1448 0046 0000     		.space	2
 1449 0048 00080242 		.word	1107429376
 1450 004c 0080     		.short	-32768
 1451 004e 0000     		.space	2
 1452              		.text
 1453              	.Letext0:
 1454              		.file 2 "C:/arm-bare-metal/arm-none-eabi/include/machine/_default_types.h"
ARM GAS  C:\Users\admin\AppData\Local\Temp\ccfiAF59.s 			page 37


 1455              		.file 3 "C:/arm-bare-metal/arm-none-eabi/include/sys/_stdint.h"
 1456              		.file 4 "Drivers/CMSIS/Device/ST/STM32H5xx/Include/stm32h523xx.h"
 1457              		.file 5 "Drivers/STM32H5xx_HAL_Driver/Inc/stm32h5xx_hal_def.h"
 1458              		.file 6 "Drivers/STM32H5xx_HAL_Driver/Inc/stm32h5xx_hal_gpio.h"
 1459              		.file 7 "Drivers/STM32H5xx_HAL_Driver/Inc/stm32h5xx_hal_dma.h"
 1460              		.file 8 "Drivers/STM32H5xx_HAL_Driver/Inc/stm32h5xx_hal_dma_ex.h"
 1461              		.file 9 "Drivers/STM32H5xx_HAL_Driver/Inc/stm32h5xx_hal_tim.h"
 1462              		.file 10 "Application/Inc/menu.h"
 1463              		.file 11 "Core/Inc/tim.h"
 1464              		.file 12 "Application/Inc/application.h"
 1465              		.file 13 "Application/Inc/user_timer.h"
 1466              		.file 14 "Application/Inc/hc04.h"
 1467              		.file 15 "Application/Inc/ILI9225.h"
 1468              		.file 16 "C:/arm-bare-metal/arm-none-eabi/include/stdlib.h"
ARM GAS  C:\Users\admin\AppData\Local\Temp\ccfiAF59.s 			page 38


DEFINED SYMBOLS
                            *ABS*:00000000 command.c
C:\Users\admin\AppData\Local\Temp\ccfiAF59.s:22     .text.set_text:00000000 $t
C:\Users\admin\AppData\Local\Temp\ccfiAF59.s:28     .text.set_text:00000000 set_text
C:\Users\admin\AppData\Local\Temp\ccfiAF59.s:64     .text.reset_pos:00000000 $t
C:\Users\admin\AppData\Local\Temp\ccfiAF59.s:70     .text.reset_pos:00000000 reset_pos
C:\Users\admin\AppData\Local\Temp\ccfiAF59.s:88     .rodata.list_files_over_bt.str1.4:00000000 $d
C:\Users\admin\AppData\Local\Temp\ccfiAF59.s:92     .text.list_files_over_bt:00000000 $t
C:\Users\admin\AppData\Local\Temp\ccfiAF59.s:98     .text.list_files_over_bt:00000000 list_files_over_bt
C:\Users\admin\AppData\Local\Temp\ccfiAF59.s:118    .text.list_files_over_bt:0000000c $d
C:\Users\admin\AppData\Local\Temp\ccfiAF59.s:123    .text.toggle_solenoid:00000000 $t
C:\Users\admin\AppData\Local\Temp\ccfiAF59.s:129    .text.toggle_solenoid:00000000 toggle_solenoid
C:\Users\admin\AppData\Local\Temp\ccfiAF59.s:349    .text.toggle_solenoid:000000e8 $d
C:\Users\admin\AppData\Local\Temp\ccfiAF59.s:1415   .bss.motor_off:00000000 motor_off
C:\Users\admin\AppData\Local\Temp\ccfiAF59.s:1421   .rodata.solenoids:00000000 solenoids
C:\Users\admin\AppData\Local\Temp\ccfiAF59.s:357    .rodata.traversal.str1.4:00000000 $d
C:\Users\admin\AppData\Local\Temp\ccfiAF59.s:361    .text.traversal:00000000 $t
C:\Users\admin\AppData\Local\Temp\ccfiAF59.s:367    .text.traversal:00000000 traversal
C:\Users\admin\AppData\Local\Temp\ccfiAF59.s:479    .text.traversal:0000008c $d
C:\Users\admin\AppData\Local\Temp\ccfiAF59.s:490    .text.debug_traversal:00000000 $t
C:\Users\admin\AppData\Local\Temp\ccfiAF59.s:496    .text.debug_traversal:00000000 debug_traversal
C:\Users\admin\AppData\Local\Temp\ccfiAF59.s:628    .text.debug_traversal:000000ac $d
C:\Users\admin\AppData\Local\Temp\ccfiAF59.s:639    .text.parse_command:00000000 $t
C:\Users\admin\AppData\Local\Temp\ccfiAF59.s:645    .text.parse_command:00000000 parse_command
C:\Users\admin\AppData\Local\Temp\ccfiAF59.s:1238   .text.parse_command:000001dc $d
C:\Users\admin\AppData\Local\Temp\ccfiAF59.s:1249   .rodata.execute_command.str1.4:00000000 $d
C:\Users\admin\AppData\Local\Temp\ccfiAF59.s:1265   .text.execute_command:00000000 $t
C:\Users\admin\AppData\Local\Temp\ccfiAF59.s:1271   .text.execute_command:00000000 execute_command
C:\Users\admin\AppData\Local\Temp\ccfiAF59.s:1403   .text.execute_command:0000009c $d
C:\Users\admin\AppData\Local\Temp\ccfiAF59.s:1416   .bss.motor_off:00000000 $d
C:\Users\admin\AppData\Local\Temp\ccfiAF59.s:1418   .rodata.solenoids:00000000 $d

UNDEFINED SYMBOLS
LCD_draw_string
hc04_send_string
HAL_GPIO_WritePin
wait_ms
chord_events
left_motor
right_motor
left_motor_arrived
right_motor_arrived
htim1
strtof
menu_enter
menu_move_up
menu_move_down
menu_back
