ARM GAS  C:\Users\admin\AppData\Local\Temp\ccHkO6tR.s 			page 1


   1              		.cpu cortex-m33
   2              		.arch armv8-m.main
   3              		.fpu fpv5-sp-d16
   4              		.arch_extension dsp
   5              		.eabi_attribute 27, 1
   6              		.eabi_attribute 28, 1
   7              		.eabi_attribute 20, 1
   8              		.eabi_attribute 21, 1
   9              		.eabi_attribute 23, 3
  10              		.eabi_attribute 24, 1
  11              		.eabi_attribute 25, 1
  12              		.eabi_attribute 26, 1
  13              		.eabi_attribute 30, 1
  14              		.eabi_attribute 34, 1
  15              		.eabi_attribute 18, 4
  16              		.file	"encoder.c"
  17              		.text
  18              	.Ltext0:
  19              		.cfi_sections	.debug_frame
  20              		.file 1 "./Application/Src/encoder.c"
  21              		.section	.text.encoder_start,"ax",%progbits
  22              		.align	1
  23              		.global	encoder_start
  24              		.syntax unified
  25              		.thumb
  26              		.thumb_func
  28              	encoder_start:
  29              	.LVL0:
  30              	.LFB359:
   1:./Application/Src/encoder.c **** #include <encoder.h>
   2:./Application/Src/encoder.c **** #include <application.h>
   3:./Application/Src/encoder.c **** 
   4:./Application/Src/encoder.c **** static uint16_t encoder_last_count = 0;
   5:./Application/Src/encoder.c **** static int32_t encoder_accumulated = 0;
   6:./Application/Src/encoder.c **** 
   7:./Application/Src/encoder.c **** void encoder_start(TIM_HandleTypeDef* htim){
  31              		.loc 1 7 44 view -0
  32              		.cfi_startproc
  33              		@ args = 0, pretend = 0, frame = 0
  34              		@ frame_needed = 0, uses_anonymous_args = 0
  35              		.loc 1 7 44 is_stmt 0 view .LVU1
  36 0000 10B5     		push	{r4, lr}
  37              	.LCFI0:
  38              		.cfi_def_cfa_offset 8
  39              		.cfi_offset 4, -8
  40              		.cfi_offset 14, -4
  41 0002 0446     		mov	r4, r0
   8:./Application/Src/encoder.c ****     HAL_TIM_Encoder_Start(htim, TIM_CHANNEL_ALL);
  42              		.loc 1 8 5 is_stmt 1 view .LVU2
  43 0004 3C21     		movs	r1, #60
  44 0006 FFF7FEFF 		bl	HAL_TIM_Encoder_Start
  45              	.LVL1:
   9:./Application/Src/encoder.c ****     encoder_last_count = __HAL_TIM_GET_COUNTER(htim);
  46              		.loc 1 9 5 view .LVU3
  47              		.loc 1 9 26 is_stmt 0 view .LVU4
  48 000a 2368     		ldr	r3, [r4]
  49 000c 5A6A     		ldr	r2, [r3, #36]
ARM GAS  C:\Users\admin\AppData\Local\Temp\ccHkO6tR.s 			page 2


  50              		.loc 1 9 24 view .LVU5
  51 000e 034B     		ldr	r3, .L3
  52 0010 1A80     		strh	r2, [r3]	@ movhi
  10:./Application/Src/encoder.c ****     encoder_accumulated = 0;
  53              		.loc 1 10 5 is_stmt 1 view .LVU6
  54              		.loc 1 10 25 is_stmt 0 view .LVU7
  55 0012 034B     		ldr	r3, .L3+4
  56 0014 0022     		movs	r2, #0
  57 0016 1A60     		str	r2, [r3]
  11:./Application/Src/encoder.c **** }
  58              		.loc 1 11 1 view .LVU8
  59 0018 10BD     		pop	{r4, pc}
  60              	.LVL2:
  61              	.L4:
  62              		.loc 1 11 1 view .LVU9
  63 001a 00BF     		.align	2
  64              	.L3:
  65 001c 00000000 		.word	encoder_last_count
  66 0020 00000000 		.word	encoder_accumulated
  67              		.cfi_endproc
  68              	.LFE359:
  70              		.section	.text.encoder_read_value,"ax",%progbits
  71              		.align	1
  72              		.global	encoder_read_value
  73              		.syntax unified
  74              		.thumb
  75              		.thumb_func
  77              	encoder_read_value:
  78              	.LVL3:
  79              	.LFB360:
  12:./Application/Src/encoder.c **** 
  13:./Application/Src/encoder.c **** int16_t encoder_read_value(TIM_HandleTypeDef* htim){
  80              		.loc 1 13 52 is_stmt 1 view -0
  81              		.cfi_startproc
  82              		@ args = 0, pretend = 0, frame = 0
  83              		@ frame_needed = 0, uses_anonymous_args = 0
  84              		@ link register save eliminated.
  14:./Application/Src/encoder.c ****     uint16_t delta_count = __HAL_TIM_GET_COUNTER(htim);
  85              		.loc 1 14 5 view .LVU11
  86              		.loc 1 14 28 is_stmt 0 view .LVU12
  87 0000 0368     		ldr	r3, [r0]
  88 0002 586A     		ldr	r0, [r3, #36]
  89              	.LVL4:
  15:./Application/Src/encoder.c ****     __HAL_TIM_SetCounter(htim, 0);
  90              		.loc 1 15 5 is_stmt 1 view .LVU13
  91 0004 0022     		movs	r2, #0
  92 0006 5A62     		str	r2, [r3, #36]
  16:./Application/Src/encoder.c ****     return (int16_t) delta_count;
  93              		.loc 1 16 5 view .LVU14
  17:./Application/Src/encoder.c **** }
  94              		.loc 1 17 1 is_stmt 0 view .LVU15
  95 0008 00B2     		sxth	r0, r0
  96              		.loc 1 17 1 view .LVU16
  97 000a 7047     		bx	lr
  98              		.cfi_endproc
  99              	.LFE360:
 101              		.section	.text.encoder_parse_distance_mm,"ax",%progbits
ARM GAS  C:\Users\admin\AppData\Local\Temp\ccHkO6tR.s 			page 3


 102              		.align	1
 103              		.global	encoder_parse_distance_mm
 104              		.syntax unified
 105              		.thumb
 106              		.thumb_func
 108              	encoder_parse_distance_mm:
 109              	.LVL5:
 110              	.LFB361:
  18:./Application/Src/encoder.c **** 
  19:./Application/Src/encoder.c **** float encoder_parse_distance_mm(int32_t encoder_count){
 111              		.loc 1 19 55 is_stmt 1 view -0
 112              		.cfi_startproc
 113              		@ args = 0, pretend = 0, frame = 0
 114              		@ frame_needed = 0, uses_anonymous_args = 0
 115              		@ link register save eliminated.
 116              		.loc 1 19 55 is_stmt 0 view .LVU18
 117 0000 07EE900A 		vmov	s15, r0	@ int
  20:./Application/Src/encoder.c ****     float revolution = (float) encoder_count / (ENCODER_CPR * GEAR_RATIO);
 118              		.loc 1 20 5 is_stmt 1 view .LVU19
 119              		.loc 1 20 24 is_stmt 0 view .LVU20
 120 0004 F8EEE77A 		vcvt.f32.s32	s15, s15
 121              		.loc 1 20 11 view .LVU21
 122 0008 9FED047A 		vldr.32	s14, .L7
 123 000c 87EE870A 		vdiv.f32	s0, s15, s14
 124              	.LVL6:
  21:./Application/Src/encoder.c ****     float distance = revolution * REV_LENGTH;
 125              		.loc 1 21 5 is_stmt 1 view .LVU22
  22:./Application/Src/encoder.c ****     return distance; // in mm
 126              		.loc 1 22 5 view .LVU23
  23:./Application/Src/encoder.c **** }
 127              		.loc 1 23 1 is_stmt 0 view .LVU24
 128 0010 DFED037A 		vldr.32	s15, .L7+4
 129 0014 20EE270A 		vmul.f32	s0, s0, s15
 130              	.LVL7:
 131              		.loc 1 23 1 view .LVU25
 132 0018 7047     		bx	lr
 133              	.L8:
 134 001a 00BF     		.align	2
 135              	.L7:
 136 001c 0000C843 		.word	1137180672
 137 0020 00009242 		.word	1116864512
 138              		.cfi_endproc
 139              	.LFE361:
 141              		.section	.text.encoder_calc_speed_mm_s,"ax",%progbits
 142              		.align	1
 143              		.global	encoder_calc_speed_mm_s
 144              		.syntax unified
 145              		.thumb
 146              		.thumb_func
 148              	encoder_calc_speed_mm_s:
 149              	.LVL8:
 150              	.LFB362:
  24:./Application/Src/encoder.c **** 
  25:./Application/Src/encoder.c **** 
  26:./Application/Src/encoder.c **** float encoder_calc_speed_mm_s(float encoder_new_parsed_distance_mm, float dt){
 151              		.loc 1 26 78 is_stmt 1 view -0
 152              		.cfi_startproc
ARM GAS  C:\Users\admin\AppData\Local\Temp\ccHkO6tR.s 			page 4


 153              		@ args = 0, pretend = 0, frame = 0
 154              		@ frame_needed = 0, uses_anonymous_args = 0
 155              		@ link register save eliminated.
  27:./Application/Src/encoder.c ****     float change_in_distance = encoder_new_parsed_distance_mm - encoder_old_position_mm;
 156              		.loc 1 27 5 view .LVU27
 157              		.loc 1 27 63 is_stmt 0 view .LVU28
 158 0000 044B     		ldr	r3, .L10
 159 0002 D3ED007A 		vldr.32	s15, [r3]
 160              		.loc 1 27 11 view .LVU29
 161 0006 70EE677A 		vsub.f32	s15, s0, s15
 162              	.LVL9:
  28:./Application/Src/encoder.c ****     float velocity = change_in_distance / dt;
 163              		.loc 1 28 5 is_stmt 1 view .LVU30
  29:./Application/Src/encoder.c ****     encoder_old_position_mm = encoder_new_parsed_distance_mm;  // update for next call
 164              		.loc 1 29 5 view .LVU31
 165              		.loc 1 29 29 is_stmt 0 view .LVU32
 166 000a 83ED000A 		vstr.32	s0, [r3]
  30:./Application/Src/encoder.c ****     return velocity;
 167              		.loc 1 30 5 is_stmt 1 view .LVU33
  31:./Application/Src/encoder.c **** }...
 168              		.loc 1 31 1 is_stmt 0 view .LVU34
 169 000e 87EEA00A 		vdiv.f32	s0, s15, s1
 170              	.LVL10:
 171              		.loc 1 31 1 view .LVU35
 172 0012 7047     		bx	lr
 173              	.L11:
 174              		.align	2
 175              	.L10:
 176 0014 00000000 		.word	encoder_old_position_mm
 177              		.cfi_endproc
 178              	.LFE362:
 180              		.section	.bss.encoder_accumulated,"aw",%nobits
 181              		.align	2
 184              	encoder_accumulated:
 185 0000 00000000 		.space	4
 186              		.section	.bss.encoder_last_count,"aw",%nobits
 187              		.align	1
 190              	encoder_last_count:
 191 0000 0000     		.space	2
 192              		.text
 193              	.Letext0:
 194              		.file 2 "C:/arm-bare-metal/arm-none-eabi/include/machine/_default_types.h"
 195              		.file 3 "C:/arm-bare-metal/arm-none-eabi/include/sys/_stdint.h"
 196              		.file 4 "Drivers/CMSIS/Device/ST/STM32H5xx/Include/stm32h523xx.h"
 197              		.file 5 "Drivers/STM32H5xx_HAL_Driver/Inc/stm32h5xx_hal_def.h"
 198              		.file 6 "Drivers/STM32H5xx_HAL_Driver/Inc/stm32h5xx_hal_dma.h"
 199              		.file 7 "Drivers/STM32H5xx_HAL_Driver/Inc/stm32h5xx_hal_dma_ex.h"
 200              		.file 8 "Drivers/STM32H5xx_HAL_Driver/Inc/stm32h5xx_hal_tim.h"
 201              		.file 9 "Application/Inc/application.h"
ARM GAS  C:\Users\admin\AppData\Local\Temp\ccHkO6tR.s 			page 5

