ARM GAS  C:\Users\Xuleo\AppData\Local\Temp\ccTDbepL.s 			page 1


   1              		.cpu cortex-m33
   2              		.arch armv8-m.main
   3              		.fpu fpv5-sp-d16
   4              		.arch_extension dsp
   5              		.eabi_attribute 27, 1
   6              		.eabi_attribute 28, 1
   7              		.eabi_attribute 20, 1
   8              		.eabi_attribute 21, 1
   9              		.eabi_attribute 23, 3
  10              		.eabi_attribute 24, 1
  11              		.eabi_attribute 25, 1
  12              		.eabi_attribute 26, 1
  13              		.eabi_attribute 30, 1
  14              		.eabi_attribute 34, 1
  15              		.eabi_attribute 18, 4
  16              		.file	"ff.c"
  17              		.text
  18              	.Ltext0:
  19              		.cfi_sections	.debug_frame
  20              		.file 1 "./ThirdParty/FatFs/Src/ff.c"
  21              		.section	.text.ld_16,"ax",%progbits
  22              		.align	1
  23              		.syntax unified
  24              		.thumb
  25              		.thumb_func
  27              	ld_16:
  28              	.LVL0:
  29              	.LFB0:
   1:./ThirdParty/FatFs/Src/ff.c **** /*----------------------------------------------------------------------------/
   2:./ThirdParty/FatFs/Src/ff.c **** /  FatFs - Generic FAT Filesystem Module  R0.16                               /
   3:./ThirdParty/FatFs/Src/ff.c **** /-----------------------------------------------------------------------------/
   4:./ThirdParty/FatFs/Src/ff.c **** /
   5:./ThirdParty/FatFs/Src/ff.c **** / Copyright (C) 2025, ChaN, all right reserved.
   6:./ThirdParty/FatFs/Src/ff.c **** /
   7:./ThirdParty/FatFs/Src/ff.c **** / FatFs module is an open source software. Redistribution and use of FatFs in
   8:./ThirdParty/FatFs/Src/ff.c **** / source and binary forms, with or without modification, are permitted provided
   9:./ThirdParty/FatFs/Src/ff.c **** / that the following condition is met:
  10:./ThirdParty/FatFs/Src/ff.c **** /
  11:./ThirdParty/FatFs/Src/ff.c **** / 1. Redistributions of source code must retain the above copyright notice,
  12:./ThirdParty/FatFs/Src/ff.c **** /    this condition and the following disclaimer.
  13:./ThirdParty/FatFs/Src/ff.c **** /
  14:./ThirdParty/FatFs/Src/ff.c **** / This software is provided by the copyright holder and contributors "AS IS"
  15:./ThirdParty/FatFs/Src/ff.c **** / and any warranties related to this software are DISCLAIMED.
  16:./ThirdParty/FatFs/Src/ff.c **** / The copyright owner or contributors be NOT LIABLE for any damages caused
  17:./ThirdParty/FatFs/Src/ff.c **** / by use of this software.
  18:./ThirdParty/FatFs/Src/ff.c **** /
  19:./ThirdParty/FatFs/Src/ff.c **** /----------------------------------------------------------------------------*/
  20:./ThirdParty/FatFs/Src/ff.c **** 
  21:./ThirdParty/FatFs/Src/ff.c **** 
  22:./ThirdParty/FatFs/Src/ff.c **** #include <string.h>
  23:./ThirdParty/FatFs/Src/ff.c **** #include "ff.h"			/* Basic definitions and declarations of API */
  24:./ThirdParty/FatFs/Src/ff.c **** #include "diskio.h"		/* Declarations of MAI */
  25:./ThirdParty/FatFs/Src/ff.c **** 
  26:./ThirdParty/FatFs/Src/ff.c **** /*--------------------------------------------------------------------------
  27:./ThirdParty/FatFs/Src/ff.c **** 
  28:./ThirdParty/FatFs/Src/ff.c ****    Module Private Definitions
  29:./ThirdParty/FatFs/Src/ff.c **** 
ARM GAS  C:\Users\Xuleo\AppData\Local\Temp\ccTDbepL.s 			page 2


  30:./ThirdParty/FatFs/Src/ff.c **** ---------------------------------------------------------------------------*/
  31:./ThirdParty/FatFs/Src/ff.c **** 
  32:./ThirdParty/FatFs/Src/ff.c **** #if FF_DEFINED != 80386	/* Revision ID */
  33:./ThirdParty/FatFs/Src/ff.c **** #error Wrong include file (ff.h).
  34:./ThirdParty/FatFs/Src/ff.c **** #endif
  35:./ThirdParty/FatFs/Src/ff.c **** 
  36:./ThirdParty/FatFs/Src/ff.c **** 
  37:./ThirdParty/FatFs/Src/ff.c **** /* Limits and boundaries */
  38:./ThirdParty/FatFs/Src/ff.c **** #define MAX_DIR		0x200000		/* Max size of FAT directory (byte) */
  39:./ThirdParty/FatFs/Src/ff.c **** #define MAX_DIR_EX	0x10000000		/* Max size of exFAT directory (byte) */
  40:./ThirdParty/FatFs/Src/ff.c **** #define MAX_FAT12	0xFF5			/* Max FAT12 clusters (differs from specs, but right for real DOS/Windows
  41:./ThirdParty/FatFs/Src/ff.c **** #define MAX_FAT16	0xFFF5			/* Max FAT16 clusters (differs from specs, but right for real DOS/Window
  42:./ThirdParty/FatFs/Src/ff.c **** #define MAX_FAT32	0x0FFFFFF5		/* Max FAT32 clusters (not defined in specs, practical limit) */
  43:./ThirdParty/FatFs/Src/ff.c **** #define MAX_EXFAT	0x7FFFFFFD		/* Max exFAT clusters (differs from specs, implementation limit) */
  44:./ThirdParty/FatFs/Src/ff.c **** 
  45:./ThirdParty/FatFs/Src/ff.c **** 
  46:./ThirdParty/FatFs/Src/ff.c **** /* Character code support macros */
  47:./ThirdParty/FatFs/Src/ff.c **** #define IsUpper(c)		((c) >= 'A' && (c) <= 'Z')
  48:./ThirdParty/FatFs/Src/ff.c **** #define IsLower(c)		((c) >= 'a' && (c) <= 'z')
  49:./ThirdParty/FatFs/Src/ff.c **** #define IsDigit(c)		((c) >= '0' && (c) <= '9')
  50:./ThirdParty/FatFs/Src/ff.c **** #define IsSeparator(c)	((c) == '/' || (c) == '\\')
  51:./ThirdParty/FatFs/Src/ff.c **** #define IsTerminator(c)	((UINT)(c) < (FF_USE_LFN ? ' ' : '!'))
  52:./ThirdParty/FatFs/Src/ff.c **** #define IsSurrogate(c)	((c) >= 0xD800 && (c) <= 0xDFFF)
  53:./ThirdParty/FatFs/Src/ff.c **** #define IsSurrogateH(c)	((c) >= 0xD800 && (c) <= 0xDBFF)
  54:./ThirdParty/FatFs/Src/ff.c **** #define IsSurrogateL(c)	((c) >= 0xDC00 && (c) <= 0xDFFF)
  55:./ThirdParty/FatFs/Src/ff.c **** 
  56:./ThirdParty/FatFs/Src/ff.c **** 
  57:./ThirdParty/FatFs/Src/ff.c **** /* Additional file access control and file status flags for internal use */
  58:./ThirdParty/FatFs/Src/ff.c **** #define FA_SEEKEND	0x20	/* Seek to end of the file on file open */
  59:./ThirdParty/FatFs/Src/ff.c **** #define FA_MODIFIED	0x40	/* File has been modified */
  60:./ThirdParty/FatFs/Src/ff.c **** #define FA_DIRTY	0x80	/* FIL.buf[] needs to be written-back */
  61:./ThirdParty/FatFs/Src/ff.c **** 
  62:./ThirdParty/FatFs/Src/ff.c **** 
  63:./ThirdParty/FatFs/Src/ff.c **** /* Additional file attribute bits for internal use */
  64:./ThirdParty/FatFs/Src/ff.c **** #define AM_VOL		0x08	/* Volume label */
  65:./ThirdParty/FatFs/Src/ff.c **** #define AM_LFN		0x0F	/* LFN entry */
  66:./ThirdParty/FatFs/Src/ff.c **** #define AM_MASK		0x3F	/* Mask of defined bits in FAT */
  67:./ThirdParty/FatFs/Src/ff.c **** #define AM_MASKX	0x37	/* Mask of defined bits in exFAT */
  68:./ThirdParty/FatFs/Src/ff.c **** 
  69:./ThirdParty/FatFs/Src/ff.c **** 
  70:./ThirdParty/FatFs/Src/ff.c **** /* Name status flags in fn[11] */
  71:./ThirdParty/FatFs/Src/ff.c **** #define NSFLAG		11		/* Index of the name status byte */
  72:./ThirdParty/FatFs/Src/ff.c **** #define NS_LOSS		0x01	/* Out of 8.3 format */
  73:./ThirdParty/FatFs/Src/ff.c **** #define NS_LFN		0x02	/* Force to create LFN entry */
  74:./ThirdParty/FatFs/Src/ff.c **** #define NS_LAST		0x04	/* Last segment */
  75:./ThirdParty/FatFs/Src/ff.c **** #define NS_BODY		0x08	/* Lower case flag (body) */
  76:./ThirdParty/FatFs/Src/ff.c **** #define NS_EXT		0x10	/* Lower case flag (ext) */
  77:./ThirdParty/FatFs/Src/ff.c **** #define NS_DOT		0x20	/* Dot entry */
  78:./ThirdParty/FatFs/Src/ff.c **** #define NS_NOLFN	0x40	/* Do not find LFN */
  79:./ThirdParty/FatFs/Src/ff.c **** #define NS_NONAME	0x80	/* Not followed */
  80:./ThirdParty/FatFs/Src/ff.c **** 
  81:./ThirdParty/FatFs/Src/ff.c **** 
  82:./ThirdParty/FatFs/Src/ff.c **** /* exFAT directory entry types */
  83:./ThirdParty/FatFs/Src/ff.c **** #define	ET_BITMAP	0x81	/* Allocation bitmap */
  84:./ThirdParty/FatFs/Src/ff.c **** #define	ET_UPCASE	0x82	/* Up-case table */
  85:./ThirdParty/FatFs/Src/ff.c **** #define	ET_VLABEL	0x83	/* Volume label */
  86:./ThirdParty/FatFs/Src/ff.c **** #define	ET_FILEDIR	0x85	/* File and directory */
ARM GAS  C:\Users\Xuleo\AppData\Local\Temp\ccTDbepL.s 			page 3


  87:./ThirdParty/FatFs/Src/ff.c **** #define	ET_STREAM	0xC0	/* Stream extension */
  88:./ThirdParty/FatFs/Src/ff.c **** #define	ET_FILENAME	0xC1	/* Name extension */
  89:./ThirdParty/FatFs/Src/ff.c **** 
  90:./ThirdParty/FatFs/Src/ff.c **** 
  91:./ThirdParty/FatFs/Src/ff.c **** /* FatFs refers the FAT structures as simple byte array instead of structure member
  92:./ThirdParty/FatFs/Src/ff.c **** / because the C structure is not binary compatible between different platforms */
  93:./ThirdParty/FatFs/Src/ff.c **** 
  94:./ThirdParty/FatFs/Src/ff.c **** #define BS_JmpBoot			0		/* x86 jump instruction (3-byte) */
  95:./ThirdParty/FatFs/Src/ff.c **** #define BS_OEMName			3		/* OEM name (8-byte) */
  96:./ThirdParty/FatFs/Src/ff.c **** #define BPB_BytsPerSec		11		/* Sector size [byte] (WORD) */
  97:./ThirdParty/FatFs/Src/ff.c **** #define BPB_SecPerClus		13		/* Cluster size [sector] (BYTE) */
  98:./ThirdParty/FatFs/Src/ff.c **** #define BPB_RsvdSecCnt		14		/* Size of reserved area [sector] (WORD) */
  99:./ThirdParty/FatFs/Src/ff.c **** #define BPB_NumFATs			16		/* Number of FATs (BYTE) */
 100:./ThirdParty/FatFs/Src/ff.c **** #define BPB_RootEntCnt		17		/* Size of root directory area for FAT [entry] (WORD) */
 101:./ThirdParty/FatFs/Src/ff.c **** #define BPB_TotSec16		19		/* Volume size (16-bit) [sector] (WORD) */
 102:./ThirdParty/FatFs/Src/ff.c **** #define BPB_Media			21		/* Media descriptor byte (BYTE) */
 103:./ThirdParty/FatFs/Src/ff.c **** #define BPB_FATSz16			22		/* FAT size (16-bit) [sector] (WORD) */
 104:./ThirdParty/FatFs/Src/ff.c **** #define BPB_SecPerTrk		24		/* Number of sectors per track for int13h [sector] (WORD) */
 105:./ThirdParty/FatFs/Src/ff.c **** #define BPB_NumHeads		26		/* Number of heads for int13h (WORD) */
 106:./ThirdParty/FatFs/Src/ff.c **** #define BPB_HiddSec			28		/* Volume offset from top of the drive (DWORD) */
 107:./ThirdParty/FatFs/Src/ff.c **** #define BPB_TotSec32		32		/* Volume size (32-bit) [sector] (DWORD) */
 108:./ThirdParty/FatFs/Src/ff.c **** #define BS_DrvNum			36		/* Physical drive number for int13h (BYTE) */
 109:./ThirdParty/FatFs/Src/ff.c **** #define BS_NTres			37		/* WindowsNT error flag (BYTE) */
 110:./ThirdParty/FatFs/Src/ff.c **** #define BS_BootSig			38		/* Extended boot signature (BYTE) */
 111:./ThirdParty/FatFs/Src/ff.c **** #define BS_VolID			39		/* Volume serial number (DWORD) */
 112:./ThirdParty/FatFs/Src/ff.c **** #define BS_VolLab			43		/* Volume label string (8-byte) */
 113:./ThirdParty/FatFs/Src/ff.c **** #define BS_FilSysType		54		/* Filesystem type string (8-byte) */
 114:./ThirdParty/FatFs/Src/ff.c **** #define BS_BootCode			62		/* Boot code (448-byte) */
 115:./ThirdParty/FatFs/Src/ff.c **** #define BS_55AA				510		/* Boot signature (WORD, for VBR and MBR) */
 116:./ThirdParty/FatFs/Src/ff.c **** 
 117:./ThirdParty/FatFs/Src/ff.c **** #define BPB_FATSz32			36		/* FAT32: FAT size [sector] (DWORD) */
 118:./ThirdParty/FatFs/Src/ff.c **** #define BPB_ExtFlags32		40		/* FAT32: Extended flags (WORD) */
 119:./ThirdParty/FatFs/Src/ff.c **** #define BPB_FSVer32			42		/* FAT32: Filesystem version (WORD) */
 120:./ThirdParty/FatFs/Src/ff.c **** #define BPB_RootClus32		44		/* FAT32: Root directory cluster (DWORD) */
 121:./ThirdParty/FatFs/Src/ff.c **** #define BPB_FSInfo32		48		/* FAT32: Offset of FSINFO sector (WORD) */
 122:./ThirdParty/FatFs/Src/ff.c **** #define BPB_BkBootSec32		50		/* FAT32: Offset of backup boot sector (WORD) */
 123:./ThirdParty/FatFs/Src/ff.c **** #define BS_DrvNum32			64		/* FAT32: Physical drive number for int13h (BYTE) */
 124:./ThirdParty/FatFs/Src/ff.c **** #define BS_NTres32			65		/* FAT32: Error flag (BYTE) */
 125:./ThirdParty/FatFs/Src/ff.c **** #define BS_BootSig32		66		/* FAT32: Extended boot signature (BYTE) */
 126:./ThirdParty/FatFs/Src/ff.c **** #define BS_VolID32			67		/* FAT32: Volume serial number (DWORD) */
 127:./ThirdParty/FatFs/Src/ff.c **** #define BS_VolLab32			71		/* FAT32: Volume label string (8-byte) */
 128:./ThirdParty/FatFs/Src/ff.c **** #define BS_FilSysType32		82		/* FAT32: Filesystem type string (8-byte) */
 129:./ThirdParty/FatFs/Src/ff.c **** #define BS_BootCode32		90		/* FAT32: Boot code (420-byte) */
 130:./ThirdParty/FatFs/Src/ff.c **** 
 131:./ThirdParty/FatFs/Src/ff.c **** #define BPB_ZeroedEx		11		/* exFAT: MBZ field (53-byte) */
 132:./ThirdParty/FatFs/Src/ff.c **** #define BPB_VolOfsEx		64		/* exFAT: Volume offset from top of the drive [sector] (QWORD) */
 133:./ThirdParty/FatFs/Src/ff.c **** #define BPB_TotSecEx		72		/* exFAT: Volume size [sector] (QWORD) */
 134:./ThirdParty/FatFs/Src/ff.c **** #define BPB_FatOfsEx		80		/* exFAT: FAT offset from top of the volume [sector] (DWORD) */
 135:./ThirdParty/FatFs/Src/ff.c **** #define BPB_FatSzEx			84		/* exFAT: FAT size [sector] (DWORD) */
 136:./ThirdParty/FatFs/Src/ff.c **** #define BPB_DataOfsEx		88		/* exFAT: Data offset from top of the volume [sector] (DWORD) */
 137:./ThirdParty/FatFs/Src/ff.c **** #define BPB_NumClusEx		92		/* exFAT: Number of clusters (DWORD) */
 138:./ThirdParty/FatFs/Src/ff.c **** #define BPB_RootClusEx		96		/* exFAT: Root directory start cluster (DWORD) */
 139:./ThirdParty/FatFs/Src/ff.c **** #define BPB_VolIDEx			100		/* exFAT: Volume serial number (DWORD) */
 140:./ThirdParty/FatFs/Src/ff.c **** #define BPB_FSVerEx			104		/* exFAT: Filesystem version (WORD) */
 141:./ThirdParty/FatFs/Src/ff.c **** #define BPB_VolFlagEx		106		/* exFAT: Volume flags (WORD, out of check sum calculation) */
 142:./ThirdParty/FatFs/Src/ff.c **** #define BPB_BytsPerSecEx	108		/* exFAT: Log2 of sector size in unit of byte (BYTE) */
 143:./ThirdParty/FatFs/Src/ff.c **** #define BPB_SecPerClusEx	109		/* exFAT: Log2 of cluster size in unit of sector (BYTE) */
ARM GAS  C:\Users\Xuleo\AppData\Local\Temp\ccTDbepL.s 			page 4


 144:./ThirdParty/FatFs/Src/ff.c **** #define BPB_NumFATsEx		110		/* exFAT: Number of FATs (BYTE) */
 145:./ThirdParty/FatFs/Src/ff.c **** #define BPB_DrvNumEx		111		/* exFAT: Physical drive number for int13h (BYTE) */
 146:./ThirdParty/FatFs/Src/ff.c **** #define BPB_PercInUseEx		112		/* exFAT: Percent in use (BYTE, out of check sum calculation) */
 147:./ThirdParty/FatFs/Src/ff.c **** #define BPB_RsvdEx			113		/* exFAT: Reserved (7-byte) */
 148:./ThirdParty/FatFs/Src/ff.c **** #define BS_BootCodeEx		120		/* exFAT: Boot code (390-byte) */
 149:./ThirdParty/FatFs/Src/ff.c **** 
 150:./ThirdParty/FatFs/Src/ff.c **** #define DIR_Name			0		/* Short file name (11-byte) */
 151:./ThirdParty/FatFs/Src/ff.c **** #define DIR_Attr			11		/* Attribute (BYTE) */
 152:./ThirdParty/FatFs/Src/ff.c **** #define DIR_NTres			12		/* Low case flags of SFN (BYTE) */
 153:./ThirdParty/FatFs/Src/ff.c **** #define DIR_CrtTime10		13		/* Created time sub-second (BYTE) */
 154:./ThirdParty/FatFs/Src/ff.c **** #define DIR_CrtTime			14		/* Created time (DWORD) */
 155:./ThirdParty/FatFs/Src/ff.c **** #define DIR_LstAccDate		18		/* Last accessed date (WORD) */
 156:./ThirdParty/FatFs/Src/ff.c **** #define DIR_FstClusHI		20		/* Higher 16-bit of first cluster (WORD) */
 157:./ThirdParty/FatFs/Src/ff.c **** #define DIR_ModTime			22		/* Modified time (DWORD) */
 158:./ThirdParty/FatFs/Src/ff.c **** #define DIR_FstClusLO		26		/* Lower 16-bit of first cluster (WORD) */
 159:./ThirdParty/FatFs/Src/ff.c **** #define DIR_FileSize		28		/* File size (DWORD) */
 160:./ThirdParty/FatFs/Src/ff.c **** #define LDIR_Ord			0		/* LFN: LFN order and LLE flag (BYTE) */
 161:./ThirdParty/FatFs/Src/ff.c **** #define LDIR_Attr			11		/* LFN: LFN attribute (BYTE) */
 162:./ThirdParty/FatFs/Src/ff.c **** #define LDIR_Type			12		/* LFN: Entry type (BYTE) */
 163:./ThirdParty/FatFs/Src/ff.c **** #define LDIR_Chksum			13		/* LFN: Checksum of the SFN (BYTE) */
 164:./ThirdParty/FatFs/Src/ff.c **** #define LDIR_FstClusLO		26		/* LFN: MBZ field (WORD) */
 165:./ThirdParty/FatFs/Src/ff.c **** #define XDIR_Type			0		/* exFAT: Type of exFAT directory entry (BYTE) */
 166:./ThirdParty/FatFs/Src/ff.c **** #define XDIR_NumLabel		1		/* exFAT: Number of volume label characters (BYTE) */
 167:./ThirdParty/FatFs/Src/ff.c **** #define XDIR_Label			2		/* exFAT: Volume label (11-WORD) */
 168:./ThirdParty/FatFs/Src/ff.c **** #define XDIR_CaseSum		4		/* exFAT: Sum of case conversion table (DWORD) */
 169:./ThirdParty/FatFs/Src/ff.c **** #define XDIR_NumSec			1		/* exFAT: Number of secondary entries (BYTE) */
 170:./ThirdParty/FatFs/Src/ff.c **** #define XDIR_SetSum			2		/* exFAT: Sum of the set of directory entries (WORD) */
 171:./ThirdParty/FatFs/Src/ff.c **** #define XDIR_Attr			4		/* exFAT: File attribute (WORD) */
 172:./ThirdParty/FatFs/Src/ff.c **** #define XDIR_CrtTime		8		/* exFAT: Created time (DWORD) */
 173:./ThirdParty/FatFs/Src/ff.c **** #define XDIR_ModTime		12		/* exFAT: Modified time (DWORD) */
 174:./ThirdParty/FatFs/Src/ff.c **** #define XDIR_AccTime		16		/* exFAT: Last accessed time (DWORD) */
 175:./ThirdParty/FatFs/Src/ff.c **** #define XDIR_CrtTime10		20		/* exFAT: Created time subsecond (BYTE) */
 176:./ThirdParty/FatFs/Src/ff.c **** #define XDIR_ModTime10		21		/* exFAT: Modified time subsecond (BYTE) */
 177:./ThirdParty/FatFs/Src/ff.c **** #define XDIR_CrtTZ			22		/* exFAT: Created timezone (BYTE) */
 178:./ThirdParty/FatFs/Src/ff.c **** #define XDIR_ModTZ			23		/* exFAT: Modified timezone (BYTE) */
 179:./ThirdParty/FatFs/Src/ff.c **** #define XDIR_AccTZ			24		/* exFAT: Last accessed timezone (BYTE) */
 180:./ThirdParty/FatFs/Src/ff.c **** #define XDIR_GenFlags		33		/* exFAT: General secondary flags (BYTE) */
 181:./ThirdParty/FatFs/Src/ff.c **** #define XDIR_NumName		35		/* exFAT: Number of file name characters (BYTE) */
 182:./ThirdParty/FatFs/Src/ff.c **** #define XDIR_NameHash		36		/* exFAT: Hash of file name (WORD) */
 183:./ThirdParty/FatFs/Src/ff.c **** #define XDIR_ValidFileSize	40		/* exFAT: Valid file size (QWORD) */
 184:./ThirdParty/FatFs/Src/ff.c **** #define XDIR_FstClus		52		/* exFAT: First cluster of the file data (DWORD) */
 185:./ThirdParty/FatFs/Src/ff.c **** #define XDIR_FileSize		56		/* exFAT: File/Directory size (QWORD) */
 186:./ThirdParty/FatFs/Src/ff.c **** 
 187:./ThirdParty/FatFs/Src/ff.c **** #define SZDIRE				32		/* Size of a directory entry */
 188:./ThirdParty/FatFs/Src/ff.c **** #define DDEM				0xE5	/* Deleted directory entry mark set to DIR_Name[0] */
 189:./ThirdParty/FatFs/Src/ff.c **** #define RDDEM				0x05	/* Replacement of the character collides with DDEM */
 190:./ThirdParty/FatFs/Src/ff.c **** #define LLEF				0x40	/* Last long entry flag in LDIR_Ord */
 191:./ThirdParty/FatFs/Src/ff.c **** 
 192:./ThirdParty/FatFs/Src/ff.c **** #define FSI_LeadSig			0		/* FAT32 FSI: Leading signature (DWORD) */
 193:./ThirdParty/FatFs/Src/ff.c **** #define FSI_StrucSig		484		/* FAT32 FSI: Structure signature (DWORD) */
 194:./ThirdParty/FatFs/Src/ff.c **** #define FSI_Free_Count		488		/* FAT32 FSI: Number of free clusters (DWORD) */
 195:./ThirdParty/FatFs/Src/ff.c **** #define FSI_Nxt_Free		492		/* FAT32 FSI: Last allocated cluster (DWORD) */
 196:./ThirdParty/FatFs/Src/ff.c **** #define FSI_TrailSig		508		/* FAT32 FSI: Trailing signature (DWORD) */
 197:./ThirdParty/FatFs/Src/ff.c **** 
 198:./ThirdParty/FatFs/Src/ff.c **** #define MBR_Table			446		/* MBR: Offset of partition table in the MBR */
 199:./ThirdParty/FatFs/Src/ff.c **** #define SZ_PTE				16		/* MBR: Size of a partition table entry */
 200:./ThirdParty/FatFs/Src/ff.c **** #define PTE_Boot			0		/* MBR PTE: Boot indicator */
ARM GAS  C:\Users\Xuleo\AppData\Local\Temp\ccTDbepL.s 			page 5


 201:./ThirdParty/FatFs/Src/ff.c **** #define PTE_StHead			1		/* MBR PTE: Start head in CHS */
 202:./ThirdParty/FatFs/Src/ff.c **** #define PTE_StSec			2		/* MBR PTE: Start sector in CHS */
 203:./ThirdParty/FatFs/Src/ff.c **** #define PTE_StCyl			3		/* MBR PTE: Start cylinder in CHS */
 204:./ThirdParty/FatFs/Src/ff.c **** #define PTE_System			4		/* MBR PTE: System ID */
 205:./ThirdParty/FatFs/Src/ff.c **** #define PTE_EdHead			5		/* MBR PTE: End head in CHS */
 206:./ThirdParty/FatFs/Src/ff.c **** #define PTE_EdSec			6		/* MBR PTE: End sector in CHS */
 207:./ThirdParty/FatFs/Src/ff.c **** #define PTE_EdCyl			7		/* MBR PTE: End cylinder in CHS */
 208:./ThirdParty/FatFs/Src/ff.c **** #define PTE_StLba			8		/* MBR PTE: Start in LBA */
 209:./ThirdParty/FatFs/Src/ff.c **** #define PTE_SizLba			12		/* MBR PTE: Size in LBA */
 210:./ThirdParty/FatFs/Src/ff.c **** 
 211:./ThirdParty/FatFs/Src/ff.c **** #define GPTH_Sign			0		/* GPT HDR: Signature (8-byte) */
 212:./ThirdParty/FatFs/Src/ff.c **** #define GPTH_Rev			8		/* GPT HDR: Revision (DWORD) */
 213:./ThirdParty/FatFs/Src/ff.c **** #define GPTH_Size			12		/* GPT HDR: Header size (DWORD) */
 214:./ThirdParty/FatFs/Src/ff.c **** #define GPTH_Bcc			16		/* GPT HDR: Header BCC (DWORD) */
 215:./ThirdParty/FatFs/Src/ff.c **** #define GPTH_CurLba			24		/* GPT HDR: This header LBA (QWORD) */
 216:./ThirdParty/FatFs/Src/ff.c **** #define GPTH_BakLba			32		/* GPT HDR: Another header LBA (QWORD) */
 217:./ThirdParty/FatFs/Src/ff.c **** #define GPTH_FstLba			40		/* GPT HDR: First LBA for partition data (QWORD) */
 218:./ThirdParty/FatFs/Src/ff.c **** #define GPTH_LstLba			48		/* GPT HDR: Last LBA for partition data (QWORD) */
 219:./ThirdParty/FatFs/Src/ff.c **** #define GPTH_DskGuid		56		/* GPT HDR: Disk GUID (16-byte) */
 220:./ThirdParty/FatFs/Src/ff.c **** #define GPTH_PtOfs			72		/* GPT HDR: Partition table LBA (QWORD) */
 221:./ThirdParty/FatFs/Src/ff.c **** #define GPTH_PtNum			80		/* GPT HDR: Number of table entries (DWORD) */
 222:./ThirdParty/FatFs/Src/ff.c **** #define GPTH_PteSize		84		/* GPT HDR: Size of table entry (DWORD) */
 223:./ThirdParty/FatFs/Src/ff.c **** #define GPTH_PtBcc			88		/* GPT HDR: Partition table BCC (DWORD) */
 224:./ThirdParty/FatFs/Src/ff.c **** #define SZ_GPTE				128		/* GPT PTE: Size of a GPT partition table entry */
 225:./ThirdParty/FatFs/Src/ff.c **** #define GPTE_PtGuid			0		/* GPT PTE: Partition type GUID (16-byte) */
 226:./ThirdParty/FatFs/Src/ff.c **** #define GPTE_UpGuid			16		/* GPT PTE: Partition unique GUID (16-byte) */
 227:./ThirdParty/FatFs/Src/ff.c **** #define GPTE_FstLba			32		/* GPT PTE: First LBA of partition (QWORD) */
 228:./ThirdParty/FatFs/Src/ff.c **** #define GPTE_LstLba			40		/* GPT PTE: Last LBA of partition (QWORD) */
 229:./ThirdParty/FatFs/Src/ff.c **** #define GPTE_Flags			48		/* GPT PTE: Partition flags (QWORD) */
 230:./ThirdParty/FatFs/Src/ff.c **** #define GPTE_Name			56		/* GPT PTE: Partition name */
 231:./ThirdParty/FatFs/Src/ff.c **** 
 232:./ThirdParty/FatFs/Src/ff.c **** 
 233:./ThirdParty/FatFs/Src/ff.c **** /* Post process on fatal error in the file operations */
 234:./ThirdParty/FatFs/Src/ff.c **** #define ABORT(fs, res)		{ fp->err = (BYTE)(res); LEAVE_FF(fs, res); }
 235:./ThirdParty/FatFs/Src/ff.c **** 
 236:./ThirdParty/FatFs/Src/ff.c **** 
 237:./ThirdParty/FatFs/Src/ff.c **** /* Re-entrancy related */
 238:./ThirdParty/FatFs/Src/ff.c **** #if FF_FS_REENTRANT
 239:./ThirdParty/FatFs/Src/ff.c **** #if FF_USE_LFN == 1
 240:./ThirdParty/FatFs/Src/ff.c **** #error Static LFN work area cannot be used in thread-safe configuration
 241:./ThirdParty/FatFs/Src/ff.c **** #endif
 242:./ThirdParty/FatFs/Src/ff.c **** #define LEAVE_FF(fs, res)	{ unlock_volume(fs, res); return res; }
 243:./ThirdParty/FatFs/Src/ff.c **** #else
 244:./ThirdParty/FatFs/Src/ff.c **** #define LEAVE_FF(fs, res)	return res
 245:./ThirdParty/FatFs/Src/ff.c **** #endif
 246:./ThirdParty/FatFs/Src/ff.c **** 
 247:./ThirdParty/FatFs/Src/ff.c **** 
 248:./ThirdParty/FatFs/Src/ff.c **** /* Definitions of logical drive to physical location conversion */
 249:./ThirdParty/FatFs/Src/ff.c **** #if FF_MULTI_PARTITION
 250:./ThirdParty/FatFs/Src/ff.c **** #define LD2PD(vol) VolToPart[vol].pd	/* Get physical drive number from the mapping table */
 251:./ThirdParty/FatFs/Src/ff.c **** #define LD2PT(vol) VolToPart[vol].pt	/* Get partition number from the mapping table (0:auto search,
 252:./ThirdParty/FatFs/Src/ff.c **** #else
 253:./ThirdParty/FatFs/Src/ff.c **** #define LD2PD(vol) (BYTE)(vol)	/* Each logical drive is associated with the same physical drive num
 254:./ThirdParty/FatFs/Src/ff.c **** #define LD2PT(vol) 0			/* Auto partition search */
 255:./ThirdParty/FatFs/Src/ff.c **** #endif
 256:./ThirdParty/FatFs/Src/ff.c **** 
 257:./ThirdParty/FatFs/Src/ff.c **** 
ARM GAS  C:\Users\Xuleo\AppData\Local\Temp\ccTDbepL.s 			page 6


 258:./ThirdParty/FatFs/Src/ff.c **** /* Definitions of sector size */
 259:./ThirdParty/FatFs/Src/ff.c **** #if (FF_MAX_SS < FF_MIN_SS) || (FF_MAX_SS != 512 && FF_MAX_SS != 1024 && FF_MAX_SS != 2048 && FF_MA
 260:./ThirdParty/FatFs/Src/ff.c **** #error Wrong sector size configuration
 261:./ThirdParty/FatFs/Src/ff.c **** #endif
 262:./ThirdParty/FatFs/Src/ff.c **** #if FF_MAX_SS == FF_MIN_SS
 263:./ThirdParty/FatFs/Src/ff.c **** #define SS(fs)	((UINT)FF_MAX_SS)	/* Fixed sector size */
 264:./ThirdParty/FatFs/Src/ff.c **** #else
 265:./ThirdParty/FatFs/Src/ff.c **** #define SS(fs)	((fs)->ssize)	/* Variable sector size */
 266:./ThirdParty/FatFs/Src/ff.c **** #endif
 267:./ThirdParty/FatFs/Src/ff.c **** 
 268:./ThirdParty/FatFs/Src/ff.c **** 
 269:./ThirdParty/FatFs/Src/ff.c **** /* Timestamp */
 270:./ThirdParty/FatFs/Src/ff.c **** #if FF_FS_NORTC == 1
 271:./ThirdParty/FatFs/Src/ff.c **** #if FF_NORTC_YEAR < 1980 || FF_NORTC_YEAR > 2107 || FF_NORTC_MON < 1 || FF_NORTC_MON > 12 || FF_NOR
 272:./ThirdParty/FatFs/Src/ff.c **** #error Invalid FF_FS_NORTC settings
 273:./ThirdParty/FatFs/Src/ff.c **** #endif
 274:./ThirdParty/FatFs/Src/ff.c **** #define GET_FATTIME()	((DWORD)(FF_NORTC_YEAR - 1980) << 25 | (DWORD)FF_NORTC_MON << 21 | (DWORD)FF_
 275:./ThirdParty/FatFs/Src/ff.c **** #else
 276:./ThirdParty/FatFs/Src/ff.c **** #define GET_FATTIME()	get_fattime()
 277:./ThirdParty/FatFs/Src/ff.c **** #endif
 278:./ThirdParty/FatFs/Src/ff.c **** 
 279:./ThirdParty/FatFs/Src/ff.c **** 
 280:./ThirdParty/FatFs/Src/ff.c **** /* File lock controls */
 281:./ThirdParty/FatFs/Src/ff.c **** #if FF_FS_LOCK
 282:./ThirdParty/FatFs/Src/ff.c **** #if FF_FS_READONLY
 283:./ThirdParty/FatFs/Src/ff.c **** #error FF_FS_LOCK must be 0 at read-only configuration
 284:./ThirdParty/FatFs/Src/ff.c **** #endif
 285:./ThirdParty/FatFs/Src/ff.c **** typedef struct {	/* Open object identifier with status */
 286:./ThirdParty/FatFs/Src/ff.c **** 	FATFS* fs;		/*  Object ID 1, volume (NULL:blank entry) */
 287:./ThirdParty/FatFs/Src/ff.c **** 	DWORD clu;		/*  Object ID 2, containing directory (0:root) */
 288:./ThirdParty/FatFs/Src/ff.c **** 	DWORD ofs;		/*  Object ID 3, offset in the directory */
 289:./ThirdParty/FatFs/Src/ff.c **** 	UINT ctr;		/*  Object open status, 0:none, 0x01..0xFF:read mode open count, 0x100:write mode */
 290:./ThirdParty/FatFs/Src/ff.c **** } FILESEM;
 291:./ThirdParty/FatFs/Src/ff.c **** #endif
 292:./ThirdParty/FatFs/Src/ff.c **** 
 293:./ThirdParty/FatFs/Src/ff.c **** 
 294:./ThirdParty/FatFs/Src/ff.c **** /* SBCS up-case tables (\x80-\xFF) */
 295:./ThirdParty/FatFs/Src/ff.c **** #define TBL_CT437  {0x80,0x9A,0x45,0x41,0x8E,0x41,0x8F,0x80,0x45,0x45,0x45,0x49,0x49,0x49,0x8E,0x8F
 296:./ThirdParty/FatFs/Src/ff.c **** 					0x90,0x92,0x92,0x4F,0x99,0x4F,0x55,0x55,0x59,0x99,0x9A,0x9B,0x9C,0x9D,0x9E,0x9F, \
 297:./ThirdParty/FatFs/Src/ff.c **** 					0x41,0x49,0x4F,0x55,0xA5,0xA5,0xA6,0xA7,0xA8,0xA9,0xAA,0xAB,0xAC,0xAD,0xAE,0xAF, \
 298:./ThirdParty/FatFs/Src/ff.c **** 					0xB0,0xB1,0xB2,0xB3,0xB4,0xB5,0xB6,0xB7,0xB8,0xB9,0xBA,0xBB,0xBC,0xBD,0xBE,0xBF, \
 299:./ThirdParty/FatFs/Src/ff.c **** 					0xC0,0xC1,0xC2,0xC3,0xC4,0xC5,0xC6,0xC7,0xC8,0xC9,0xCA,0xCB,0xCC,0xCD,0xCE,0xCF, \
 300:./ThirdParty/FatFs/Src/ff.c **** 					0xD0,0xD1,0xD2,0xD3,0xD4,0xD5,0xD6,0xD7,0xD8,0xD9,0xDA,0xDB,0xDC,0xDD,0xDE,0xDF, \
 301:./ThirdParty/FatFs/Src/ff.c **** 					0xE0,0xE1,0xE2,0xE3,0xE4,0xE5,0xE6,0xE7,0xE8,0xE9,0xEA,0xEB,0xEC,0xED,0xEE,0xEF, \
 302:./ThirdParty/FatFs/Src/ff.c **** 					0xF0,0xF1,0xF2,0xF3,0xF4,0xF5,0xF6,0xF7,0xF8,0xF9,0xFA,0xFB,0xFC,0xFD,0xFE,0xFF}
 303:./ThirdParty/FatFs/Src/ff.c **** #define TBL_CT720  {0x80,0x81,0x82,0x83,0x84,0x85,0x86,0x87,0x88,0x89,0x8A,0x8B,0x8C,0x8D,0x8E,0x8F
 304:./ThirdParty/FatFs/Src/ff.c **** 					0x90,0x91,0x92,0x93,0x94,0x95,0x96,0x97,0x98,0x99,0x9A,0x9B,0x9C,0x9D,0x9E,0x9F, \
 305:./ThirdParty/FatFs/Src/ff.c **** 					0xA0,0xA1,0xA2,0xA3,0xA4,0xA5,0xA6,0xA7,0xA8,0xA9,0xAA,0xAB,0xAC,0xAD,0xAE,0xAF, \
 306:./ThirdParty/FatFs/Src/ff.c **** 					0xB0,0xB1,0xB2,0xB3,0xB4,0xB5,0xB6,0xB7,0xB8,0xB9,0xBA,0xBB,0xBC,0xBD,0xBE,0xBF, \
 307:./ThirdParty/FatFs/Src/ff.c **** 					0xC0,0xC1,0xC2,0xC3,0xC4,0xC5,0xC6,0xC7,0xC8,0xC9,0xCA,0xCB,0xCC,0xCD,0xCE,0xCF, \
 308:./ThirdParty/FatFs/Src/ff.c **** 					0xD0,0xD1,0xD2,0xD3,0xD4,0xD5,0xD6,0xD7,0xD8,0xD9,0xDA,0xDB,0xDC,0xDD,0xDE,0xDF, \
 309:./ThirdParty/FatFs/Src/ff.c **** 					0xE0,0xE1,0xE2,0xE3,0xE4,0xE5,0xE6,0xE7,0xE8,0xE9,0xEA,0xEB,0xEC,0xED,0xEE,0xEF, \
 310:./ThirdParty/FatFs/Src/ff.c **** 					0xF0,0xF1,0xF2,0xF3,0xF4,0xF5,0xF6,0xF7,0xF8,0xF9,0xFA,0xFB,0xFC,0xFD,0xFE,0xFF}
 311:./ThirdParty/FatFs/Src/ff.c **** #define TBL_CT737  {0x80,0x81,0x82,0x83,0x84,0x85,0x86,0x87,0x88,0x89,0x8A,0x8B,0x8C,0x8D,0x8E,0x8F
 312:./ThirdParty/FatFs/Src/ff.c **** 					0x90,0x92,0x92,0x93,0x94,0x95,0x96,0x97,0x80,0x81,0x82,0x83,0x84,0x85,0x86,0x87, \
 313:./ThirdParty/FatFs/Src/ff.c **** 					0x88,0x89,0x8A,0x8B,0x8C,0x8D,0x8E,0x8F,0x90,0x91,0xAA,0x92,0x93,0x94,0x95,0x96, \
 314:./ThirdParty/FatFs/Src/ff.c **** 					0xB0,0xB1,0xB2,0xB3,0xB4,0xB5,0xB6,0xB7,0xB8,0xB9,0xBA,0xBB,0xBC,0xBD,0xBE,0xBF, \
ARM GAS  C:\Users\Xuleo\AppData\Local\Temp\ccTDbepL.s 			page 7


 315:./ThirdParty/FatFs/Src/ff.c **** 					0xC0,0xC1,0xC2,0xC3,0xC4,0xC5,0xC6,0xC7,0xC8,0xC9,0xCA,0xCB,0xCC,0xCD,0xCE,0xCF, \
 316:./ThirdParty/FatFs/Src/ff.c **** 					0xD0,0xD1,0xD2,0xD3,0xD4,0xD5,0xD6,0xD7,0xD8,0xD9,0xDA,0xDB,0xDC,0xDD,0xDE,0xDF, \
 317:./ThirdParty/FatFs/Src/ff.c **** 					0x97,0xEA,0xEB,0xEC,0xE4,0xED,0xEE,0xEF,0xF5,0xF0,0xEA,0xEB,0xEC,0xED,0xEE,0xEF, \
 318:./ThirdParty/FatFs/Src/ff.c **** 					0xF0,0xF1,0xF2,0xF3,0xF4,0xF5,0xF6,0xF7,0xF8,0xF9,0xFA,0xFB,0xFC,0xFD,0xFE,0xFF}
 319:./ThirdParty/FatFs/Src/ff.c **** #define TBL_CT771  {0x80,0x81,0x82,0x83,0x84,0x85,0x86,0x87,0x88,0x89,0x8A,0x8B,0x8C,0x8D,0x8E,0x8F
 320:./ThirdParty/FatFs/Src/ff.c **** 					0x90,0x91,0x92,0x93,0x94,0x95,0x96,0x97,0x98,0x99,0x9A,0x9B,0x9C,0x9D,0x9E,0x9F, \
 321:./ThirdParty/FatFs/Src/ff.c **** 					0x80,0x81,0x82,0x83,0x84,0x85,0x86,0x87,0x88,0x89,0x8A,0x8B,0x8C,0x8D,0x8E,0x8F, \
 322:./ThirdParty/FatFs/Src/ff.c **** 					0xB0,0xB1,0xB2,0xB3,0xB4,0xB5,0xB6,0xB7,0xB8,0xB9,0xBA,0xBB,0xBC,0xBD,0xBE,0xBF, \
 323:./ThirdParty/FatFs/Src/ff.c **** 					0xC0,0xC1,0xC2,0xC3,0xC4,0xC5,0xC6,0xC7,0xC8,0xC9,0xCA,0xCB,0xCC,0xCD,0xCE,0xCF, \
 324:./ThirdParty/FatFs/Src/ff.c **** 					0xD0,0xD1,0xD2,0xD3,0xD4,0xD5,0xD6,0xD7,0xD8,0xD9,0xDA,0xDB,0xDC,0xDC,0xDE,0xDE, \
 325:./ThirdParty/FatFs/Src/ff.c **** 					0x90,0x91,0x92,0x93,0x94,0x95,0x96,0x97,0x98,0x99,0x9A,0x9B,0x9C,0x9D,0x9E,0x9F, \
 326:./ThirdParty/FatFs/Src/ff.c **** 					0xF0,0xF0,0xF2,0xF2,0xF4,0xF4,0xF6,0xF6,0xF8,0xF8,0xFA,0xFA,0xFC,0xFC,0xFE,0xFF}
 327:./ThirdParty/FatFs/Src/ff.c **** #define TBL_CT775  {0x80,0x9A,0x91,0xA0,0x8E,0x95,0x8F,0x80,0xAD,0xED,0x8A,0x8A,0xA1,0x8D,0x8E,0x8F
 328:./ThirdParty/FatFs/Src/ff.c **** 					0x90,0x92,0x92,0xE2,0x99,0x95,0x96,0x97,0x97,0x99,0x9A,0x9D,0x9C,0x9D,0x9E,0x9F, \
 329:./ThirdParty/FatFs/Src/ff.c **** 					0xA0,0xA1,0xE0,0xA3,0xA3,0xA5,0xA6,0xA7,0xA8,0xA9,0xAA,0xAB,0xAC,0xAD,0xAE,0xAF, \
 330:./ThirdParty/FatFs/Src/ff.c **** 					0xB0,0xB1,0xB2,0xB3,0xB4,0xB5,0xB6,0xB7,0xB8,0xB9,0xBA,0xBB,0xBC,0xBD,0xBE,0xBF, \
 331:./ThirdParty/FatFs/Src/ff.c **** 					0xC0,0xC1,0xC2,0xC3,0xC4,0xC5,0xC6,0xC7,0xC8,0xC9,0xCA,0xCB,0xCC,0xCD,0xCE,0xCF, \
 332:./ThirdParty/FatFs/Src/ff.c **** 					0xB5,0xB6,0xB7,0xB8,0xBD,0xBE,0xC6,0xC7,0xA5,0xD9,0xDA,0xDB,0xDC,0xDD,0xDE,0xDF, \
 333:./ThirdParty/FatFs/Src/ff.c **** 					0xE0,0xE1,0xE2,0xE3,0xE5,0xE5,0xE6,0xE3,0xE8,0xE8,0xEA,0xEA,0xEE,0xED,0xEE,0xEF, \
 334:./ThirdParty/FatFs/Src/ff.c **** 					0xF0,0xF1,0xF2,0xF3,0xF4,0xF5,0xF6,0xF7,0xF8,0xF9,0xFA,0xFB,0xFC,0xFD,0xFE,0xFF}
 335:./ThirdParty/FatFs/Src/ff.c **** #define TBL_CT850  {0x43,0x55,0x45,0x41,0x41,0x41,0x41,0x43,0x45,0x45,0x45,0x49,0x49,0x49,0x41,0x41
 336:./ThirdParty/FatFs/Src/ff.c **** 					0x45,0x92,0x92,0x4F,0x4F,0x4F,0x55,0x55,0x59,0x4F,0x55,0x4F,0x9C,0x4F,0x9E,0x9F, \
 337:./ThirdParty/FatFs/Src/ff.c **** 					0x41,0x49,0x4F,0x55,0xA5,0xA5,0xA6,0xA7,0xA8,0xA9,0xAA,0xAB,0xAC,0xAD,0xAE,0xAF, \
 338:./ThirdParty/FatFs/Src/ff.c **** 					0xB0,0xB1,0xB2,0xB3,0xB4,0x41,0x41,0x41,0xB8,0xB9,0xBA,0xBB,0xBC,0xBD,0xBE,0xBF, \
 339:./ThirdParty/FatFs/Src/ff.c **** 					0xC0,0xC1,0xC2,0xC3,0xC4,0xC5,0x41,0x41,0xC8,0xC9,0xCA,0xCB,0xCC,0xCD,0xCE,0xCF, \
 340:./ThirdParty/FatFs/Src/ff.c **** 					0xD1,0xD1,0x45,0x45,0x45,0x49,0x49,0x49,0x49,0xD9,0xDA,0xDB,0xDC,0xDD,0x49,0xDF, \
 341:./ThirdParty/FatFs/Src/ff.c **** 					0x4F,0xE1,0x4F,0x4F,0x4F,0x4F,0xE6,0xE8,0xE8,0x55,0x55,0x55,0x59,0x59,0xEE,0xEF, \
 342:./ThirdParty/FatFs/Src/ff.c **** 					0xF0,0xF1,0xF2,0xF3,0xF4,0xF5,0xF6,0xF7,0xF8,0xF9,0xFA,0xFB,0xFC,0xFD,0xFE,0xFF}
 343:./ThirdParty/FatFs/Src/ff.c **** #define TBL_CT852  {0x80,0x9A,0x90,0xB6,0x8E,0xDE,0x8F,0x80,0x9D,0xD3,0x8A,0x8A,0xD7,0x8D,0x8E,0x8F
 344:./ThirdParty/FatFs/Src/ff.c **** 					0x90,0x91,0x91,0xE2,0x99,0x95,0x95,0x97,0x97,0x99,0x9A,0x9B,0x9B,0x9D,0x9E,0xAC, \
 345:./ThirdParty/FatFs/Src/ff.c **** 					0xB5,0xD6,0xE0,0xE9,0xA4,0xA4,0xA6,0xA6,0xA8,0xA8,0xAA,0x8D,0xAC,0xB8,0xAE,0xAF, \
 346:./ThirdParty/FatFs/Src/ff.c **** 					0xB0,0xB1,0xB2,0xB3,0xB4,0xB5,0xB6,0xB7,0xB8,0xB9,0xBA,0xBB,0xBC,0xBD,0xBD,0xBF, \
 347:./ThirdParty/FatFs/Src/ff.c **** 					0xC0,0xC1,0xC2,0xC3,0xC4,0xC5,0xC6,0xC6,0xC8,0xC9,0xCA,0xCB,0xCC,0xCD,0xCE,0xCF, \
 348:./ThirdParty/FatFs/Src/ff.c **** 					0xD1,0xD1,0xD2,0xD3,0xD2,0xD5,0xD6,0xD7,0xB7,0xD9,0xDA,0xDB,0xDC,0xDD,0xDE,0xDF, \
 349:./ThirdParty/FatFs/Src/ff.c **** 					0xE0,0xE1,0xE2,0xE3,0xE3,0xD5,0xE6,0xE6,0xE8,0xE9,0xE8,0xEB,0xED,0xED,0xDD,0xEF, \
 350:./ThirdParty/FatFs/Src/ff.c **** 					0xF0,0xF1,0xF2,0xF3,0xF4,0xF5,0xF6,0xF7,0xF8,0xF9,0xFA,0xEB,0xFC,0xFC,0xFE,0xFF}
 351:./ThirdParty/FatFs/Src/ff.c **** #define TBL_CT855  {0x81,0x81,0x83,0x83,0x85,0x85,0x87,0x87,0x89,0x89,0x8B,0x8B,0x8D,0x8D,0x8F,0x8F
 352:./ThirdParty/FatFs/Src/ff.c **** 					0x91,0x91,0x93,0x93,0x95,0x95,0x97,0x97,0x99,0x99,0x9B,0x9B,0x9D,0x9D,0x9F,0x9F, \
 353:./ThirdParty/FatFs/Src/ff.c **** 					0xA1,0xA1,0xA3,0xA3,0xA5,0xA5,0xA7,0xA7,0xA9,0xA9,0xAB,0xAB,0xAD,0xAD,0xAE,0xAF, \
 354:./ThirdParty/FatFs/Src/ff.c **** 					0xB0,0xB1,0xB2,0xB3,0xB4,0xB6,0xB6,0xB8,0xB8,0xB9,0xBA,0xBB,0xBC,0xBE,0xBE,0xBF, \
 355:./ThirdParty/FatFs/Src/ff.c **** 					0xC0,0xC1,0xC2,0xC3,0xC4,0xC5,0xC7,0xC7,0xC8,0xC9,0xCA,0xCB,0xCC,0xCD,0xCE,0xCF, \
 356:./ThirdParty/FatFs/Src/ff.c **** 					0xD1,0xD1,0xD3,0xD3,0xD5,0xD5,0xD7,0xD7,0xDD,0xD9,0xDA,0xDB,0xDC,0xDD,0xE0,0xDF, \
 357:./ThirdParty/FatFs/Src/ff.c **** 					0xE0,0xE2,0xE2,0xE4,0xE4,0xE6,0xE6,0xE8,0xE8,0xEA,0xEA,0xEC,0xEC,0xEE,0xEE,0xEF, \
 358:./ThirdParty/FatFs/Src/ff.c **** 					0xF0,0xF2,0xF2,0xF4,0xF4,0xF6,0xF6,0xF8,0xF8,0xFA,0xFA,0xFC,0xFC,0xFD,0xFE,0xFF}
 359:./ThirdParty/FatFs/Src/ff.c **** #define TBL_CT857  {0x80,0x9A,0x90,0xB6,0x8E,0xB7,0x8F,0x80,0xD2,0xD3,0xD4,0xD8,0xD7,0x49,0x8E,0x8F
 360:./ThirdParty/FatFs/Src/ff.c **** 					0x90,0x92,0x92,0xE2,0x99,0xE3,0xEA,0xEB,0x98,0x99,0x9A,0x9D,0x9C,0x9D,0x9E,0x9E, \
 361:./ThirdParty/FatFs/Src/ff.c **** 					0xB5,0xD6,0xE0,0xE9,0xA5,0xA5,0xA6,0xA6,0xA8,0xA9,0xAA,0xAB,0xAC,0xAD,0xAE,0xAF, \
 362:./ThirdParty/FatFs/Src/ff.c **** 					0xB0,0xB1,0xB2,0xB3,0xB4,0xB5,0xB6,0xB7,0xB8,0xB9,0xBA,0xBB,0xBC,0xBD,0xBE,0xBF, \
 363:./ThirdParty/FatFs/Src/ff.c **** 					0xC0,0xC1,0xC2,0xC3,0xC4,0xC5,0xC7,0xC7,0xC8,0xC9,0xCA,0xCB,0xCC,0xCD,0xCE,0xCF, \
 364:./ThirdParty/FatFs/Src/ff.c **** 					0xD0,0xD1,0xD2,0xD3,0xD4,0x49,0xD6,0xD7,0xD8,0xD9,0xDA,0xDB,0xDC,0xDD,0xDE,0xDF, \
 365:./ThirdParty/FatFs/Src/ff.c **** 					0xE0,0xE1,0xE2,0xE3,0xE5,0xE5,0xE6,0xE7,0xE8,0xE9,0xEA,0xEB,0xDE,0xED,0xEE,0xEF, \
 366:./ThirdParty/FatFs/Src/ff.c **** 					0xF0,0xF1,0xF2,0xF3,0xF4,0xF5,0xF6,0xF7,0xF8,0xF9,0xFA,0xFB,0xFC,0xFD,0xFE,0xFF}
 367:./ThirdParty/FatFs/Src/ff.c **** #define TBL_CT860  {0x80,0x9A,0x90,0x8F,0x8E,0x91,0x86,0x80,0x89,0x89,0x92,0x8B,0x8C,0x98,0x8E,0x8F
 368:./ThirdParty/FatFs/Src/ff.c **** 					0x90,0x91,0x92,0x8C,0x99,0xA9,0x96,0x9D,0x98,0x99,0x9A,0x9B,0x9C,0x9D,0x9E,0x9F, \
 369:./ThirdParty/FatFs/Src/ff.c **** 					0x86,0x8B,0x9F,0x96,0xA5,0xA5,0xA6,0xA7,0xA8,0xA9,0xAA,0xAB,0xAC,0xAD,0xAE,0xAF, \
 370:./ThirdParty/FatFs/Src/ff.c **** 					0xB0,0xB1,0xB2,0xB3,0xB4,0xB5,0xB6,0xB7,0xB8,0xB9,0xBA,0xBB,0xBC,0xBD,0xBE,0xBF, \
 371:./ThirdParty/FatFs/Src/ff.c **** 					0xC0,0xC1,0xC2,0xC3,0xC4,0xC5,0xC6,0xC7,0xC8,0xC9,0xCA,0xCB,0xCC,0xCD,0xCE,0xCF, \
ARM GAS  C:\Users\Xuleo\AppData\Local\Temp\ccTDbepL.s 			page 8


 372:./ThirdParty/FatFs/Src/ff.c **** 					0xD0,0xD1,0xD2,0xD3,0xD4,0xD5,0xD6,0xD7,0xD8,0xD9,0xDA,0xDB,0xDC,0xDD,0xDE,0xDF, \
 373:./ThirdParty/FatFs/Src/ff.c **** 					0xE0,0xE1,0xE2,0xE3,0xE4,0xE5,0xE6,0xE7,0xE8,0xE9,0xEA,0xEB,0xEC,0xED,0xEE,0xEF, \
 374:./ThirdParty/FatFs/Src/ff.c **** 					0xF0,0xF1,0xF2,0xF3,0xF4,0xF5,0xF6,0xF7,0xF8,0xF9,0xFA,0xFB,0xFC,0xFD,0xFE,0xFF}
 375:./ThirdParty/FatFs/Src/ff.c **** #define TBL_CT861  {0x80,0x9A,0x90,0x41,0x8E,0x41,0x8F,0x80,0x45,0x45,0x45,0x8B,0x8B,0x8D,0x8E,0x8F
 376:./ThirdParty/FatFs/Src/ff.c **** 					0x90,0x92,0x92,0x4F,0x99,0x8D,0x55,0x97,0x97,0x99,0x9A,0x9D,0x9C,0x9D,0x9E,0x9F, \
 377:./ThirdParty/FatFs/Src/ff.c **** 					0xA4,0xA5,0xA6,0xA7,0xA4,0xA5,0xA6,0xA7,0xA8,0xA9,0xAA,0xAB,0xAC,0xAD,0xAE,0xAF, \
 378:./ThirdParty/FatFs/Src/ff.c **** 					0xB0,0xB1,0xB2,0xB3,0xB4,0xB5,0xB6,0xB7,0xB8,0xB9,0xBA,0xBB,0xBC,0xBD,0xBE,0xBF, \
 379:./ThirdParty/FatFs/Src/ff.c **** 					0xC0,0xC1,0xC2,0xC3,0xC4,0xC5,0xC6,0xC7,0xC8,0xC9,0xCA,0xCB,0xCC,0xCD,0xCE,0xCF, \
 380:./ThirdParty/FatFs/Src/ff.c **** 					0xD0,0xD1,0xD2,0xD3,0xD4,0xD5,0xD6,0xD7,0xD8,0xD9,0xDA,0xDB,0xDC,0xDD,0xDE,0xDF, \
 381:./ThirdParty/FatFs/Src/ff.c **** 					0xE0,0xE1,0xE2,0xE3,0xE4,0xE5,0xE6,0xE7,0xE8,0xE9,0xEA,0xEB,0xEC,0xED,0xEE,0xEF, \
 382:./ThirdParty/FatFs/Src/ff.c **** 					0xF0,0xF1,0xF2,0xF3,0xF4,0xF5,0xF6,0xF7,0xF8,0xF9,0xFA,0xFB,0xFC,0xFD,0xFE,0xFF}
 383:./ThirdParty/FatFs/Src/ff.c **** #define TBL_CT862  {0x80,0x81,0x82,0x83,0x84,0x85,0x86,0x87,0x88,0x89,0x8A,0x8B,0x8C,0x8D,0x8E,0x8F
 384:./ThirdParty/FatFs/Src/ff.c **** 					0x90,0x91,0x92,0x93,0x94,0x95,0x96,0x97,0x98,0x99,0x9A,0x9B,0x9C,0x9D,0x9E,0x9F, \
 385:./ThirdParty/FatFs/Src/ff.c **** 					0x41,0x49,0x4F,0x55,0xA5,0xA5,0xA6,0xA7,0xA8,0xA9,0xAA,0xAB,0xAC,0xAD,0xAE,0xAF, \
 386:./ThirdParty/FatFs/Src/ff.c **** 					0xB0,0xB1,0xB2,0xB3,0xB4,0xB5,0xB6,0xB7,0xB8,0xB9,0xBA,0xBB,0xBC,0xBD,0xBE,0xBF, \
 387:./ThirdParty/FatFs/Src/ff.c **** 					0xC0,0xC1,0xC2,0xC3,0xC4,0xC5,0xC6,0xC7,0xC8,0xC9,0xCA,0xCB,0xCC,0xCD,0xCE,0xCF, \
 388:./ThirdParty/FatFs/Src/ff.c **** 					0xD0,0xD1,0xD2,0xD3,0xD4,0xD5,0xD6,0xD7,0xD8,0xD9,0xDA,0xDB,0xDC,0xDD,0xDE,0xDF, \
 389:./ThirdParty/FatFs/Src/ff.c **** 					0xE0,0xE1,0xE2,0xE3,0xE4,0xE5,0xE6,0xE7,0xE8,0xE9,0xEA,0xEB,0xEC,0xED,0xEE,0xEF, \
 390:./ThirdParty/FatFs/Src/ff.c **** 					0xF0,0xF1,0xF2,0xF3,0xF4,0xF5,0xF6,0xF7,0xF8,0xF9,0xFA,0xFB,0xFC,0xFD,0xFE,0xFF}
 391:./ThirdParty/FatFs/Src/ff.c **** #define TBL_CT863  {0x43,0x55,0x45,0x41,0x41,0x41,0x86,0x43,0x45,0x45,0x45,0x49,0x49,0x8D,0x41,0x8F
 392:./ThirdParty/FatFs/Src/ff.c **** 					0x45,0x45,0x45,0x4F,0x45,0x49,0x55,0x55,0x98,0x4F,0x55,0x9B,0x9C,0x55,0x55,0x9F, \
 393:./ThirdParty/FatFs/Src/ff.c **** 					0xA0,0xA1,0x4F,0x55,0xA4,0xA5,0xA6,0xA7,0x49,0xA9,0xAA,0xAB,0xAC,0xAD,0xAE,0xAF, \
 394:./ThirdParty/FatFs/Src/ff.c **** 					0xB0,0xB1,0xB2,0xB3,0xB4,0xB5,0xB6,0xB7,0xB8,0xB9,0xBA,0xBB,0xBC,0xBD,0xBE,0xBF, \
 395:./ThirdParty/FatFs/Src/ff.c **** 					0xC0,0xC1,0xC2,0xC3,0xC4,0xC5,0xC6,0xC7,0xC8,0xC9,0xCA,0xCB,0xCC,0xCD,0xCE,0xCF, \
 396:./ThirdParty/FatFs/Src/ff.c **** 					0xD0,0xD1,0xD2,0xD3,0xD4,0xD5,0xD6,0xD7,0xD8,0xD9,0xDA,0xDB,0xDC,0xDD,0xDE,0xDF, \
 397:./ThirdParty/FatFs/Src/ff.c **** 					0xE0,0xE1,0xE2,0xE3,0xE4,0xE5,0xE6,0xE7,0xE8,0xE9,0xEA,0xEB,0xEC,0xED,0xEE,0xEF, \
 398:./ThirdParty/FatFs/Src/ff.c **** 					0xF0,0xF1,0xF2,0xF3,0xF4,0xF5,0xF6,0xF7,0xF8,0xF9,0xFA,0xFB,0xFC,0xFD,0xFE,0xFF}
 399:./ThirdParty/FatFs/Src/ff.c **** #define TBL_CT864  {0x80,0x9A,0x45,0x41,0x8E,0x41,0x8F,0x80,0x45,0x45,0x45,0x49,0x49,0x49,0x8E,0x8F
 400:./ThirdParty/FatFs/Src/ff.c **** 					0x90,0x92,0x92,0x4F,0x99,0x4F,0x55,0x55,0x59,0x99,0x9A,0x9B,0x9C,0x9D,0x9E,0x9F, \
 401:./ThirdParty/FatFs/Src/ff.c **** 					0x41,0x49,0x4F,0x55,0xA5,0xA5,0xA6,0xA7,0xA8,0xA9,0xAA,0xAB,0xAC,0xAD,0xAE,0xAF, \
 402:./ThirdParty/FatFs/Src/ff.c **** 					0xB0,0xB1,0xB2,0xB3,0xB4,0xB5,0xB6,0xB7,0xB8,0xB9,0xBA,0xBB,0xBC,0xBD,0xBE,0xBF, \
 403:./ThirdParty/FatFs/Src/ff.c **** 					0xC0,0xC1,0xC2,0xC3,0xC4,0xC5,0xC6,0xC7,0xC8,0xC9,0xCA,0xCB,0xCC,0xCD,0xCE,0xCF, \
 404:./ThirdParty/FatFs/Src/ff.c **** 					0xD0,0xD1,0xD2,0xD3,0xD4,0xD5,0xD6,0xD7,0xD8,0xD9,0xDA,0xDB,0xDC,0xDD,0xDE,0xDF, \
 405:./ThirdParty/FatFs/Src/ff.c **** 					0xE0,0xE1,0xE2,0xE3,0xE4,0xE5,0xE6,0xE7,0xE8,0xE9,0xEA,0xEB,0xEC,0xED,0xEE,0xEF, \
 406:./ThirdParty/FatFs/Src/ff.c **** 					0xF0,0xF1,0xF2,0xF3,0xF4,0xF5,0xF6,0xF7,0xF8,0xF9,0xFA,0xFB,0xFC,0xFD,0xFE,0xFF}
 407:./ThirdParty/FatFs/Src/ff.c **** #define TBL_CT865  {0x80,0x9A,0x90,0x41,0x8E,0x41,0x8F,0x80,0x45,0x45,0x45,0x49,0x49,0x49,0x8E,0x8F
 408:./ThirdParty/FatFs/Src/ff.c **** 					0x90,0x92,0x92,0x4F,0x99,0x4F,0x55,0x55,0x59,0x99,0x9A,0x9B,0x9C,0x9D,0x9E,0x9F, \
 409:./ThirdParty/FatFs/Src/ff.c **** 					0x41,0x49,0x4F,0x55,0xA5,0xA5,0xA6,0xA7,0xA8,0xA9,0xAA,0xAB,0xAC,0xAD,0xAE,0xAF, \
 410:./ThirdParty/FatFs/Src/ff.c **** 					0xB0,0xB1,0xB2,0xB3,0xB4,0xB5,0xB6,0xB7,0xB8,0xB9,0xBA,0xBB,0xBC,0xBD,0xBE,0xBF, \
 411:./ThirdParty/FatFs/Src/ff.c **** 					0xC0,0xC1,0xC2,0xC3,0xC4,0xC5,0xC6,0xC7,0xC8,0xC9,0xCA,0xCB,0xCC,0xCD,0xCE,0xCF, \
 412:./ThirdParty/FatFs/Src/ff.c **** 					0xD0,0xD1,0xD2,0xD3,0xD4,0xD5,0xD6,0xD7,0xD8,0xD9,0xDA,0xDB,0xDC,0xDD,0xDE,0xDF, \
 413:./ThirdParty/FatFs/Src/ff.c **** 					0xE0,0xE1,0xE2,0xE3,0xE4,0xE5,0xE6,0xE7,0xE8,0xE9,0xEA,0xEB,0xEC,0xED,0xEE,0xEF, \
 414:./ThirdParty/FatFs/Src/ff.c **** 					0xF0,0xF1,0xF2,0xF3,0xF4,0xF5,0xF6,0xF7,0xF8,0xF9,0xFA,0xFB,0xFC,0xFD,0xFE,0xFF}
 415:./ThirdParty/FatFs/Src/ff.c **** #define TBL_CT866  {0x80,0x81,0x82,0x83,0x84,0x85,0x86,0x87,0x88,0x89,0x8A,0x8B,0x8C,0x8D,0x8E,0x8F
 416:./ThirdParty/FatFs/Src/ff.c **** 					0x90,0x91,0x92,0x93,0x94,0x95,0x96,0x97,0x98,0x99,0x9A,0x9B,0x9C,0x9D,0x9E,0x9F, \
 417:./ThirdParty/FatFs/Src/ff.c **** 					0x80,0x81,0x82,0x83,0x84,0x85,0x86,0x87,0x88,0x89,0x8A,0x8B,0x8C,0x8D,0x8E,0x8F, \
 418:./ThirdParty/FatFs/Src/ff.c **** 					0xB0,0xB1,0xB2,0xB3,0xB4,0xB5,0xB6,0xB7,0xB8,0xB9,0xBA,0xBB,0xBC,0xBD,0xBE,0xBF, \
 419:./ThirdParty/FatFs/Src/ff.c **** 					0xC0,0xC1,0xC2,0xC3,0xC4,0xC5,0xC6,0xC7,0xC8,0xC9,0xCA,0xCB,0xCC,0xCD,0xCE,0xCF, \
 420:./ThirdParty/FatFs/Src/ff.c **** 					0xD0,0xD1,0xD2,0xD3,0xD4,0xD5,0xD6,0xD7,0xD8,0xD9,0xDA,0xDB,0xDC,0xDD,0xDE,0xDF, \
 421:./ThirdParty/FatFs/Src/ff.c **** 					0x90,0x91,0x92,0x93,0x94,0x95,0x96,0x97,0x98,0x99,0x9A,0x9B,0x9C,0x9D,0x9E,0x9F, \
 422:./ThirdParty/FatFs/Src/ff.c **** 					0xF0,0xF0,0xF2,0xF2,0xF4,0xF4,0xF6,0xF6,0xF8,0xF9,0xFA,0xFB,0xFC,0xFD,0xFE,0xFF}
 423:./ThirdParty/FatFs/Src/ff.c **** #define TBL_CT869  {0x80,0x81,0x82,0x83,0x84,0x85,0x86,0x87,0x88,0x89,0x8A,0x8B,0x8C,0x8D,0x8E,0x8F
 424:./ThirdParty/FatFs/Src/ff.c **** 					0x90,0x91,0x92,0x93,0x94,0x95,0x96,0x97,0x98,0x99,0x9A,0x86,0x9C,0x8D,0x8F,0x90, \
 425:./ThirdParty/FatFs/Src/ff.c **** 					0x91,0x90,0x92,0x95,0xA4,0xA5,0xA6,0xA7,0xA8,0xA9,0xAA,0xAB,0xAC,0xAD,0xAE,0xAF, \
 426:./ThirdParty/FatFs/Src/ff.c **** 					0xB0,0xB1,0xB2,0xB3,0xB4,0xB5,0xB6,0xB7,0xB8,0xB9,0xBA,0xBB,0xBC,0xBD,0xBE,0xBF, \
 427:./ThirdParty/FatFs/Src/ff.c **** 					0xC0,0xC1,0xC2,0xC3,0xC4,0xC5,0xC6,0xC7,0xC8,0xC9,0xCA,0xCB,0xCC,0xCD,0xCE,0xCF, \
 428:./ThirdParty/FatFs/Src/ff.c **** 					0xD0,0xD1,0xD2,0xD3,0xD4,0xD5,0xA4,0xA5,0xA6,0xD9,0xDA,0xDB,0xDC,0xA7,0xA8,0xDF, \
ARM GAS  C:\Users\Xuleo\AppData\Local\Temp\ccTDbepL.s 			page 9


 429:./ThirdParty/FatFs/Src/ff.c **** 					0xA9,0xAA,0xAC,0xAD,0xB5,0xB6,0xB7,0xB8,0xBD,0xBE,0xC6,0xC7,0xCF,0xCF,0xD0,0xEF, \
 430:./ThirdParty/FatFs/Src/ff.c **** 					0xF0,0xF1,0xD1,0xD2,0xD3,0xF5,0xD4,0xF7,0xF8,0xF9,0xD5,0x96,0x95,0x98,0xFE,0xFF}
 431:./ThirdParty/FatFs/Src/ff.c **** 
 432:./ThirdParty/FatFs/Src/ff.c **** 
 433:./ThirdParty/FatFs/Src/ff.c **** /* DBCS code range |----- 1st byte -----|  |----------- 2nd byte -----------| */
 434:./ThirdParty/FatFs/Src/ff.c **** /*                  <------>    <------>    <------>    <------>    <------>  */
 435:./ThirdParty/FatFs/Src/ff.c **** #define TBL_DC932 {0x81, 0x9F, 0xE0, 0xFC, 0x40, 0x7E, 0x80, 0xFC, 0x00, 0x00}
 436:./ThirdParty/FatFs/Src/ff.c **** #define TBL_DC936 {0x81, 0xFE, 0x00, 0x00, 0x40, 0x7E, 0x80, 0xFE, 0x00, 0x00}
 437:./ThirdParty/FatFs/Src/ff.c **** #define TBL_DC949 {0x81, 0xFE, 0x00, 0x00, 0x41, 0x5A, 0x61, 0x7A, 0x81, 0xFE}
 438:./ThirdParty/FatFs/Src/ff.c **** #define TBL_DC950 {0x81, 0xFE, 0x00, 0x00, 0x40, 0x7E, 0xA1, 0xFE, 0x00, 0x00}
 439:./ThirdParty/FatFs/Src/ff.c **** 
 440:./ThirdParty/FatFs/Src/ff.c **** 
 441:./ThirdParty/FatFs/Src/ff.c **** /* Macros for table definitions */
 442:./ThirdParty/FatFs/Src/ff.c **** #define MERGE_2STR(a, b) a ## b
 443:./ThirdParty/FatFs/Src/ff.c **** #define MKCVTBL(hd, cp) MERGE_2STR(hd, cp)
 444:./ThirdParty/FatFs/Src/ff.c **** 
 445:./ThirdParty/FatFs/Src/ff.c **** 
 446:./ThirdParty/FatFs/Src/ff.c **** 
 447:./ThirdParty/FatFs/Src/ff.c **** 
 448:./ThirdParty/FatFs/Src/ff.c **** /*--------------------------------------------------------------------------
 449:./ThirdParty/FatFs/Src/ff.c **** 
 450:./ThirdParty/FatFs/Src/ff.c ****    Module Private Work Area
 451:./ThirdParty/FatFs/Src/ff.c **** 
 452:./ThirdParty/FatFs/Src/ff.c **** ---------------------------------------------------------------------------*/
 453:./ThirdParty/FatFs/Src/ff.c **** /* Remark: Variables defined here without initial value shall be guaranteed
 454:./ThirdParty/FatFs/Src/ff.c **** /  zero/null at start-up. If not, the linker option or start-up routine is
 455:./ThirdParty/FatFs/Src/ff.c **** /  not compliance with C standard. */
 456:./ThirdParty/FatFs/Src/ff.c **** 
 457:./ThirdParty/FatFs/Src/ff.c **** /*--------------------------------*/
 458:./ThirdParty/FatFs/Src/ff.c **** /* File/Volume controls           */
 459:./ThirdParty/FatFs/Src/ff.c **** /*--------------------------------*/
 460:./ThirdParty/FatFs/Src/ff.c **** 
 461:./ThirdParty/FatFs/Src/ff.c **** #if FF_VOLUMES < 1 || FF_VOLUMES > 10
 462:./ThirdParty/FatFs/Src/ff.c **** #error Wrong FF_VOLUMES setting
 463:./ThirdParty/FatFs/Src/ff.c **** #endif
 464:./ThirdParty/FatFs/Src/ff.c **** static FATFS *FatFs[FF_VOLUMES];	/* Pointer to the filesystem objects (logical drives) */
 465:./ThirdParty/FatFs/Src/ff.c **** static WORD Fsid;					/* Filesystem mount ID */
 466:./ThirdParty/FatFs/Src/ff.c **** 
 467:./ThirdParty/FatFs/Src/ff.c **** #if FF_FS_RPATH
 468:./ThirdParty/FatFs/Src/ff.c **** static BYTE CurrVol;				/* Current drive number set by f_chdrive() */
 469:./ThirdParty/FatFs/Src/ff.c **** #endif
 470:./ThirdParty/FatFs/Src/ff.c **** 
 471:./ThirdParty/FatFs/Src/ff.c **** #if FF_FS_LOCK
 472:./ThirdParty/FatFs/Src/ff.c **** static FILESEM Files[FF_FS_LOCK];	/* Open object lock semaphores */
 473:./ThirdParty/FatFs/Src/ff.c **** #if FF_FS_REENTRANT
 474:./ThirdParty/FatFs/Src/ff.c **** static volatile BYTE SysLock;		/* System lock flag to protect Files[] (0:no mutex, 1:unlocked, 2:lo
 475:./ThirdParty/FatFs/Src/ff.c **** static volatile BYTE SysLockVolume;	/* Volume id who is locking Files[] */
 476:./ThirdParty/FatFs/Src/ff.c **** #endif
 477:./ThirdParty/FatFs/Src/ff.c **** #endif
 478:./ThirdParty/FatFs/Src/ff.c **** 
 479:./ThirdParty/FatFs/Src/ff.c **** #if FF_STR_VOLUME_ID
 480:./ThirdParty/FatFs/Src/ff.c **** #ifdef FF_VOLUME_STRS
 481:./ThirdParty/FatFs/Src/ff.c **** static const char *const VolumeStr[FF_VOLUMES] = {FF_VOLUME_STRS};	/* Pre-defined volume ID */
 482:./ThirdParty/FatFs/Src/ff.c **** #endif
 483:./ThirdParty/FatFs/Src/ff.c **** #endif
 484:./ThirdParty/FatFs/Src/ff.c **** 
 485:./ThirdParty/FatFs/Src/ff.c **** #if FF_LBA64
ARM GAS  C:\Users\Xuleo\AppData\Local\Temp\ccTDbepL.s 			page 10


 486:./ThirdParty/FatFs/Src/ff.c **** #if FF_MIN_GPT > 0x100000000
 487:./ThirdParty/FatFs/Src/ff.c **** #error Wrong FF_MIN_GPT setting
 488:./ThirdParty/FatFs/Src/ff.c **** #endif
 489:./ThirdParty/FatFs/Src/ff.c **** static const BYTE GUID_MS_Basic[16] = {0xA2,0xA0,0xD0,0xEB,0xE5,0xB9,0x33,0x44,0x87,0xC0,0x68,0xB6,
 490:./ThirdParty/FatFs/Src/ff.c **** #endif
 491:./ThirdParty/FatFs/Src/ff.c **** 
 492:./ThirdParty/FatFs/Src/ff.c **** 
 493:./ThirdParty/FatFs/Src/ff.c **** 
 494:./ThirdParty/FatFs/Src/ff.c **** /*--------------------------------*/
 495:./ThirdParty/FatFs/Src/ff.c **** /* LFN/Directory working buffer   */
 496:./ThirdParty/FatFs/Src/ff.c **** /*--------------------------------*/
 497:./ThirdParty/FatFs/Src/ff.c **** 
 498:./ThirdParty/FatFs/Src/ff.c **** #if FF_USE_LFN == 0		/* Non-LFN configuration */
 499:./ThirdParty/FatFs/Src/ff.c **** #if FF_FS_EXFAT
 500:./ThirdParty/FatFs/Src/ff.c **** #error LFN must be enabled when enable exFAT
 501:./ThirdParty/FatFs/Src/ff.c **** #endif
 502:./ThirdParty/FatFs/Src/ff.c **** #define DEF_NAMEBUFF
 503:./ThirdParty/FatFs/Src/ff.c **** #define INIT_NAMEBUFF(fs)
 504:./ThirdParty/FatFs/Src/ff.c **** #define FREE_NAMEBUFF()
 505:./ThirdParty/FatFs/Src/ff.c **** #define LEAVE_MKFS(res)	return res
 506:./ThirdParty/FatFs/Src/ff.c **** 
 507:./ThirdParty/FatFs/Src/ff.c **** #else					/* LFN configurations */
 508:./ThirdParty/FatFs/Src/ff.c **** #if FF_MAX_LFN < 12 || FF_MAX_LFN > 255
 509:./ThirdParty/FatFs/Src/ff.c **** #error Wrong setting of FF_MAX_LFN
 510:./ThirdParty/FatFs/Src/ff.c **** #endif
 511:./ThirdParty/FatFs/Src/ff.c **** #if FF_LFN_BUF < FF_SFN_BUF || FF_SFN_BUF < 12
 512:./ThirdParty/FatFs/Src/ff.c **** #error Wrong setting of FF_LFN_BUF or FF_SFN_BUF
 513:./ThirdParty/FatFs/Src/ff.c **** #endif
 514:./ThirdParty/FatFs/Src/ff.c **** #if FF_LFN_UNICODE < 0 || FF_LFN_UNICODE > 3
 515:./ThirdParty/FatFs/Src/ff.c **** #error Wrong setting of FF_LFN_UNICODE
 516:./ThirdParty/FatFs/Src/ff.c **** #endif
 517:./ThirdParty/FatFs/Src/ff.c **** static const BYTE LfnOfs[] = {1,3,5,7,9,14,16,18,20,22,24,28,30};	/* FAT: Offset of LFN characters 
 518:./ThirdParty/FatFs/Src/ff.c **** #define MAXDIRB(nc)	((nc + 44U) / 15 * SZDIRE)	/* exFAT: Size of directory entry block scratchpad b
 519:./ThirdParty/FatFs/Src/ff.c **** 
 520:./ThirdParty/FatFs/Src/ff.c **** #if FF_USE_LFN == 1		/* LFN enabled with static working buffer */
 521:./ThirdParty/FatFs/Src/ff.c **** #if FF_FS_EXFAT
 522:./ThirdParty/FatFs/Src/ff.c **** static BYTE	DirBuf[MAXDIRB(FF_MAX_LFN)];	/* Directory entry block scratchpad buffer */
 523:./ThirdParty/FatFs/Src/ff.c **** #endif
 524:./ThirdParty/FatFs/Src/ff.c **** static WCHAR LfnBuf[FF_MAX_LFN + 1];		/* LFN working buffer */
 525:./ThirdParty/FatFs/Src/ff.c **** #define DEF_NAMEBUFF
 526:./ThirdParty/FatFs/Src/ff.c **** #define INIT_NAMEBUFF(fs)
 527:./ThirdParty/FatFs/Src/ff.c **** #define FREE_NAMEBUFF()
 528:./ThirdParty/FatFs/Src/ff.c **** #define LEAVE_MKFS(res)	return res
 529:./ThirdParty/FatFs/Src/ff.c **** 
 530:./ThirdParty/FatFs/Src/ff.c **** #elif FF_USE_LFN == 2 	/* LFN enabled with dynamic working buffer on the stack */
 531:./ThirdParty/FatFs/Src/ff.c **** #if FF_FS_EXFAT
 532:./ThirdParty/FatFs/Src/ff.c **** #define DEF_NAMEBUFF		WCHAR lbuf[FF_MAX_LFN+1]; BYTE dbuf[MAXDIRB(FF_MAX_LFN)];	/* LFN working buff
 533:./ThirdParty/FatFs/Src/ff.c **** #define INIT_NAMEBUFF(fs)	{ (fs)->lfnbuf = lbuf; (fs)->dirbuf = dbuf; }
 534:./ThirdParty/FatFs/Src/ff.c **** #define FREE_NAMEBUFF()
 535:./ThirdParty/FatFs/Src/ff.c **** #else
 536:./ThirdParty/FatFs/Src/ff.c **** #define DEF_NAMEBUFF		WCHAR lbuf[FF_MAX_LFN+1];	/* LFN working buffer */
 537:./ThirdParty/FatFs/Src/ff.c **** #define INIT_NAMEBUFF(fs)	{ (fs)->lfnbuf = lbuf; }
 538:./ThirdParty/FatFs/Src/ff.c **** #define FREE_NAMEBUFF()
 539:./ThirdParty/FatFs/Src/ff.c **** #endif
 540:./ThirdParty/FatFs/Src/ff.c **** #define LEAVE_MKFS(res)	return res
 541:./ThirdParty/FatFs/Src/ff.c **** 
 542:./ThirdParty/FatFs/Src/ff.c **** #elif FF_USE_LFN == 3 	/* LFN enabled with dynamic working buffer on the heap */
ARM GAS  C:\Users\Xuleo\AppData\Local\Temp\ccTDbepL.s 			page 11


 543:./ThirdParty/FatFs/Src/ff.c **** #if FF_FS_EXFAT
 544:./ThirdParty/FatFs/Src/ff.c **** #define DEF_NAMEBUFF		WCHAR *lfn;	/* Pointer to LFN working buffer and directory entry block scratc
 545:./ThirdParty/FatFs/Src/ff.c **** #define INIT_NAMEBUFF(fs)	{ lfn = ff_memalloc((FF_MAX_LFN+1)*2 + MAXDIRB(FF_MAX_LFN)); if (!lfn) LE
 546:./ThirdParty/FatFs/Src/ff.c **** #define FREE_NAMEBUFF()	ff_memfree(lfn)
 547:./ThirdParty/FatFs/Src/ff.c **** #else
 548:./ThirdParty/FatFs/Src/ff.c **** #define DEF_NAMEBUFF		WCHAR *lfn;	/* Pointer to LFN working buffer */
 549:./ThirdParty/FatFs/Src/ff.c **** #define INIT_NAMEBUFF(fs)	{ lfn = ff_memalloc((FF_MAX_LFN+1)*2); if (!lfn) LEAVE_FF(fs, FR_NOT_ENOU
 550:./ThirdParty/FatFs/Src/ff.c **** #define FREE_NAMEBUFF()	ff_memfree(lfn)
 551:./ThirdParty/FatFs/Src/ff.c **** #endif
 552:./ThirdParty/FatFs/Src/ff.c **** #define LEAVE_MKFS(res)	{ if (!work) ff_memfree(buf); return res; }
 553:./ThirdParty/FatFs/Src/ff.c **** #define MAX_MALLOC	0x8000	/* Must be >=FF_MAX_SS */
 554:./ThirdParty/FatFs/Src/ff.c **** 
 555:./ThirdParty/FatFs/Src/ff.c **** #else
 556:./ThirdParty/FatFs/Src/ff.c **** #error Wrong setting of FF_USE_LFN
 557:./ThirdParty/FatFs/Src/ff.c **** 
 558:./ThirdParty/FatFs/Src/ff.c **** #endif	/* FF_USE_LFN == 1 */
 559:./ThirdParty/FatFs/Src/ff.c **** #endif	/* FF_USE_LFN == 0 */
 560:./ThirdParty/FatFs/Src/ff.c **** 
 561:./ThirdParty/FatFs/Src/ff.c **** 
 562:./ThirdParty/FatFs/Src/ff.c **** 
 563:./ThirdParty/FatFs/Src/ff.c **** /*--------------------------------*/
 564:./ThirdParty/FatFs/Src/ff.c **** /* Code conversion tables         */
 565:./ThirdParty/FatFs/Src/ff.c **** /*--------------------------------*/
 566:./ThirdParty/FatFs/Src/ff.c **** 
 567:./ThirdParty/FatFs/Src/ff.c **** #if FF_CODE_PAGE == 0	/* Run-time code page configuration */
 568:./ThirdParty/FatFs/Src/ff.c **** #define CODEPAGE CodePage
 569:./ThirdParty/FatFs/Src/ff.c **** static WORD CodePage;	/* Current code page */
 570:./ThirdParty/FatFs/Src/ff.c **** static const BYTE* ExCvt;	/* Pointer to SBCS up-case table Ct???[] (null:disabled) */
 571:./ThirdParty/FatFs/Src/ff.c **** static const BYTE* DbcTbl;	/* Pointer to DBCS code range table Dc???[] (null:disabled) */
 572:./ThirdParty/FatFs/Src/ff.c **** 
 573:./ThirdParty/FatFs/Src/ff.c **** static const BYTE Ct437[] = TBL_CT437;
 574:./ThirdParty/FatFs/Src/ff.c **** static const BYTE Ct720[] = TBL_CT720;
 575:./ThirdParty/FatFs/Src/ff.c **** static const BYTE Ct737[] = TBL_CT737;
 576:./ThirdParty/FatFs/Src/ff.c **** static const BYTE Ct771[] = TBL_CT771;
 577:./ThirdParty/FatFs/Src/ff.c **** static const BYTE Ct775[] = TBL_CT775;
 578:./ThirdParty/FatFs/Src/ff.c **** static const BYTE Ct850[] = TBL_CT850;
 579:./ThirdParty/FatFs/Src/ff.c **** static const BYTE Ct852[] = TBL_CT852;
 580:./ThirdParty/FatFs/Src/ff.c **** static const BYTE Ct855[] = TBL_CT855;
 581:./ThirdParty/FatFs/Src/ff.c **** static const BYTE Ct857[] = TBL_CT857;
 582:./ThirdParty/FatFs/Src/ff.c **** static const BYTE Ct860[] = TBL_CT860;
 583:./ThirdParty/FatFs/Src/ff.c **** static const BYTE Ct861[] = TBL_CT861;
 584:./ThirdParty/FatFs/Src/ff.c **** static const BYTE Ct862[] = TBL_CT862;
 585:./ThirdParty/FatFs/Src/ff.c **** static const BYTE Ct863[] = TBL_CT863;
 586:./ThirdParty/FatFs/Src/ff.c **** static const BYTE Ct864[] = TBL_CT864;
 587:./ThirdParty/FatFs/Src/ff.c **** static const BYTE Ct865[] = TBL_CT865;
 588:./ThirdParty/FatFs/Src/ff.c **** static const BYTE Ct866[] = TBL_CT866;
 589:./ThirdParty/FatFs/Src/ff.c **** static const BYTE Ct869[] = TBL_CT869;
 590:./ThirdParty/FatFs/Src/ff.c **** static const BYTE Dc932[] = TBL_DC932;
 591:./ThirdParty/FatFs/Src/ff.c **** static const BYTE Dc936[] = TBL_DC936;
 592:./ThirdParty/FatFs/Src/ff.c **** static const BYTE Dc949[] = TBL_DC949;
 593:./ThirdParty/FatFs/Src/ff.c **** static const BYTE Dc950[] = TBL_DC950;
 594:./ThirdParty/FatFs/Src/ff.c **** 
 595:./ThirdParty/FatFs/Src/ff.c **** #elif FF_CODE_PAGE < 900	/* Static code page configuration (SBCS) */
 596:./ThirdParty/FatFs/Src/ff.c **** #define CODEPAGE FF_CODE_PAGE
 597:./ThirdParty/FatFs/Src/ff.c **** static const BYTE ExCvt[] = MKCVTBL(TBL_CT, FF_CODE_PAGE);
 598:./ThirdParty/FatFs/Src/ff.c **** 
 599:./ThirdParty/FatFs/Src/ff.c **** #else					/* Static code page configuration (DBCS) */
ARM GAS  C:\Users\Xuleo\AppData\Local\Temp\ccTDbepL.s 			page 12


 600:./ThirdParty/FatFs/Src/ff.c **** #define CODEPAGE FF_CODE_PAGE
 601:./ThirdParty/FatFs/Src/ff.c **** static const BYTE DbcTbl[] = MKCVTBL(TBL_DC, FF_CODE_PAGE);
 602:./ThirdParty/FatFs/Src/ff.c **** 
 603:./ThirdParty/FatFs/Src/ff.c **** #endif
 604:./ThirdParty/FatFs/Src/ff.c **** 
 605:./ThirdParty/FatFs/Src/ff.c **** 
 606:./ThirdParty/FatFs/Src/ff.c **** 
 607:./ThirdParty/FatFs/Src/ff.c **** 
 608:./ThirdParty/FatFs/Src/ff.c **** /*--------------------------------------------------------------------------
 609:./ThirdParty/FatFs/Src/ff.c **** 
 610:./ThirdParty/FatFs/Src/ff.c ****    Module Private Functions
 611:./ThirdParty/FatFs/Src/ff.c **** 
 612:./ThirdParty/FatFs/Src/ff.c **** ---------------------------------------------------------------------------*/
 613:./ThirdParty/FatFs/Src/ff.c **** 
 614:./ThirdParty/FatFs/Src/ff.c **** 
 615:./ThirdParty/FatFs/Src/ff.c **** /*-----------------------------------------------------------------------*/
 616:./ThirdParty/FatFs/Src/ff.c **** /* Load/Store multi-byte word in the FAT structure                       */
 617:./ThirdParty/FatFs/Src/ff.c **** /*-----------------------------------------------------------------------*/
 618:./ThirdParty/FatFs/Src/ff.c **** 
 619:./ThirdParty/FatFs/Src/ff.c **** static WORD ld_16 (const BYTE* ptr)	/*	 Load a 2-byte little-endian word */
 620:./ThirdParty/FatFs/Src/ff.c **** {
  30              		.loc 1 620 1 view -0
  31              		.cfi_startproc
  32              		@ args = 0, pretend = 0, frame = 0
  33              		@ frame_needed = 0, uses_anonymous_args = 0
  34              		@ link register save eliminated.
 621:./ThirdParty/FatFs/Src/ff.c **** 	WORD rv;
  35              		.loc 1 621 2 view .LVU1
 622:./ThirdParty/FatFs/Src/ff.c **** 
 623:./ThirdParty/FatFs/Src/ff.c **** 	rv = ptr[1];
  36              		.loc 1 623 2 view .LVU2
  37              		.loc 1 623 10 is_stmt 0 view .LVU3
  38 0000 4278     		ldrb	r2, [r0, #1]	@ zero_extendqisi2
  39              	.LVL1:
 624:./ThirdParty/FatFs/Src/ff.c **** 	rv = rv << 8 | ptr[0];
  40              		.loc 1 624 2 is_stmt 1 view .LVU4
  41              		.loc 1 624 20 is_stmt 0 view .LVU5
  42 0002 0078     		ldrb	r0, [r0]	@ zero_extendqisi2
  43              	.LVL2:
 625:./ThirdParty/FatFs/Src/ff.c **** 	return rv;
  44              		.loc 1 625 2 is_stmt 1 view .LVU6
 626:./ThirdParty/FatFs/Src/ff.c **** }
  45              		.loc 1 626 1 is_stmt 0 view .LVU7
  46 0004 40EA0220 		orr	r0, r0, r2, lsl #8
  47              	.LVL3:
  48              		.loc 1 626 1 view .LVU8
  49 0008 7047     		bx	lr
  50              		.cfi_endproc
  51              	.LFE0:
  53              		.section	.text.ld_32,"ax",%progbits
  54              		.align	1
  55              		.syntax unified
  56              		.thumb
  57              		.thumb_func
  59              	ld_32:
  60              	.LVL4:
  61              	.LFB1:
ARM GAS  C:\Users\Xuleo\AppData\Local\Temp\ccTDbepL.s 			page 13


 627:./ThirdParty/FatFs/Src/ff.c **** 
 628:./ThirdParty/FatFs/Src/ff.c **** static DWORD ld_32 (const BYTE* ptr)	/* Load a 4-byte little-endian word */
 629:./ThirdParty/FatFs/Src/ff.c **** {
  62              		.loc 1 629 1 is_stmt 1 view -0
  63              		.cfi_startproc
  64              		@ args = 0, pretend = 0, frame = 0
  65              		@ frame_needed = 0, uses_anonymous_args = 0
  66              		@ link register save eliminated.
 630:./ThirdParty/FatFs/Src/ff.c **** 	DWORD rv;
  67              		.loc 1 630 2 view .LVU10
 631:./ThirdParty/FatFs/Src/ff.c **** 
 632:./ThirdParty/FatFs/Src/ff.c **** 	rv = ptr[3];
  68              		.loc 1 632 2 view .LVU11
  69              		.loc 1 632 10 is_stmt 0 view .LVU12
  70 0000 C378     		ldrb	r3, [r0, #3]	@ zero_extendqisi2
  71              	.LVL5:
 633:./ThirdParty/FatFs/Src/ff.c **** 	rv = rv << 8 | ptr[2];
  72              		.loc 1 633 2 is_stmt 1 view .LVU13
  73              		.loc 1 633 20 is_stmt 0 view .LVU14
  74 0002 8278     		ldrb	r2, [r0, #2]	@ zero_extendqisi2
  75              		.loc 1 633 5 view .LVU15
  76 0004 42EA0322 		orr	r2, r2, r3, lsl #8
  77              	.LVL6:
 634:./ThirdParty/FatFs/Src/ff.c **** 	rv = rv << 8 | ptr[1];
  78              		.loc 1 634 2 is_stmt 1 view .LVU16
  79              		.loc 1 634 20 is_stmt 0 view .LVU17
  80 0008 4378     		ldrb	r3, [r0, #1]	@ zero_extendqisi2
  81              		.loc 1 634 5 view .LVU18
  82 000a 43EA0223 		orr	r3, r3, r2, lsl #8
  83              	.LVL7:
 635:./ThirdParty/FatFs/Src/ff.c **** 	rv = rv << 8 | ptr[0];
  84              		.loc 1 635 2 is_stmt 1 view .LVU19
  85              		.loc 1 635 20 is_stmt 0 view .LVU20
  86 000e 0078     		ldrb	r0, [r0]	@ zero_extendqisi2
  87              	.LVL8:
 636:./ThirdParty/FatFs/Src/ff.c **** 	return rv;
  88              		.loc 1 636 2 is_stmt 1 view .LVU21
 637:./ThirdParty/FatFs/Src/ff.c **** }
  89              		.loc 1 637 1 is_stmt 0 view .LVU22
  90 0010 40EA0320 		orr	r0, r0, r3, lsl #8
  91              	.LVL9:
  92              		.loc 1 637 1 view .LVU23
  93 0014 7047     		bx	lr
  94              		.cfi_endproc
  95              	.LFE1:
  97              		.section	.text.st_16,"ax",%progbits
  98              		.align	1
  99              		.syntax unified
 100              		.thumb
 101              		.thumb_func
 103              	st_16:
 104              	.LVL10:
 105              	.LFB2:
 638:./ThirdParty/FatFs/Src/ff.c **** 
 639:./ThirdParty/FatFs/Src/ff.c **** #if FF_FS_EXFAT
 640:./ThirdParty/FatFs/Src/ff.c **** static QWORD ld_64 (const BYTE* ptr)	/* Load an 8-byte little-endian word */
 641:./ThirdParty/FatFs/Src/ff.c **** {
ARM GAS  C:\Users\Xuleo\AppData\Local\Temp\ccTDbepL.s 			page 14


 642:./ThirdParty/FatFs/Src/ff.c **** 	QWORD rv;
 643:./ThirdParty/FatFs/Src/ff.c **** 
 644:./ThirdParty/FatFs/Src/ff.c **** 	rv = ptr[7];
 645:./ThirdParty/FatFs/Src/ff.c **** 	rv = rv << 8 | ptr[6];
 646:./ThirdParty/FatFs/Src/ff.c **** 	rv = rv << 8 | ptr[5];
 647:./ThirdParty/FatFs/Src/ff.c **** 	rv = rv << 8 | ptr[4];
 648:./ThirdParty/FatFs/Src/ff.c **** 	rv = rv << 8 | ptr[3];
 649:./ThirdParty/FatFs/Src/ff.c **** 	rv = rv << 8 | ptr[2];
 650:./ThirdParty/FatFs/Src/ff.c **** 	rv = rv << 8 | ptr[1];
 651:./ThirdParty/FatFs/Src/ff.c **** 	rv = rv << 8 | ptr[0];
 652:./ThirdParty/FatFs/Src/ff.c **** 	return rv;
 653:./ThirdParty/FatFs/Src/ff.c **** }
 654:./ThirdParty/FatFs/Src/ff.c **** #endif
 655:./ThirdParty/FatFs/Src/ff.c **** 
 656:./ThirdParty/FatFs/Src/ff.c **** #if !FF_FS_READONLY
 657:./ThirdParty/FatFs/Src/ff.c **** static void st_16 (BYTE* ptr, WORD val)	/* Store a 2-byte word in little-endian */
 658:./ThirdParty/FatFs/Src/ff.c **** {
 106              		.loc 1 658 1 is_stmt 1 view -0
 107              		.cfi_startproc
 108              		@ args = 0, pretend = 0, frame = 0
 109              		@ frame_needed = 0, uses_anonymous_args = 0
 110              		@ link register save eliminated.
 659:./ThirdParty/FatFs/Src/ff.c **** 	*ptr++ = (BYTE)val; val >>= 8;
 111              		.loc 1 659 2 view .LVU25
 112              		.loc 1 659 9 is_stmt 0 view .LVU26
 113 0000 0170     		strb	r1, [r0]
 114              		.loc 1 659 22 is_stmt 1 view .LVU27
 115              	.LVL11:
 660:./ThirdParty/FatFs/Src/ff.c **** 	*ptr++ = (BYTE)val;
 116              		.loc 1 660 2 view .LVU28
 117              		.loc 1 660 11 is_stmt 0 view .LVU29
 118 0002 090A     		lsrs	r1, r1, #8
 119              		.loc 1 660 9 view .LVU30
 120 0004 4170     		strb	r1, [r0, #1]
 661:./ThirdParty/FatFs/Src/ff.c **** }
 121              		.loc 1 661 1 view .LVU31
 122 0006 7047     		bx	lr
 123              		.cfi_endproc
 124              	.LFE2:
 126              		.section	.text.st_32,"ax",%progbits
 127              		.align	1
 128              		.syntax unified
 129              		.thumb
 130              		.thumb_func
 132              	st_32:
 133              	.LVL12:
 134              	.LFB3:
 662:./ThirdParty/FatFs/Src/ff.c **** 
 663:./ThirdParty/FatFs/Src/ff.c **** static void st_32 (BYTE* ptr, DWORD val)	/* Store a 4-byte word in little-endian */
 664:./ThirdParty/FatFs/Src/ff.c **** {
 135              		.loc 1 664 1 is_stmt 1 view -0
 136              		.cfi_startproc
 137              		@ args = 0, pretend = 0, frame = 0
 138              		@ frame_needed = 0, uses_anonymous_args = 0
 139              		@ link register save eliminated.
 665:./ThirdParty/FatFs/Src/ff.c **** 	*ptr++ = (BYTE)val; val >>= 8;
 140              		.loc 1 665 2 view .LVU33
ARM GAS  C:\Users\Xuleo\AppData\Local\Temp\ccTDbepL.s 			page 15


 141              		.loc 1 665 9 is_stmt 0 view .LVU34
 142 0000 0170     		strb	r1, [r0]
 143              		.loc 1 665 22 is_stmt 1 view .LVU35
 144              	.LVL13:
 666:./ThirdParty/FatFs/Src/ff.c **** 	*ptr++ = (BYTE)val; val >>= 8;
 145              		.loc 1 666 2 view .LVU36
 146              		.loc 1 666 11 is_stmt 0 view .LVU37
 147 0002 C1F30723 		ubfx	r3, r1, #8, #8
 148              		.loc 1 666 9 view .LVU38
 149 0006 4370     		strb	r3, [r0, #1]
 150              		.loc 1 666 22 is_stmt 1 view .LVU39
 151              	.LVL14:
 667:./ThirdParty/FatFs/Src/ff.c **** 	*ptr++ = (BYTE)val; val >>= 8;
 152              		.loc 1 667 2 view .LVU40
 153              		.loc 1 667 11 is_stmt 0 view .LVU41
 154 0008 C1F30743 		ubfx	r3, r1, #16, #8
 155              		.loc 1 667 9 view .LVU42
 156 000c 8370     		strb	r3, [r0, #2]
 157              		.loc 1 667 22 is_stmt 1 view .LVU43
 158              	.LVL15:
 668:./ThirdParty/FatFs/Src/ff.c **** 	*ptr++ = (BYTE)val;
 159              		.loc 1 668 2 view .LVU44
 160              		.loc 1 668 11 is_stmt 0 view .LVU45
 161 000e 090E     		lsrs	r1, r1, #24
 162              	.LVL16:
 163              		.loc 1 668 9 view .LVU46
 164 0010 C170     		strb	r1, [r0, #3]
 669:./ThirdParty/FatFs/Src/ff.c **** }
 165              		.loc 1 669 1 view .LVU47
 166 0012 7047     		bx	lr
 167              		.cfi_endproc
 168              	.LFE3:
 170              		.section	.text.dbc_1st,"ax",%progbits
 171              		.align	1
 172              		.syntax unified
 173              		.thumb
 174              		.thumb_func
 176              	dbc_1st:
 177              	.LVL17:
 178              	.LFB4:
 670:./ThirdParty/FatFs/Src/ff.c **** 
 671:./ThirdParty/FatFs/Src/ff.c **** #if FF_FS_EXFAT
 672:./ThirdParty/FatFs/Src/ff.c **** static void st_64 (BYTE* ptr, QWORD val)	/* Store an 8-byte word in little-endian */
 673:./ThirdParty/FatFs/Src/ff.c **** {
 674:./ThirdParty/FatFs/Src/ff.c **** 	*ptr++ = (BYTE)val; val >>= 8;
 675:./ThirdParty/FatFs/Src/ff.c **** 	*ptr++ = (BYTE)val; val >>= 8;
 676:./ThirdParty/FatFs/Src/ff.c **** 	*ptr++ = (BYTE)val; val >>= 8;
 677:./ThirdParty/FatFs/Src/ff.c **** 	*ptr++ = (BYTE)val; val >>= 8;
 678:./ThirdParty/FatFs/Src/ff.c **** 	*ptr++ = (BYTE)val; val >>= 8;
 679:./ThirdParty/FatFs/Src/ff.c **** 	*ptr++ = (BYTE)val; val >>= 8;
 680:./ThirdParty/FatFs/Src/ff.c **** 	*ptr++ = (BYTE)val; val >>= 8;
 681:./ThirdParty/FatFs/Src/ff.c **** 	*ptr++ = (BYTE)val;
 682:./ThirdParty/FatFs/Src/ff.c **** }
 683:./ThirdParty/FatFs/Src/ff.c **** #endif
 684:./ThirdParty/FatFs/Src/ff.c **** #endif	/* !FF_FS_READONLY */
 685:./ThirdParty/FatFs/Src/ff.c **** 
 686:./ThirdParty/FatFs/Src/ff.c **** 
ARM GAS  C:\Users\Xuleo\AppData\Local\Temp\ccTDbepL.s 			page 16


 687:./ThirdParty/FatFs/Src/ff.c **** 
 688:./ThirdParty/FatFs/Src/ff.c **** /*-----------------------------------------------------------------------*/
 689:./ThirdParty/FatFs/Src/ff.c **** /* String functions                                                      */
 690:./ThirdParty/FatFs/Src/ff.c **** /*-----------------------------------------------------------------------*/
 691:./ThirdParty/FatFs/Src/ff.c **** 
 692:./ThirdParty/FatFs/Src/ff.c **** /* Test if the byte is DBC 1st byte */
 693:./ThirdParty/FatFs/Src/ff.c **** static int dbc_1st (BYTE c)
 694:./ThirdParty/FatFs/Src/ff.c **** {
 179              		.loc 1 694 1 is_stmt 1 view -0
 180              		.cfi_startproc
 181              		@ args = 0, pretend = 0, frame = 0
 182              		@ frame_needed = 0, uses_anonymous_args = 0
 183              		@ link register save eliminated.
 695:./ThirdParty/FatFs/Src/ff.c **** #if FF_CODE_PAGE == 0		/* Variable code page */
 696:./ThirdParty/FatFs/Src/ff.c **** 	if (DbcTbl && c >= DbcTbl[0]) {
 697:./ThirdParty/FatFs/Src/ff.c **** 		if (c <= DbcTbl[1]) return 1;					/* 1st byte range 1 */
 698:./ThirdParty/FatFs/Src/ff.c **** 		if (c >= DbcTbl[2] && c <= DbcTbl[3]) return 1;	/* 1st byte range 2 */
 699:./ThirdParty/FatFs/Src/ff.c **** 	}
 700:./ThirdParty/FatFs/Src/ff.c **** #elif FF_CODE_PAGE >= 900	/* DBCS fixed code page */
 701:./ThirdParty/FatFs/Src/ff.c **** 	if (c >= DbcTbl[0]) {
 702:./ThirdParty/FatFs/Src/ff.c **** 		if (c <= DbcTbl[1]) return 1;
 703:./ThirdParty/FatFs/Src/ff.c **** 		if (c >= DbcTbl[2] && c <= DbcTbl[3]) return 1;
 704:./ThirdParty/FatFs/Src/ff.c **** 	}
 705:./ThirdParty/FatFs/Src/ff.c **** #else						/* SBCS fixed code page */
 706:./ThirdParty/FatFs/Src/ff.c **** 	if (c != 0) return 0;	/* Always false */
 184              		.loc 1 706 2 view .LVU49
 185              		.loc 1 706 14 discriminator 1 view .LVU50
 707:./ThirdParty/FatFs/Src/ff.c **** #endif
 708:./ThirdParty/FatFs/Src/ff.c **** 	return 0;
 709:./ThirdParty/FatFs/Src/ff.c **** }
 186              		.loc 1 709 1 is_stmt 0 view .LVU51
 187 0000 0020     		movs	r0, #0
 188              	.LVL18:
 189              		.loc 1 709 1 view .LVU52
 190 0002 7047     		bx	lr
 191              		.cfi_endproc
 192              	.LFE4:
 194              		.section	.text.dbc_2nd,"ax",%progbits
 195              		.align	1
 196              		.syntax unified
 197              		.thumb
 198              		.thumb_func
 200              	dbc_2nd:
 201              	.LVL19:
 202              	.LFB5:
 710:./ThirdParty/FatFs/Src/ff.c **** 
 711:./ThirdParty/FatFs/Src/ff.c **** 
 712:./ThirdParty/FatFs/Src/ff.c **** /* Test if the byte is DBC 2nd byte */
 713:./ThirdParty/FatFs/Src/ff.c **** static int dbc_2nd (BYTE c)
 714:./ThirdParty/FatFs/Src/ff.c **** {
 203              		.loc 1 714 1 is_stmt 1 view -0
 204              		.cfi_startproc
 205              		@ args = 0, pretend = 0, frame = 0
 206              		@ frame_needed = 0, uses_anonymous_args = 0
 207              		@ link register save eliminated.
 715:./ThirdParty/FatFs/Src/ff.c **** #if FF_CODE_PAGE == 0		/* Variable code page */
 716:./ThirdParty/FatFs/Src/ff.c **** 	if (DbcTbl && c >= DbcTbl[4]) {
ARM GAS  C:\Users\Xuleo\AppData\Local\Temp\ccTDbepL.s 			page 17


 717:./ThirdParty/FatFs/Src/ff.c **** 		if (c <= DbcTbl[5]) return 1;					/* 2nd byte range 1 */
 718:./ThirdParty/FatFs/Src/ff.c **** 		if (c >= DbcTbl[6] && c <= DbcTbl[7]) return 1;	/* 2nd byte range 2 */
 719:./ThirdParty/FatFs/Src/ff.c **** 		if (c >= DbcTbl[8] && c <= DbcTbl[9]) return 1;	/* 2nd byte range 3 */
 720:./ThirdParty/FatFs/Src/ff.c **** 	}
 721:./ThirdParty/FatFs/Src/ff.c **** #elif FF_CODE_PAGE >= 900	/* DBCS fixed code page */
 722:./ThirdParty/FatFs/Src/ff.c **** 	if (c >= DbcTbl[4]) {
 723:./ThirdParty/FatFs/Src/ff.c **** 		if (c <= DbcTbl[5]) return 1;
 724:./ThirdParty/FatFs/Src/ff.c **** 		if (c >= DbcTbl[6] && c <= DbcTbl[7]) return 1;
 725:./ThirdParty/FatFs/Src/ff.c **** 		if (c >= DbcTbl[8] && c <= DbcTbl[9]) return 1;
 726:./ThirdParty/FatFs/Src/ff.c **** 	}
 727:./ThirdParty/FatFs/Src/ff.c **** #else						/* SBCS fixed code page */
 728:./ThirdParty/FatFs/Src/ff.c **** 	if (c != 0) return 0;	/* Always false */
 208              		.loc 1 728 2 view .LVU54
 209              		.loc 1 728 14 discriminator 1 view .LVU55
 729:./ThirdParty/FatFs/Src/ff.c **** #endif
 730:./ThirdParty/FatFs/Src/ff.c **** 	return 0;
 731:./ThirdParty/FatFs/Src/ff.c **** }
 210              		.loc 1 731 1 is_stmt 0 view .LVU56
 211 0000 0020     		movs	r0, #0
 212              	.LVL20:
 213              		.loc 1 731 1 view .LVU57
 214 0002 7047     		bx	lr
 215              		.cfi_endproc
 216              	.LFE5:
 218              		.section	.text.clst2sect,"ax",%progbits
 219              		.align	1
 220              		.syntax unified
 221              		.thumb
 222              		.thumb_func
 224              	clst2sect:
 225              	.LVL21:
 226              	.LFB9:
 732:./ThirdParty/FatFs/Src/ff.c **** 
 733:./ThirdParty/FatFs/Src/ff.c **** 
 734:./ThirdParty/FatFs/Src/ff.c **** #if FF_USE_LFN
 735:./ThirdParty/FatFs/Src/ff.c **** 
 736:./ThirdParty/FatFs/Src/ff.c **** /* Get a Unicode code point from the TCHAR string in defined API encodeing */
 737:./ThirdParty/FatFs/Src/ff.c **** static DWORD tchar2uni (	/* Returns a character in UTF-16 encoding (>=0x10000 on surrogate pair, 0x
 738:./ThirdParty/FatFs/Src/ff.c **** 	const TCHAR** str		/* Pointer to pointer to TCHAR string in configured encoding */
 739:./ThirdParty/FatFs/Src/ff.c **** )
 740:./ThirdParty/FatFs/Src/ff.c **** {
 741:./ThirdParty/FatFs/Src/ff.c **** 	DWORD uc;
 742:./ThirdParty/FatFs/Src/ff.c **** 	const TCHAR *p = *str;
 743:./ThirdParty/FatFs/Src/ff.c **** 
 744:./ThirdParty/FatFs/Src/ff.c **** #if FF_LFN_UNICODE == 1		/* UTF-16 input */
 745:./ThirdParty/FatFs/Src/ff.c **** 	WCHAR wc;
 746:./ThirdParty/FatFs/Src/ff.c **** 
 747:./ThirdParty/FatFs/Src/ff.c **** 	uc = *p++;	/* Get an encoding unit */
 748:./ThirdParty/FatFs/Src/ff.c **** 	if (IsSurrogate(uc)) {	/* Surrogate? */
 749:./ThirdParty/FatFs/Src/ff.c **** 		wc = *p++;		/* Get low surrogate */
 750:./ThirdParty/FatFs/Src/ff.c **** 		if (!IsSurrogateH(uc) || !IsSurrogateL(wc)) return 0xFFFFFFFF;	/* Wrong surrogate? */
 751:./ThirdParty/FatFs/Src/ff.c **** 		uc = uc << 16 | wc;
 752:./ThirdParty/FatFs/Src/ff.c **** 	}
 753:./ThirdParty/FatFs/Src/ff.c **** 
 754:./ThirdParty/FatFs/Src/ff.c **** #elif FF_LFN_UNICODE == 2	/* UTF-8 input */
 755:./ThirdParty/FatFs/Src/ff.c **** 	BYTE tb;
 756:./ThirdParty/FatFs/Src/ff.c **** 	int nf;
ARM GAS  C:\Users\Xuleo\AppData\Local\Temp\ccTDbepL.s 			page 18


 757:./ThirdParty/FatFs/Src/ff.c **** 
 758:./ThirdParty/FatFs/Src/ff.c **** 	uc = (BYTE)*p++;	/* Get an encoding unit */
 759:./ThirdParty/FatFs/Src/ff.c **** 	if (uc & 0x80) {	/* Multiple byte code? */
 760:./ThirdParty/FatFs/Src/ff.c **** 		if        ((uc & 0xE0) == 0xC0) {	/* 2-byte sequence? */
 761:./ThirdParty/FatFs/Src/ff.c **** 			uc &= 0x1F; nf = 1;
 762:./ThirdParty/FatFs/Src/ff.c **** 		} else if ((uc & 0xF0) == 0xE0) {	/* 3-byte sequence? */
 763:./ThirdParty/FatFs/Src/ff.c **** 			uc &= 0x0F; nf = 2;
 764:./ThirdParty/FatFs/Src/ff.c **** 		} else if ((uc & 0xF8) == 0xF0) {	/* 4-byte sequence? */
 765:./ThirdParty/FatFs/Src/ff.c **** 			uc &= 0x07; nf = 3;
 766:./ThirdParty/FatFs/Src/ff.c **** 		} else {							/* Wrong sequence */
 767:./ThirdParty/FatFs/Src/ff.c **** 			return 0xFFFFFFFF;
 768:./ThirdParty/FatFs/Src/ff.c **** 		}
 769:./ThirdParty/FatFs/Src/ff.c **** 		do {	/* Get and merge trailing bytes */
 770:./ThirdParty/FatFs/Src/ff.c **** 			tb = (BYTE)*p++;
 771:./ThirdParty/FatFs/Src/ff.c **** 			if ((tb & 0xC0) != 0x80) return 0xFFFFFFFF;	/* Wrong sequence? */
 772:./ThirdParty/FatFs/Src/ff.c **** 			uc = uc << 6 | (tb & 0x3F);
 773:./ThirdParty/FatFs/Src/ff.c **** 		} while (--nf != 0);
 774:./ThirdParty/FatFs/Src/ff.c **** 		if (uc < 0x80 || IsSurrogate(uc) || uc >= 0x110000) return 0xFFFFFFFF;	/* Wrong code? */
 775:./ThirdParty/FatFs/Src/ff.c **** 		if (uc >= 0x010000) uc = 0xD800DC00 | ((uc - 0x10000) << 6 & 0x3FF0000) | (uc & 0x3FF);	/* Make a
 776:./ThirdParty/FatFs/Src/ff.c **** 	}
 777:./ThirdParty/FatFs/Src/ff.c **** 
 778:./ThirdParty/FatFs/Src/ff.c **** #elif FF_LFN_UNICODE == 3	/* UTF-32 input */
 779:./ThirdParty/FatFs/Src/ff.c **** 	uc = (TCHAR)*p++;	/* Get a unit */
 780:./ThirdParty/FatFs/Src/ff.c **** 	if (uc >= 0x110000 || IsSurrogate(uc)) return 0xFFFFFFFF;	/* Wrong code? */
 781:./ThirdParty/FatFs/Src/ff.c **** 	if (uc >= 0x010000) uc = 0xD800DC00 | ((uc - 0x10000) << 6 & 0x3FF0000) | (uc & 0x3FF);	/* Make a 
 782:./ThirdParty/FatFs/Src/ff.c **** 
 783:./ThirdParty/FatFs/Src/ff.c **** #else		/* ANSI/OEM input */
 784:./ThirdParty/FatFs/Src/ff.c **** 	BYTE sb;
 785:./ThirdParty/FatFs/Src/ff.c **** 	WCHAR wc;
 786:./ThirdParty/FatFs/Src/ff.c **** 
 787:./ThirdParty/FatFs/Src/ff.c **** 	wc = (BYTE)*p++;			/* Get a byte */
 788:./ThirdParty/FatFs/Src/ff.c **** 	if (dbc_1st((BYTE)wc)) {	/* Is it a DBC 1st byte? */
 789:./ThirdParty/FatFs/Src/ff.c **** 		sb = (BYTE)*p++;		/* Get 2nd byte */
 790:./ThirdParty/FatFs/Src/ff.c **** 		if (!dbc_2nd(sb)) return 0xFFFFFFFF;	/* Invalid code? */
 791:./ThirdParty/FatFs/Src/ff.c **** 		wc = (wc << 8) + sb;	/* Make a DBC */
 792:./ThirdParty/FatFs/Src/ff.c **** 	}
 793:./ThirdParty/FatFs/Src/ff.c **** 	if (wc != 0) {
 794:./ThirdParty/FatFs/Src/ff.c **** 		wc = ff_oem2uni(wc, CODEPAGE);	/* ANSI/OEM ==> Unicode */
 795:./ThirdParty/FatFs/Src/ff.c **** 		if (wc == 0) return 0xFFFFFFFF;	/* Invalid code? */
 796:./ThirdParty/FatFs/Src/ff.c **** 	}
 797:./ThirdParty/FatFs/Src/ff.c **** 	uc = wc;
 798:./ThirdParty/FatFs/Src/ff.c **** 
 799:./ThirdParty/FatFs/Src/ff.c **** #endif
 800:./ThirdParty/FatFs/Src/ff.c **** 	*str = p;	/* Next read pointer */
 801:./ThirdParty/FatFs/Src/ff.c **** 	return uc;
 802:./ThirdParty/FatFs/Src/ff.c **** }
 803:./ThirdParty/FatFs/Src/ff.c **** 
 804:./ThirdParty/FatFs/Src/ff.c **** 
 805:./ThirdParty/FatFs/Src/ff.c **** /* Store a Unicode char in defined API encoding */
 806:./ThirdParty/FatFs/Src/ff.c **** static UINT put_utf (	/* Returns number of encoding units written (0:buffer overflow or wrong encod
 807:./ThirdParty/FatFs/Src/ff.c **** 	DWORD chr,	/* UTF-16 encoded character (Surrogate pair if >=0x10000) */
 808:./ThirdParty/FatFs/Src/ff.c **** 	TCHAR* buf,	/* Output buffer */
 809:./ThirdParty/FatFs/Src/ff.c **** 	UINT szb	/* Size of the buffer */
 810:./ThirdParty/FatFs/Src/ff.c **** )
 811:./ThirdParty/FatFs/Src/ff.c **** {
 812:./ThirdParty/FatFs/Src/ff.c **** #if FF_LFN_UNICODE == 1	/* UTF-16 output */
 813:./ThirdParty/FatFs/Src/ff.c **** 	WCHAR hs, wc;
ARM GAS  C:\Users\Xuleo\AppData\Local\Temp\ccTDbepL.s 			page 19


 814:./ThirdParty/FatFs/Src/ff.c **** 
 815:./ThirdParty/FatFs/Src/ff.c **** 	hs = (WCHAR)(chr >> 16);
 816:./ThirdParty/FatFs/Src/ff.c **** 	wc = (WCHAR)chr;
 817:./ThirdParty/FatFs/Src/ff.c **** 	if (hs == 0) {	/* Single encoding unit? */
 818:./ThirdParty/FatFs/Src/ff.c **** 		if (szb < 1 || IsSurrogate(wc)) return 0;	/* Buffer overflow or wrong code? */
 819:./ThirdParty/FatFs/Src/ff.c **** 		*buf = wc;
 820:./ThirdParty/FatFs/Src/ff.c **** 		return 1;
 821:./ThirdParty/FatFs/Src/ff.c **** 	}
 822:./ThirdParty/FatFs/Src/ff.c **** 	if (szb < 2 || !IsSurrogateH(hs) || !IsSurrogateL(wc)) return 0;	/* Buffer overflow or wrong surro
 823:./ThirdParty/FatFs/Src/ff.c **** 	*buf++ = hs;
 824:./ThirdParty/FatFs/Src/ff.c **** 	*buf++ = wc;
 825:./ThirdParty/FatFs/Src/ff.c **** 	return 2;
 826:./ThirdParty/FatFs/Src/ff.c **** 
 827:./ThirdParty/FatFs/Src/ff.c **** #elif FF_LFN_UNICODE == 2	/* UTF-8 output */
 828:./ThirdParty/FatFs/Src/ff.c **** 	DWORD hc;
 829:./ThirdParty/FatFs/Src/ff.c **** 
 830:./ThirdParty/FatFs/Src/ff.c **** 	if (chr < 0x80) {	/* Single byte code? */
 831:./ThirdParty/FatFs/Src/ff.c **** 		if (szb < 1) return 0;	/* Buffer overflow? */
 832:./ThirdParty/FatFs/Src/ff.c **** 		*buf = (TCHAR)chr;
 833:./ThirdParty/FatFs/Src/ff.c **** 		return 1;
 834:./ThirdParty/FatFs/Src/ff.c **** 	}
 835:./ThirdParty/FatFs/Src/ff.c **** 	if (chr < 0x800) {	/* 2-byte sequence? */
 836:./ThirdParty/FatFs/Src/ff.c **** 		if (szb < 2) return 0;	/* Buffer overflow? */
 837:./ThirdParty/FatFs/Src/ff.c **** 		*buf++ = (TCHAR)(0xC0 | (chr >> 6 & 0x1F));
 838:./ThirdParty/FatFs/Src/ff.c **** 		*buf++ = (TCHAR)(0x80 | (chr >> 0 & 0x3F));
 839:./ThirdParty/FatFs/Src/ff.c **** 		return 2;
 840:./ThirdParty/FatFs/Src/ff.c **** 	}
 841:./ThirdParty/FatFs/Src/ff.c **** 	if (chr < 0x10000) {	/* 3-byte sequence? */
 842:./ThirdParty/FatFs/Src/ff.c **** 		if (szb < 3 || IsSurrogate(chr)) return 0;	/* Buffer overflow or wrong code? */
 843:./ThirdParty/FatFs/Src/ff.c **** 		*buf++ = (TCHAR)(0xE0 | (chr >> 12 & 0x0F));
 844:./ThirdParty/FatFs/Src/ff.c **** 		*buf++ = (TCHAR)(0x80 | (chr >> 6 & 0x3F));
 845:./ThirdParty/FatFs/Src/ff.c **** 		*buf++ = (TCHAR)(0x80 | (chr >> 0 & 0x3F));
 846:./ThirdParty/FatFs/Src/ff.c **** 		return 3;
 847:./ThirdParty/FatFs/Src/ff.c **** 	}
 848:./ThirdParty/FatFs/Src/ff.c **** 	/* 4-byte sequence */
 849:./ThirdParty/FatFs/Src/ff.c **** 	if (szb < 4) return 0;	/* Buffer overflow? */
 850:./ThirdParty/FatFs/Src/ff.c **** 	hc = ((chr & 0xFFFF0000) - 0xD8000000) >> 6;	/* Get high 10 bits */
 851:./ThirdParty/FatFs/Src/ff.c **** 	chr = (chr & 0xFFFF) - 0xDC00;					/* Get low 10 bits */
 852:./ThirdParty/FatFs/Src/ff.c **** 	if (hc >= 0x100000 || chr >= 0x400) return 0;	/* Wrong surrogate? */
 853:./ThirdParty/FatFs/Src/ff.c **** 	chr = (hc | chr) + 0x10000;
 854:./ThirdParty/FatFs/Src/ff.c **** 	*buf++ = (TCHAR)(0xF0 | (chr >> 18 & 0x07));
 855:./ThirdParty/FatFs/Src/ff.c **** 	*buf++ = (TCHAR)(0x80 | (chr >> 12 & 0x3F));
 856:./ThirdParty/FatFs/Src/ff.c **** 	*buf++ = (TCHAR)(0x80 | (chr >> 6 & 0x3F));
 857:./ThirdParty/FatFs/Src/ff.c **** 	*buf++ = (TCHAR)(0x80 | (chr >> 0 & 0x3F));
 858:./ThirdParty/FatFs/Src/ff.c **** 	return 4;
 859:./ThirdParty/FatFs/Src/ff.c **** 
 860:./ThirdParty/FatFs/Src/ff.c **** #elif FF_LFN_UNICODE == 3	/* UTF-32 output */
 861:./ThirdParty/FatFs/Src/ff.c **** 	DWORD hc;
 862:./ThirdParty/FatFs/Src/ff.c **** 
 863:./ThirdParty/FatFs/Src/ff.c **** 	if (szb < 1) return 0;	/* Buffer overflow? */
 864:./ThirdParty/FatFs/Src/ff.c **** 	if (chr >= 0x10000) {	/* Out of BMP? */
 865:./ThirdParty/FatFs/Src/ff.c **** 		hc = ((chr & 0xFFFF0000) - 0xD8000000) >> 6;	/* Get high 10 bits */
 866:./ThirdParty/FatFs/Src/ff.c **** 		chr = (chr & 0xFFFF) - 0xDC00;					/* Get low 10 bits */
 867:./ThirdParty/FatFs/Src/ff.c **** 		if (hc >= 0x100000 || chr >= 0x400) return 0;	/* Wrong surrogate? */
 868:./ThirdParty/FatFs/Src/ff.c **** 		chr = (hc | chr) + 0x10000;
 869:./ThirdParty/FatFs/Src/ff.c **** 	}
 870:./ThirdParty/FatFs/Src/ff.c **** 	*buf++ = (TCHAR)chr;
ARM GAS  C:\Users\Xuleo\AppData\Local\Temp\ccTDbepL.s 			page 20


 871:./ThirdParty/FatFs/Src/ff.c **** 	return 1;
 872:./ThirdParty/FatFs/Src/ff.c **** 
 873:./ThirdParty/FatFs/Src/ff.c **** #else						/* ANSI/OEM output */
 874:./ThirdParty/FatFs/Src/ff.c **** 	WCHAR wc;
 875:./ThirdParty/FatFs/Src/ff.c **** 
 876:./ThirdParty/FatFs/Src/ff.c **** 	wc = ff_uni2oem(chr, CODEPAGE);
 877:./ThirdParty/FatFs/Src/ff.c **** 	if (wc >= 0x100) {	/* Is this a DBC? */
 878:./ThirdParty/FatFs/Src/ff.c **** 		if (szb < 2) return 0;
 879:./ThirdParty/FatFs/Src/ff.c **** 		*buf++ = (char)(wc >> 8);	/* Store DBC 1st byte */
 880:./ThirdParty/FatFs/Src/ff.c **** 		*buf++ = (TCHAR)wc;			/* Store DBC 2nd byte */
 881:./ThirdParty/FatFs/Src/ff.c **** 		return 2;
 882:./ThirdParty/FatFs/Src/ff.c **** 	}
 883:./ThirdParty/FatFs/Src/ff.c **** 	if (wc == 0 || szb < 1) return 0;	/* Invalid character or buffer overflow? */
 884:./ThirdParty/FatFs/Src/ff.c **** 	*buf++ = (TCHAR)wc;					/* Store the character */
 885:./ThirdParty/FatFs/Src/ff.c **** 	return 1;
 886:./ThirdParty/FatFs/Src/ff.c **** #endif
 887:./ThirdParty/FatFs/Src/ff.c **** }
 888:./ThirdParty/FatFs/Src/ff.c **** #endif	/* FF_USE_LFN */
 889:./ThirdParty/FatFs/Src/ff.c **** 
 890:./ThirdParty/FatFs/Src/ff.c **** 
 891:./ThirdParty/FatFs/Src/ff.c **** #if FF_FS_REENTRANT
 892:./ThirdParty/FatFs/Src/ff.c **** /*-----------------------------------------------------------------------*/
 893:./ThirdParty/FatFs/Src/ff.c **** /* Request/Release grant to access the volume                            */
 894:./ThirdParty/FatFs/Src/ff.c **** /*-----------------------------------------------------------------------*/
 895:./ThirdParty/FatFs/Src/ff.c **** 
 896:./ThirdParty/FatFs/Src/ff.c **** static int lock_volume (	/* 1:Ok, 0:timeout */
 897:./ThirdParty/FatFs/Src/ff.c **** 	FATFS* fs,				/* Filesystem object to lock */
 898:./ThirdParty/FatFs/Src/ff.c **** 	int syslock				/* System lock required */
 899:./ThirdParty/FatFs/Src/ff.c **** )
 900:./ThirdParty/FatFs/Src/ff.c **** {
 901:./ThirdParty/FatFs/Src/ff.c **** 	int rv;
 902:./ThirdParty/FatFs/Src/ff.c **** 
 903:./ThirdParty/FatFs/Src/ff.c **** 
 904:./ThirdParty/FatFs/Src/ff.c **** #if FF_FS_LOCK
 905:./ThirdParty/FatFs/Src/ff.c **** 	rv = ff_mutex_take(fs->ldrv);	/* Lock the volume */
 906:./ThirdParty/FatFs/Src/ff.c **** 	if (rv && syslock) {			/* System lock reqiered? */
 907:./ThirdParty/FatFs/Src/ff.c **** 		rv = ff_mutex_take(FF_VOLUMES);	/* Lock the system */
 908:./ThirdParty/FatFs/Src/ff.c **** 		if (rv) {
 909:./ThirdParty/FatFs/Src/ff.c **** 			SysLockVolume = fs->ldrv;
 910:./ThirdParty/FatFs/Src/ff.c **** 			SysLock = 2;				/* System lock succeeded */
 911:./ThirdParty/FatFs/Src/ff.c **** 		} else {
 912:./ThirdParty/FatFs/Src/ff.c **** 			ff_mutex_give(fs->ldrv);	/* Failed system lock */
 913:./ThirdParty/FatFs/Src/ff.c **** 		}
 914:./ThirdParty/FatFs/Src/ff.c **** 	}
 915:./ThirdParty/FatFs/Src/ff.c **** #else
 916:./ThirdParty/FatFs/Src/ff.c **** 	rv = syslock ? ff_mutex_take(fs->ldrv) : ff_mutex_take(fs->ldrv);	/* Lock the volume (this is to p
 917:./ThirdParty/FatFs/Src/ff.c **** #endif
 918:./ThirdParty/FatFs/Src/ff.c **** 	return rv;
 919:./ThirdParty/FatFs/Src/ff.c **** }
 920:./ThirdParty/FatFs/Src/ff.c **** 
 921:./ThirdParty/FatFs/Src/ff.c **** 
 922:./ThirdParty/FatFs/Src/ff.c **** static void unlock_volume (
 923:./ThirdParty/FatFs/Src/ff.c **** 	FATFS* fs,		/* Filesystem object */
 924:./ThirdParty/FatFs/Src/ff.c **** 	FRESULT res		/* Result code to be returned */
 925:./ThirdParty/FatFs/Src/ff.c **** )
 926:./ThirdParty/FatFs/Src/ff.c **** {
 927:./ThirdParty/FatFs/Src/ff.c **** 	if (fs && res != FR_NOT_ENABLED && res != FR_INVALID_DRIVE && res != FR_TIMEOUT) {
ARM GAS  C:\Users\Xuleo\AppData\Local\Temp\ccTDbepL.s 			page 21


 928:./ThirdParty/FatFs/Src/ff.c **** #if FF_FS_LOCK
 929:./ThirdParty/FatFs/Src/ff.c **** 		if (SysLock == 2 && SysLockVolume == fs->ldrv) {	/* Unlock system if it has been locked by this t
 930:./ThirdParty/FatFs/Src/ff.c **** 			SysLock = 1;
 931:./ThirdParty/FatFs/Src/ff.c **** 			ff_mutex_give(FF_VOLUMES);
 932:./ThirdParty/FatFs/Src/ff.c **** 		}
 933:./ThirdParty/FatFs/Src/ff.c **** #endif
 934:./ThirdParty/FatFs/Src/ff.c **** 		ff_mutex_give(fs->ldrv);	/* Unlock the volume */
 935:./ThirdParty/FatFs/Src/ff.c **** 	}
 936:./ThirdParty/FatFs/Src/ff.c **** }
 937:./ThirdParty/FatFs/Src/ff.c **** 
 938:./ThirdParty/FatFs/Src/ff.c **** #endif
 939:./ThirdParty/FatFs/Src/ff.c **** 
 940:./ThirdParty/FatFs/Src/ff.c **** 
 941:./ThirdParty/FatFs/Src/ff.c **** 
 942:./ThirdParty/FatFs/Src/ff.c **** #if FF_FS_LOCK
 943:./ThirdParty/FatFs/Src/ff.c **** /*-----------------------------------------------------------------------*/
 944:./ThirdParty/FatFs/Src/ff.c **** /* File sharing control functions                                       */
 945:./ThirdParty/FatFs/Src/ff.c **** /*-----------------------------------------------------------------------*/
 946:./ThirdParty/FatFs/Src/ff.c **** 
 947:./ThirdParty/FatFs/Src/ff.c **** static FRESULT chk_share (	/* Check if the file can be accessed */
 948:./ThirdParty/FatFs/Src/ff.c **** 	DIR* dp,		/* Directory object pointing the file to be checked */
 949:./ThirdParty/FatFs/Src/ff.c **** 	int acc			/* Desired access type (0:Read mode open, 1:Write mode open, 2:Delete or rename) */
 950:./ThirdParty/FatFs/Src/ff.c **** )
 951:./ThirdParty/FatFs/Src/ff.c **** {
 952:./ThirdParty/FatFs/Src/ff.c **** 	UINT i, be;
 953:./ThirdParty/FatFs/Src/ff.c **** 
 954:./ThirdParty/FatFs/Src/ff.c **** 	/* Search open object table for the object */
 955:./ThirdParty/FatFs/Src/ff.c **** 	be = 0;
 956:./ThirdParty/FatFs/Src/ff.c **** 	for (i = 0; i < FF_FS_LOCK; i++) {
 957:./ThirdParty/FatFs/Src/ff.c **** 		if (Files[i].fs) {	/* Existing entry */
 958:./ThirdParty/FatFs/Src/ff.c **** 			if (Files[i].fs == dp->obj.fs &&	 	/* Check if the object matches with an open object */
 959:./ThirdParty/FatFs/Src/ff.c **** 				Files[i].clu == dp->obj.sclust &&
 960:./ThirdParty/FatFs/Src/ff.c **** 				Files[i].ofs == dp->dptr) break;
 961:./ThirdParty/FatFs/Src/ff.c **** 		} else {			/* Blank entry */
 962:./ThirdParty/FatFs/Src/ff.c **** 			be = 1;
 963:./ThirdParty/FatFs/Src/ff.c **** 		}
 964:./ThirdParty/FatFs/Src/ff.c **** 	}
 965:./ThirdParty/FatFs/Src/ff.c **** 	if (i == FF_FS_LOCK) {	/* The object has not been opened */
 966:./ThirdParty/FatFs/Src/ff.c **** 		return (!be && acc != 2) ? FR_TOO_MANY_OPEN_FILES : FR_OK;	/* Is there a blank entry for new obje
 967:./ThirdParty/FatFs/Src/ff.c **** 	}
 968:./ThirdParty/FatFs/Src/ff.c **** 
 969:./ThirdParty/FatFs/Src/ff.c **** 	/* The object was opened. Reject any open against writing file and all write mode open */
 970:./ThirdParty/FatFs/Src/ff.c **** 	return (acc != 0 || Files[i].ctr == 0x100) ? FR_LOCKED : FR_OK;
 971:./ThirdParty/FatFs/Src/ff.c **** }
 972:./ThirdParty/FatFs/Src/ff.c **** 
 973:./ThirdParty/FatFs/Src/ff.c **** 
 974:./ThirdParty/FatFs/Src/ff.c **** static int enq_share (void)	/* Check if an entry is available for a new object */
 975:./ThirdParty/FatFs/Src/ff.c **** {
 976:./ThirdParty/FatFs/Src/ff.c **** 	UINT i;
 977:./ThirdParty/FatFs/Src/ff.c **** 
 978:./ThirdParty/FatFs/Src/ff.c **** 	for (i = 0; i < FF_FS_LOCK && Files[i].fs; i++) ;	/* Find a free entry */
 979:./ThirdParty/FatFs/Src/ff.c **** 	return (i == FF_FS_LOCK) ? 0 : 1;
 980:./ThirdParty/FatFs/Src/ff.c **** }
 981:./ThirdParty/FatFs/Src/ff.c **** 
 982:./ThirdParty/FatFs/Src/ff.c **** 
 983:./ThirdParty/FatFs/Src/ff.c **** static UINT inc_share (	/* Increment object open counter and returns its index (0:Internal error) *
 984:./ThirdParty/FatFs/Src/ff.c **** 	DIR* dp,	/* Directory object pointing the file to register or increment */
ARM GAS  C:\Users\Xuleo\AppData\Local\Temp\ccTDbepL.s 			page 22


 985:./ThirdParty/FatFs/Src/ff.c **** 	int acc		/* Desired access (0:Read, 1:Write, 2:Delete/Rename) */
 986:./ThirdParty/FatFs/Src/ff.c **** )
 987:./ThirdParty/FatFs/Src/ff.c **** {
 988:./ThirdParty/FatFs/Src/ff.c **** 	UINT i;
 989:./ThirdParty/FatFs/Src/ff.c **** 
 990:./ThirdParty/FatFs/Src/ff.c **** 
 991:./ThirdParty/FatFs/Src/ff.c **** 	for (i = 0; i < FF_FS_LOCK; i++) {	/* Find the object */
 992:./ThirdParty/FatFs/Src/ff.c **** 		if (Files[i].fs == dp->obj.fs
 993:./ThirdParty/FatFs/Src/ff.c **** 		 && Files[i].clu == dp->obj.sclust
 994:./ThirdParty/FatFs/Src/ff.c **** 		 && Files[i].ofs == dp->dptr) break;
 995:./ThirdParty/FatFs/Src/ff.c **** 	}
 996:./ThirdParty/FatFs/Src/ff.c **** 
 997:./ThirdParty/FatFs/Src/ff.c **** 	if (i == FF_FS_LOCK) {			/* Not opened. Register it as new. */
 998:./ThirdParty/FatFs/Src/ff.c **** 		for (i = 0; i < FF_FS_LOCK && Files[i].fs; i++) ;	/* Find a free entry */
 999:./ThirdParty/FatFs/Src/ff.c **** 		if (i == FF_FS_LOCK) return 0;	/* No free entry to register (int err) */
1000:./ThirdParty/FatFs/Src/ff.c **** 		Files[i].fs = dp->obj.fs;
1001:./ThirdParty/FatFs/Src/ff.c **** 		Files[i].clu = dp->obj.sclust;
1002:./ThirdParty/FatFs/Src/ff.c **** 		Files[i].ofs = dp->dptr;
1003:./ThirdParty/FatFs/Src/ff.c **** 		Files[i].ctr = 0;
1004:./ThirdParty/FatFs/Src/ff.c **** 	}
1005:./ThirdParty/FatFs/Src/ff.c **** 
1006:./ThirdParty/FatFs/Src/ff.c **** 	if (acc >= 1 && Files[i].ctr) return 0;	/* Access violation (int err) */
1007:./ThirdParty/FatFs/Src/ff.c **** 
1008:./ThirdParty/FatFs/Src/ff.c **** 	Files[i].ctr = acc ? 0x100 : Files[i].ctr + 1;	/* Set semaphore value */
1009:./ThirdParty/FatFs/Src/ff.c **** 
1010:./ThirdParty/FatFs/Src/ff.c **** 	return i + 1;	/* Index number origin from 1 */
1011:./ThirdParty/FatFs/Src/ff.c **** }
1012:./ThirdParty/FatFs/Src/ff.c **** 
1013:./ThirdParty/FatFs/Src/ff.c **** 
1014:./ThirdParty/FatFs/Src/ff.c **** static FRESULT dec_share (	/* Decrement object open counter */
1015:./ThirdParty/FatFs/Src/ff.c **** 	UINT i			/* Semaphore index (1..) */
1016:./ThirdParty/FatFs/Src/ff.c **** )
1017:./ThirdParty/FatFs/Src/ff.c **** {
1018:./ThirdParty/FatFs/Src/ff.c **** 	UINT n;
1019:./ThirdParty/FatFs/Src/ff.c **** 	FRESULT res;
1020:./ThirdParty/FatFs/Src/ff.c **** 
1021:./ThirdParty/FatFs/Src/ff.c **** 
1022:./ThirdParty/FatFs/Src/ff.c **** 	if (--i < FF_FS_LOCK) {	/* Index number origin from 0 */
1023:./ThirdParty/FatFs/Src/ff.c **** 		n = Files[i].ctr;
1024:./ThirdParty/FatFs/Src/ff.c **** 		if (n == 0x100) n = 0;	/* If write mode open, delete the object semaphore */
1025:./ThirdParty/FatFs/Src/ff.c **** 		if (n > 0) n--;			/* Decrement read mode open count */
1026:./ThirdParty/FatFs/Src/ff.c **** 		Files[i].ctr = n;
1027:./ThirdParty/FatFs/Src/ff.c **** 		if (n == 0) {			/* Delete the object semaphore if open count becomes zero */
1028:./ThirdParty/FatFs/Src/ff.c **** 			Files[i].fs = 0;	/* Free the entry <<<If this memory write operation is not in atomic, FF_FS_REE
1029:./ThirdParty/FatFs/Src/ff.c **** 		}
1030:./ThirdParty/FatFs/Src/ff.c **** 		res = FR_OK;
1031:./ThirdParty/FatFs/Src/ff.c **** 	} else {
1032:./ThirdParty/FatFs/Src/ff.c **** 		res = FR_INT_ERR;		/* Invalid index number */
1033:./ThirdParty/FatFs/Src/ff.c **** 	}
1034:./ThirdParty/FatFs/Src/ff.c **** 	return res;
1035:./ThirdParty/FatFs/Src/ff.c **** }
1036:./ThirdParty/FatFs/Src/ff.c **** 
1037:./ThirdParty/FatFs/Src/ff.c **** 
1038:./ThirdParty/FatFs/Src/ff.c **** static void clear_share (	/* Clear all lock entries of the volume */
1039:./ThirdParty/FatFs/Src/ff.c **** 	FATFS* fs
1040:./ThirdParty/FatFs/Src/ff.c **** )
1041:./ThirdParty/FatFs/Src/ff.c **** {
ARM GAS  C:\Users\Xuleo\AppData\Local\Temp\ccTDbepL.s 			page 23


1042:./ThirdParty/FatFs/Src/ff.c **** 	UINT i;
1043:./ThirdParty/FatFs/Src/ff.c **** 
1044:./ThirdParty/FatFs/Src/ff.c **** 	for (i = 0; i < FF_FS_LOCK; i++) {
1045:./ThirdParty/FatFs/Src/ff.c **** 		if (Files[i].fs == fs) Files[i].fs = 0;
1046:./ThirdParty/FatFs/Src/ff.c **** 	}
1047:./ThirdParty/FatFs/Src/ff.c **** }
1048:./ThirdParty/FatFs/Src/ff.c **** 
1049:./ThirdParty/FatFs/Src/ff.c **** #endif	/* FF_FS_LOCK */
1050:./ThirdParty/FatFs/Src/ff.c **** 
1051:./ThirdParty/FatFs/Src/ff.c **** 
1052:./ThirdParty/FatFs/Src/ff.c **** 
1053:./ThirdParty/FatFs/Src/ff.c **** /*-----------------------------------------------------------------------*/
1054:./ThirdParty/FatFs/Src/ff.c **** /* Move/Flush disk access window in the filesystem object                */
1055:./ThirdParty/FatFs/Src/ff.c **** /*-----------------------------------------------------------------------*/
1056:./ThirdParty/FatFs/Src/ff.c **** #if !FF_FS_READONLY
1057:./ThirdParty/FatFs/Src/ff.c **** static FRESULT sync_window (	/* Returns FR_OK or FR_DISK_ERR */
1058:./ThirdParty/FatFs/Src/ff.c **** 	FATFS* fs			/* Filesystem object */
1059:./ThirdParty/FatFs/Src/ff.c **** )
1060:./ThirdParty/FatFs/Src/ff.c **** {
1061:./ThirdParty/FatFs/Src/ff.c **** 	FRESULT res = FR_OK;
1062:./ThirdParty/FatFs/Src/ff.c **** 
1063:./ThirdParty/FatFs/Src/ff.c **** 
1064:./ThirdParty/FatFs/Src/ff.c **** 	if (fs->wflag) {	/* Is the disk access window dirty? */
1065:./ThirdParty/FatFs/Src/ff.c **** 		if (disk_write(fs->pdrv, fs->win, fs->winsect, 1) == RES_OK) {	/* Write it back into the volume *
1066:./ThirdParty/FatFs/Src/ff.c **** 			fs->wflag = 0;	/* Clear window dirty flag */
1067:./ThirdParty/FatFs/Src/ff.c **** 			if (fs->winsect - fs->fatbase < fs->fsize) {	/* Is it in the 1st FAT? */
1068:./ThirdParty/FatFs/Src/ff.c **** 				if (fs->n_fats == 2) disk_write(fs->pdrv, fs->win, fs->winsect + fs->fsize, 1);	/* Reflect it t
1069:./ThirdParty/FatFs/Src/ff.c **** 			}
1070:./ThirdParty/FatFs/Src/ff.c **** 		} else {
1071:./ThirdParty/FatFs/Src/ff.c **** 			res = FR_DISK_ERR;
1072:./ThirdParty/FatFs/Src/ff.c **** 		}
1073:./ThirdParty/FatFs/Src/ff.c **** 	}
1074:./ThirdParty/FatFs/Src/ff.c **** 	return res;
1075:./ThirdParty/FatFs/Src/ff.c **** }
1076:./ThirdParty/FatFs/Src/ff.c **** #endif
1077:./ThirdParty/FatFs/Src/ff.c **** 
1078:./ThirdParty/FatFs/Src/ff.c **** 
1079:./ThirdParty/FatFs/Src/ff.c **** static FRESULT move_window (	/* Returns FR_OK or FR_DISK_ERR */
1080:./ThirdParty/FatFs/Src/ff.c **** 	FATFS* fs,		/* Filesystem object */
1081:./ThirdParty/FatFs/Src/ff.c **** 	LBA_t sect		/* Sector LBA to make appearance in the fs->win[] */
1082:./ThirdParty/FatFs/Src/ff.c **** )
1083:./ThirdParty/FatFs/Src/ff.c **** {
1084:./ThirdParty/FatFs/Src/ff.c **** 	FRESULT res = FR_OK;
1085:./ThirdParty/FatFs/Src/ff.c **** 
1086:./ThirdParty/FatFs/Src/ff.c **** 
1087:./ThirdParty/FatFs/Src/ff.c **** 	if (sect != fs->winsect) {	/* Window offset changed? */
1088:./ThirdParty/FatFs/Src/ff.c **** #if !FF_FS_READONLY
1089:./ThirdParty/FatFs/Src/ff.c **** 		res = sync_window(fs);		/* Flush the window */
1090:./ThirdParty/FatFs/Src/ff.c **** #endif
1091:./ThirdParty/FatFs/Src/ff.c **** 		if (res == FR_OK) {			/* Fill sector window with new data */
1092:./ThirdParty/FatFs/Src/ff.c **** 			if (disk_read(fs->pdrv, fs->win, sect, 1) != RES_OK) {
1093:./ThirdParty/FatFs/Src/ff.c **** 				sect = (LBA_t)0 - 1;	/* Invalidate window if read data is not valid */
1094:./ThirdParty/FatFs/Src/ff.c **** 				res = FR_DISK_ERR;
1095:./ThirdParty/FatFs/Src/ff.c **** 			}
1096:./ThirdParty/FatFs/Src/ff.c **** 			fs->winsect = sect;
1097:./ThirdParty/FatFs/Src/ff.c **** 		}
1098:./ThirdParty/FatFs/Src/ff.c **** 	}
ARM GAS  C:\Users\Xuleo\AppData\Local\Temp\ccTDbepL.s 			page 24


1099:./ThirdParty/FatFs/Src/ff.c **** 	return res;
1100:./ThirdParty/FatFs/Src/ff.c **** }
1101:./ThirdParty/FatFs/Src/ff.c **** 
1102:./ThirdParty/FatFs/Src/ff.c **** 
1103:./ThirdParty/FatFs/Src/ff.c **** 
1104:./ThirdParty/FatFs/Src/ff.c **** 
1105:./ThirdParty/FatFs/Src/ff.c **** #if !FF_FS_READONLY
1106:./ThirdParty/FatFs/Src/ff.c **** /*-----------------------------------------------------------------------*/
1107:./ThirdParty/FatFs/Src/ff.c **** /* Synchronize filesystem and data on the storage                        */
1108:./ThirdParty/FatFs/Src/ff.c **** /*-----------------------------------------------------------------------*/
1109:./ThirdParty/FatFs/Src/ff.c **** 
1110:./ThirdParty/FatFs/Src/ff.c **** static FRESULT sync_fs (	/* Returns FR_OK or FR_DISK_ERR */
1111:./ThirdParty/FatFs/Src/ff.c **** 	FATFS* fs		/* Filesystem object */
1112:./ThirdParty/FatFs/Src/ff.c **** )
1113:./ThirdParty/FatFs/Src/ff.c **** {
1114:./ThirdParty/FatFs/Src/ff.c **** 	FRESULT res;
1115:./ThirdParty/FatFs/Src/ff.c **** 
1116:./ThirdParty/FatFs/Src/ff.c **** 
1117:./ThirdParty/FatFs/Src/ff.c **** 	res = sync_window(fs);
1118:./ThirdParty/FatFs/Src/ff.c **** 	if (res == FR_OK) {
1119:./ThirdParty/FatFs/Src/ff.c **** 		if (fs->fsi_flag == 1) {	/* Allocation changed? */
1120:./ThirdParty/FatFs/Src/ff.c **** 			fs->fsi_flag = 0;
1121:./ThirdParty/FatFs/Src/ff.c **** 			if (fs->fs_type == FS_FAT32) {	/* FAT32: Update FSInfo sector */
1122:./ThirdParty/FatFs/Src/ff.c **** 				/* Create FSInfo structure */
1123:./ThirdParty/FatFs/Src/ff.c **** 				memset(fs->win, 0, sizeof fs->win);
1124:./ThirdParty/FatFs/Src/ff.c **** 				st_32(fs->win + FSI_LeadSig, 0x41615252);		/* Leading signature */
1125:./ThirdParty/FatFs/Src/ff.c **** 				st_32(fs->win + FSI_StrucSig, 0x61417272);		/* Structure signature */
1126:./ThirdParty/FatFs/Src/ff.c **** 				st_32(fs->win + FSI_Free_Count, fs->free_clst);	/* Number of free clusters */
1127:./ThirdParty/FatFs/Src/ff.c **** 				st_32(fs->win + FSI_Nxt_Free, fs->last_clst);	/* Last allocated culuster */
1128:./ThirdParty/FatFs/Src/ff.c **** 				st_32(fs->win + FSI_TrailSig, 0xAA550000);		/* Trailing signature */
1129:./ThirdParty/FatFs/Src/ff.c **** 				disk_write(fs->pdrv, fs->win, fs->winsect = fs->volbase + 1, 1);	/* Write it into the FSInfo se
1130:./ThirdParty/FatFs/Src/ff.c **** 			}
1131:./ThirdParty/FatFs/Src/ff.c **** #if FF_FS_EXFAT
1132:./ThirdParty/FatFs/Src/ff.c **** 			else if (fs->fs_type == FS_EXFAT) {	/* exFAT: Update PercInUse field in BPB */
1133:./ThirdParty/FatFs/Src/ff.c **** 				if (disk_read(fs->pdrv, fs->win, fs->winsect = fs->volbase, 1) == RES_OK) {	/* Load VBR */
1134:./ThirdParty/FatFs/Src/ff.c **** 					BYTE perc_inuse = (fs->free_clst <= fs->n_fatent - 2) ? (BYTE)((QWORD)(fs->n_fatent - 2 - fs->
1135:./ThirdParty/FatFs/Src/ff.c **** 
1136:./ThirdParty/FatFs/Src/ff.c **** 					if (fs->win[BPB_PercInUseEx] != perc_inuse) {	/* Write it back into VBR if needed */
1137:./ThirdParty/FatFs/Src/ff.c **** 						fs->win[BPB_PercInUseEx] = perc_inuse;
1138:./ThirdParty/FatFs/Src/ff.c **** 						disk_write(fs->pdrv, fs->win, fs->winsect, 1);
1139:./ThirdParty/FatFs/Src/ff.c **** 					}
1140:./ThirdParty/FatFs/Src/ff.c **** 				}
1141:./ThirdParty/FatFs/Src/ff.c **** 			}
1142:./ThirdParty/FatFs/Src/ff.c **** #endif
1143:./ThirdParty/FatFs/Src/ff.c **** 		}
1144:./ThirdParty/FatFs/Src/ff.c **** 		/* Make sure that no pending write process in the lower layer */
1145:./ThirdParty/FatFs/Src/ff.c **** 		if (disk_ioctl(fs->pdrv, CTRL_SYNC, 0) != RES_OK) res = FR_DISK_ERR;
1146:./ThirdParty/FatFs/Src/ff.c **** 	}
1147:./ThirdParty/FatFs/Src/ff.c **** 
1148:./ThirdParty/FatFs/Src/ff.c **** 	return res;
1149:./ThirdParty/FatFs/Src/ff.c **** }
1150:./ThirdParty/FatFs/Src/ff.c **** 
1151:./ThirdParty/FatFs/Src/ff.c **** #endif
1152:./ThirdParty/FatFs/Src/ff.c **** 
1153:./ThirdParty/FatFs/Src/ff.c **** 
1154:./ThirdParty/FatFs/Src/ff.c **** 
1155:./ThirdParty/FatFs/Src/ff.c **** /*-----------------------------------------------------------------------*/
ARM GAS  C:\Users\Xuleo\AppData\Local\Temp\ccTDbepL.s 			page 25


1156:./ThirdParty/FatFs/Src/ff.c **** /* Get physical sector number from cluster number                        */
1157:./ThirdParty/FatFs/Src/ff.c **** /*-----------------------------------------------------------------------*/
1158:./ThirdParty/FatFs/Src/ff.c **** 
1159:./ThirdParty/FatFs/Src/ff.c **** static LBA_t clst2sect (	/* !=0:Sector number, 0:Failed (invalid cluster#) */
1160:./ThirdParty/FatFs/Src/ff.c **** 	FATFS* fs,		/* Filesystem object */
1161:./ThirdParty/FatFs/Src/ff.c **** 	DWORD clst		/* Cluster# to be converted */
1162:./ThirdParty/FatFs/Src/ff.c **** )
1163:./ThirdParty/FatFs/Src/ff.c **** {
 227              		.loc 1 1163 1 is_stmt 1 view -0
 228              		.cfi_startproc
 229              		@ args = 0, pretend = 0, frame = 0
 230              		@ frame_needed = 0, uses_anonymous_args = 0
 231              		@ link register save eliminated.
1164:./ThirdParty/FatFs/Src/ff.c **** 	clst -= 2;		/* Cluster number is origin from 2 */
 232              		.loc 1 1164 2 view .LVU59
 233              		.loc 1 1164 7 is_stmt 0 view .LVU60
 234 0000 0239     		subs	r1, r1, #2
 235              	.LVL22:
1165:./ThirdParty/FatFs/Src/ff.c **** 	if (clst >= fs->n_fatent - 2) return 0;		/* Is it invalid cluster number? */
 236              		.loc 1 1165 2 is_stmt 1 view .LVU61
 237              		.loc 1 1165 16 is_stmt 0 view .LVU62
 238 0002 4369     		ldr	r3, [r0, #20]
 239              		.loc 1 1165 27 view .LVU63
 240 0004 023B     		subs	r3, r3, #2
 241              		.loc 1 1165 5 view .LVU64
 242 0006 8B42     		cmp	r3, r1
 243 0008 04D9     		bls	.L9
1166:./ThirdParty/FatFs/Src/ff.c **** 	return fs->database + (LBA_t)fs->csize * clst;	/* Start sector number of the cluster */
 244              		.loc 1 1166 2 is_stmt 1 view .LVU65
 245              		.loc 1 1166 11 is_stmt 0 view .LVU66
 246 000a C36A     		ldr	r3, [r0, #44]
 247              		.loc 1 1166 33 view .LVU67
 248 000c 4289     		ldrh	r2, [r0, #10]
 249              		.loc 1 1166 22 view .LVU68
 250 000e 01FB0230 		mla	r0, r1, r2, r3
 251              	.LVL23:
 252              		.loc 1 1166 22 view .LVU69
 253 0012 7047     		bx	lr
 254              	.LVL24:
 255              	.L9:
1165:./ThirdParty/FatFs/Src/ff.c **** 	if (clst >= fs->n_fatent - 2) return 0;		/* Is it invalid cluster number? */
 256              		.loc 1 1165 39 discriminator 1 view .LVU70
 257 0014 0020     		movs	r0, #0
 258              	.LVL25:
1167:./ThirdParty/FatFs/Src/ff.c **** }
 259              		.loc 1 1167 1 view .LVU71
 260 0016 7047     		bx	lr
 261              		.cfi_endproc
 262              	.LFE9:
 264              		.section	.text.ld_clust,"ax",%progbits
 265              		.align	1
 266              		.syntax unified
 267              		.thumb
 268              		.thumb_func
 270              	ld_clust:
 271              	.LVL26:
 272              	.LFB18:
ARM GAS  C:\Users\Xuleo\AppData\Local\Temp\ccTDbepL.s 			page 26


1168:./ThirdParty/FatFs/Src/ff.c **** 
1169:./ThirdParty/FatFs/Src/ff.c **** 
1170:./ThirdParty/FatFs/Src/ff.c **** 
1171:./ThirdParty/FatFs/Src/ff.c **** 
1172:./ThirdParty/FatFs/Src/ff.c **** /*-----------------------------------------------------------------------*/
1173:./ThirdParty/FatFs/Src/ff.c **** /* FAT access - Read value of an FAT entry                               */
1174:./ThirdParty/FatFs/Src/ff.c **** /*-----------------------------------------------------------------------*/
1175:./ThirdParty/FatFs/Src/ff.c **** 
1176:./ThirdParty/FatFs/Src/ff.c **** static DWORD get_fat (		/* 0xFFFFFFFF:Disk error, 1:Internal error, 2..0x7FFFFFFF:Cluster status */
1177:./ThirdParty/FatFs/Src/ff.c **** 	FFOBJID* obj,	/* Corresponding object */
1178:./ThirdParty/FatFs/Src/ff.c **** 	DWORD clst		/* Cluster number to get the value */
1179:./ThirdParty/FatFs/Src/ff.c **** )
1180:./ThirdParty/FatFs/Src/ff.c **** {
1181:./ThirdParty/FatFs/Src/ff.c **** 	UINT wc, bc;
1182:./ThirdParty/FatFs/Src/ff.c **** 	DWORD val;
1183:./ThirdParty/FatFs/Src/ff.c **** 	FATFS *fs = obj->fs;
1184:./ThirdParty/FatFs/Src/ff.c **** 
1185:./ThirdParty/FatFs/Src/ff.c **** 
1186:./ThirdParty/FatFs/Src/ff.c **** 	if (clst < 2 || clst >= fs->n_fatent) {	/* Check if in valid range */
1187:./ThirdParty/FatFs/Src/ff.c **** 		val = 1;	/* Internal error */
1188:./ThirdParty/FatFs/Src/ff.c **** 
1189:./ThirdParty/FatFs/Src/ff.c **** 	} else {
1190:./ThirdParty/FatFs/Src/ff.c **** 		val = 0xFFFFFFFF;	/* Default value falls on disk error */
1191:./ThirdParty/FatFs/Src/ff.c **** 
1192:./ThirdParty/FatFs/Src/ff.c **** 		switch (fs->fs_type) {
1193:./ThirdParty/FatFs/Src/ff.c **** 		case FS_FAT12 :
1194:./ThirdParty/FatFs/Src/ff.c **** 			bc = (UINT)clst; bc += bc / 2;
1195:./ThirdParty/FatFs/Src/ff.c **** 			if (move_window(fs, fs->fatbase + (bc / SS(fs))) != FR_OK) break;
1196:./ThirdParty/FatFs/Src/ff.c **** 			wc = fs->win[bc++ % SS(fs)];		/* Get 1st byte of the entry */
1197:./ThirdParty/FatFs/Src/ff.c **** 			if (move_window(fs, fs->fatbase + (bc / SS(fs))) != FR_OK) break;
1198:./ThirdParty/FatFs/Src/ff.c **** 			wc |= fs->win[bc % SS(fs)] << 8;	/* Merge 2nd byte of the entry */
1199:./ThirdParty/FatFs/Src/ff.c **** 			val = (clst & 1) ? (wc >> 4) : (wc & 0xFFF);	/* Adjust bit position */
1200:./ThirdParty/FatFs/Src/ff.c **** 			break;
1201:./ThirdParty/FatFs/Src/ff.c **** 
1202:./ThirdParty/FatFs/Src/ff.c **** 		case FS_FAT16 :
1203:./ThirdParty/FatFs/Src/ff.c **** 			if (move_window(fs, fs->fatbase + (clst / (SS(fs) / 2))) != FR_OK) break;
1204:./ThirdParty/FatFs/Src/ff.c **** 			val = ld_16(fs->win + clst * 2 % SS(fs));		/* Simple WORD array */
1205:./ThirdParty/FatFs/Src/ff.c **** 			break;
1206:./ThirdParty/FatFs/Src/ff.c **** 
1207:./ThirdParty/FatFs/Src/ff.c **** 		case FS_FAT32 :
1208:./ThirdParty/FatFs/Src/ff.c **** 			if (move_window(fs, fs->fatbase + (clst / (SS(fs) / 4))) != FR_OK) break;
1209:./ThirdParty/FatFs/Src/ff.c **** 			val = ld_32(fs->win + clst * 4 % SS(fs)) & 0x0FFFFFFF;	/* Simple DWORD array but mask out upper 
1210:./ThirdParty/FatFs/Src/ff.c **** 			break;
1211:./ThirdParty/FatFs/Src/ff.c **** #if FF_FS_EXFAT
1212:./ThirdParty/FatFs/Src/ff.c **** 		case FS_EXFAT :
1213:./ThirdParty/FatFs/Src/ff.c **** 			if ((obj->objsize != 0 && obj->sclust != 0) || obj->stat == 0) {	/* Object except root dir must 
1214:./ThirdParty/FatFs/Src/ff.c **** 				DWORD cofs = clst - obj->sclust;	/* Offset from start cluster */
1215:./ThirdParty/FatFs/Src/ff.c **** 				DWORD clen = (DWORD)((LBA_t)((obj->objsize - 1) / SS(fs)) / fs->csize);	/* Number of clusters -
1216:./ThirdParty/FatFs/Src/ff.c **** 
1217:./ThirdParty/FatFs/Src/ff.c **** 				if (obj->stat == 2 && cofs <= clen) {	/* Is it a contiguous chain? */
1218:./ThirdParty/FatFs/Src/ff.c **** 					val = (cofs == clen) ? 0x7FFFFFFF : clst + 1;	/* No data on the FAT, generate the value */
1219:./ThirdParty/FatFs/Src/ff.c **** 					break;
1220:./ThirdParty/FatFs/Src/ff.c **** 				}
1221:./ThirdParty/FatFs/Src/ff.c **** 				if (obj->stat == 3 && cofs < obj->n_cont) {	/* Is it in the 1st fragment? */
1222:./ThirdParty/FatFs/Src/ff.c **** 					val = clst + 1; 	/* Generate the value */
1223:./ThirdParty/FatFs/Src/ff.c **** 					break;
1224:./ThirdParty/FatFs/Src/ff.c **** 				}
ARM GAS  C:\Users\Xuleo\AppData\Local\Temp\ccTDbepL.s 			page 27


1225:./ThirdParty/FatFs/Src/ff.c **** 				if (obj->stat != 2) {	/* Get value from FAT if FAT chain is valid */
1226:./ThirdParty/FatFs/Src/ff.c **** 					if (obj->n_frag != 0) {	/* Is it on the growing edge? */
1227:./ThirdParty/FatFs/Src/ff.c **** 						val = 0x7FFFFFFF;	/* Generate EOC */
1228:./ThirdParty/FatFs/Src/ff.c **** 					} else {
1229:./ThirdParty/FatFs/Src/ff.c **** 						if (move_window(fs, fs->fatbase + (clst / (SS(fs) / 4))) != FR_OK) break;
1230:./ThirdParty/FatFs/Src/ff.c **** 						val = ld_32(fs->win + clst * 4 % SS(fs)) & 0x7FFFFFFF;
1231:./ThirdParty/FatFs/Src/ff.c **** 					}
1232:./ThirdParty/FatFs/Src/ff.c **** 					break;
1233:./ThirdParty/FatFs/Src/ff.c **** 				}
1234:./ThirdParty/FatFs/Src/ff.c **** 			}
1235:./ThirdParty/FatFs/Src/ff.c **** 			val = 1;	/* Internal error */
1236:./ThirdParty/FatFs/Src/ff.c **** 			break;
1237:./ThirdParty/FatFs/Src/ff.c **** #endif
1238:./ThirdParty/FatFs/Src/ff.c **** 		default:
1239:./ThirdParty/FatFs/Src/ff.c **** 			val = 1;	/* Internal error */
1240:./ThirdParty/FatFs/Src/ff.c **** 		}
1241:./ThirdParty/FatFs/Src/ff.c **** 	}
1242:./ThirdParty/FatFs/Src/ff.c **** 
1243:./ThirdParty/FatFs/Src/ff.c **** 	return val;
1244:./ThirdParty/FatFs/Src/ff.c **** }
1245:./ThirdParty/FatFs/Src/ff.c **** 
1246:./ThirdParty/FatFs/Src/ff.c **** 
1247:./ThirdParty/FatFs/Src/ff.c **** 
1248:./ThirdParty/FatFs/Src/ff.c **** 
1249:./ThirdParty/FatFs/Src/ff.c **** #if !FF_FS_READONLY
1250:./ThirdParty/FatFs/Src/ff.c **** /*-----------------------------------------------------------------------*/
1251:./ThirdParty/FatFs/Src/ff.c **** /* FAT access - Change value of an FAT entry                             */
1252:./ThirdParty/FatFs/Src/ff.c **** /*-----------------------------------------------------------------------*/
1253:./ThirdParty/FatFs/Src/ff.c **** 
1254:./ThirdParty/FatFs/Src/ff.c **** static FRESULT put_fat (	/* FR_OK(0):succeeded, !=0:error */
1255:./ThirdParty/FatFs/Src/ff.c **** 	FATFS* fs,		/* Corresponding filesystem object */
1256:./ThirdParty/FatFs/Src/ff.c **** 	DWORD clst,		/* FAT index number (cluster number) to be changed */
1257:./ThirdParty/FatFs/Src/ff.c **** 	DWORD val		/* New value to be set to the entry */
1258:./ThirdParty/FatFs/Src/ff.c **** )
1259:./ThirdParty/FatFs/Src/ff.c **** {
1260:./ThirdParty/FatFs/Src/ff.c **** 	UINT bc;
1261:./ThirdParty/FatFs/Src/ff.c **** 	BYTE *p;
1262:./ThirdParty/FatFs/Src/ff.c **** 	FRESULT res = FR_INT_ERR;
1263:./ThirdParty/FatFs/Src/ff.c **** 
1264:./ThirdParty/FatFs/Src/ff.c **** 
1265:./ThirdParty/FatFs/Src/ff.c **** 	if (clst >= 2 && clst < fs->n_fatent) {	/* Check if in valid range */
1266:./ThirdParty/FatFs/Src/ff.c **** 		switch (fs->fs_type) {
1267:./ThirdParty/FatFs/Src/ff.c **** 		case FS_FAT12:
1268:./ThirdParty/FatFs/Src/ff.c **** 			bc = (UINT)clst; bc += bc / 2;	/* bc: byte offset of the entry */
1269:./ThirdParty/FatFs/Src/ff.c **** 			res = move_window(fs, fs->fatbase + (bc / SS(fs)));
1270:./ThirdParty/FatFs/Src/ff.c **** 			if (res != FR_OK) break;
1271:./ThirdParty/FatFs/Src/ff.c **** 			p = fs->win + bc++ % SS(fs);
1272:./ThirdParty/FatFs/Src/ff.c **** 			*p = (clst & 1) ? ((*p & 0x0F) | ((BYTE)val << 4)) : (BYTE)val;	/* Update 1st byte */
1273:./ThirdParty/FatFs/Src/ff.c **** 			fs->wflag = 1;
1274:./ThirdParty/FatFs/Src/ff.c **** 			res = move_window(fs, fs->fatbase + (bc / SS(fs)));
1275:./ThirdParty/FatFs/Src/ff.c **** 			if (res != FR_OK) break;
1276:./ThirdParty/FatFs/Src/ff.c **** 			p = fs->win + bc % SS(fs);
1277:./ThirdParty/FatFs/Src/ff.c **** 			*p = (clst & 1) ? (BYTE)(val >> 4) : ((*p & 0xF0) | ((BYTE)(val >> 8) & 0x0F));	/* Update 2nd by
1278:./ThirdParty/FatFs/Src/ff.c **** 			fs->wflag = 1;
1279:./ThirdParty/FatFs/Src/ff.c **** 			break;
1280:./ThirdParty/FatFs/Src/ff.c **** 
1281:./ThirdParty/FatFs/Src/ff.c **** 		case FS_FAT16:
ARM GAS  C:\Users\Xuleo\AppData\Local\Temp\ccTDbepL.s 			page 28


1282:./ThirdParty/FatFs/Src/ff.c **** 			res = move_window(fs, fs->fatbase + (clst / (SS(fs) / 2)));
1283:./ThirdParty/FatFs/Src/ff.c **** 			if (res != FR_OK) break;
1284:./ThirdParty/FatFs/Src/ff.c **** 			st_16(fs->win + clst * 2 % SS(fs), (WORD)val);	/* Simple WORD array */
1285:./ThirdParty/FatFs/Src/ff.c **** 			fs->wflag = 1;
1286:./ThirdParty/FatFs/Src/ff.c **** 			break;
1287:./ThirdParty/FatFs/Src/ff.c **** 
1288:./ThirdParty/FatFs/Src/ff.c **** 		case FS_FAT32:
1289:./ThirdParty/FatFs/Src/ff.c **** #if FF_FS_EXFAT
1290:./ThirdParty/FatFs/Src/ff.c **** 		case FS_EXFAT:
1291:./ThirdParty/FatFs/Src/ff.c **** #endif
1292:./ThirdParty/FatFs/Src/ff.c **** 			res = move_window(fs, fs->fatbase + (clst / (SS(fs) / 4)));
1293:./ThirdParty/FatFs/Src/ff.c **** 			if (res != FR_OK) break;
1294:./ThirdParty/FatFs/Src/ff.c **** 			if (!FF_FS_EXFAT || fs->fs_type != FS_EXFAT) {
1295:./ThirdParty/FatFs/Src/ff.c **** 				val = (val & 0x0FFFFFFF) | (ld_32(fs->win + clst * 4 % SS(fs)) & 0xF0000000);
1296:./ThirdParty/FatFs/Src/ff.c **** 			}
1297:./ThirdParty/FatFs/Src/ff.c **** 			st_32(fs->win + clst * 4 % SS(fs), val);
1298:./ThirdParty/FatFs/Src/ff.c **** 			fs->wflag = 1;
1299:./ThirdParty/FatFs/Src/ff.c **** 			break;
1300:./ThirdParty/FatFs/Src/ff.c **** 		}
1301:./ThirdParty/FatFs/Src/ff.c **** 	}
1302:./ThirdParty/FatFs/Src/ff.c **** 	return res;
1303:./ThirdParty/FatFs/Src/ff.c **** }
1304:./ThirdParty/FatFs/Src/ff.c **** 
1305:./ThirdParty/FatFs/Src/ff.c **** #endif /* !FF_FS_READONLY */
1306:./ThirdParty/FatFs/Src/ff.c **** 
1307:./ThirdParty/FatFs/Src/ff.c **** 
1308:./ThirdParty/FatFs/Src/ff.c **** 
1309:./ThirdParty/FatFs/Src/ff.c **** 
1310:./ThirdParty/FatFs/Src/ff.c **** #if FF_FS_EXFAT && !FF_FS_READONLY
1311:./ThirdParty/FatFs/Src/ff.c **** /*-----------------------------------------------------------------------*/
1312:./ThirdParty/FatFs/Src/ff.c **** /* exFAT: Accessing FAT and Allocation Bitmap                            */
1313:./ThirdParty/FatFs/Src/ff.c **** /*-----------------------------------------------------------------------*/
1314:./ThirdParty/FatFs/Src/ff.c **** 
1315:./ThirdParty/FatFs/Src/ff.c **** /*--------------------------------------*/
1316:./ThirdParty/FatFs/Src/ff.c **** /* Find a contiguous free cluster block */
1317:./ThirdParty/FatFs/Src/ff.c **** /*--------------------------------------*/
1318:./ThirdParty/FatFs/Src/ff.c **** 
1319:./ThirdParty/FatFs/Src/ff.c **** static DWORD find_bitmap (	/* 0:Not found, 2..:Cluster block found, 0xFFFFFFFF:Disk error */
1320:./ThirdParty/FatFs/Src/ff.c **** 	FATFS* fs,	/* Filesystem object */
1321:./ThirdParty/FatFs/Src/ff.c **** 	DWORD clst,	/* Cluster number to scan from */
1322:./ThirdParty/FatFs/Src/ff.c **** 	DWORD ncl	/* Number of contiguous clusters to find (1..) */
1323:./ThirdParty/FatFs/Src/ff.c **** )
1324:./ThirdParty/FatFs/Src/ff.c **** {
1325:./ThirdParty/FatFs/Src/ff.c **** 	BYTE bm, bv;
1326:./ThirdParty/FatFs/Src/ff.c **** 	UINT i;
1327:./ThirdParty/FatFs/Src/ff.c **** 	DWORD val, scl, ctr;
1328:./ThirdParty/FatFs/Src/ff.c **** 
1329:./ThirdParty/FatFs/Src/ff.c **** 
1330:./ThirdParty/FatFs/Src/ff.c **** 	clst -= 2;	/* The first bit in the bitmap corresponds to cluster #2 */
1331:./ThirdParty/FatFs/Src/ff.c **** 	if (clst >= fs->n_fatent - 2) clst = 0;
1332:./ThirdParty/FatFs/Src/ff.c **** 	scl = val = clst; ctr = 0;
1333:./ThirdParty/FatFs/Src/ff.c **** 	for (;;) {
1334:./ThirdParty/FatFs/Src/ff.c **** 		if (move_window(fs, fs->bitbase + val / 8 / SS(fs)) != FR_OK) return 0xFFFFFFFF;
1335:./ThirdParty/FatFs/Src/ff.c **** 		i = val / 8 % SS(fs); bm = 1 << (val % 8);
1336:./ThirdParty/FatFs/Src/ff.c **** 		do {
1337:./ThirdParty/FatFs/Src/ff.c **** 			do {
1338:./ThirdParty/FatFs/Src/ff.c **** 				bv = fs->win[i] & bm; bm <<= 1;		/* Get bit value */
ARM GAS  C:\Users\Xuleo\AppData\Local\Temp\ccTDbepL.s 			page 29


1339:./ThirdParty/FatFs/Src/ff.c **** 				if (++val >= fs->n_fatent - 2) {	/* Next cluster (with wrap-around) */
1340:./ThirdParty/FatFs/Src/ff.c **** 					val = 0; bm = 0; i = SS(fs);
1341:./ThirdParty/FatFs/Src/ff.c **** 				}
1342:./ThirdParty/FatFs/Src/ff.c **** 				if (bv == 0) {	/* Is it a free cluster? */
1343:./ThirdParty/FatFs/Src/ff.c **** 					if (++ctr == ncl) return scl + 2;	/* Check if run length is sufficient for required */
1344:./ThirdParty/FatFs/Src/ff.c **** 				} else {
1345:./ThirdParty/FatFs/Src/ff.c **** 					scl = val; ctr = 0;		/* Encountered a cluster in-use, restart to scan */
1346:./ThirdParty/FatFs/Src/ff.c **** 				}
1347:./ThirdParty/FatFs/Src/ff.c **** 				if (val == clst) return 0;	/* All cluster scanned? */
1348:./ThirdParty/FatFs/Src/ff.c **** 			} while (bm != 0);
1349:./ThirdParty/FatFs/Src/ff.c **** 			bm = 1;
1350:./ThirdParty/FatFs/Src/ff.c **** 		} while (++i < SS(fs));
1351:./ThirdParty/FatFs/Src/ff.c **** 	}
1352:./ThirdParty/FatFs/Src/ff.c **** }
1353:./ThirdParty/FatFs/Src/ff.c **** 
1354:./ThirdParty/FatFs/Src/ff.c **** 
1355:./ThirdParty/FatFs/Src/ff.c **** /*----------------------------------------*/
1356:./ThirdParty/FatFs/Src/ff.c **** /* Set/Clear a block of allocation bitmap */
1357:./ThirdParty/FatFs/Src/ff.c **** /*----------------------------------------*/
1358:./ThirdParty/FatFs/Src/ff.c **** 
1359:./ThirdParty/FatFs/Src/ff.c **** static FRESULT change_bitmap (
1360:./ThirdParty/FatFs/Src/ff.c **** 	FATFS* fs,	/* Filesystem object */
1361:./ThirdParty/FatFs/Src/ff.c **** 	DWORD clst,	/* Cluster number to change from */
1362:./ThirdParty/FatFs/Src/ff.c **** 	DWORD ncl,	/* Number of clusters to be changed */
1363:./ThirdParty/FatFs/Src/ff.c **** 	int bv		/* bit value to be set (0 or 1) */
1364:./ThirdParty/FatFs/Src/ff.c **** )
1365:./ThirdParty/FatFs/Src/ff.c **** {
1366:./ThirdParty/FatFs/Src/ff.c **** 	BYTE bm;
1367:./ThirdParty/FatFs/Src/ff.c **** 	UINT i;
1368:./ThirdParty/FatFs/Src/ff.c **** 	LBA_t sect;
1369:./ThirdParty/FatFs/Src/ff.c **** 
1370:./ThirdParty/FatFs/Src/ff.c **** 
1371:./ThirdParty/FatFs/Src/ff.c **** 	clst -= 2;	/* The first bit corresponds to cluster #2 */
1372:./ThirdParty/FatFs/Src/ff.c **** 	sect = fs->bitbase + clst / 8 / SS(fs);	/* Sector address */
1373:./ThirdParty/FatFs/Src/ff.c **** 	i = clst / 8 % SS(fs);					/* Byte offset in the sector */
1374:./ThirdParty/FatFs/Src/ff.c **** 	bm = 1 << (clst % 8);					/* Bit mask in the byte */
1375:./ThirdParty/FatFs/Src/ff.c **** 	for (;;) {
1376:./ThirdParty/FatFs/Src/ff.c **** 		if (move_window(fs, sect++) != FR_OK) return FR_DISK_ERR;
1377:./ThirdParty/FatFs/Src/ff.c **** 		do {
1378:./ThirdParty/FatFs/Src/ff.c **** 			do {
1379:./ThirdParty/FatFs/Src/ff.c **** 				if (bv == (int)((fs->win[i] & bm) != 0)) return FR_INT_ERR;	/* Is the bit expected value? */
1380:./ThirdParty/FatFs/Src/ff.c **** 				fs->win[i] ^= bm;	/* Flip the bit */
1381:./ThirdParty/FatFs/Src/ff.c **** 				fs->wflag = 1;
1382:./ThirdParty/FatFs/Src/ff.c **** 				if (--ncl == 0) return FR_OK;	/* All bits processed? */
1383:./ThirdParty/FatFs/Src/ff.c **** 			} while (bm <<= 1);		/* Next bit */
1384:./ThirdParty/FatFs/Src/ff.c **** 			bm = 1;
1385:./ThirdParty/FatFs/Src/ff.c **** 		} while (++i < SS(fs));		/* Next byte */
1386:./ThirdParty/FatFs/Src/ff.c **** 		i = 0;
1387:./ThirdParty/FatFs/Src/ff.c **** 	}
1388:./ThirdParty/FatFs/Src/ff.c **** }
1389:./ThirdParty/FatFs/Src/ff.c **** 
1390:./ThirdParty/FatFs/Src/ff.c **** 
1391:./ThirdParty/FatFs/Src/ff.c **** /*---------------------------------------------*/
1392:./ThirdParty/FatFs/Src/ff.c **** /* Fill the first fragment of the FAT chain    */
1393:./ThirdParty/FatFs/Src/ff.c **** /*---------------------------------------------*/
1394:./ThirdParty/FatFs/Src/ff.c **** 
1395:./ThirdParty/FatFs/Src/ff.c **** static FRESULT fill_first_frag (
ARM GAS  C:\Users\Xuleo\AppData\Local\Temp\ccTDbepL.s 			page 30


1396:./ThirdParty/FatFs/Src/ff.c **** 	FFOBJID* obj	/* Pointer to the corresponding object */
1397:./ThirdParty/FatFs/Src/ff.c **** )
1398:./ThirdParty/FatFs/Src/ff.c **** {
1399:./ThirdParty/FatFs/Src/ff.c **** 	FRESULT res;
1400:./ThirdParty/FatFs/Src/ff.c **** 	DWORD cl, n;
1401:./ThirdParty/FatFs/Src/ff.c **** 
1402:./ThirdParty/FatFs/Src/ff.c **** 
1403:./ThirdParty/FatFs/Src/ff.c **** 	if (obj->stat == 3) {	/* Has the object been changed 'fragmented' in this session? */
1404:./ThirdParty/FatFs/Src/ff.c **** 		for (cl = obj->sclust, n = obj->n_cont; n; cl++, n--) {	/* Create cluster chain on the FAT */
1405:./ThirdParty/FatFs/Src/ff.c **** 			res = put_fat(obj->fs, cl, cl + 1);
1406:./ThirdParty/FatFs/Src/ff.c **** 			if (res != FR_OK) return res;
1407:./ThirdParty/FatFs/Src/ff.c **** 		}
1408:./ThirdParty/FatFs/Src/ff.c **** 		obj->stat = 0;	/* Change status 'FAT chain is valid' */
1409:./ThirdParty/FatFs/Src/ff.c **** 	}
1410:./ThirdParty/FatFs/Src/ff.c **** 	return FR_OK;
1411:./ThirdParty/FatFs/Src/ff.c **** }
1412:./ThirdParty/FatFs/Src/ff.c **** 
1413:./ThirdParty/FatFs/Src/ff.c **** 
1414:./ThirdParty/FatFs/Src/ff.c **** /*---------------------------------------------*/
1415:./ThirdParty/FatFs/Src/ff.c **** /* Fill the last fragment of the FAT chain     */
1416:./ThirdParty/FatFs/Src/ff.c **** /*---------------------------------------------*/
1417:./ThirdParty/FatFs/Src/ff.c **** 
1418:./ThirdParty/FatFs/Src/ff.c **** static FRESULT fill_last_frag (
1419:./ThirdParty/FatFs/Src/ff.c **** 	FFOBJID* obj,	/* Pointer to the corresponding object */
1420:./ThirdParty/FatFs/Src/ff.c **** 	DWORD lcl,		/* Last cluster of the fragment */
1421:./ThirdParty/FatFs/Src/ff.c **** 	DWORD term		/* Value to set the last FAT entry */
1422:./ThirdParty/FatFs/Src/ff.c **** )
1423:./ThirdParty/FatFs/Src/ff.c **** {
1424:./ThirdParty/FatFs/Src/ff.c **** 	FRESULT res;
1425:./ThirdParty/FatFs/Src/ff.c **** 
1426:./ThirdParty/FatFs/Src/ff.c **** 
1427:./ThirdParty/FatFs/Src/ff.c **** 	while (obj->n_frag > 0) {	/* Create the chain of last fragment */
1428:./ThirdParty/FatFs/Src/ff.c **** 		res = put_fat(obj->fs, lcl - obj->n_frag + 1, (obj->n_frag > 1) ? lcl - obj->n_frag + 2 : term);
1429:./ThirdParty/FatFs/Src/ff.c **** 		if (res != FR_OK) return res;
1430:./ThirdParty/FatFs/Src/ff.c **** 		obj->n_frag--;
1431:./ThirdParty/FatFs/Src/ff.c **** 	}
1432:./ThirdParty/FatFs/Src/ff.c **** 	return FR_OK;
1433:./ThirdParty/FatFs/Src/ff.c **** }
1434:./ThirdParty/FatFs/Src/ff.c **** 
1435:./ThirdParty/FatFs/Src/ff.c **** #endif	/* FF_FS_EXFAT && !FF_FS_READONLY */
1436:./ThirdParty/FatFs/Src/ff.c **** 
1437:./ThirdParty/FatFs/Src/ff.c **** 
1438:./ThirdParty/FatFs/Src/ff.c **** 
1439:./ThirdParty/FatFs/Src/ff.c **** #if !FF_FS_READONLY
1440:./ThirdParty/FatFs/Src/ff.c **** /*-----------------------------------------------------------------------*/
1441:./ThirdParty/FatFs/Src/ff.c **** /* FAT handling - Remove a cluster chain                                 */
1442:./ThirdParty/FatFs/Src/ff.c **** /*-----------------------------------------------------------------------*/
1443:./ThirdParty/FatFs/Src/ff.c **** 
1444:./ThirdParty/FatFs/Src/ff.c **** static FRESULT remove_chain (	/* FR_OK(0):succeeded, !=0:error */
1445:./ThirdParty/FatFs/Src/ff.c **** 	FFOBJID* obj,		/* Corresponding object */
1446:./ThirdParty/FatFs/Src/ff.c **** 	DWORD clst,			/* Cluster to remove a chain from */
1447:./ThirdParty/FatFs/Src/ff.c **** 	DWORD pclst			/* Previous cluster of clst (0 if entire chain) */
1448:./ThirdParty/FatFs/Src/ff.c **** )
1449:./ThirdParty/FatFs/Src/ff.c **** {
1450:./ThirdParty/FatFs/Src/ff.c **** 	FRESULT res = FR_OK;
1451:./ThirdParty/FatFs/Src/ff.c **** 	DWORD nxt;
1452:./ThirdParty/FatFs/Src/ff.c **** 	FATFS *fs = obj->fs;
ARM GAS  C:\Users\Xuleo\AppData\Local\Temp\ccTDbepL.s 			page 31


1453:./ThirdParty/FatFs/Src/ff.c **** #if FF_FS_EXFAT || FF_USE_TRIM
1454:./ThirdParty/FatFs/Src/ff.c **** 	DWORD scl = clst, ecl = clst;
1455:./ThirdParty/FatFs/Src/ff.c **** #endif
1456:./ThirdParty/FatFs/Src/ff.c **** #if FF_USE_TRIM
1457:./ThirdParty/FatFs/Src/ff.c **** 	LBA_t rt[2];
1458:./ThirdParty/FatFs/Src/ff.c **** #endif
1459:./ThirdParty/FatFs/Src/ff.c **** 
1460:./ThirdParty/FatFs/Src/ff.c **** 	if (clst < 2 || clst >= fs->n_fatent) return FR_INT_ERR;	/* Check if in valid range */
1461:./ThirdParty/FatFs/Src/ff.c **** 
1462:./ThirdParty/FatFs/Src/ff.c **** 	/* Mark the previous cluster 'EOC' on the FAT if it exists */
1463:./ThirdParty/FatFs/Src/ff.c **** 	if (pclst != 0 && (!FF_FS_EXFAT || fs->fs_type != FS_EXFAT || obj->stat != 2)) {
1464:./ThirdParty/FatFs/Src/ff.c **** 		res = put_fat(fs, pclst, 0xFFFFFFFF);
1465:./ThirdParty/FatFs/Src/ff.c **** 		if (res != FR_OK) return res;
1466:./ThirdParty/FatFs/Src/ff.c **** 	}
1467:./ThirdParty/FatFs/Src/ff.c **** 
1468:./ThirdParty/FatFs/Src/ff.c **** 	/* Remove the chain */
1469:./ThirdParty/FatFs/Src/ff.c **** 	do {
1470:./ThirdParty/FatFs/Src/ff.c **** 		nxt = get_fat(obj, clst);			/* Get cluster status */
1471:./ThirdParty/FatFs/Src/ff.c **** 		if (nxt == 0) break;				/* Empty cluster? */
1472:./ThirdParty/FatFs/Src/ff.c **** 		if (nxt == 1) return FR_INT_ERR;	/* Internal error? */
1473:./ThirdParty/FatFs/Src/ff.c **** 		if (nxt == 0xFFFFFFFF) return FR_DISK_ERR;	/* Disk error? */
1474:./ThirdParty/FatFs/Src/ff.c **** 		if (!FF_FS_EXFAT || fs->fs_type != FS_EXFAT) {
1475:./ThirdParty/FatFs/Src/ff.c **** 			res = put_fat(fs, clst, 0);		/* Mark the cluster 'free' on the FAT */
1476:./ThirdParty/FatFs/Src/ff.c **** 			if (res != FR_OK) return res;
1477:./ThirdParty/FatFs/Src/ff.c **** 		}
1478:./ThirdParty/FatFs/Src/ff.c **** 		if (fs->free_clst < fs->n_fatent - 2) {	/* Update allocation information if it is valid */
1479:./ThirdParty/FatFs/Src/ff.c **** 			fs->free_clst++;
1480:./ThirdParty/FatFs/Src/ff.c **** 			fs->fsi_flag |= 1;
1481:./ThirdParty/FatFs/Src/ff.c **** 		}
1482:./ThirdParty/FatFs/Src/ff.c **** #if FF_FS_EXFAT || FF_USE_TRIM
1483:./ThirdParty/FatFs/Src/ff.c **** 		if (ecl + 1 == nxt) {	/* Is next cluster contiguous? */
1484:./ThirdParty/FatFs/Src/ff.c **** 			ecl = nxt;
1485:./ThirdParty/FatFs/Src/ff.c **** 		} else {				/* End of contiguous cluster block */
1486:./ThirdParty/FatFs/Src/ff.c **** #if FF_FS_EXFAT
1487:./ThirdParty/FatFs/Src/ff.c **** 			if (fs->fs_type == FS_EXFAT) {
1488:./ThirdParty/FatFs/Src/ff.c **** 				res = change_bitmap(fs, scl, ecl - scl + 1, 0);	/* Mark the cluster block 'free' on the bitmap 
1489:./ThirdParty/FatFs/Src/ff.c **** 				if (res != FR_OK) return res;
1490:./ThirdParty/FatFs/Src/ff.c **** 			}
1491:./ThirdParty/FatFs/Src/ff.c **** #endif
1492:./ThirdParty/FatFs/Src/ff.c **** #if FF_USE_TRIM
1493:./ThirdParty/FatFs/Src/ff.c **** 			rt[0] = clst2sect(fs, scl);					/* Start of data area to be freed */
1494:./ThirdParty/FatFs/Src/ff.c **** 			rt[1] = clst2sect(fs, ecl) + fs->csize - 1;	/* End of data area to be freed */
1495:./ThirdParty/FatFs/Src/ff.c **** 			disk_ioctl(fs->pdrv, CTRL_TRIM, rt);		/* Inform storage device that the data in the block may be
1496:./ThirdParty/FatFs/Src/ff.c **** #endif
1497:./ThirdParty/FatFs/Src/ff.c **** 			scl = ecl = nxt;
1498:./ThirdParty/FatFs/Src/ff.c **** 		}
1499:./ThirdParty/FatFs/Src/ff.c **** #endif
1500:./ThirdParty/FatFs/Src/ff.c **** 		clst = nxt;					/* Next cluster */
1501:./ThirdParty/FatFs/Src/ff.c **** 	} while (clst < fs->n_fatent);	/* Repeat until the last link */
1502:./ThirdParty/FatFs/Src/ff.c **** 
1503:./ThirdParty/FatFs/Src/ff.c **** #if FF_FS_EXFAT
1504:./ThirdParty/FatFs/Src/ff.c **** 	/* Some post processes for chain status */
1505:./ThirdParty/FatFs/Src/ff.c **** 	if (fs->fs_type == FS_EXFAT) {
1506:./ThirdParty/FatFs/Src/ff.c **** 		if (pclst == 0) {	/* Has the entire chain been removed? */
1507:./ThirdParty/FatFs/Src/ff.c **** 			obj->stat = 0;		/* Change the chain status 'initial' */
1508:./ThirdParty/FatFs/Src/ff.c **** 		} else {
1509:./ThirdParty/FatFs/Src/ff.c **** 			if (obj->stat == 0) {	/* Is it a fragmented chain from the beginning of this session? */
ARM GAS  C:\Users\Xuleo\AppData\Local\Temp\ccTDbepL.s 			page 32


1510:./ThirdParty/FatFs/Src/ff.c **** 				clst = obj->sclust;		/* Follow the chain to check if it gets contiguous */
1511:./ThirdParty/FatFs/Src/ff.c **** 				while (clst != pclst) {
1512:./ThirdParty/FatFs/Src/ff.c **** 					nxt = get_fat(obj, clst);
1513:./ThirdParty/FatFs/Src/ff.c **** 					if (nxt < 2) return FR_INT_ERR;
1514:./ThirdParty/FatFs/Src/ff.c **** 					if (nxt == 0xFFFFFFFF) return FR_DISK_ERR;
1515:./ThirdParty/FatFs/Src/ff.c **** 					if (nxt != clst + 1) break;	/* Not contiguous? */
1516:./ThirdParty/FatFs/Src/ff.c **** 					clst++;
1517:./ThirdParty/FatFs/Src/ff.c **** 				}
1518:./ThirdParty/FatFs/Src/ff.c **** 				if (clst == pclst) {	/* Has the chain got contiguous again? */
1519:./ThirdParty/FatFs/Src/ff.c **** 					obj->stat = 2;		/* Change the chain status 'contiguous' */
1520:./ThirdParty/FatFs/Src/ff.c **** 				}
1521:./ThirdParty/FatFs/Src/ff.c **** 			} else {
1522:./ThirdParty/FatFs/Src/ff.c **** 				if (obj->stat == 3 && pclst >= obj->sclust && pclst <= obj->sclust + obj->n_cont) {	/* Was the 
1523:./ThirdParty/FatFs/Src/ff.c **** 					obj->stat = 2;	/* Change the chain status 'contiguous' */
1524:./ThirdParty/FatFs/Src/ff.c **** 				}
1525:./ThirdParty/FatFs/Src/ff.c **** 			}
1526:./ThirdParty/FatFs/Src/ff.c **** 		}
1527:./ThirdParty/FatFs/Src/ff.c **** 	}
1528:./ThirdParty/FatFs/Src/ff.c **** #endif
1529:./ThirdParty/FatFs/Src/ff.c **** 	return FR_OK;
1530:./ThirdParty/FatFs/Src/ff.c **** }
1531:./ThirdParty/FatFs/Src/ff.c **** 
1532:./ThirdParty/FatFs/Src/ff.c **** 
1533:./ThirdParty/FatFs/Src/ff.c **** 
1534:./ThirdParty/FatFs/Src/ff.c **** 
1535:./ThirdParty/FatFs/Src/ff.c **** /*-----------------------------------------------------------------------*/
1536:./ThirdParty/FatFs/Src/ff.c **** /* FAT handling - Stretch a chain or Create a new chain                  */
1537:./ThirdParty/FatFs/Src/ff.c **** /*-----------------------------------------------------------------------*/
1538:./ThirdParty/FatFs/Src/ff.c **** 
1539:./ThirdParty/FatFs/Src/ff.c **** static DWORD create_chain (	/* 0:No free cluster, 1:Internal error, 0xFFFFFFFF:Disk error, >=2:New 
1540:./ThirdParty/FatFs/Src/ff.c **** 	FFOBJID* obj,		/* Corresponding object */
1541:./ThirdParty/FatFs/Src/ff.c **** 	DWORD clst			/* Cluster# to stretch, 0:Create a new chain */
1542:./ThirdParty/FatFs/Src/ff.c **** )
1543:./ThirdParty/FatFs/Src/ff.c **** {
1544:./ThirdParty/FatFs/Src/ff.c **** 	DWORD cs, ncl, scl;
1545:./ThirdParty/FatFs/Src/ff.c **** 	FRESULT res;
1546:./ThirdParty/FatFs/Src/ff.c **** 	FATFS *fs = obj->fs;
1547:./ThirdParty/FatFs/Src/ff.c **** 
1548:./ThirdParty/FatFs/Src/ff.c **** 
1549:./ThirdParty/FatFs/Src/ff.c **** 	if (clst == 0) {	/* Create a new chain */
1550:./ThirdParty/FatFs/Src/ff.c **** 		scl = fs->last_clst;				/* Suggested cluster to start to find */
1551:./ThirdParty/FatFs/Src/ff.c **** 		if (scl == 0 || scl >= fs->n_fatent) scl = 1;
1552:./ThirdParty/FatFs/Src/ff.c **** 	}
1553:./ThirdParty/FatFs/Src/ff.c **** 	else {				/* Stretch a chain */
1554:./ThirdParty/FatFs/Src/ff.c **** 		cs = get_fat(obj, clst);			/* Check the cluster status */
1555:./ThirdParty/FatFs/Src/ff.c **** 		if (cs < 2) return 1;				/* Test for insanity */
1556:./ThirdParty/FatFs/Src/ff.c **** 		if (cs == 0xFFFFFFFF) return cs;	/* Test for disk error */
1557:./ThirdParty/FatFs/Src/ff.c **** 		if (cs < fs->n_fatent) return cs;	/* It is already followed by next cluster */
1558:./ThirdParty/FatFs/Src/ff.c **** 		scl = clst;							/* Cluster to start to find */
1559:./ThirdParty/FatFs/Src/ff.c **** 	}
1560:./ThirdParty/FatFs/Src/ff.c **** 	if (fs->free_clst == 0) return 0;		/* No free cluster */
1561:./ThirdParty/FatFs/Src/ff.c **** 
1562:./ThirdParty/FatFs/Src/ff.c **** #if FF_FS_EXFAT
1563:./ThirdParty/FatFs/Src/ff.c **** 	if (fs->fs_type == FS_EXFAT) {	/* On the exFAT volume */
1564:./ThirdParty/FatFs/Src/ff.c **** 		ncl = find_bitmap(fs, scl, 1);				/* Find a free cluster */
1565:./ThirdParty/FatFs/Src/ff.c **** 		if (ncl == 0 || ncl == 0xFFFFFFFF) return ncl;	/* No free cluster or hard error? */
1566:./ThirdParty/FatFs/Src/ff.c **** 		res = change_bitmap(fs, ncl, 1, 1);			/* Mark the cluster 'in use' */
ARM GAS  C:\Users\Xuleo\AppData\Local\Temp\ccTDbepL.s 			page 33


1567:./ThirdParty/FatFs/Src/ff.c **** 		if (res == FR_INT_ERR) return 1;
1568:./ThirdParty/FatFs/Src/ff.c **** 		if (res == FR_DISK_ERR) return 0xFFFFFFFF;
1569:./ThirdParty/FatFs/Src/ff.c **** 		if (clst == 0) {							/* Is it a new chain? */
1570:./ThirdParty/FatFs/Src/ff.c **** 			obj->stat = 2;							/* Set status 'contiguous' */
1571:./ThirdParty/FatFs/Src/ff.c **** 		} else {									/* It is a stretched chain */
1572:./ThirdParty/FatFs/Src/ff.c **** 			if (obj->stat == 2 && ncl != scl + 1) {	/* Is the chain got fragmented? */
1573:./ThirdParty/FatFs/Src/ff.c **** 				obj->n_cont = scl - obj->sclust;	/* Set size of the contiguous part */
1574:./ThirdParty/FatFs/Src/ff.c **** 				obj->stat = 3;						/* Change status 'just fragmented' */
1575:./ThirdParty/FatFs/Src/ff.c **** 			}
1576:./ThirdParty/FatFs/Src/ff.c **** 		}
1577:./ThirdParty/FatFs/Src/ff.c **** 		if (obj->stat != 2) {	/* Is the file non-contiguous? */
1578:./ThirdParty/FatFs/Src/ff.c **** 			if (ncl == clst + 1) {	/* Is the cluster next to previous one? */
1579:./ThirdParty/FatFs/Src/ff.c **** 				obj->n_frag = obj->n_frag ? obj->n_frag + 1 : 2;	/* Increment size of last framgent */
1580:./ThirdParty/FatFs/Src/ff.c **** 			} else {				/* New fragment */
1581:./ThirdParty/FatFs/Src/ff.c **** 				if (obj->n_frag == 0) obj->n_frag = 1;
1582:./ThirdParty/FatFs/Src/ff.c **** 				res = fill_last_frag(obj, clst, ncl);	/* Fill last fragment on the FAT and link it to new one *
1583:./ThirdParty/FatFs/Src/ff.c **** 				if (res == FR_OK) obj->n_frag = 1;
1584:./ThirdParty/FatFs/Src/ff.c **** 			}
1585:./ThirdParty/FatFs/Src/ff.c **** 		}
1586:./ThirdParty/FatFs/Src/ff.c **** 	} else
1587:./ThirdParty/FatFs/Src/ff.c **** #endif
1588:./ThirdParty/FatFs/Src/ff.c **** 	{	/* On the FAT/FAT32 volume */
1589:./ThirdParty/FatFs/Src/ff.c **** 		ncl = 0;
1590:./ThirdParty/FatFs/Src/ff.c **** 		if (scl == clst) {						/* Stretching an existing chain? */
1591:./ThirdParty/FatFs/Src/ff.c **** 			ncl = scl + 1;						/* Test if next cluster is free */
1592:./ThirdParty/FatFs/Src/ff.c **** 			if (ncl >= fs->n_fatent) ncl = 2;
1593:./ThirdParty/FatFs/Src/ff.c **** 			cs = get_fat(obj, ncl);				/* Get next cluster status */
1594:./ThirdParty/FatFs/Src/ff.c **** 			if (cs == 1 || cs == 0xFFFFFFFF) return cs;	/* Test for error */
1595:./ThirdParty/FatFs/Src/ff.c **** 			if (cs != 0) {						/* Not free? */
1596:./ThirdParty/FatFs/Src/ff.c **** 				cs = fs->last_clst;				/* Start at suggested cluster if it is valid */
1597:./ThirdParty/FatFs/Src/ff.c **** 				if (cs >= 2 && cs < fs->n_fatent) scl = cs;
1598:./ThirdParty/FatFs/Src/ff.c **** 				ncl = 0;
1599:./ThirdParty/FatFs/Src/ff.c **** 			}
1600:./ThirdParty/FatFs/Src/ff.c **** 		}
1601:./ThirdParty/FatFs/Src/ff.c **** 		if (ncl == 0) {	/* The new cluster cannot be contiguous and find another fragment */
1602:./ThirdParty/FatFs/Src/ff.c **** 			ncl = scl;	/* Start cluster */
1603:./ThirdParty/FatFs/Src/ff.c **** 			for (;;) {
1604:./ThirdParty/FatFs/Src/ff.c **** 				ncl++;							/* Next cluster */
1605:./ThirdParty/FatFs/Src/ff.c **** 				if (ncl >= fs->n_fatent) {		/* Check wrap-around */
1606:./ThirdParty/FatFs/Src/ff.c **** 					ncl = 2;
1607:./ThirdParty/FatFs/Src/ff.c **** 					if (ncl > scl) return 0;	/* No free cluster found? */
1608:./ThirdParty/FatFs/Src/ff.c **** 				}
1609:./ThirdParty/FatFs/Src/ff.c **** 				cs = get_fat(obj, ncl);			/* Get the cluster status */
1610:./ThirdParty/FatFs/Src/ff.c **** 				if (cs == 0) break;				/* Found a free cluster? */
1611:./ThirdParty/FatFs/Src/ff.c **** 				if (cs == 1 || cs == 0xFFFFFFFF) return cs;	/* Test for error */
1612:./ThirdParty/FatFs/Src/ff.c **** 				if (ncl == scl) return 0;		/* No free cluster found? */
1613:./ThirdParty/FatFs/Src/ff.c **** 			}
1614:./ThirdParty/FatFs/Src/ff.c **** 		}
1615:./ThirdParty/FatFs/Src/ff.c **** 		res = put_fat(fs, ncl, 0xFFFFFFFF);		/* Mark the new cluster 'EOC' */
1616:./ThirdParty/FatFs/Src/ff.c **** 		if (res == FR_OK && clst != 0) {
1617:./ThirdParty/FatFs/Src/ff.c **** 			res = put_fat(fs, clst, ncl);		/* Link it from the previous one if needed */
1618:./ThirdParty/FatFs/Src/ff.c **** 		}
1619:./ThirdParty/FatFs/Src/ff.c **** 	}
1620:./ThirdParty/FatFs/Src/ff.c **** 
1621:./ThirdParty/FatFs/Src/ff.c **** 	if (res == FR_OK) {			/* Update allocation information if the function succeeded */
1622:./ThirdParty/FatFs/Src/ff.c **** 		fs->last_clst = ncl;
1623:./ThirdParty/FatFs/Src/ff.c **** 		if (fs->free_clst > 0 && fs->free_clst <= fs->n_fatent - 2) {
ARM GAS  C:\Users\Xuleo\AppData\Local\Temp\ccTDbepL.s 			page 34


1624:./ThirdParty/FatFs/Src/ff.c **** 			fs->free_clst--;
1625:./ThirdParty/FatFs/Src/ff.c **** 			fs->fsi_flag |= 1;
1626:./ThirdParty/FatFs/Src/ff.c **** 		}
1627:./ThirdParty/FatFs/Src/ff.c **** 	} else {
1628:./ThirdParty/FatFs/Src/ff.c **** 		ncl = (res == FR_DISK_ERR) ? 0xFFFFFFFF : 1;	/* Failed. Generate error status */
1629:./ThirdParty/FatFs/Src/ff.c **** 	}
1630:./ThirdParty/FatFs/Src/ff.c **** 
1631:./ThirdParty/FatFs/Src/ff.c **** 	return ncl;		/* Return new cluster number or error status */
1632:./ThirdParty/FatFs/Src/ff.c **** }
1633:./ThirdParty/FatFs/Src/ff.c **** 
1634:./ThirdParty/FatFs/Src/ff.c **** #endif /* !FF_FS_READONLY */
1635:./ThirdParty/FatFs/Src/ff.c **** 
1636:./ThirdParty/FatFs/Src/ff.c **** 
1637:./ThirdParty/FatFs/Src/ff.c **** 
1638:./ThirdParty/FatFs/Src/ff.c **** 
1639:./ThirdParty/FatFs/Src/ff.c **** #if FF_USE_FASTSEEK
1640:./ThirdParty/FatFs/Src/ff.c **** /*-----------------------------------------------------------------------*/
1641:./ThirdParty/FatFs/Src/ff.c **** /* FAT handling - Convert offset into cluster with link map table        */
1642:./ThirdParty/FatFs/Src/ff.c **** /*-----------------------------------------------------------------------*/
1643:./ThirdParty/FatFs/Src/ff.c **** 
1644:./ThirdParty/FatFs/Src/ff.c **** static DWORD clmt_clust (	/* <2:Error, >=2:Cluster number */
1645:./ThirdParty/FatFs/Src/ff.c **** 	FIL* fp,		/* Pointer to the file object */
1646:./ThirdParty/FatFs/Src/ff.c **** 	FSIZE_t ofs		/* File offset to be converted to cluster# */
1647:./ThirdParty/FatFs/Src/ff.c **** )
1648:./ThirdParty/FatFs/Src/ff.c **** {
1649:./ThirdParty/FatFs/Src/ff.c **** 	DWORD cl, ncl;
1650:./ThirdParty/FatFs/Src/ff.c **** 	DWORD *tbl;
1651:./ThirdParty/FatFs/Src/ff.c **** 	FATFS *fs = fp->obj.fs;
1652:./ThirdParty/FatFs/Src/ff.c **** 
1653:./ThirdParty/FatFs/Src/ff.c **** 
1654:./ThirdParty/FatFs/Src/ff.c **** 	tbl = fp->cltbl + 1;	/* Top of CLMT */
1655:./ThirdParty/FatFs/Src/ff.c **** 	cl = (DWORD)(ofs / SS(fs) / fs->csize);	/* Cluster order from top of the file */
1656:./ThirdParty/FatFs/Src/ff.c **** 	for (;;) {
1657:./ThirdParty/FatFs/Src/ff.c **** 		ncl = *tbl++;			/* Number of cluters in the fragment */
1658:./ThirdParty/FatFs/Src/ff.c **** 		if (ncl == 0) return 0;	/* End of table? (error) */
1659:./ThirdParty/FatFs/Src/ff.c **** 		if (cl < ncl) break;	/* In this fragment? */
1660:./ThirdParty/FatFs/Src/ff.c **** 		cl -= ncl; tbl++;		/* Next fragment */
1661:./ThirdParty/FatFs/Src/ff.c **** 	}
1662:./ThirdParty/FatFs/Src/ff.c **** 	return cl + *tbl;	/* Return the cluster number */
1663:./ThirdParty/FatFs/Src/ff.c **** }
1664:./ThirdParty/FatFs/Src/ff.c **** 
1665:./ThirdParty/FatFs/Src/ff.c **** #endif	/* FF_USE_FASTSEEK */
1666:./ThirdParty/FatFs/Src/ff.c **** 
1667:./ThirdParty/FatFs/Src/ff.c **** 
1668:./ThirdParty/FatFs/Src/ff.c **** 
1669:./ThirdParty/FatFs/Src/ff.c **** 
1670:./ThirdParty/FatFs/Src/ff.c **** /*-----------------------------------------------------------------------*/
1671:./ThirdParty/FatFs/Src/ff.c **** /* Directory handling - Fill a cluster with zeros                        */
1672:./ThirdParty/FatFs/Src/ff.c **** /*-----------------------------------------------------------------------*/
1673:./ThirdParty/FatFs/Src/ff.c **** 
1674:./ThirdParty/FatFs/Src/ff.c **** #if !FF_FS_READONLY
1675:./ThirdParty/FatFs/Src/ff.c **** static FRESULT dir_clear (	/* Returns FR_OK or FR_DISK_ERR */
1676:./ThirdParty/FatFs/Src/ff.c **** 	FATFS *fs,		/* Filesystem object */
1677:./ThirdParty/FatFs/Src/ff.c **** 	DWORD clst		/* Directory table to clear */
1678:./ThirdParty/FatFs/Src/ff.c **** )
1679:./ThirdParty/FatFs/Src/ff.c **** {
1680:./ThirdParty/FatFs/Src/ff.c **** 	LBA_t sect;
ARM GAS  C:\Users\Xuleo\AppData\Local\Temp\ccTDbepL.s 			page 35


1681:./ThirdParty/FatFs/Src/ff.c **** 	UINT n, szb;
1682:./ThirdParty/FatFs/Src/ff.c **** 	BYTE *ibuf;
1683:./ThirdParty/FatFs/Src/ff.c **** 
1684:./ThirdParty/FatFs/Src/ff.c **** 
1685:./ThirdParty/FatFs/Src/ff.c **** 	if (sync_window(fs) != FR_OK) return FR_DISK_ERR;	/* Flush disk access window */
1686:./ThirdParty/FatFs/Src/ff.c **** 	sect = clst2sect(fs, clst);		/* Top of the cluster */
1687:./ThirdParty/FatFs/Src/ff.c **** 	fs->winsect = sect;				/* Set window to top of the cluster */
1688:./ThirdParty/FatFs/Src/ff.c **** 	memset(fs->win, 0, sizeof fs->win);	/* Clear window buffer */
1689:./ThirdParty/FatFs/Src/ff.c **** #if FF_USE_LFN == 3		/* Quick table clear by using multi-secter write */
1690:./ThirdParty/FatFs/Src/ff.c **** 	/* Allocate a temporary buffer */
1691:./ThirdParty/FatFs/Src/ff.c **** 	for (szb = ((DWORD)fs->csize * SS(fs) >= MAX_MALLOC) ? MAX_MALLOC : fs->csize * SS(fs), ibuf = 0; 
1692:./ThirdParty/FatFs/Src/ff.c **** 	if (szb > SS(fs)) {		/* Buffer allocated? */
1693:./ThirdParty/FatFs/Src/ff.c **** 		memset(ibuf, 0, szb);
1694:./ThirdParty/FatFs/Src/ff.c **** 		szb /= SS(fs);		/* Bytes -> Sectors */
1695:./ThirdParty/FatFs/Src/ff.c **** 		for (n = 0; n < fs->csize && disk_write(fs->pdrv, ibuf, sect + n, szb) == RES_OK; n += szb) ;	/* 
1696:./ThirdParty/FatFs/Src/ff.c **** 		ff_memfree(ibuf);
1697:./ThirdParty/FatFs/Src/ff.c **** 	} else
1698:./ThirdParty/FatFs/Src/ff.c **** #endif
1699:./ThirdParty/FatFs/Src/ff.c **** 	{
1700:./ThirdParty/FatFs/Src/ff.c **** 		ibuf = fs->win; szb = 1;	/* Use window buffer (many single-sector writes may take a time) */
1701:./ThirdParty/FatFs/Src/ff.c **** 		for (n = 0; n < fs->csize && disk_write(fs->pdrv, ibuf, sect + n, szb) == RES_OK; n += szb) ;	/* 
1702:./ThirdParty/FatFs/Src/ff.c **** 	}
1703:./ThirdParty/FatFs/Src/ff.c **** 	return (n == fs->csize) ? FR_OK : FR_DISK_ERR;
1704:./ThirdParty/FatFs/Src/ff.c **** }
1705:./ThirdParty/FatFs/Src/ff.c **** #endif	/* !FF_FS_READONLY */
1706:./ThirdParty/FatFs/Src/ff.c **** 
1707:./ThirdParty/FatFs/Src/ff.c **** 
1708:./ThirdParty/FatFs/Src/ff.c **** 
1709:./ThirdParty/FatFs/Src/ff.c **** 
1710:./ThirdParty/FatFs/Src/ff.c **** /*-----------------------------------------------------------------------*/
1711:./ThirdParty/FatFs/Src/ff.c **** /* Directory handling - Set directory index                              */
1712:./ThirdParty/FatFs/Src/ff.c **** /*-----------------------------------------------------------------------*/
1713:./ThirdParty/FatFs/Src/ff.c **** 
1714:./ThirdParty/FatFs/Src/ff.c **** static FRESULT dir_sdi (	/* FR_OK(0):succeeded, !=0:error */
1715:./ThirdParty/FatFs/Src/ff.c **** 	DIR* dp,		/* Pointer to directory object */
1716:./ThirdParty/FatFs/Src/ff.c **** 	DWORD ofs		/* Offset of directory table */
1717:./ThirdParty/FatFs/Src/ff.c **** )
1718:./ThirdParty/FatFs/Src/ff.c **** {
1719:./ThirdParty/FatFs/Src/ff.c **** 	DWORD csz, clst;
1720:./ThirdParty/FatFs/Src/ff.c **** 	FATFS *fs = dp->obj.fs;
1721:./ThirdParty/FatFs/Src/ff.c **** 
1722:./ThirdParty/FatFs/Src/ff.c **** 
1723:./ThirdParty/FatFs/Src/ff.c **** 	if (ofs >= (DWORD)((FF_FS_EXFAT && fs->fs_type == FS_EXFAT) ? MAX_DIR_EX : MAX_DIR) || ofs % SZDIR
1724:./ThirdParty/FatFs/Src/ff.c **** 		return FR_INT_ERR;
1725:./ThirdParty/FatFs/Src/ff.c **** 	}
1726:./ThirdParty/FatFs/Src/ff.c **** 	dp->dptr = ofs;				/* Set current offset */
1727:./ThirdParty/FatFs/Src/ff.c **** 	clst = dp->obj.sclust;		/* Table start cluster (0:root) */
1728:./ThirdParty/FatFs/Src/ff.c **** 	if (clst == 0 && fs->fs_type >= FS_FAT32) {	/* Replace cluster# 0 with root cluster# */
1729:./ThirdParty/FatFs/Src/ff.c **** 		clst = (DWORD)fs->dirbase;
1730:./ThirdParty/FatFs/Src/ff.c **** 		if (FF_FS_EXFAT) dp->obj.stat = 0;	/* exFAT: Root dir has an FAT chain */
1731:./ThirdParty/FatFs/Src/ff.c **** 	}
1732:./ThirdParty/FatFs/Src/ff.c **** 
1733:./ThirdParty/FatFs/Src/ff.c **** 	if (clst == 0) {	/* Static table (root-directory on the FAT volume) */
1734:./ThirdParty/FatFs/Src/ff.c **** 		if (ofs / SZDIRE >= fs->n_rootdir) return FR_INT_ERR;	/* Is index out of range? */
1735:./ThirdParty/FatFs/Src/ff.c **** 		dp->sect = fs->dirbase;
1736:./ThirdParty/FatFs/Src/ff.c **** 
1737:./ThirdParty/FatFs/Src/ff.c **** 	} else {			/* Dynamic table (sub-directory or root-directory on the FAT32/exFAT volume) */
ARM GAS  C:\Users\Xuleo\AppData\Local\Temp\ccTDbepL.s 			page 36


1738:./ThirdParty/FatFs/Src/ff.c **** 		csz = (DWORD)fs->csize * SS(fs);	/* Bytes per cluster */
1739:./ThirdParty/FatFs/Src/ff.c **** 		while (ofs >= csz) {				/* Follow cluster chain */
1740:./ThirdParty/FatFs/Src/ff.c **** 			clst = get_fat(&dp->obj, clst);				/* Get next cluster */
1741:./ThirdParty/FatFs/Src/ff.c **** 			if (clst == 0xFFFFFFFF) return FR_DISK_ERR;	/* Disk error */
1742:./ThirdParty/FatFs/Src/ff.c **** 			if (clst < 2 || clst >= fs->n_fatent) return FR_INT_ERR;	/* Reached to end of table or internal 
1743:./ThirdParty/FatFs/Src/ff.c **** 			ofs -= csz;
1744:./ThirdParty/FatFs/Src/ff.c **** 		}
1745:./ThirdParty/FatFs/Src/ff.c **** 		dp->sect = clst2sect(fs, clst);
1746:./ThirdParty/FatFs/Src/ff.c **** 	}
1747:./ThirdParty/FatFs/Src/ff.c **** 	dp->clust = clst;					/* Current cluster# */
1748:./ThirdParty/FatFs/Src/ff.c **** 	if (dp->sect == 0) return FR_INT_ERR;
1749:./ThirdParty/FatFs/Src/ff.c **** 	dp->sect += ofs / SS(fs);			/* Sector# of the directory entry */
1750:./ThirdParty/FatFs/Src/ff.c **** 	dp->dir = fs->win + (ofs % SS(fs));	/* Pointer to the entry in the win[] */
1751:./ThirdParty/FatFs/Src/ff.c **** 
1752:./ThirdParty/FatFs/Src/ff.c **** 	return FR_OK;
1753:./ThirdParty/FatFs/Src/ff.c **** }
1754:./ThirdParty/FatFs/Src/ff.c **** 
1755:./ThirdParty/FatFs/Src/ff.c **** 
1756:./ThirdParty/FatFs/Src/ff.c **** 
1757:./ThirdParty/FatFs/Src/ff.c **** 
1758:./ThirdParty/FatFs/Src/ff.c **** /*-----------------------------------------------------------------------*/
1759:./ThirdParty/FatFs/Src/ff.c **** /* Directory handling - Move directory table index next                  */
1760:./ThirdParty/FatFs/Src/ff.c **** /*-----------------------------------------------------------------------*/
1761:./ThirdParty/FatFs/Src/ff.c **** 
1762:./ThirdParty/FatFs/Src/ff.c **** static FRESULT dir_next (	/* FR_OK(0):succeeded, FR_NO_FILE:End of table, FR_DENIED:Could not stret
1763:./ThirdParty/FatFs/Src/ff.c **** 	DIR* dp,				/* Pointer to the directory object */
1764:./ThirdParty/FatFs/Src/ff.c **** 	int stretch				/* 0: Do not stretch table, 1: Stretch table if needed */
1765:./ThirdParty/FatFs/Src/ff.c **** )
1766:./ThirdParty/FatFs/Src/ff.c **** {
1767:./ThirdParty/FatFs/Src/ff.c **** 	DWORD ofs, clst;
1768:./ThirdParty/FatFs/Src/ff.c **** 	FATFS *fs = dp->obj.fs;
1769:./ThirdParty/FatFs/Src/ff.c **** 
1770:./ThirdParty/FatFs/Src/ff.c **** 
1771:./ThirdParty/FatFs/Src/ff.c **** 	ofs = dp->dptr + SZDIRE;	/* Next entry */
1772:./ThirdParty/FatFs/Src/ff.c **** 	if (ofs >= (DWORD)((FF_FS_EXFAT && fs->fs_type == FS_EXFAT) ? MAX_DIR_EX : MAX_DIR)) dp->sect = 0;
1773:./ThirdParty/FatFs/Src/ff.c **** 	if (dp->sect == 0) return FR_NO_FILE;	/* Report EOT if it has been disabled */
1774:./ThirdParty/FatFs/Src/ff.c **** 
1775:./ThirdParty/FatFs/Src/ff.c **** 	if (ofs % SS(fs) == 0) {	/* Sector changed? */
1776:./ThirdParty/FatFs/Src/ff.c **** 		dp->sect++;				/* Next sector */
1777:./ThirdParty/FatFs/Src/ff.c **** 
1778:./ThirdParty/FatFs/Src/ff.c **** 		if (dp->clust == 0) {	/* Static table */
1779:./ThirdParty/FatFs/Src/ff.c **** 			if (ofs / SZDIRE >= fs->n_rootdir) {	/* Report EOT if it reached end of static table */
1780:./ThirdParty/FatFs/Src/ff.c **** 				dp->sect = 0; return FR_NO_FILE;
1781:./ThirdParty/FatFs/Src/ff.c **** 			}
1782:./ThirdParty/FatFs/Src/ff.c **** 		}
1783:./ThirdParty/FatFs/Src/ff.c **** 		else {					/* Dynamic table */
1784:./ThirdParty/FatFs/Src/ff.c **** 			if ((ofs / SS(fs) & (fs->csize - 1)) == 0) {	/* Cluster changed? */
1785:./ThirdParty/FatFs/Src/ff.c **** 				clst = get_fat(&dp->obj, dp->clust);		/* Get next cluster */
1786:./ThirdParty/FatFs/Src/ff.c **** 				if (clst <= 1) return FR_INT_ERR;			/* Internal error */
1787:./ThirdParty/FatFs/Src/ff.c **** 				if (clst == 0xFFFFFFFF) return FR_DISK_ERR;	/* Disk error */
1788:./ThirdParty/FatFs/Src/ff.c **** 				if (clst >= fs->n_fatent) {					/* It reached end of dynamic table */
1789:./ThirdParty/FatFs/Src/ff.c **** #if !FF_FS_READONLY
1790:./ThirdParty/FatFs/Src/ff.c **** 					if (!stretch) {								/* If no stretch, report EOT */
1791:./ThirdParty/FatFs/Src/ff.c **** 						dp->sect = 0; return FR_NO_FILE;
1792:./ThirdParty/FatFs/Src/ff.c **** 					}
1793:./ThirdParty/FatFs/Src/ff.c **** 					clst = create_chain(&dp->obj, dp->clust);	/* Allocate a cluster */
1794:./ThirdParty/FatFs/Src/ff.c **** 					if (clst == 0) return FR_DENIED;			/* No free cluster */
ARM GAS  C:\Users\Xuleo\AppData\Local\Temp\ccTDbepL.s 			page 37


1795:./ThirdParty/FatFs/Src/ff.c **** 					if (clst == 1) return FR_INT_ERR;			/* Internal error */
1796:./ThirdParty/FatFs/Src/ff.c **** 					if (clst == 0xFFFFFFFF) return FR_DISK_ERR;	/* Disk error */
1797:./ThirdParty/FatFs/Src/ff.c **** 					if (dir_clear(fs, clst) != FR_OK) return FR_DISK_ERR;	/* Clean up the stretched table */
1798:./ThirdParty/FatFs/Src/ff.c **** 					if (FF_FS_EXFAT) dp->obj.stat |= 4;			/* exFAT: The directory has been stretched */
1799:./ThirdParty/FatFs/Src/ff.c **** #else
1800:./ThirdParty/FatFs/Src/ff.c **** 					if (!stretch) dp->sect = 0;					/* (this line is to suppress compiler warning) */
1801:./ThirdParty/FatFs/Src/ff.c **** 					dp->sect = 0; return FR_NO_FILE;			/* Report EOT */
1802:./ThirdParty/FatFs/Src/ff.c **** #endif
1803:./ThirdParty/FatFs/Src/ff.c **** 				}
1804:./ThirdParty/FatFs/Src/ff.c **** 				dp->clust = clst;		/* Initialize data for new cluster */
1805:./ThirdParty/FatFs/Src/ff.c **** 				dp->sect = clst2sect(fs, clst);
1806:./ThirdParty/FatFs/Src/ff.c **** 			}
1807:./ThirdParty/FatFs/Src/ff.c **** 		}
1808:./ThirdParty/FatFs/Src/ff.c **** 	}
1809:./ThirdParty/FatFs/Src/ff.c **** 	dp->dptr = ofs;						/* Current entry */
1810:./ThirdParty/FatFs/Src/ff.c **** 	dp->dir = fs->win + ofs % SS(fs);	/* Pointer to the entry in the win[] */
1811:./ThirdParty/FatFs/Src/ff.c **** 
1812:./ThirdParty/FatFs/Src/ff.c **** 	return FR_OK;
1813:./ThirdParty/FatFs/Src/ff.c **** }
1814:./ThirdParty/FatFs/Src/ff.c **** 
1815:./ThirdParty/FatFs/Src/ff.c **** 
1816:./ThirdParty/FatFs/Src/ff.c **** 
1817:./ThirdParty/FatFs/Src/ff.c **** 
1818:./ThirdParty/FatFs/Src/ff.c **** #if !FF_FS_READONLY
1819:./ThirdParty/FatFs/Src/ff.c **** /*-----------------------------------------------------------------------*/
1820:./ThirdParty/FatFs/Src/ff.c **** /* Directory handling - Reserve a block of directory entries             */
1821:./ThirdParty/FatFs/Src/ff.c **** /*-----------------------------------------------------------------------*/
1822:./ThirdParty/FatFs/Src/ff.c **** 
1823:./ThirdParty/FatFs/Src/ff.c **** static FRESULT dir_alloc (	/* FR_OK(0):succeeded, !=0:error */
1824:./ThirdParty/FatFs/Src/ff.c **** 	DIR* dp,				/* Pointer to the directory object */
1825:./ThirdParty/FatFs/Src/ff.c **** 	UINT n_ent				/* Number of contiguous entries to allocate */
1826:./ThirdParty/FatFs/Src/ff.c **** )
1827:./ThirdParty/FatFs/Src/ff.c **** {
1828:./ThirdParty/FatFs/Src/ff.c **** 	FRESULT res;
1829:./ThirdParty/FatFs/Src/ff.c **** 	UINT n;
1830:./ThirdParty/FatFs/Src/ff.c **** 	FATFS *fs = dp->obj.fs;
1831:./ThirdParty/FatFs/Src/ff.c **** 
1832:./ThirdParty/FatFs/Src/ff.c **** 
1833:./ThirdParty/FatFs/Src/ff.c **** 	res = dir_sdi(dp, 0);
1834:./ThirdParty/FatFs/Src/ff.c **** 	if (res == FR_OK) {
1835:./ThirdParty/FatFs/Src/ff.c **** 		n = 0;
1836:./ThirdParty/FatFs/Src/ff.c **** 		do {
1837:./ThirdParty/FatFs/Src/ff.c **** 			res = move_window(fs, dp->sect);
1838:./ThirdParty/FatFs/Src/ff.c **** 			if (res != FR_OK) break;
1839:./ThirdParty/FatFs/Src/ff.c **** #if FF_FS_EXFAT
1840:./ThirdParty/FatFs/Src/ff.c **** 			if ((fs->fs_type == FS_EXFAT) ? (int)((dp->dir[XDIR_Type] & 0x80) == 0) : (int)(dp->dir[DIR_Name
1841:./ThirdParty/FatFs/Src/ff.c **** #else
1842:./ThirdParty/FatFs/Src/ff.c **** 			if (dp->dir[DIR_Name] == DDEM || dp->dir[DIR_Name] == 0) {	/* Is the entry free? */
1843:./ThirdParty/FatFs/Src/ff.c **** #endif
1844:./ThirdParty/FatFs/Src/ff.c **** 				if (++n == n_ent) break;	/* Is a block of contiguous free entries found? */
1845:./ThirdParty/FatFs/Src/ff.c **** 			} else {
1846:./ThirdParty/FatFs/Src/ff.c **** 				n = 0;				/* Not a free entry, restart to search */
1847:./ThirdParty/FatFs/Src/ff.c **** 			}
1848:./ThirdParty/FatFs/Src/ff.c **** 			res = dir_next(dp, 1);	/* Next entry with table stretch enabled */
1849:./ThirdParty/FatFs/Src/ff.c **** 		} while (res == FR_OK);
1850:./ThirdParty/FatFs/Src/ff.c **** 	}
1851:./ThirdParty/FatFs/Src/ff.c **** 
ARM GAS  C:\Users\Xuleo\AppData\Local\Temp\ccTDbepL.s 			page 38


1852:./ThirdParty/FatFs/Src/ff.c **** 	if (res == FR_NO_FILE) res = FR_DENIED;	/* No directory entry to allocate */
1853:./ThirdParty/FatFs/Src/ff.c **** 	return res;
1854:./ThirdParty/FatFs/Src/ff.c **** }
1855:./ThirdParty/FatFs/Src/ff.c **** 
1856:./ThirdParty/FatFs/Src/ff.c **** #endif	/* !FF_FS_READONLY */
1857:./ThirdParty/FatFs/Src/ff.c **** 
1858:./ThirdParty/FatFs/Src/ff.c **** 
1859:./ThirdParty/FatFs/Src/ff.c **** 
1860:./ThirdParty/FatFs/Src/ff.c **** 
1861:./ThirdParty/FatFs/Src/ff.c **** /*-----------------------------------------------------------------------*/
1862:./ThirdParty/FatFs/Src/ff.c **** /* FAT: Directory handling - Load/Store start cluster number             */
1863:./ThirdParty/FatFs/Src/ff.c **** /*-----------------------------------------------------------------------*/
1864:./ThirdParty/FatFs/Src/ff.c **** 
1865:./ThirdParty/FatFs/Src/ff.c **** static DWORD ld_clust (	/* Returns the top cluster value of the SFN entry */
1866:./ThirdParty/FatFs/Src/ff.c **** 	FATFS* fs,			/* Pointer to the fs object */
1867:./ThirdParty/FatFs/Src/ff.c **** 	const BYTE* dir		/* Pointer to the key entry */
1868:./ThirdParty/FatFs/Src/ff.c **** )
1869:./ThirdParty/FatFs/Src/ff.c **** {
 273              		.loc 1 1869 1 is_stmt 1 view -0
 274              		.cfi_startproc
 275              		@ args = 0, pretend = 0, frame = 0
 276              		@ frame_needed = 0, uses_anonymous_args = 0
 277              		.loc 1 1869 1 is_stmt 0 view .LVU73
 278 0000 70B5     		push	{r4, r5, r6, lr}
 279              	.LCFI0:
 280              		.cfi_def_cfa_offset 16
 281              		.cfi_offset 4, -16
 282              		.cfi_offset 5, -12
 283              		.cfi_offset 6, -8
 284              		.cfi_offset 14, -4
 285 0002 0446     		mov	r4, r0
 286 0004 0D46     		mov	r5, r1
1870:./ThirdParty/FatFs/Src/ff.c **** 	DWORD cl;
 287              		.loc 1 1870 2 is_stmt 1 view .LVU74
1871:./ThirdParty/FatFs/Src/ff.c **** 
1872:./ThirdParty/FatFs/Src/ff.c **** 	cl = ld_16(dir + DIR_FstClusLO);
 288              		.loc 1 1872 2 view .LVU75
 289              		.loc 1 1872 7 is_stmt 0 view .LVU76
 290 0006 01F11A00 		add	r0, r1, #26
 291              	.LVL27:
 292              		.loc 1 1872 7 view .LVU77
 293 000a FFF7FEFF 		bl	ld_16
 294              	.LVL28:
1873:./ThirdParty/FatFs/Src/ff.c **** 	if (fs->fs_type == FS_FAT32) {
 295              		.loc 1 1873 2 is_stmt 1 view .LVU78
 296              		.loc 1 1873 8 is_stmt 0 view .LVU79
 297 000e 2378     		ldrb	r3, [r4]	@ zero_extendqisi2
 298              		.loc 1 1873 5 view .LVU80
 299 0010 032B     		cmp	r3, #3
 300 0012 00D0     		beq	.L13
 301              	.LVL29:
 302              	.L10:
1874:./ThirdParty/FatFs/Src/ff.c **** 		cl |= (DWORD)ld_16(dir + DIR_FstClusHI) << 16;
1875:./ThirdParty/FatFs/Src/ff.c **** 	}
1876:./ThirdParty/FatFs/Src/ff.c **** 
1877:./ThirdParty/FatFs/Src/ff.c **** 	return cl;
1878:./ThirdParty/FatFs/Src/ff.c **** }
ARM GAS  C:\Users\Xuleo\AppData\Local\Temp\ccTDbepL.s 			page 39


 303              		.loc 1 1878 1 view .LVU81
 304 0014 70BD     		pop	{r4, r5, r6, pc}
 305              	.LVL30:
 306              	.L13:
 307              		.loc 1 1878 1 view .LVU82
 308 0016 0646     		mov	r6, r0
1874:./ThirdParty/FatFs/Src/ff.c **** 		cl |= (DWORD)ld_16(dir + DIR_FstClusHI) << 16;
 309              		.loc 1 1874 3 is_stmt 1 view .LVU83
1874:./ThirdParty/FatFs/Src/ff.c **** 		cl |= (DWORD)ld_16(dir + DIR_FstClusHI) << 16;
 310              		.loc 1 1874 16 is_stmt 0 view .LVU84
 311 0018 2846     		mov	r0, r5
 312              	.LVL31:
1874:./ThirdParty/FatFs/Src/ff.c **** 		cl |= (DWORD)ld_16(dir + DIR_FstClusHI) << 16;
 313              		.loc 1 1874 16 view .LVU85
 314 001a 1430     		adds	r0, r0, #20
 315 001c FFF7FEFF 		bl	ld_16
 316              	.LVL32:
1874:./ThirdParty/FatFs/Src/ff.c **** 		cl |= (DWORD)ld_16(dir + DIR_FstClusHI) << 16;
 317              		.loc 1 1874 6 discriminator 1 view .LVU86
 318 0020 46EA0040 		orr	r0, r6, r0, lsl #16
 319              	.LVL33:
1877:./ThirdParty/FatFs/Src/ff.c **** }
 320              		.loc 1 1877 2 is_stmt 1 view .LVU87
1877:./ThirdParty/FatFs/Src/ff.c **** }
 321              		.loc 1 1877 9 is_stmt 0 view .LVU88
 322 0024 F6E7     		b	.L10
 323              		.cfi_endproc
 324              	.LFE18:
 326              		.section	.text.st_clust,"ax",%progbits
 327              		.align	1
 328              		.syntax unified
 329              		.thumb
 330              		.thumb_func
 332              	st_clust:
 333              	.LVL34:
 334              	.LFB19:
1879:./ThirdParty/FatFs/Src/ff.c **** 
1880:./ThirdParty/FatFs/Src/ff.c **** 
1881:./ThirdParty/FatFs/Src/ff.c **** #if !FF_FS_READONLY
1882:./ThirdParty/FatFs/Src/ff.c **** static void st_clust (
1883:./ThirdParty/FatFs/Src/ff.c **** 	FATFS* fs,	/* Pointer to the fs object */
1884:./ThirdParty/FatFs/Src/ff.c **** 	BYTE* dir,	/* Pointer to the key entry */
1885:./ThirdParty/FatFs/Src/ff.c **** 	DWORD cl	/* Value to be set */
1886:./ThirdParty/FatFs/Src/ff.c **** )
1887:./ThirdParty/FatFs/Src/ff.c **** {
 335              		.loc 1 1887 1 is_stmt 1 view -0
 336              		.cfi_startproc
 337              		@ args = 0, pretend = 0, frame = 0
 338              		@ frame_needed = 0, uses_anonymous_args = 0
 339              		.loc 1 1887 1 is_stmt 0 view .LVU90
 340 0000 70B5     		push	{r4, r5, r6, lr}
 341              	.LCFI1:
 342              		.cfi_def_cfa_offset 16
 343              		.cfi_offset 4, -16
 344              		.cfi_offset 5, -12
 345              		.cfi_offset 6, -8
 346              		.cfi_offset 14, -4
ARM GAS  C:\Users\Xuleo\AppData\Local\Temp\ccTDbepL.s 			page 40


 347 0002 0446     		mov	r4, r0
 348 0004 0B46     		mov	r3, r1
 349 0006 0D46     		mov	r5, r1
 350 0008 1646     		mov	r6, r2
1888:./ThirdParty/FatFs/Src/ff.c **** 	st_16(dir + DIR_FstClusLO, (WORD)cl);
 351              		.loc 1 1888 2 is_stmt 1 view .LVU91
 352 000a 91B2     		uxth	r1, r2
 353              	.LVL35:
 354              		.loc 1 1888 2 is_stmt 0 view .LVU92
 355 000c 03F11A00 		add	r0, r3, #26
 356              	.LVL36:
 357              		.loc 1 1888 2 view .LVU93
 358 0010 FFF7FEFF 		bl	st_16
 359              	.LVL37:
1889:./ThirdParty/FatFs/Src/ff.c **** 	if (fs->fs_type == FS_FAT32) {
 360              		.loc 1 1889 2 is_stmt 1 view .LVU94
 361              		.loc 1 1889 8 is_stmt 0 view .LVU95
 362 0014 2378     		ldrb	r3, [r4]	@ zero_extendqisi2
 363              		.loc 1 1889 5 view .LVU96
 364 0016 032B     		cmp	r3, #3
 365 0018 00D0     		beq	.L17
 366              	.L14:
1890:./ThirdParty/FatFs/Src/ff.c **** 		st_16(dir + DIR_FstClusHI, (WORD)(cl >> 16));
1891:./ThirdParty/FatFs/Src/ff.c **** 	}
1892:./ThirdParty/FatFs/Src/ff.c **** }
 367              		.loc 1 1892 1 view .LVU97
 368 001a 70BD     		pop	{r4, r5, r6, pc}
 369              	.LVL38:
 370              	.L17:
1890:./ThirdParty/FatFs/Src/ff.c **** 		st_16(dir + DIR_FstClusHI, (WORD)(cl >> 16));
 371              		.loc 1 1890 3 is_stmt 1 view .LVU98
 372 001c 310C     		lsrs	r1, r6, #16
 373 001e 2846     		mov	r0, r5
 374 0020 1430     		adds	r0, r0, #20
 375 0022 FFF7FEFF 		bl	st_16
 376              	.LVL39:
 377              		.loc 1 1892 1 is_stmt 0 view .LVU99
 378 0026 F8E7     		b	.L14
 379              		.cfi_endproc
 380              	.LFE19:
 382              		.section	.text.get_fileinfo,"ax",%progbits
 383              		.align	1
 384              		.syntax unified
 385              		.thumb
 386              		.thumb_func
 388              	get_fileinfo:
 389              	.LVL40:
 390              	.LFB24:
1893:./ThirdParty/FatFs/Src/ff.c **** #endif
1894:./ThirdParty/FatFs/Src/ff.c **** 
1895:./ThirdParty/FatFs/Src/ff.c **** 
1896:./ThirdParty/FatFs/Src/ff.c **** 
1897:./ThirdParty/FatFs/Src/ff.c **** #if FF_USE_LFN
1898:./ThirdParty/FatFs/Src/ff.c **** /*--------------------------------------------------------*/
1899:./ThirdParty/FatFs/Src/ff.c **** /* FAT-LFN: Compare a part of file name with an LFN entry */
1900:./ThirdParty/FatFs/Src/ff.c **** /*--------------------------------------------------------*/
1901:./ThirdParty/FatFs/Src/ff.c **** 
ARM GAS  C:\Users\Xuleo\AppData\Local\Temp\ccTDbepL.s 			page 41


1902:./ThirdParty/FatFs/Src/ff.c **** static int cmp_lfn (		/* 1:matched, 0:not matched */
1903:./ThirdParty/FatFs/Src/ff.c **** 	const WCHAR* lfnbuf,	/* Pointer to the LFN to be compared */
1904:./ThirdParty/FatFs/Src/ff.c **** 	BYTE* dir				/* Pointer to the LFN entry */
1905:./ThirdParty/FatFs/Src/ff.c **** )
1906:./ThirdParty/FatFs/Src/ff.c **** {
1907:./ThirdParty/FatFs/Src/ff.c **** 	UINT ni, di;
1908:./ThirdParty/FatFs/Src/ff.c **** 	WCHAR pchr, chr;
1909:./ThirdParty/FatFs/Src/ff.c **** 
1910:./ThirdParty/FatFs/Src/ff.c **** 
1911:./ThirdParty/FatFs/Src/ff.c **** 	if (ld_16(dir + LDIR_FstClusLO) != 0) return 0;	/* Check if LDIR_FstClusLO is 0 */
1912:./ThirdParty/FatFs/Src/ff.c **** 
1913:./ThirdParty/FatFs/Src/ff.c **** 	ni = (UINT)((dir[LDIR_Ord] & 0x3F) - 1) * 13;	/* Offset in the name to be compared */
1914:./ThirdParty/FatFs/Src/ff.c **** 
1915:./ThirdParty/FatFs/Src/ff.c **** 	for (pchr = 1, di = 0; di < 13; di++) {	/* Process all characters in the entry */
1916:./ThirdParty/FatFs/Src/ff.c **** 		chr = ld_16(dir + LfnOfs[di]);		/* Pick a character from the entry */
1917:./ThirdParty/FatFs/Src/ff.c **** 		if (pchr != 0) {
1918:./ThirdParty/FatFs/Src/ff.c **** 			if (ni >= FF_MAX_LFN + 1 || ff_wtoupper(chr) != ff_wtoupper(lfnbuf[ni++])) {	/* Compare it with 
1919:./ThirdParty/FatFs/Src/ff.c **** 				return 0;					/* Not matched */
1920:./ThirdParty/FatFs/Src/ff.c **** 			}
1921:./ThirdParty/FatFs/Src/ff.c **** 			pchr = chr;
1922:./ThirdParty/FatFs/Src/ff.c **** 		} else {
1923:./ThirdParty/FatFs/Src/ff.c **** 			if (chr != 0xFFFF) return 0;	/* Check filler */
1924:./ThirdParty/FatFs/Src/ff.c **** 		}
1925:./ThirdParty/FatFs/Src/ff.c **** 	}
1926:./ThirdParty/FatFs/Src/ff.c **** 
1927:./ThirdParty/FatFs/Src/ff.c **** 	if ((dir[LDIR_Ord] & LLEF) && pchr && lfnbuf[ni]) return 0;	/* Last name segment matched but diffe
1928:./ThirdParty/FatFs/Src/ff.c **** 
1929:./ThirdParty/FatFs/Src/ff.c **** 	return 1;		/* The part of LFN matched */
1930:./ThirdParty/FatFs/Src/ff.c **** }
1931:./ThirdParty/FatFs/Src/ff.c **** 
1932:./ThirdParty/FatFs/Src/ff.c **** 
1933:./ThirdParty/FatFs/Src/ff.c **** #if FF_FS_MINIMIZE <= 1 || FF_FS_RPATH >= 2 || FF_USE_LABEL || FF_FS_EXFAT
1934:./ThirdParty/FatFs/Src/ff.c **** /*-----------------------------------------------------*/
1935:./ThirdParty/FatFs/Src/ff.c **** /* FAT-LFN: Pick a part of file name from an LFN entry */
1936:./ThirdParty/FatFs/Src/ff.c **** /*-----------------------------------------------------*/
1937:./ThirdParty/FatFs/Src/ff.c **** 
1938:./ThirdParty/FatFs/Src/ff.c **** static int pick_lfn (	/* 1:succeeded, 0:buffer overflow or invalid LFN entry */
1939:./ThirdParty/FatFs/Src/ff.c **** 	WCHAR* lfnbuf,		/* Pointer to the name buffer to be stored */
1940:./ThirdParty/FatFs/Src/ff.c **** 	const BYTE* dir		/* Pointer to the LFN entry */
1941:./ThirdParty/FatFs/Src/ff.c **** )
1942:./ThirdParty/FatFs/Src/ff.c **** {
1943:./ThirdParty/FatFs/Src/ff.c **** 	UINT ni, di;
1944:./ThirdParty/FatFs/Src/ff.c **** 	WCHAR pchr, chr;
1945:./ThirdParty/FatFs/Src/ff.c **** 
1946:./ThirdParty/FatFs/Src/ff.c **** 
1947:./ThirdParty/FatFs/Src/ff.c **** 	if (ld_16(dir + LDIR_FstClusLO) != 0) return 0;	/* Check if LDIR_FstClusLO is 0 */
1948:./ThirdParty/FatFs/Src/ff.c **** 
1949:./ThirdParty/FatFs/Src/ff.c **** 	ni = (UINT)((dir[LDIR_Ord] & ~LLEF) - 1) * 13;	/* Offset in the name buffer */
1950:./ThirdParty/FatFs/Src/ff.c **** 
1951:./ThirdParty/FatFs/Src/ff.c **** 	for (pchr = 1, di = 0; di < 13; di++) {		/* Process all characters in the entry */
1952:./ThirdParty/FatFs/Src/ff.c **** 		chr = ld_16(dir + LfnOfs[di]);			/* Pick a character from the entry */
1953:./ThirdParty/FatFs/Src/ff.c **** 		if (pchr != 0) {
1954:./ThirdParty/FatFs/Src/ff.c **** 			if (ni >= FF_MAX_LFN + 1) return 0;	/* Buffer overflow? */
1955:./ThirdParty/FatFs/Src/ff.c **** 			lfnbuf[ni++] = pchr = chr;			/* Store it */
1956:./ThirdParty/FatFs/Src/ff.c **** 		} else {
1957:./ThirdParty/FatFs/Src/ff.c **** 			if (chr != 0xFFFF) return 0;		/* Check filler */
1958:./ThirdParty/FatFs/Src/ff.c **** 		}
ARM GAS  C:\Users\Xuleo\AppData\Local\Temp\ccTDbepL.s 			page 42


1959:./ThirdParty/FatFs/Src/ff.c **** 	}
1960:./ThirdParty/FatFs/Src/ff.c **** 
1961:./ThirdParty/FatFs/Src/ff.c **** 	if (dir[LDIR_Ord] & LLEF && pchr != 0) {	/* Put terminator if it is the last LFN part and not term
1962:./ThirdParty/FatFs/Src/ff.c **** 		if (ni >= FF_MAX_LFN + 1) return 0;		/* Buffer overflow? */
1963:./ThirdParty/FatFs/Src/ff.c **** 		lfnbuf[ni] = 0;
1964:./ThirdParty/FatFs/Src/ff.c **** 	}
1965:./ThirdParty/FatFs/Src/ff.c **** 
1966:./ThirdParty/FatFs/Src/ff.c **** 	return 1;		/* The part of LFN is valid */
1967:./ThirdParty/FatFs/Src/ff.c **** }
1968:./ThirdParty/FatFs/Src/ff.c **** #endif
1969:./ThirdParty/FatFs/Src/ff.c **** 
1970:./ThirdParty/FatFs/Src/ff.c **** 
1971:./ThirdParty/FatFs/Src/ff.c **** #if !FF_FS_READONLY
1972:./ThirdParty/FatFs/Src/ff.c **** /*-----------------------------------------*/
1973:./ThirdParty/FatFs/Src/ff.c **** /* FAT-LFN: Create an entry of LFN entries */
1974:./ThirdParty/FatFs/Src/ff.c **** /*-----------------------------------------*/
1975:./ThirdParty/FatFs/Src/ff.c **** 
1976:./ThirdParty/FatFs/Src/ff.c **** static void put_lfn (
1977:./ThirdParty/FatFs/Src/ff.c **** 	const WCHAR* lfn,	/* Pointer to the LFN */
1978:./ThirdParty/FatFs/Src/ff.c **** 	BYTE* dir,			/* Pointer to the LFN entry to be created */
1979:./ThirdParty/FatFs/Src/ff.c **** 	BYTE ord,			/* LFN order (1-20) */
1980:./ThirdParty/FatFs/Src/ff.c **** 	BYTE sum			/* Checksum of the corresponding SFN */
1981:./ThirdParty/FatFs/Src/ff.c **** )
1982:./ThirdParty/FatFs/Src/ff.c **** {
1983:./ThirdParty/FatFs/Src/ff.c **** 	UINT ni, di;
1984:./ThirdParty/FatFs/Src/ff.c **** 	WCHAR chr;
1985:./ThirdParty/FatFs/Src/ff.c **** 
1986:./ThirdParty/FatFs/Src/ff.c **** 
1987:./ThirdParty/FatFs/Src/ff.c **** 	dir[LDIR_Chksum] = sum;			/* Set checksum */
1988:./ThirdParty/FatFs/Src/ff.c **** 	dir[LDIR_Attr] = AM_LFN;		/* Set attribute */
1989:./ThirdParty/FatFs/Src/ff.c **** 	dir[LDIR_Type] = 0;
1990:./ThirdParty/FatFs/Src/ff.c **** 	st_16(dir + LDIR_FstClusLO, 0);
1991:./ThirdParty/FatFs/Src/ff.c **** 
1992:./ThirdParty/FatFs/Src/ff.c **** 	ni = (UINT)(ord - 1) * 13;		/* Offset in the name */
1993:./ThirdParty/FatFs/Src/ff.c **** 	di = chr = 0;
1994:./ThirdParty/FatFs/Src/ff.c **** 	do {	/* Fill the directory entry */
1995:./ThirdParty/FatFs/Src/ff.c **** 		if (chr != 0xFFFF) chr = lfn[ni++];	/* Get an effective character */
1996:./ThirdParty/FatFs/Src/ff.c **** 		st_16(dir + LfnOfs[di], chr);	/* Set it */
1997:./ThirdParty/FatFs/Src/ff.c **** 		if (chr == 0) chr = 0xFFFF;		/* Padding characters after the terminator */
1998:./ThirdParty/FatFs/Src/ff.c **** 	} while (++di < 13);
1999:./ThirdParty/FatFs/Src/ff.c **** 	if (chr == 0xFFFF || !lfn[ni]) ord |= LLEF;	/* Last LFN part is the start of an enrty set */
2000:./ThirdParty/FatFs/Src/ff.c **** 	dir[LDIR_Ord] = ord;			/* Set order in the entry set */
2001:./ThirdParty/FatFs/Src/ff.c **** }
2002:./ThirdParty/FatFs/Src/ff.c **** 
2003:./ThirdParty/FatFs/Src/ff.c **** #endif	/* !FF_FS_READONLY */
2004:./ThirdParty/FatFs/Src/ff.c **** #endif	/* FF_USE_LFN */
2005:./ThirdParty/FatFs/Src/ff.c **** 
2006:./ThirdParty/FatFs/Src/ff.c **** 
2007:./ThirdParty/FatFs/Src/ff.c **** 
2008:./ThirdParty/FatFs/Src/ff.c **** #if FF_USE_LFN && !FF_FS_READONLY
2009:./ThirdParty/FatFs/Src/ff.c **** /*-----------------------------------------------------------------------*/
2010:./ThirdParty/FatFs/Src/ff.c **** /* FAT-LFN: Create a Numbered SFN                                        */
2011:./ThirdParty/FatFs/Src/ff.c **** /*-----------------------------------------------------------------------*/
2012:./ThirdParty/FatFs/Src/ff.c **** 
2013:./ThirdParty/FatFs/Src/ff.c **** static void gen_numname (
2014:./ThirdParty/FatFs/Src/ff.c **** 	BYTE* dst,			/* Pointer to the buffer to store numbered SFN */
2015:./ThirdParty/FatFs/Src/ff.c **** 	const BYTE* src,	/* Pointer to SFN in directory form */
ARM GAS  C:\Users\Xuleo\AppData\Local\Temp\ccTDbepL.s 			page 43


2016:./ThirdParty/FatFs/Src/ff.c **** 	const WCHAR* lfn,	/* Pointer to LFN */
2017:./ThirdParty/FatFs/Src/ff.c **** 	WORD seq			/* Sequence number */
2018:./ThirdParty/FatFs/Src/ff.c **** )
2019:./ThirdParty/FatFs/Src/ff.c **** {
2020:./ThirdParty/FatFs/Src/ff.c **** 	BYTE ns[8], c;
2021:./ThirdParty/FatFs/Src/ff.c **** 	UINT i, j;
2022:./ThirdParty/FatFs/Src/ff.c **** 
2023:./ThirdParty/FatFs/Src/ff.c **** 
2024:./ThirdParty/FatFs/Src/ff.c **** 	memcpy(dst, src, 11);	/* Prepare the SFN to be modified */
2025:./ThirdParty/FatFs/Src/ff.c **** 
2026:./ThirdParty/FatFs/Src/ff.c **** 	if (seq > 5) {	/* In case of many collisions, generate a hash number instead of sequential number 
2027:./ThirdParty/FatFs/Src/ff.c **** 		WCHAR wc;
2028:./ThirdParty/FatFs/Src/ff.c **** 		DWORD crc_sreg = seq;
2029:./ThirdParty/FatFs/Src/ff.c **** 
2030:./ThirdParty/FatFs/Src/ff.c **** 		while (*lfn) {	/* Create a CRC value as a hash of LFN */
2031:./ThirdParty/FatFs/Src/ff.c **** 			wc = *lfn++;
2032:./ThirdParty/FatFs/Src/ff.c **** 			for (i = 0; i < 16; i++) {
2033:./ThirdParty/FatFs/Src/ff.c **** 				crc_sreg = (crc_sreg << 1) + (wc & 1);
2034:./ThirdParty/FatFs/Src/ff.c **** 				wc >>= 1;
2035:./ThirdParty/FatFs/Src/ff.c **** 				if (crc_sreg & 0x10000) crc_sreg ^= 0x11021;
2036:./ThirdParty/FatFs/Src/ff.c **** 			}
2037:./ThirdParty/FatFs/Src/ff.c **** 		}
2038:./ThirdParty/FatFs/Src/ff.c **** 		seq = (WORD)crc_sreg;
2039:./ThirdParty/FatFs/Src/ff.c **** 	}
2040:./ThirdParty/FatFs/Src/ff.c **** 
2041:./ThirdParty/FatFs/Src/ff.c **** 	/* Make suffix (~ + 4-digit hexadecimal) */
2042:./ThirdParty/FatFs/Src/ff.c **** 	i = 7;
2043:./ThirdParty/FatFs/Src/ff.c **** 	do {
2044:./ThirdParty/FatFs/Src/ff.c **** 		c = (BYTE)((seq % 16) + '0'); seq /= 16;
2045:./ThirdParty/FatFs/Src/ff.c **** 		if (c > '9') c += 7;
2046:./ThirdParty/FatFs/Src/ff.c **** 		ns[i--] = c;
2047:./ThirdParty/FatFs/Src/ff.c **** 	} while (i && seq);
2048:./ThirdParty/FatFs/Src/ff.c **** 	ns[i] = '~';
2049:./ThirdParty/FatFs/Src/ff.c **** 
2050:./ThirdParty/FatFs/Src/ff.c **** 	/* Append the suffix to the SFN body */
2051:./ThirdParty/FatFs/Src/ff.c **** 	for (j = 0; j < i && dst[j] != ' '; j++) {	/* Find the offset to append */
2052:./ThirdParty/FatFs/Src/ff.c **** 		if (dbc_1st(dst[j])) {	/* To avoid DBC break up */
2053:./ThirdParty/FatFs/Src/ff.c **** 			if (j == i - 1) break;
2054:./ThirdParty/FatFs/Src/ff.c **** 			j++;
2055:./ThirdParty/FatFs/Src/ff.c **** 		}
2056:./ThirdParty/FatFs/Src/ff.c **** 	}
2057:./ThirdParty/FatFs/Src/ff.c **** 	do {	/* Append the suffix */
2058:./ThirdParty/FatFs/Src/ff.c **** 		dst[j++] = (i < 8) ? ns[i++] : ' ';
2059:./ThirdParty/FatFs/Src/ff.c **** 	} while (j < 8);
2060:./ThirdParty/FatFs/Src/ff.c **** }
2061:./ThirdParty/FatFs/Src/ff.c **** #endif	/* FF_USE_LFN && !FF_FS_READONLY */
2062:./ThirdParty/FatFs/Src/ff.c **** 
2063:./ThirdParty/FatFs/Src/ff.c **** 
2064:./ThirdParty/FatFs/Src/ff.c **** 
2065:./ThirdParty/FatFs/Src/ff.c **** #if FF_USE_LFN
2066:./ThirdParty/FatFs/Src/ff.c **** /*-----------------------------------------------------------------------*/
2067:./ThirdParty/FatFs/Src/ff.c **** /* FAT-LFN: Calculate checksum of an SFN entry                           */
2068:./ThirdParty/FatFs/Src/ff.c **** /*-----------------------------------------------------------------------*/
2069:./ThirdParty/FatFs/Src/ff.c **** 
2070:./ThirdParty/FatFs/Src/ff.c **** static BYTE sum_sfn (
2071:./ThirdParty/FatFs/Src/ff.c **** 	const BYTE* dir		/* Pointer to the SFN entry */
2072:./ThirdParty/FatFs/Src/ff.c **** )
ARM GAS  C:\Users\Xuleo\AppData\Local\Temp\ccTDbepL.s 			page 44


2073:./ThirdParty/FatFs/Src/ff.c **** {
2074:./ThirdParty/FatFs/Src/ff.c **** 	BYTE sum = 0;
2075:./ThirdParty/FatFs/Src/ff.c **** 	UINT n = 11;
2076:./ThirdParty/FatFs/Src/ff.c **** 
2077:./ThirdParty/FatFs/Src/ff.c **** 	do {
2078:./ThirdParty/FatFs/Src/ff.c **** 		sum = (sum >> 1) + (sum << 7) + *dir++;
2079:./ThirdParty/FatFs/Src/ff.c **** 	} while (--n);
2080:./ThirdParty/FatFs/Src/ff.c **** 	return sum;
2081:./ThirdParty/FatFs/Src/ff.c **** }
2082:./ThirdParty/FatFs/Src/ff.c **** 
2083:./ThirdParty/FatFs/Src/ff.c **** #endif	/* FF_USE_LFN */
2084:./ThirdParty/FatFs/Src/ff.c **** 
2085:./ThirdParty/FatFs/Src/ff.c **** 
2086:./ThirdParty/FatFs/Src/ff.c **** 
2087:./ThirdParty/FatFs/Src/ff.c **** #if FF_FS_EXFAT
2088:./ThirdParty/FatFs/Src/ff.c **** /*-----------------------------------------------------------------------*/
2089:./ThirdParty/FatFs/Src/ff.c **** /* exFAT: Checksum                                                       */
2090:./ThirdParty/FatFs/Src/ff.c **** /*-----------------------------------------------------------------------*/
2091:./ThirdParty/FatFs/Src/ff.c **** 
2092:./ThirdParty/FatFs/Src/ff.c **** static WORD xdir_sum (	/* Get checksum of the directoly entry block */
2093:./ThirdParty/FatFs/Src/ff.c **** 	const BYTE* dir		/* Directory entry block to be calculated */
2094:./ThirdParty/FatFs/Src/ff.c **** )
2095:./ThirdParty/FatFs/Src/ff.c **** {
2096:./ThirdParty/FatFs/Src/ff.c **** 	UINT i, szblk;
2097:./ThirdParty/FatFs/Src/ff.c **** 	WORD sum;
2098:./ThirdParty/FatFs/Src/ff.c **** 
2099:./ThirdParty/FatFs/Src/ff.c **** 
2100:./ThirdParty/FatFs/Src/ff.c **** 	szblk = ((UINT)dir[XDIR_NumSec] + 1) * SZDIRE;	/* Number of bytes of the entry block */
2101:./ThirdParty/FatFs/Src/ff.c **** 	for (i = sum = 0; i < szblk; i++) {
2102:./ThirdParty/FatFs/Src/ff.c **** 		if (i == XDIR_SetSum) {	/* Skip 2-byte sum field */
2103:./ThirdParty/FatFs/Src/ff.c **** 			i++;
2104:./ThirdParty/FatFs/Src/ff.c **** 		} else {
2105:./ThirdParty/FatFs/Src/ff.c **** 			sum = ((sum & 1) ? 0x8000 : 0) + (sum >> 1) + dir[i];
2106:./ThirdParty/FatFs/Src/ff.c **** 		}
2107:./ThirdParty/FatFs/Src/ff.c **** 	}
2108:./ThirdParty/FatFs/Src/ff.c **** 	return sum;
2109:./ThirdParty/FatFs/Src/ff.c **** }
2110:./ThirdParty/FatFs/Src/ff.c **** 
2111:./ThirdParty/FatFs/Src/ff.c **** 
2112:./ThirdParty/FatFs/Src/ff.c **** 
2113:./ThirdParty/FatFs/Src/ff.c **** static WORD xname_sum (	/* Get check sum (to be used as hash) of the file name */
2114:./ThirdParty/FatFs/Src/ff.c **** 	const WCHAR* name	/* File name to be calculated */
2115:./ThirdParty/FatFs/Src/ff.c **** )
2116:./ThirdParty/FatFs/Src/ff.c **** {
2117:./ThirdParty/FatFs/Src/ff.c **** 	WCHAR chr;
2118:./ThirdParty/FatFs/Src/ff.c **** 	WORD sum = 0;
2119:./ThirdParty/FatFs/Src/ff.c **** 
2120:./ThirdParty/FatFs/Src/ff.c **** 
2121:./ThirdParty/FatFs/Src/ff.c **** 	while ((chr = *name++) != 0) {
2122:./ThirdParty/FatFs/Src/ff.c **** 		chr = (WCHAR)ff_wtoupper(chr);		/* File name needs to be up-case converted */
2123:./ThirdParty/FatFs/Src/ff.c **** 		sum = ((sum & 1) ? 0x8000 : 0) + (sum >> 1) + (chr & 0xFF);
2124:./ThirdParty/FatFs/Src/ff.c **** 		sum = ((sum & 1) ? 0x8000 : 0) + (sum >> 1) + (chr >> 8);
2125:./ThirdParty/FatFs/Src/ff.c **** 	}
2126:./ThirdParty/FatFs/Src/ff.c **** 	return sum;
2127:./ThirdParty/FatFs/Src/ff.c **** }
2128:./ThirdParty/FatFs/Src/ff.c **** 
2129:./ThirdParty/FatFs/Src/ff.c **** 
ARM GAS  C:\Users\Xuleo\AppData\Local\Temp\ccTDbepL.s 			page 45


2130:./ThirdParty/FatFs/Src/ff.c **** #if !FF_FS_READONLY && FF_USE_MKFS
2131:./ThirdParty/FatFs/Src/ff.c **** static DWORD xsum32 (	/* Returns 32-bit checksum */
2132:./ThirdParty/FatFs/Src/ff.c **** 	BYTE  dat,			/* Byte to be calculated (byte-by-byte processing) */
2133:./ThirdParty/FatFs/Src/ff.c **** 	DWORD sum			/* Previous sum value */
2134:./ThirdParty/FatFs/Src/ff.c **** )
2135:./ThirdParty/FatFs/Src/ff.c **** {
2136:./ThirdParty/FatFs/Src/ff.c **** 	sum = ((sum & 1) ? 0x80000000 : 0) + (sum >> 1) + dat;
2137:./ThirdParty/FatFs/Src/ff.c **** 	return sum;
2138:./ThirdParty/FatFs/Src/ff.c **** }
2139:./ThirdParty/FatFs/Src/ff.c **** #endif
2140:./ThirdParty/FatFs/Src/ff.c **** 
2141:./ThirdParty/FatFs/Src/ff.c **** 
2142:./ThirdParty/FatFs/Src/ff.c **** 
2143:./ThirdParty/FatFs/Src/ff.c **** /*------------------------------------*/
2144:./ThirdParty/FatFs/Src/ff.c **** /* exFAT: Get a directory entry block */
2145:./ThirdParty/FatFs/Src/ff.c **** /*------------------------------------*/
2146:./ThirdParty/FatFs/Src/ff.c **** 
2147:./ThirdParty/FatFs/Src/ff.c **** static FRESULT load_xdir (	/* FR_INT_ERR: invalid entry block */
2148:./ThirdParty/FatFs/Src/ff.c **** 	DIR* dp					/* Reading directory object pointing top of the entry block to load */
2149:./ThirdParty/FatFs/Src/ff.c **** )
2150:./ThirdParty/FatFs/Src/ff.c **** {
2151:./ThirdParty/FatFs/Src/ff.c **** 	FRESULT res;
2152:./ThirdParty/FatFs/Src/ff.c **** 	UINT i, sz_ent;
2153:./ThirdParty/FatFs/Src/ff.c **** 	BYTE *dirb = dp->obj.fs->dirbuf;	/* Pointer to the on-memory directory entry block 85+C0+C1s */
2154:./ThirdParty/FatFs/Src/ff.c **** 
2155:./ThirdParty/FatFs/Src/ff.c **** 
2156:./ThirdParty/FatFs/Src/ff.c **** 	/* Load file-directory entry */
2157:./ThirdParty/FatFs/Src/ff.c **** 	res = move_window(dp->obj.fs, dp->sect);
2158:./ThirdParty/FatFs/Src/ff.c **** 	if (res != FR_OK) return res;
2159:./ThirdParty/FatFs/Src/ff.c **** 	if (dp->dir[XDIR_Type] != ET_FILEDIR) return FR_INT_ERR;	/* Invalid order? */
2160:./ThirdParty/FatFs/Src/ff.c **** 	memcpy(dirb + 0 * SZDIRE, dp->dir, SZDIRE);
2161:./ThirdParty/FatFs/Src/ff.c **** 	sz_ent = ((UINT)dirb[XDIR_NumSec] + 1) * SZDIRE;	/* Size of this entry block */
2162:./ThirdParty/FatFs/Src/ff.c **** 	if (sz_ent < 3 * SZDIRE || sz_ent > 19 * SZDIRE) return FR_INT_ERR;	/* Invalid block size? */
2163:./ThirdParty/FatFs/Src/ff.c **** 
2164:./ThirdParty/FatFs/Src/ff.c **** 	/* Load stream extension entry */
2165:./ThirdParty/FatFs/Src/ff.c **** 	res = dir_next(dp, 0);
2166:./ThirdParty/FatFs/Src/ff.c **** 	if (res == FR_NO_FILE) res = FR_INT_ERR;	/* It cannot be */
2167:./ThirdParty/FatFs/Src/ff.c **** 	if (res != FR_OK) return res;
2168:./ThirdParty/FatFs/Src/ff.c **** 	res = move_window(dp->obj.fs, dp->sect);
2169:./ThirdParty/FatFs/Src/ff.c **** 	if (res != FR_OK) return res;
2170:./ThirdParty/FatFs/Src/ff.c **** 	if (dp->dir[XDIR_Type] != ET_STREAM) return FR_INT_ERR;	/* Invalid order? */
2171:./ThirdParty/FatFs/Src/ff.c **** 	memcpy(dirb + 1 * SZDIRE, dp->dir, SZDIRE);
2172:./ThirdParty/FatFs/Src/ff.c **** 	if (MAXDIRB(dirb[XDIR_NumName]) > sz_ent) return FR_INT_ERR;	/* Invalid block size for the name? *
2173:./ThirdParty/FatFs/Src/ff.c **** 
2174:./ThirdParty/FatFs/Src/ff.c **** 	/* Load file name entries */
2175:./ThirdParty/FatFs/Src/ff.c **** 	i = 2 * SZDIRE;	/* Name offset to load */
2176:./ThirdParty/FatFs/Src/ff.c **** 	do {
2177:./ThirdParty/FatFs/Src/ff.c **** 		res = dir_next(dp, 0);
2178:./ThirdParty/FatFs/Src/ff.c **** 		if (res == FR_NO_FILE) res = FR_INT_ERR;	/* It cannot be */
2179:./ThirdParty/FatFs/Src/ff.c **** 		if (res != FR_OK) return res;
2180:./ThirdParty/FatFs/Src/ff.c **** 		res = move_window(dp->obj.fs, dp->sect);
2181:./ThirdParty/FatFs/Src/ff.c **** 		if (res != FR_OK) return res;
2182:./ThirdParty/FatFs/Src/ff.c **** 		if (dp->dir[XDIR_Type] != ET_FILENAME) return FR_INT_ERR;	/* Invalid order? */
2183:./ThirdParty/FatFs/Src/ff.c **** 		if (i < MAXDIRB(FF_MAX_LFN)) memcpy(dirb + i, dp->dir, SZDIRE);	/* Load name entries only if the 
2184:./ThirdParty/FatFs/Src/ff.c **** 	} while ((i += SZDIRE) < sz_ent);
2185:./ThirdParty/FatFs/Src/ff.c **** 
2186:./ThirdParty/FatFs/Src/ff.c **** 	/* Sanity check (do it for only accessible object) */
ARM GAS  C:\Users\Xuleo\AppData\Local\Temp\ccTDbepL.s 			page 46


2187:./ThirdParty/FatFs/Src/ff.c **** 	if (i <= MAXDIRB(FF_MAX_LFN)) {
2188:./ThirdParty/FatFs/Src/ff.c **** 		if (xdir_sum(dirb) != ld_16(dirb + XDIR_SetSum)) return FR_INT_ERR;
2189:./ThirdParty/FatFs/Src/ff.c **** 	}
2190:./ThirdParty/FatFs/Src/ff.c **** 
2191:./ThirdParty/FatFs/Src/ff.c **** 	return FR_OK;
2192:./ThirdParty/FatFs/Src/ff.c **** }
2193:./ThirdParty/FatFs/Src/ff.c **** 
2194:./ThirdParty/FatFs/Src/ff.c **** 
2195:./ThirdParty/FatFs/Src/ff.c **** /*------------------------------------------------------------------*/
2196:./ThirdParty/FatFs/Src/ff.c **** /* exFAT: Initialize object allocation info with loaded entry block */
2197:./ThirdParty/FatFs/Src/ff.c **** /*------------------------------------------------------------------*/
2198:./ThirdParty/FatFs/Src/ff.c **** 
2199:./ThirdParty/FatFs/Src/ff.c **** static void init_alloc_info (
2200:./ThirdParty/FatFs/Src/ff.c **** 	FFOBJID* dobj,	/* Object allocation information to be initialized */
2201:./ThirdParty/FatFs/Src/ff.c **** 	DIR* sdir		/* Additional source about containing direcotry */
2202:./ThirdParty/FatFs/Src/ff.c **** )
2203:./ThirdParty/FatFs/Src/ff.c **** {
2204:./ThirdParty/FatFs/Src/ff.c **** 	FATFS *fs = dobj->fs;
2205:./ThirdParty/FatFs/Src/ff.c **** 
2206:./ThirdParty/FatFs/Src/ff.c **** 
2207:./ThirdParty/FatFs/Src/ff.c **** 	if (sdir) {	/* Initialize the containing directory. This block needs to precede the followings. */
2208:./ThirdParty/FatFs/Src/ff.c **** 		dobj->c_scl = sdir->obj.sclust;
2209:./ThirdParty/FatFs/Src/ff.c **** 		dobj->c_size = ((DWORD)sdir->obj.objsize & 0xFFFFFF00) | sdir->obj.stat;
2210:./ThirdParty/FatFs/Src/ff.c **** 		dobj->c_ofs = sdir->blk_ofs;
2211:./ThirdParty/FatFs/Src/ff.c **** 	}
2212:./ThirdParty/FatFs/Src/ff.c **** 	dobj->sclust = ld_32(fs->dirbuf + XDIR_FstClus);	/* Start cluster */
2213:./ThirdParty/FatFs/Src/ff.c **** 	dobj->objsize = ld_64(fs->dirbuf + XDIR_FileSize);	/* Size */
2214:./ThirdParty/FatFs/Src/ff.c **** 	dobj->stat = fs->dirbuf[XDIR_GenFlags] & 2;			/* Allocation status */
2215:./ThirdParty/FatFs/Src/ff.c **** 	dobj->n_frag = 0;									/* No last fragment info */
2216:./ThirdParty/FatFs/Src/ff.c **** }
2217:./ThirdParty/FatFs/Src/ff.c **** 
2218:./ThirdParty/FatFs/Src/ff.c **** 
2219:./ThirdParty/FatFs/Src/ff.c **** 
2220:./ThirdParty/FatFs/Src/ff.c **** #if !FF_FS_READONLY || FF_FS_RPATH
2221:./ThirdParty/FatFs/Src/ff.c **** /*------------------------------------------------*/
2222:./ThirdParty/FatFs/Src/ff.c **** /* exFAT: Load the object's directory entry block */
2223:./ThirdParty/FatFs/Src/ff.c **** /*------------------------------------------------*/
2224:./ThirdParty/FatFs/Src/ff.c **** 
2225:./ThirdParty/FatFs/Src/ff.c **** static FRESULT load_obj_xdir (
2226:./ThirdParty/FatFs/Src/ff.c **** 	DIR* dp,			/* Blank directory object to be used to access containing directory */
2227:./ThirdParty/FatFs/Src/ff.c **** 	const FFOBJID* obj	/* Object with its containing directory information */
2228:./ThirdParty/FatFs/Src/ff.c **** )
2229:./ThirdParty/FatFs/Src/ff.c **** {
2230:./ThirdParty/FatFs/Src/ff.c **** 	FRESULT res;
2231:./ThirdParty/FatFs/Src/ff.c **** 
2232:./ThirdParty/FatFs/Src/ff.c **** 	/* Open object containing directory */
2233:./ThirdParty/FatFs/Src/ff.c **** 	dp->obj.fs = obj->fs;
2234:./ThirdParty/FatFs/Src/ff.c **** 	dp->obj.sclust = obj->c_scl;
2235:./ThirdParty/FatFs/Src/ff.c **** 	dp->obj.stat = (BYTE)obj->c_size;
2236:./ThirdParty/FatFs/Src/ff.c **** 	dp->obj.objsize = obj->c_size & 0xFFFFFF00;
2237:./ThirdParty/FatFs/Src/ff.c **** 	dp->obj.n_frag = 0;
2238:./ThirdParty/FatFs/Src/ff.c **** 	dp->blk_ofs = obj->c_ofs;
2239:./ThirdParty/FatFs/Src/ff.c **** 
2240:./ThirdParty/FatFs/Src/ff.c **** 	res = dir_sdi(dp, dp->blk_ofs);	/* Goto object's entry block */
2241:./ThirdParty/FatFs/Src/ff.c **** 	if (res == FR_OK) {
2242:./ThirdParty/FatFs/Src/ff.c **** 		res = load_xdir(dp);		/* Load the object's entry block */
2243:./ThirdParty/FatFs/Src/ff.c **** 	}
ARM GAS  C:\Users\Xuleo\AppData\Local\Temp\ccTDbepL.s 			page 47


2244:./ThirdParty/FatFs/Src/ff.c **** 	return res;
2245:./ThirdParty/FatFs/Src/ff.c **** }
2246:./ThirdParty/FatFs/Src/ff.c **** #endif
2247:./ThirdParty/FatFs/Src/ff.c **** 
2248:./ThirdParty/FatFs/Src/ff.c **** 
2249:./ThirdParty/FatFs/Src/ff.c **** #if !FF_FS_READONLY
2250:./ThirdParty/FatFs/Src/ff.c **** /*----------------------------------------*/
2251:./ThirdParty/FatFs/Src/ff.c **** /* exFAT: Store the directory entry block */
2252:./ThirdParty/FatFs/Src/ff.c **** /*----------------------------------------*/
2253:./ThirdParty/FatFs/Src/ff.c **** 
2254:./ThirdParty/FatFs/Src/ff.c **** static FRESULT store_xdir (
2255:./ThirdParty/FatFs/Src/ff.c **** 	DIR* dp				/* Pointer to the directory object */
2256:./ThirdParty/FatFs/Src/ff.c **** )
2257:./ThirdParty/FatFs/Src/ff.c **** {
2258:./ThirdParty/FatFs/Src/ff.c **** 	FRESULT res;
2259:./ThirdParty/FatFs/Src/ff.c **** 	UINT nent;
2260:./ThirdParty/FatFs/Src/ff.c **** 	BYTE *dirb = dp->obj.fs->dirbuf;	/* Pointer to the entry set 85+C0+C1s */
2261:./ThirdParty/FatFs/Src/ff.c **** 
2262:./ThirdParty/FatFs/Src/ff.c **** 
2263:./ThirdParty/FatFs/Src/ff.c **** 	st_16(dirb + XDIR_SetSum, xdir_sum(dirb));	/* Create check sum */
2264:./ThirdParty/FatFs/Src/ff.c **** 
2265:./ThirdParty/FatFs/Src/ff.c **** 	/* Store the entry set to the directory */
2266:./ThirdParty/FatFs/Src/ff.c **** 	nent = dirb[XDIR_NumSec] + 1;	/* Number of entries */
2267:./ThirdParty/FatFs/Src/ff.c **** 	res = dir_sdi(dp, dp->blk_ofs);	/* Top of the entry set */
2268:./ThirdParty/FatFs/Src/ff.c **** 	while (res == FR_OK) {
2269:./ThirdParty/FatFs/Src/ff.c **** 		/* Set an entry to the directory */
2270:./ThirdParty/FatFs/Src/ff.c **** 		res = move_window(dp->obj.fs, dp->sect);
2271:./ThirdParty/FatFs/Src/ff.c **** 		if (res != FR_OK) break;
2272:./ThirdParty/FatFs/Src/ff.c **** 		memcpy(dp->dir, dirb, SZDIRE);
2273:./ThirdParty/FatFs/Src/ff.c **** 		dp->obj.fs->wflag = 1;
2274:./ThirdParty/FatFs/Src/ff.c **** 
2275:./ThirdParty/FatFs/Src/ff.c **** 		if (--nent == 0) break;	/* All done? */
2276:./ThirdParty/FatFs/Src/ff.c **** 		dirb += SZDIRE;
2277:./ThirdParty/FatFs/Src/ff.c **** 		res = dir_next(dp, 0);	/* Next entry */
2278:./ThirdParty/FatFs/Src/ff.c **** 	}
2279:./ThirdParty/FatFs/Src/ff.c **** 	return (res == FR_OK || res == FR_DISK_ERR) ? res : FR_INT_ERR;
2280:./ThirdParty/FatFs/Src/ff.c **** }
2281:./ThirdParty/FatFs/Src/ff.c **** 
2282:./ThirdParty/FatFs/Src/ff.c **** 
2283:./ThirdParty/FatFs/Src/ff.c **** 
2284:./ThirdParty/FatFs/Src/ff.c **** /*-------------------------------------------*/
2285:./ThirdParty/FatFs/Src/ff.c **** /* exFAT: Create a new directory entry block */
2286:./ThirdParty/FatFs/Src/ff.c **** /*-------------------------------------------*/
2287:./ThirdParty/FatFs/Src/ff.c **** 
2288:./ThirdParty/FatFs/Src/ff.c **** static void create_xdir (
2289:./ThirdParty/FatFs/Src/ff.c **** 	BYTE* dirb,			/* Pointer to the directory entry block buffer */
2290:./ThirdParty/FatFs/Src/ff.c **** 	const WCHAR* lfn	/* Pointer to the object name */
2291:./ThirdParty/FatFs/Src/ff.c **** )
2292:./ThirdParty/FatFs/Src/ff.c **** {
2293:./ThirdParty/FatFs/Src/ff.c **** 	UINT i;
2294:./ThirdParty/FatFs/Src/ff.c **** 	BYTE n_c1, nlen;
2295:./ThirdParty/FatFs/Src/ff.c **** 	WCHAR chr;
2296:./ThirdParty/FatFs/Src/ff.c **** 
2297:./ThirdParty/FatFs/Src/ff.c **** 
2298:./ThirdParty/FatFs/Src/ff.c **** 	/* Create file-directory and stream-extension entry (1st and 2nd entry) */
2299:./ThirdParty/FatFs/Src/ff.c **** 	memset(dirb, 0, 2 * SZDIRE);
2300:./ThirdParty/FatFs/Src/ff.c **** 	dirb[0 * SZDIRE + XDIR_Type] = ET_FILEDIR;
ARM GAS  C:\Users\Xuleo\AppData\Local\Temp\ccTDbepL.s 			page 48


2301:./ThirdParty/FatFs/Src/ff.c **** 	dirb[1 * SZDIRE + XDIR_Type] = ET_STREAM;
2302:./ThirdParty/FatFs/Src/ff.c **** 
2303:./ThirdParty/FatFs/Src/ff.c **** 	/* Create file name entries (3rd enrty and follows) */
2304:./ThirdParty/FatFs/Src/ff.c **** 	i = SZDIRE * 2;	/* Top of file name entries */
2305:./ThirdParty/FatFs/Src/ff.c **** 	nlen = n_c1 = 0; chr = 1;
2306:./ThirdParty/FatFs/Src/ff.c **** 	do {
2307:./ThirdParty/FatFs/Src/ff.c **** 		dirb[i++] = ET_FILENAME; dirb[i++] = 0;
2308:./ThirdParty/FatFs/Src/ff.c **** 		do {	/* Fill name field */
2309:./ThirdParty/FatFs/Src/ff.c **** 			if (chr != 0 && (chr = lfn[nlen]) != 0) nlen++;	/* Get a character if exist */
2310:./ThirdParty/FatFs/Src/ff.c **** 			st_16(dirb + i, chr); 	/* Store it */
2311:./ThirdParty/FatFs/Src/ff.c **** 			i += 2;
2312:./ThirdParty/FatFs/Src/ff.c **** 		} while (i % SZDIRE != 0);
2313:./ThirdParty/FatFs/Src/ff.c **** 		n_c1++;
2314:./ThirdParty/FatFs/Src/ff.c **** 	} while (lfn[nlen]);	/* Fill next C1 entry if any char follows */
2315:./ThirdParty/FatFs/Src/ff.c **** 
2316:./ThirdParty/FatFs/Src/ff.c **** 	dirb[XDIR_NumName] = nlen;		/* Set name length */
2317:./ThirdParty/FatFs/Src/ff.c **** 	dirb[XDIR_NumSec] = 1 + n_c1;	/* Set secondary count (C0 + C1s) */
2318:./ThirdParty/FatFs/Src/ff.c **** 	st_16(dirb + XDIR_NameHash, xname_sum(lfn));	/* Set name hash */
2319:./ThirdParty/FatFs/Src/ff.c **** }
2320:./ThirdParty/FatFs/Src/ff.c **** 
2321:./ThirdParty/FatFs/Src/ff.c **** #endif	/* !FF_FS_READONLY */
2322:./ThirdParty/FatFs/Src/ff.c **** #endif	/* FF_FS_EXFAT */
2323:./ThirdParty/FatFs/Src/ff.c **** 
2324:./ThirdParty/FatFs/Src/ff.c **** 
2325:./ThirdParty/FatFs/Src/ff.c **** 
2326:./ThirdParty/FatFs/Src/ff.c **** #if FF_FS_MINIMIZE <= 1 || FF_FS_RPATH >= 2 || FF_USE_LABEL || FF_FS_EXFAT
2327:./ThirdParty/FatFs/Src/ff.c **** /*-----------------------------------------------------------------------*/
2328:./ThirdParty/FatFs/Src/ff.c **** /* Read an object from the directory                                     */
2329:./ThirdParty/FatFs/Src/ff.c **** /*-----------------------------------------------------------------------*/
2330:./ThirdParty/FatFs/Src/ff.c **** 
2331:./ThirdParty/FatFs/Src/ff.c **** #define DIR_READ_FILE(dp) dir_read(dp, 0)
2332:./ThirdParty/FatFs/Src/ff.c **** #define DIR_READ_LABEL(dp) dir_read(dp, 1)
2333:./ThirdParty/FatFs/Src/ff.c **** 
2334:./ThirdParty/FatFs/Src/ff.c **** static FRESULT dir_read (
2335:./ThirdParty/FatFs/Src/ff.c **** 	DIR* dp,		/* Pointer to the directory object */
2336:./ThirdParty/FatFs/Src/ff.c **** 	int vol			/* Filtered by 0:file/directory or 1:volume label */
2337:./ThirdParty/FatFs/Src/ff.c **** )
2338:./ThirdParty/FatFs/Src/ff.c **** {
2339:./ThirdParty/FatFs/Src/ff.c **** 	FRESULT res = FR_NO_FILE;
2340:./ThirdParty/FatFs/Src/ff.c **** 	FATFS *fs = dp->obj.fs;
2341:./ThirdParty/FatFs/Src/ff.c **** 	BYTE attr, et;
2342:./ThirdParty/FatFs/Src/ff.c **** #if FF_USE_LFN
2343:./ThirdParty/FatFs/Src/ff.c **** 	BYTE ord = 0xFF, sum = 0xFF;
2344:./ThirdParty/FatFs/Src/ff.c **** #endif
2345:./ThirdParty/FatFs/Src/ff.c **** 
2346:./ThirdParty/FatFs/Src/ff.c **** 	while (dp->sect) {
2347:./ThirdParty/FatFs/Src/ff.c **** 		res = move_window(fs, dp->sect);
2348:./ThirdParty/FatFs/Src/ff.c **** 		if (res != FR_OK) break;
2349:./ThirdParty/FatFs/Src/ff.c **** 		et = dp->dir[DIR_Name];	/* Test for the entry type */
2350:./ThirdParty/FatFs/Src/ff.c **** 		if (et == 0) {
2351:./ThirdParty/FatFs/Src/ff.c **** 			res = FR_NO_FILE; break; /* Reached to end of the directory */
2352:./ThirdParty/FatFs/Src/ff.c **** 		}
2353:./ThirdParty/FatFs/Src/ff.c **** #if FF_FS_EXFAT
2354:./ThirdParty/FatFs/Src/ff.c **** 		if (fs->fs_type == FS_EXFAT) {	/* On the exFAT volume */
2355:./ThirdParty/FatFs/Src/ff.c **** 			if (FF_USE_LABEL && vol) {
2356:./ThirdParty/FatFs/Src/ff.c **** 				if (et == ET_VLABEL) break;	/* Volume label entry? */
2357:./ThirdParty/FatFs/Src/ff.c **** 			} else {
ARM GAS  C:\Users\Xuleo\AppData\Local\Temp\ccTDbepL.s 			page 49


2358:./ThirdParty/FatFs/Src/ff.c **** 				if (et == ET_FILEDIR) {		/* Start of the file entry block? */
2359:./ThirdParty/FatFs/Src/ff.c **** 					dp->blk_ofs = dp->dptr;	/* Get location of the block */
2360:./ThirdParty/FatFs/Src/ff.c **** 					res = load_xdir(dp);	/* Load the entry block */
2361:./ThirdParty/FatFs/Src/ff.c **** 					if (res == FR_OK) {
2362:./ThirdParty/FatFs/Src/ff.c **** 						dp->obj.attr = fs->dirbuf[XDIR_Attr] & AM_MASK;	/* Get attribute */
2363:./ThirdParty/FatFs/Src/ff.c **** 					}
2364:./ThirdParty/FatFs/Src/ff.c **** 					break;
2365:./ThirdParty/FatFs/Src/ff.c **** 				}
2366:./ThirdParty/FatFs/Src/ff.c **** 			}
2367:./ThirdParty/FatFs/Src/ff.c **** 		} else
2368:./ThirdParty/FatFs/Src/ff.c **** #endif
2369:./ThirdParty/FatFs/Src/ff.c **** 		{	/* On the FAT/FAT32 volume */
2370:./ThirdParty/FatFs/Src/ff.c **** 			dp->obj.attr = attr = dp->dir[DIR_Attr] & AM_MASK;	/* Get attribute */
2371:./ThirdParty/FatFs/Src/ff.c **** #if FF_USE_LFN		/* LFN configuration */
2372:./ThirdParty/FatFs/Src/ff.c **** 			if (et == DDEM || et == '.' || (int)((attr & ~AM_ARC) == AM_VOL) != vol) {	/* An entry without v
2373:./ThirdParty/FatFs/Src/ff.c **** 				ord = 0xFF;
2374:./ThirdParty/FatFs/Src/ff.c **** 			} else {
2375:./ThirdParty/FatFs/Src/ff.c **** 				if (attr == AM_LFN) {	/* An LFN entry is found */
2376:./ThirdParty/FatFs/Src/ff.c **** 					if (et & LLEF) {		/* Is it start of an LFN sequence? */
2377:./ThirdParty/FatFs/Src/ff.c **** 						sum = dp->dir[LDIR_Chksum];
2378:./ThirdParty/FatFs/Src/ff.c **** 						et &= (BYTE)~LLEF; ord = et;
2379:./ThirdParty/FatFs/Src/ff.c **** 						dp->blk_ofs = dp->dptr;
2380:./ThirdParty/FatFs/Src/ff.c **** 					}
2381:./ThirdParty/FatFs/Src/ff.c **** 					/* Check LFN validity and capture it */
2382:./ThirdParty/FatFs/Src/ff.c **** 					ord = (et == ord && sum == dp->dir[LDIR_Chksum] && pick_lfn(fs->lfnbuf, dp->dir)) ? ord - 1 : 
2383:./ThirdParty/FatFs/Src/ff.c **** 				} else {				/* An SFN entry is found */
2384:./ThirdParty/FatFs/Src/ff.c **** 					if (ord != 0 || sum != sum_sfn(dp->dir)) {	/* Is there a valid LFN? */
2385:./ThirdParty/FatFs/Src/ff.c **** 						dp->blk_ofs = 0xFFFFFFFF;	/* It has no LFN. */
2386:./ThirdParty/FatFs/Src/ff.c **** 					}
2387:./ThirdParty/FatFs/Src/ff.c **** 					break;
2388:./ThirdParty/FatFs/Src/ff.c **** 				}
2389:./ThirdParty/FatFs/Src/ff.c **** 			}
2390:./ThirdParty/FatFs/Src/ff.c **** #else		/* Non LFN configuration */
2391:./ThirdParty/FatFs/Src/ff.c **** 			if (et != DDEM && et != '.' && attr != AM_LFN && (int)((attr & ~AM_ARC) == AM_VOL) == vol) {	/* 
2392:./ThirdParty/FatFs/Src/ff.c **** 				break;
2393:./ThirdParty/FatFs/Src/ff.c **** 			}
2394:./ThirdParty/FatFs/Src/ff.c **** #endif
2395:./ThirdParty/FatFs/Src/ff.c **** 		}
2396:./ThirdParty/FatFs/Src/ff.c **** 		res = dir_next(dp, 0);		/* Next entry */
2397:./ThirdParty/FatFs/Src/ff.c **** 		if (res != FR_OK) break;
2398:./ThirdParty/FatFs/Src/ff.c **** 	}
2399:./ThirdParty/FatFs/Src/ff.c **** 
2400:./ThirdParty/FatFs/Src/ff.c **** 	if (res != FR_OK) dp->sect = 0;		/* Terminate the read operation on error or EOT */
2401:./ThirdParty/FatFs/Src/ff.c **** 	return res;
2402:./ThirdParty/FatFs/Src/ff.c **** }
2403:./ThirdParty/FatFs/Src/ff.c **** 
2404:./ThirdParty/FatFs/Src/ff.c **** #endif	/* FF_FS_MINIMIZE <= 1 || FF_USE_LABEL || FF_FS_RPATH >= 2 */
2405:./ThirdParty/FatFs/Src/ff.c **** 
2406:./ThirdParty/FatFs/Src/ff.c **** 
2407:./ThirdParty/FatFs/Src/ff.c **** 
2408:./ThirdParty/FatFs/Src/ff.c **** /*-----------------------------------------------------------------------*/
2409:./ThirdParty/FatFs/Src/ff.c **** /* Directory handling - Find an object in the directory                  */
2410:./ThirdParty/FatFs/Src/ff.c **** /*-----------------------------------------------------------------------*/
2411:./ThirdParty/FatFs/Src/ff.c **** 
2412:./ThirdParty/FatFs/Src/ff.c **** static FRESULT dir_find (	/* FR_OK(0):succeeded, !=0:error */
2413:./ThirdParty/FatFs/Src/ff.c **** 	DIR* dp					/* Pointer to the directory object with the file name */
2414:./ThirdParty/FatFs/Src/ff.c **** )
ARM GAS  C:\Users\Xuleo\AppData\Local\Temp\ccTDbepL.s 			page 50


2415:./ThirdParty/FatFs/Src/ff.c **** {
2416:./ThirdParty/FatFs/Src/ff.c **** 	FRESULT res;
2417:./ThirdParty/FatFs/Src/ff.c **** 	FATFS *fs = dp->obj.fs;
2418:./ThirdParty/FatFs/Src/ff.c **** 	BYTE et;
2419:./ThirdParty/FatFs/Src/ff.c **** #if FF_USE_LFN
2420:./ThirdParty/FatFs/Src/ff.c **** 	BYTE attr, ord, sum;
2421:./ThirdParty/FatFs/Src/ff.c **** #endif
2422:./ThirdParty/FatFs/Src/ff.c **** 
2423:./ThirdParty/FatFs/Src/ff.c **** 	res = dir_sdi(dp, 0);			/* Rewind directory object */
2424:./ThirdParty/FatFs/Src/ff.c **** 	if (res != FR_OK) return res;
2425:./ThirdParty/FatFs/Src/ff.c **** #if FF_FS_EXFAT
2426:./ThirdParty/FatFs/Src/ff.c **** 	if (fs->fs_type == FS_EXFAT) {	/* On the exFAT volume */
2427:./ThirdParty/FatFs/Src/ff.c **** 		BYTE nc;
2428:./ThirdParty/FatFs/Src/ff.c **** 		UINT di, ni;
2429:./ThirdParty/FatFs/Src/ff.c **** 		WORD hash = xname_sum(fs->lfnbuf);		/* Hash value of the name to find */
2430:./ThirdParty/FatFs/Src/ff.c **** 
2431:./ThirdParty/FatFs/Src/ff.c **** 		while ((res = DIR_READ_FILE(dp)) == FR_OK) {	/* Read an item */
2432:./ThirdParty/FatFs/Src/ff.c **** #if FF_MAX_LFN < 255
2433:./ThirdParty/FatFs/Src/ff.c **** 			if (fs->dirbuf[XDIR_NumName] > FF_MAX_LFN) continue;		/* Skip comparison if inaccessible object 
2434:./ThirdParty/FatFs/Src/ff.c **** #endif
2435:./ThirdParty/FatFs/Src/ff.c **** 			if (ld_16(fs->dirbuf + XDIR_NameHash) != hash) continue;	/* Skip comparison if hash mismatched *
2436:./ThirdParty/FatFs/Src/ff.c **** 			for (nc = fs->dirbuf[XDIR_NumName], di = SZDIRE * 2, ni = 0; nc; nc--, di += 2, ni++) {	/* Compa
2437:./ThirdParty/FatFs/Src/ff.c **** 				if ((di % SZDIRE) == 0) di += 2;
2438:./ThirdParty/FatFs/Src/ff.c **** 				if (ff_wtoupper(ld_16(fs->dirbuf + di)) != ff_wtoupper(fs->lfnbuf[ni])) break;
2439:./ThirdParty/FatFs/Src/ff.c **** 			}
2440:./ThirdParty/FatFs/Src/ff.c **** 			if (nc == 0 && !fs->lfnbuf[ni]) break;	/* Name matched? */
2441:./ThirdParty/FatFs/Src/ff.c **** 		}
2442:./ThirdParty/FatFs/Src/ff.c **** 		return res;
2443:./ThirdParty/FatFs/Src/ff.c **** 	}
2444:./ThirdParty/FatFs/Src/ff.c **** #endif
2445:./ThirdParty/FatFs/Src/ff.c **** 	/* On the FAT/FAT32 volume */
2446:./ThirdParty/FatFs/Src/ff.c **** #if FF_USE_LFN
2447:./ThirdParty/FatFs/Src/ff.c **** 	ord = sum = 0xFF; dp->blk_ofs = 0xFFFFFFFF;	/* Reset LFN sequence */
2448:./ThirdParty/FatFs/Src/ff.c **** #endif
2449:./ThirdParty/FatFs/Src/ff.c **** 	do {
2450:./ThirdParty/FatFs/Src/ff.c **** 		res = move_window(fs, dp->sect);
2451:./ThirdParty/FatFs/Src/ff.c **** 		if (res != FR_OK) break;
2452:./ThirdParty/FatFs/Src/ff.c **** 		et = dp->dir[DIR_Name];		/* Entry type */
2453:./ThirdParty/FatFs/Src/ff.c **** 		if (et == 0) { res = FR_NO_FILE; break; }	/* Reached end of directory table */
2454:./ThirdParty/FatFs/Src/ff.c **** #if FF_USE_LFN		/* LFN configuration */
2455:./ThirdParty/FatFs/Src/ff.c **** 		dp->obj.attr = attr = dp->dir[DIR_Attr] & AM_MASK;
2456:./ThirdParty/FatFs/Src/ff.c **** 		if (et == DDEM || ((attr & AM_VOL) && attr != AM_LFN)) {	/* An entry without valid data */
2457:./ThirdParty/FatFs/Src/ff.c **** 			ord = 0xFF; dp->blk_ofs = 0xFFFFFFFF;	/* Reset LFN sequence */
2458:./ThirdParty/FatFs/Src/ff.c **** 		} else {
2459:./ThirdParty/FatFs/Src/ff.c **** 			if (attr == AM_LFN) {			/* Is it an LFN entry? */
2460:./ThirdParty/FatFs/Src/ff.c **** 				if (!(dp->fn[NSFLAG] & NS_NOLFN)) {
2461:./ThirdParty/FatFs/Src/ff.c **** 					if (et & LLEF) {		/* Is it start of an entry set? */
2462:./ThirdParty/FatFs/Src/ff.c **** 						et &= (BYTE)~LLEF;
2463:./ThirdParty/FatFs/Src/ff.c **** 						ord = et;					/* Number of LFN entries */
2464:./ThirdParty/FatFs/Src/ff.c **** 						dp->blk_ofs = dp->dptr;		/* Start offset of LFN */
2465:./ThirdParty/FatFs/Src/ff.c **** 						sum = dp->dir[LDIR_Chksum];	/* Sum of the SFN */
2466:./ThirdParty/FatFs/Src/ff.c **** 					}
2467:./ThirdParty/FatFs/Src/ff.c **** 					/* Check validity of the LFN entry and compare it with given name */
2468:./ThirdParty/FatFs/Src/ff.c **** 					ord = (et == ord && sum == dp->dir[LDIR_Chksum] && cmp_lfn(fs->lfnbuf, dp->dir)) ? ord - 1 : 0
2469:./ThirdParty/FatFs/Src/ff.c **** 				}
2470:./ThirdParty/FatFs/Src/ff.c **** 			} else {					/* SFN entry */
2471:./ThirdParty/FatFs/Src/ff.c **** 				if (ord == 0 && sum == sum_sfn(dp->dir)) break;	/* LFN matched? */
ARM GAS  C:\Users\Xuleo\AppData\Local\Temp\ccTDbepL.s 			page 51


2472:./ThirdParty/FatFs/Src/ff.c **** 				if (!(dp->fn[NSFLAG] & NS_LOSS) && !memcmp(dp->dir, dp->fn, 11)) break;	/* SFN matched? */
2473:./ThirdParty/FatFs/Src/ff.c **** 				ord = 0xFF; dp->blk_ofs = 0xFFFFFFFF;	/* Not matched, reset LFN sequence */
2474:./ThirdParty/FatFs/Src/ff.c **** 			}
2475:./ThirdParty/FatFs/Src/ff.c **** 		}
2476:./ThirdParty/FatFs/Src/ff.c **** #else		/* Non LFN configuration */
2477:./ThirdParty/FatFs/Src/ff.c **** 		dp->obj.attr = dp->dir[DIR_Attr] & AM_MASK;
2478:./ThirdParty/FatFs/Src/ff.c **** 		if (!(dp->dir[DIR_Attr] & AM_VOL) && !memcmp(dp->dir, dp->fn, 11)) break;	/* Is it a valid entry?
2479:./ThirdParty/FatFs/Src/ff.c **** #endif
2480:./ThirdParty/FatFs/Src/ff.c **** 		res = dir_next(dp, 0);	/* Next entry */
2481:./ThirdParty/FatFs/Src/ff.c **** 	} while (res == FR_OK);
2482:./ThirdParty/FatFs/Src/ff.c **** 
2483:./ThirdParty/FatFs/Src/ff.c **** 	return res;
2484:./ThirdParty/FatFs/Src/ff.c **** }
2485:./ThirdParty/FatFs/Src/ff.c **** 
2486:./ThirdParty/FatFs/Src/ff.c **** 
2487:./ThirdParty/FatFs/Src/ff.c **** 
2488:./ThirdParty/FatFs/Src/ff.c **** 
2489:./ThirdParty/FatFs/Src/ff.c **** #if !FF_FS_READONLY
2490:./ThirdParty/FatFs/Src/ff.c **** /*-----------------------------------------------------------------------*/
2491:./ThirdParty/FatFs/Src/ff.c **** /* Register an object to the directory                                   */
2492:./ThirdParty/FatFs/Src/ff.c **** /*-----------------------------------------------------------------------*/
2493:./ThirdParty/FatFs/Src/ff.c **** 
2494:./ThirdParty/FatFs/Src/ff.c **** static FRESULT dir_register (	/* FR_OK:succeeded, FR_DENIED:no free entry or too many SFN collision
2495:./ThirdParty/FatFs/Src/ff.c **** 	DIR* dp						/* Target directory with object name to be created */
2496:./ThirdParty/FatFs/Src/ff.c **** )
2497:./ThirdParty/FatFs/Src/ff.c **** {
2498:./ThirdParty/FatFs/Src/ff.c **** 	FRESULT res;
2499:./ThirdParty/FatFs/Src/ff.c **** 	FATFS *fs = dp->obj.fs;
2500:./ThirdParty/FatFs/Src/ff.c **** #if FF_USE_LFN		/* LFN configuration */
2501:./ThirdParty/FatFs/Src/ff.c **** 	UINT n, len, n_ent;
2502:./ThirdParty/FatFs/Src/ff.c **** 	BYTE sn[12];
2503:./ThirdParty/FatFs/Src/ff.c **** 
2504:./ThirdParty/FatFs/Src/ff.c **** 
2505:./ThirdParty/FatFs/Src/ff.c **** 	if (dp->fn[NSFLAG] & (NS_DOT | NS_NONAME)) return FR_INVALID_NAME;	/* Check name validity */
2506:./ThirdParty/FatFs/Src/ff.c **** 	for (len = 0; fs->lfnbuf[len]; len++) ;	/* Get lfn length */
2507:./ThirdParty/FatFs/Src/ff.c **** 
2508:./ThirdParty/FatFs/Src/ff.c **** #if FF_FS_EXFAT
2509:./ThirdParty/FatFs/Src/ff.c **** 	if (fs->fs_type == FS_EXFAT) {	/* On the exFAT volume */
2510:./ThirdParty/FatFs/Src/ff.c **** 		n_ent = (len + 14) / 15 + 2;	/* Number of entries to allocate (85+C0+C1s) */
2511:./ThirdParty/FatFs/Src/ff.c **** 		res = dir_alloc(dp, n_ent);		/* Allocate directory entries */
2512:./ThirdParty/FatFs/Src/ff.c **** 		if (res != FR_OK) return res;
2513:./ThirdParty/FatFs/Src/ff.c **** 		dp->blk_ofs = dp->dptr - SZDIRE * (n_ent - 1);	/* Set the allocated entry block offset */
2514:./ThirdParty/FatFs/Src/ff.c **** 
2515:./ThirdParty/FatFs/Src/ff.c **** 		if (dp->obj.stat & 4) {			/* Has the directory been stretched by new allocation? */
2516:./ThirdParty/FatFs/Src/ff.c **** 			dp->obj.stat &= ~4;
2517:./ThirdParty/FatFs/Src/ff.c **** 			res = fill_first_frag(&dp->obj);	/* Fill the first fragment on the FAT if needed */
2518:./ThirdParty/FatFs/Src/ff.c **** 			if (res != FR_OK) return res;
2519:./ThirdParty/FatFs/Src/ff.c **** 			res = fill_last_frag(&dp->obj, dp->clust, 0xFFFFFFFF);	/* Fill the last fragment on the FAT if n
2520:./ThirdParty/FatFs/Src/ff.c **** 			if (res != FR_OK) return res;
2521:./ThirdParty/FatFs/Src/ff.c **** 			if (dp->obj.sclust != 0) {		/* Is it a sub-directory? */
2522:./ThirdParty/FatFs/Src/ff.c **** 				DIR dj;
2523:./ThirdParty/FatFs/Src/ff.c **** 
2524:./ThirdParty/FatFs/Src/ff.c **** 				res = load_obj_xdir(&dj, &dp->obj);	/* Load the object status */
2525:./ThirdParty/FatFs/Src/ff.c **** 				if (res != FR_OK) return res;
2526:./ThirdParty/FatFs/Src/ff.c **** 				dp->obj.objsize += (DWORD)fs->csize * SS(fs);		/* Increase the directory size by cluster size *
2527:./ThirdParty/FatFs/Src/ff.c **** 				st_64(fs->dirbuf + XDIR_FileSize, dp->obj.objsize);
2528:./ThirdParty/FatFs/Src/ff.c **** 				st_64(fs->dirbuf + XDIR_ValidFileSize, dp->obj.objsize);
ARM GAS  C:\Users\Xuleo\AppData\Local\Temp\ccTDbepL.s 			page 52


2529:./ThirdParty/FatFs/Src/ff.c **** 				fs->dirbuf[XDIR_GenFlags] = dp->obj.stat | 1;	/* Update the allocation status */
2530:./ThirdParty/FatFs/Src/ff.c **** 				res = store_xdir(&dj);				/* Store the object status */
2531:./ThirdParty/FatFs/Src/ff.c **** 				if (res != FR_OK) return res;
2532:./ThirdParty/FatFs/Src/ff.c **** #if FF_FS_RPATH	/* Refrect changes to the current dir chain if the stretched dir is in it */
2533:./ThirdParty/FatFs/Src/ff.c **** 				for (n = 1; n <= fs->xcwds.depth && dp->obj.sclust != fs->xcwds.tbl[n].d_scl; n++) ;	/* Check i
2534:./ThirdParty/FatFs/Src/ff.c **** 				if (n <= fs->xcwds.depth) {		/* If exist, update it */
2535:./ThirdParty/FatFs/Src/ff.c **** 					fs->xcwds.tbl[n].d_size = (DWORD)dp->obj.objsize | dp->obj.stat;
2536:./ThirdParty/FatFs/Src/ff.c **** 				}
2537:./ThirdParty/FatFs/Src/ff.c **** #endif
2538:./ThirdParty/FatFs/Src/ff.c **** 			}
2539:./ThirdParty/FatFs/Src/ff.c **** 		}
2540:./ThirdParty/FatFs/Src/ff.c **** 
2541:./ThirdParty/FatFs/Src/ff.c **** 		create_xdir(fs->dirbuf, fs->lfnbuf);	/* Create on-memory directory block to be written later */
2542:./ThirdParty/FatFs/Src/ff.c **** 		return FR_OK;
2543:./ThirdParty/FatFs/Src/ff.c **** 	}
2544:./ThirdParty/FatFs/Src/ff.c **** #endif
2545:./ThirdParty/FatFs/Src/ff.c **** 	/* On the FAT/FAT32 volume */
2546:./ThirdParty/FatFs/Src/ff.c **** 	memcpy(sn, dp->fn, 12);
2547:./ThirdParty/FatFs/Src/ff.c **** 	if (sn[NSFLAG] & NS_LOSS) {			/* When LFN is out of 8.3 format, generate a numbered name */
2548:./ThirdParty/FatFs/Src/ff.c **** 		dp->fn[NSFLAG] = NS_NOLFN;		/* Find only SFN */
2549:./ThirdParty/FatFs/Src/ff.c **** 		for (n = 1; n < 100; n++) {
2550:./ThirdParty/FatFs/Src/ff.c **** 			gen_numname(dp->fn, sn, fs->lfnbuf, (WORD)n);	/* Generate a numbered name */
2551:./ThirdParty/FatFs/Src/ff.c **** 			res = dir_find(dp);				/* Check if the name collides with existing SFN */
2552:./ThirdParty/FatFs/Src/ff.c **** 			if (res != FR_OK) break;
2553:./ThirdParty/FatFs/Src/ff.c **** 		}
2554:./ThirdParty/FatFs/Src/ff.c **** 		if (n == 100) return FR_DENIED;		/* Abort if too many collisions */
2555:./ThirdParty/FatFs/Src/ff.c **** 		if (res != FR_NO_FILE) return res;	/* Abort if the result is other than 'not collided' */
2556:./ThirdParty/FatFs/Src/ff.c **** 		dp->fn[NSFLAG] = sn[NSFLAG];
2557:./ThirdParty/FatFs/Src/ff.c **** 	}
2558:./ThirdParty/FatFs/Src/ff.c **** 
2559:./ThirdParty/FatFs/Src/ff.c **** 	/* Create an SFN with/without LFNs. */
2560:./ThirdParty/FatFs/Src/ff.c **** 	n_ent = (sn[NSFLAG] & NS_LFN) ? (len + 12) / 13 + 1 : 1;	/* Number of entries to allocate */
2561:./ThirdParty/FatFs/Src/ff.c **** 	res = dir_alloc(dp, n_ent);		/* Allocate entries */
2562:./ThirdParty/FatFs/Src/ff.c **** 	if (res == FR_OK && --n_ent) {	/* Set LFN entry if needed */
2563:./ThirdParty/FatFs/Src/ff.c **** 		res = dir_sdi(dp, dp->dptr - n_ent * SZDIRE);
2564:./ThirdParty/FatFs/Src/ff.c **** 		if (res == FR_OK) {
2565:./ThirdParty/FatFs/Src/ff.c **** 			BYTE sum = sum_sfn(dp->fn);	/* Checksum value of the SFN tied to the LFN */
2566:./ThirdParty/FatFs/Src/ff.c **** 
2567:./ThirdParty/FatFs/Src/ff.c **** 			do {					/* Store LFN entries in bottom first */
2568:./ThirdParty/FatFs/Src/ff.c **** 				res = move_window(fs, dp->sect);
2569:./ThirdParty/FatFs/Src/ff.c **** 				if (res != FR_OK) break;
2570:./ThirdParty/FatFs/Src/ff.c **** 				put_lfn(fs->lfnbuf, dp->dir, (BYTE)n_ent, sum);
2571:./ThirdParty/FatFs/Src/ff.c **** 				fs->wflag = 1;
2572:./ThirdParty/FatFs/Src/ff.c **** 				res = dir_next(dp, 0);	/* Next entry */
2573:./ThirdParty/FatFs/Src/ff.c **** 			} while (res == FR_OK && --n_ent);
2574:./ThirdParty/FatFs/Src/ff.c **** 		}
2575:./ThirdParty/FatFs/Src/ff.c **** 	}
2576:./ThirdParty/FatFs/Src/ff.c **** 
2577:./ThirdParty/FatFs/Src/ff.c **** #else	/* Non LFN configuration */
2578:./ThirdParty/FatFs/Src/ff.c **** 	res = dir_alloc(dp, 1);		/* Allocate an entry for SFN */
2579:./ThirdParty/FatFs/Src/ff.c **** 
2580:./ThirdParty/FatFs/Src/ff.c **** #endif
2581:./ThirdParty/FatFs/Src/ff.c **** 
2582:./ThirdParty/FatFs/Src/ff.c **** 	/* Set SFN entry */
2583:./ThirdParty/FatFs/Src/ff.c **** 	if (res == FR_OK) {
2584:./ThirdParty/FatFs/Src/ff.c **** 		res = move_window(fs, dp->sect);
2585:./ThirdParty/FatFs/Src/ff.c **** 		if (res == FR_OK) {
ARM GAS  C:\Users\Xuleo\AppData\Local\Temp\ccTDbepL.s 			page 53


2586:./ThirdParty/FatFs/Src/ff.c **** 			memset(dp->dir, 0, SZDIRE);	/* Clean the entry */
2587:./ThirdParty/FatFs/Src/ff.c **** 			memcpy(dp->dir + DIR_Name, dp->fn, 11);	/* Put SFN */
2588:./ThirdParty/FatFs/Src/ff.c **** #if FF_USE_LFN
2589:./ThirdParty/FatFs/Src/ff.c **** 			dp->dir[DIR_NTres] = dp->fn[NSFLAG] & (NS_BODY | NS_EXT);	/* Put low-case flags */
2590:./ThirdParty/FatFs/Src/ff.c **** #endif
2591:./ThirdParty/FatFs/Src/ff.c **** 			fs->wflag = 1;
2592:./ThirdParty/FatFs/Src/ff.c **** 		}
2593:./ThirdParty/FatFs/Src/ff.c **** 	}
2594:./ThirdParty/FatFs/Src/ff.c **** 
2595:./ThirdParty/FatFs/Src/ff.c **** 	return res;
2596:./ThirdParty/FatFs/Src/ff.c **** }
2597:./ThirdParty/FatFs/Src/ff.c **** 
2598:./ThirdParty/FatFs/Src/ff.c **** #endif /* !FF_FS_READONLY */
2599:./ThirdParty/FatFs/Src/ff.c **** 
2600:./ThirdParty/FatFs/Src/ff.c **** 
2601:./ThirdParty/FatFs/Src/ff.c **** 
2602:./ThirdParty/FatFs/Src/ff.c **** #if !FF_FS_READONLY && FF_FS_MINIMIZE == 0
2603:./ThirdParty/FatFs/Src/ff.c **** /*-----------------------------------------------------------------------*/
2604:./ThirdParty/FatFs/Src/ff.c **** /* Remove an object from the directory                                   */
2605:./ThirdParty/FatFs/Src/ff.c **** /*-----------------------------------------------------------------------*/
2606:./ThirdParty/FatFs/Src/ff.c **** 
2607:./ThirdParty/FatFs/Src/ff.c **** static FRESULT dir_remove (	/* FR_OK:Succeeded, FR_DISK_ERR:A disk error */
2608:./ThirdParty/FatFs/Src/ff.c **** 	DIR* dp					/* Directory object pointing the entry to be removed */
2609:./ThirdParty/FatFs/Src/ff.c **** )
2610:./ThirdParty/FatFs/Src/ff.c **** {
2611:./ThirdParty/FatFs/Src/ff.c **** 	FRESULT res;
2612:./ThirdParty/FatFs/Src/ff.c **** 	FATFS *fs = dp->obj.fs;
2613:./ThirdParty/FatFs/Src/ff.c **** #if FF_USE_LFN		/* LFN configuration */
2614:./ThirdParty/FatFs/Src/ff.c **** 	DWORD last = dp->dptr;
2615:./ThirdParty/FatFs/Src/ff.c **** 
2616:./ThirdParty/FatFs/Src/ff.c **** 	res = (dp->blk_ofs == 0xFFFFFFFF) ? FR_OK : dir_sdi(dp, dp->blk_ofs);	/* Goto top of the entry blo
2617:./ThirdParty/FatFs/Src/ff.c **** 	if (res == FR_OK) {
2618:./ThirdParty/FatFs/Src/ff.c **** 		do {
2619:./ThirdParty/FatFs/Src/ff.c **** 			res = move_window(fs, dp->sect);
2620:./ThirdParty/FatFs/Src/ff.c **** 			if (res != FR_OK) break;
2621:./ThirdParty/FatFs/Src/ff.c **** 			if (FF_FS_EXFAT && fs->fs_type == FS_EXFAT) {	/* On the exFAT volume */
2622:./ThirdParty/FatFs/Src/ff.c **** 				dp->dir[XDIR_Type] &= 0x7F;	/* Clear the entry InUse flag. */
2623:./ThirdParty/FatFs/Src/ff.c **** 			} else {										/* On the FAT/FAT32 volume */
2624:./ThirdParty/FatFs/Src/ff.c **** 				dp->dir[DIR_Name] = DDEM;	/* Mark the entry 'deleted'. */
2625:./ThirdParty/FatFs/Src/ff.c **** 			}
2626:./ThirdParty/FatFs/Src/ff.c **** 			fs->wflag = 1;
2627:./ThirdParty/FatFs/Src/ff.c **** 			if (dp->dptr >= last) break;	/* If reached last entry then all entries of the object has been de
2628:./ThirdParty/FatFs/Src/ff.c **** 			res = dir_next(dp, 0);	/* Next entry */
2629:./ThirdParty/FatFs/Src/ff.c **** 		} while (res == FR_OK);
2630:./ThirdParty/FatFs/Src/ff.c **** 		if (res == FR_NO_FILE) res = FR_INT_ERR;
2631:./ThirdParty/FatFs/Src/ff.c **** 	}
2632:./ThirdParty/FatFs/Src/ff.c **** #else			/* Non LFN configuration */
2633:./ThirdParty/FatFs/Src/ff.c **** 
2634:./ThirdParty/FatFs/Src/ff.c **** 	res = move_window(fs, dp->sect);
2635:./ThirdParty/FatFs/Src/ff.c **** 	if (res == FR_OK) {
2636:./ThirdParty/FatFs/Src/ff.c **** 		dp->dir[DIR_Name] = DDEM;	/* Mark the entry 'deleted'.*/
2637:./ThirdParty/FatFs/Src/ff.c **** 		fs->wflag = 1;
2638:./ThirdParty/FatFs/Src/ff.c **** 	}
2639:./ThirdParty/FatFs/Src/ff.c **** #endif
2640:./ThirdParty/FatFs/Src/ff.c **** 
2641:./ThirdParty/FatFs/Src/ff.c **** 	return res;
2642:./ThirdParty/FatFs/Src/ff.c **** }
ARM GAS  C:\Users\Xuleo\AppData\Local\Temp\ccTDbepL.s 			page 54


2643:./ThirdParty/FatFs/Src/ff.c **** 
2644:./ThirdParty/FatFs/Src/ff.c **** #endif /* !FF_FS_READONLY && FF_FS_MINIMIZE == 0 */
2645:./ThirdParty/FatFs/Src/ff.c **** 
2646:./ThirdParty/FatFs/Src/ff.c **** 
2647:./ThirdParty/FatFs/Src/ff.c **** 
2648:./ThirdParty/FatFs/Src/ff.c **** #if FF_FS_MINIMIZE <= 1 || FF_FS_RPATH >= 2
2649:./ThirdParty/FatFs/Src/ff.c **** /*-----------------------------------------------------------------------*/
2650:./ThirdParty/FatFs/Src/ff.c **** /* Get file information from directory entry                             */
2651:./ThirdParty/FatFs/Src/ff.c **** /*-----------------------------------------------------------------------*/
2652:./ThirdParty/FatFs/Src/ff.c **** 
2653:./ThirdParty/FatFs/Src/ff.c **** static void get_fileinfo (
2654:./ThirdParty/FatFs/Src/ff.c **** 	DIR* dp,			/* Pointer to the directory object */
2655:./ThirdParty/FatFs/Src/ff.c **** 	FILINFO* fno		/* Pointer to the file information to be filled */
2656:./ThirdParty/FatFs/Src/ff.c **** )
2657:./ThirdParty/FatFs/Src/ff.c **** {
 391              		.loc 1 2657 1 is_stmt 1 view -0
 392              		.cfi_startproc
 393              		@ args = 0, pretend = 0, frame = 0
 394              		@ frame_needed = 0, uses_anonymous_args = 0
 395              		.loc 1 2657 1 is_stmt 0 view .LVU101
 396 0000 38B5     		push	{r3, r4, r5, lr}
 397              	.LCFI2:
 398              		.cfi_def_cfa_offset 16
 399              		.cfi_offset 3, -16
 400              		.cfi_offset 4, -12
 401              		.cfi_offset 5, -8
 402              		.cfi_offset 14, -4
2658:./ThirdParty/FatFs/Src/ff.c **** 	UINT si, di;
 403              		.loc 1 2658 2 is_stmt 1 view .LVU102
2659:./ThirdParty/FatFs/Src/ff.c **** #if FF_USE_LFN
2660:./ThirdParty/FatFs/Src/ff.c **** 	WCHAR wc, hs;
2661:./ThirdParty/FatFs/Src/ff.c **** 	FATFS *fs = dp->obj.fs;
2662:./ThirdParty/FatFs/Src/ff.c **** 	UINT nw;
2663:./ThirdParty/FatFs/Src/ff.c **** #else
2664:./ThirdParty/FatFs/Src/ff.c **** 	TCHAR c;
 404              		.loc 1 2664 2 view .LVU103
2665:./ThirdParty/FatFs/Src/ff.c **** #endif
2666:./ThirdParty/FatFs/Src/ff.c **** 
2667:./ThirdParty/FatFs/Src/ff.c **** 
2668:./ThirdParty/FatFs/Src/ff.c **** 	fno->fname[0] = 0;
 405              		.loc 1 2668 2 view .LVU104
 406              		.loc 1 2668 16 is_stmt 0 view .LVU105
 407 0002 0023     		movs	r3, #0
 408 0004 4B72     		strb	r3, [r1, #9]
2669:./ThirdParty/FatFs/Src/ff.c **** 	if (dp->sect == 0) return;	/* Exit if read pointer has reached end of directory */
 409              		.loc 1 2669 2 is_stmt 1 view .LVU106
 410              		.loc 1 2669 8 is_stmt 0 view .LVU107
 411 0006 8369     		ldr	r3, [r0, #24]
 412              		.loc 1 2669 5 view .LVU108
 413 0008 9BB3     		cbz	r3, .L18
 414 000a 0546     		mov	r5, r0
 415 000c 0C46     		mov	r4, r1
2670:./ThirdParty/FatFs/Src/ff.c **** 
2671:./ThirdParty/FatFs/Src/ff.c **** #if FF_USE_LFN		/* LFN configuration */
2672:./ThirdParty/FatFs/Src/ff.c **** #if FF_FS_EXFAT
2673:./ThirdParty/FatFs/Src/ff.c **** 	if (fs->fs_type == FS_EXFAT) {	/* exFAT volume */
2674:./ThirdParty/FatFs/Src/ff.c **** 		UINT nc = 0;
ARM GAS  C:\Users\Xuleo\AppData\Local\Temp\ccTDbepL.s 			page 55


2675:./ThirdParty/FatFs/Src/ff.c **** 
2676:./ThirdParty/FatFs/Src/ff.c **** 		si = SZDIRE * 2; di = 0;	/* 1st C1 entry in the entry block */
2677:./ThirdParty/FatFs/Src/ff.c **** 		hs = 0;
2678:./ThirdParty/FatFs/Src/ff.c **** 		while (nc < fs->dirbuf[XDIR_NumName]) {
2679:./ThirdParty/FatFs/Src/ff.c **** 			if (si >= MAXDIRB(FF_MAX_LFN)) {	/* Truncated directory block? */
2680:./ThirdParty/FatFs/Src/ff.c **** 				di = 0; break;
2681:./ThirdParty/FatFs/Src/ff.c **** 			}
2682:./ThirdParty/FatFs/Src/ff.c **** 			if ((si % SZDIRE) == 0) si += 2;	/* Skip entry type field */
2683:./ThirdParty/FatFs/Src/ff.c **** 			wc = ld_16(fs->dirbuf + si); si += 2; nc++;	/* Get a character */
2684:./ThirdParty/FatFs/Src/ff.c **** 			if (hs == 0 && IsSurrogate(wc)) {	/* Is it a surrogate? */
2685:./ThirdParty/FatFs/Src/ff.c **** 				hs = wc; continue;				/* Get low surrogate */
2686:./ThirdParty/FatFs/Src/ff.c **** 			}
2687:./ThirdParty/FatFs/Src/ff.c **** 			nw = put_utf((DWORD)hs << 16 | wc, &fno->fname[di], FF_LFN_BUF - di);	/* Store it in API encodin
2688:./ThirdParty/FatFs/Src/ff.c **** 			if (nw == 0) {						/* Buffer overflow or wrong char? */
2689:./ThirdParty/FatFs/Src/ff.c **** 				di = 0; break;
2690:./ThirdParty/FatFs/Src/ff.c **** 			}
2691:./ThirdParty/FatFs/Src/ff.c **** 			di += nw;
2692:./ThirdParty/FatFs/Src/ff.c **** 			hs = 0;
2693:./ThirdParty/FatFs/Src/ff.c **** 		}
2694:./ThirdParty/FatFs/Src/ff.c **** 		if (hs != 0) di = 0;					/* Broken surrogate pair? */
2695:./ThirdParty/FatFs/Src/ff.c **** 		if (di == 0) fno->fname[di++] = '\?';	/* Inaccessible object name? */
2696:./ThirdParty/FatFs/Src/ff.c **** 		fno->fname[di] = 0;						/* Terminate the name */
2697:./ThirdParty/FatFs/Src/ff.c **** 		fno->altname[0] = 0;					/* exFAT does not support SFN */
2698:./ThirdParty/FatFs/Src/ff.c **** 
2699:./ThirdParty/FatFs/Src/ff.c **** 		fno->fattrib = fs->dirbuf[XDIR_Attr] & AM_MASKX;	/* Attribute */
2700:./ThirdParty/FatFs/Src/ff.c **** 		fno->fsize = (fno->fattrib & AM_DIR) ? 0 : ld_64(fs->dirbuf + XDIR_FileSize);	/* Size */
2701:./ThirdParty/FatFs/Src/ff.c **** 		fno->ftime = ld_16(fs->dirbuf + XDIR_ModTime + 0);	/* Last modified time */
2702:./ThirdParty/FatFs/Src/ff.c **** 		fno->fdate = ld_16(fs->dirbuf + XDIR_ModTime + 2);	/* Last modified date */
2703:./ThirdParty/FatFs/Src/ff.c **** #if FF_FS_CRTIME
2704:./ThirdParty/FatFs/Src/ff.c **** 		fno->crtime = ld_16(fs->dirbuf + XDIR_CrtTime + 0);	/* Created time */
2705:./ThirdParty/FatFs/Src/ff.c **** 		fno->crdate = ld_16(fs->dirbuf + XDIR_CrtTime + 2);	/* Created date */
2706:./ThirdParty/FatFs/Src/ff.c **** #endif
2707:./ThirdParty/FatFs/Src/ff.c **** 		return;
2708:./ThirdParty/FatFs/Src/ff.c **** 	} else
2709:./ThirdParty/FatFs/Src/ff.c **** #endif
2710:./ThirdParty/FatFs/Src/ff.c **** 	{	/* FAT/FAT32 volume */
2711:./ThirdParty/FatFs/Src/ff.c **** 		if (dp->blk_ofs != 0xFFFFFFFF) {	/* Get LFN if available */
2712:./ThirdParty/FatFs/Src/ff.c **** 			si = di = 0;
2713:./ThirdParty/FatFs/Src/ff.c **** 			hs = 0;
2714:./ThirdParty/FatFs/Src/ff.c **** 			while (fs->lfnbuf[si] != 0) {
2715:./ThirdParty/FatFs/Src/ff.c **** 				wc = fs->lfnbuf[si++];		/* Get an LFN character (UTF-16) */
2716:./ThirdParty/FatFs/Src/ff.c **** 				if (hs == 0 && IsSurrogate(wc)) {	/* Is it a surrogate? */
2717:./ThirdParty/FatFs/Src/ff.c **** 					hs = wc; continue;		/* Get low surrogate */
2718:./ThirdParty/FatFs/Src/ff.c **** 				}
2719:./ThirdParty/FatFs/Src/ff.c **** 				nw = put_utf((DWORD)hs << 16 | wc, &fno->fname[di], FF_LFN_BUF - di);	/* Store it in API encodi
2720:./ThirdParty/FatFs/Src/ff.c **** 				if (nw == 0) {				/* Buffer overflow or wrong char? */
2721:./ThirdParty/FatFs/Src/ff.c **** 					di = 0; break;
2722:./ThirdParty/FatFs/Src/ff.c **** 				}
2723:./ThirdParty/FatFs/Src/ff.c **** 				di += nw;
2724:./ThirdParty/FatFs/Src/ff.c **** 				hs = 0;
2725:./ThirdParty/FatFs/Src/ff.c **** 			}
2726:./ThirdParty/FatFs/Src/ff.c **** 			if (hs != 0) di = 0;	/* Broken surrogate pair? */
2727:./ThirdParty/FatFs/Src/ff.c **** 			fno->fname[di] = 0;		/* Terminate the LFN (null string means LFN is invalid) */
2728:./ThirdParty/FatFs/Src/ff.c **** 		}
2729:./ThirdParty/FatFs/Src/ff.c **** 	}
2730:./ThirdParty/FatFs/Src/ff.c **** 
2731:./ThirdParty/FatFs/Src/ff.c **** 	si = di = 0;
ARM GAS  C:\Users\Xuleo\AppData\Local\Temp\ccTDbepL.s 			page 56


2732:./ThirdParty/FatFs/Src/ff.c **** 	while (si < 11) {		/* Get SFN from SFN entry */
2733:./ThirdParty/FatFs/Src/ff.c **** 		wc = dp->dir[si++];			/* Get a char */
2734:./ThirdParty/FatFs/Src/ff.c **** 		if (wc == ' ') continue;	/* Skip padding spaces */
2735:./ThirdParty/FatFs/Src/ff.c **** 		if (wc == RDDEM) wc = DDEM;	/* Restore replaced DDEM character */
2736:./ThirdParty/FatFs/Src/ff.c **** 		if (si == 9 && di < FF_SFN_BUF) fno->altname[di++] = '.';	/* Insert a . if extension is exist */
2737:./ThirdParty/FatFs/Src/ff.c **** #if FF_LFN_UNICODE >= 1	/* Unicode output */
2738:./ThirdParty/FatFs/Src/ff.c **** 		if (dbc_1st((BYTE)wc) && si != 8 && si != 11 && dbc_2nd(dp->dir[si])) {	/* Make a DBC if needed *
2739:./ThirdParty/FatFs/Src/ff.c **** 			wc = wc << 8 | dp->dir[si++];
2740:./ThirdParty/FatFs/Src/ff.c **** 		}
2741:./ThirdParty/FatFs/Src/ff.c **** 		wc = ff_oem2uni(wc, CODEPAGE);		/* ANSI/OEM -> Unicode */
2742:./ThirdParty/FatFs/Src/ff.c **** 		if (wc == 0) {				/* Wrong char in the current code page? */
2743:./ThirdParty/FatFs/Src/ff.c **** 			di = 0; break;
2744:./ThirdParty/FatFs/Src/ff.c **** 		}
2745:./ThirdParty/FatFs/Src/ff.c **** 		nw = put_utf(wc, &fno->altname[di], FF_SFN_BUF - di);	/* Store it in API encoding */
2746:./ThirdParty/FatFs/Src/ff.c **** 		if (nw == 0) {				/* Buffer overflow? */
2747:./ThirdParty/FatFs/Src/ff.c **** 			di = 0; break;
2748:./ThirdParty/FatFs/Src/ff.c **** 		}
2749:./ThirdParty/FatFs/Src/ff.c **** 		di += nw;
2750:./ThirdParty/FatFs/Src/ff.c **** #else					/* ANSI/OEM output */
2751:./ThirdParty/FatFs/Src/ff.c **** 		fno->altname[di++] = (TCHAR)wc;	/* Store it without any conversion */
2752:./ThirdParty/FatFs/Src/ff.c **** #endif
2753:./ThirdParty/FatFs/Src/ff.c **** 	}
2754:./ThirdParty/FatFs/Src/ff.c **** 	fno->altname[di] = 0;	/* Terminate the SFN  (null string means SFN is invalid) */
2755:./ThirdParty/FatFs/Src/ff.c **** 
2756:./ThirdParty/FatFs/Src/ff.c **** 	if (!fno->fname[0]) {	/* If LFN is invalid, altname[] needs to be copied to fname[] */
2757:./ThirdParty/FatFs/Src/ff.c **** 		if (di == 0) {		/* If LFN and SFN both are invalid, */
2758:./ThirdParty/FatFs/Src/ff.c **** 			fno->fname[di++] = '\?';	/* This object is inaccessible due to wrong buffer or locale settings *
2759:./ThirdParty/FatFs/Src/ff.c **** 		} else {
2760:./ThirdParty/FatFs/Src/ff.c **** 			BYTE lcflg = NS_BODY;
2761:./ThirdParty/FatFs/Src/ff.c **** 
2762:./ThirdParty/FatFs/Src/ff.c **** 			for (si = di = 0; fno->altname[si]; si++, di++) {	/* Copy altname[] to fname[] with case informa
2763:./ThirdParty/FatFs/Src/ff.c **** 				wc = (WCHAR)fno->altname[si];
2764:./ThirdParty/FatFs/Src/ff.c **** 				if (wc == '.') lcflg = NS_EXT;
2765:./ThirdParty/FatFs/Src/ff.c **** 				if (IsUpper(wc) && (dp->dir[DIR_NTres] & lcflg)) wc += 0x20;
2766:./ThirdParty/FatFs/Src/ff.c **** 				fno->fname[di] = (TCHAR)wc;
2767:./ThirdParty/FatFs/Src/ff.c **** 			}
2768:./ThirdParty/FatFs/Src/ff.c **** 		}
2769:./ThirdParty/FatFs/Src/ff.c **** 		fno->fname[di] = 0;	/* Terminate the LFN */
2770:./ThirdParty/FatFs/Src/ff.c **** 		if (!dp->dir[DIR_NTres]) fno->altname[0] = 0;	/* Altname is not needed if neither LFN nor case in
2771:./ThirdParty/FatFs/Src/ff.c **** 	}
2772:./ThirdParty/FatFs/Src/ff.c **** 
2773:./ThirdParty/FatFs/Src/ff.c **** #else	/* Non-LFN configuration */
2774:./ThirdParty/FatFs/Src/ff.c **** 	si = di = 0;
 416              		.loc 1 2774 10 view .LVU109
 417 000e 0022     		movs	r2, #0
 418              		.loc 1 2774 5 view .LVU110
 419 0010 1346     		mov	r3, r2
 420 0012 06E0     		b	.L20
 421              	.LVL41:
 422              	.L22:
2775:./ThirdParty/FatFs/Src/ff.c **** 	while (si < 11) {		/* Copy name body and extension */
2776:./ThirdParty/FatFs/Src/ff.c **** 		c = (TCHAR)dp->dir[si++];
2777:./ThirdParty/FatFs/Src/ff.c **** 		if (c == ' ') continue;		/* Skip padding spaces */
2778:./ThirdParty/FatFs/Src/ff.c **** 		if (c == RDDEM) c = DDEM;	/* Restore replaced DDEM character */
2779:./ThirdParty/FatFs/Src/ff.c **** 		if (si == 9) fno->fname[di++] = '.';/* Insert a . if extension is exist */
 423              		.loc 1 2779 3 is_stmt 1 view .LVU111
 424              		.loc 1 2779 6 is_stmt 0 view .LVU112
ARM GAS  C:\Users\Xuleo\AppData\Local\Temp\ccTDbepL.s 			page 57


 425 0014 BCF1090F 		cmp	ip, #9
 426 0018 0FD0     		beq	.L27
 427              	.L23:
2780:./ThirdParty/FatFs/Src/ff.c **** 		fno->fname[di++] = c;
 428              		.loc 1 2780 3 is_stmt 1 view .LVU113
 429              	.LVL42:
 430              		.loc 1 2780 20 is_stmt 0 view .LVU114
 431 001a A118     		adds	r1, r4, r2
 432 001c 4B72     		strb	r3, [r1, #9]
 433              		.loc 1 2780 16 view .LVU115
 434 001e 0132     		adds	r2, r2, #1
 435              	.LVL43:
 436              	.L21:
 437              		.loc 1 2780 16 view .LVU116
 438 0020 6346     		mov	r3, ip
 439              	.LVL44:
 440              	.L20:
2775:./ThirdParty/FatFs/Src/ff.c **** 	while (si < 11) {		/* Copy name body and extension */
 441              		.loc 1 2775 12 is_stmt 1 view .LVU117
 442 0022 0A2B     		cmp	r3, #10
 443 0024 0ED8     		bhi	.L28
2776:./ThirdParty/FatFs/Src/ff.c **** 		if (c == ' ') continue;		/* Skip padding spaces */
 444              		.loc 1 2776 3 view .LVU118
2776:./ThirdParty/FatFs/Src/ff.c **** 		if (c == ' ') continue;		/* Skip padding spaces */
 445              		.loc 1 2776 24 is_stmt 0 view .LVU119
 446 0026 03F1010C 		add	ip, r3, #1
 447              	.LVL45:
2776:./ThirdParty/FatFs/Src/ff.c **** 		if (c == ' ') continue;		/* Skip padding spaces */
 448              		.loc 1 2776 5 view .LVU120
 449 002a E969     		ldr	r1, [r5, #28]
 450 002c CB5C     		ldrb	r3, [r1, r3]	@ zero_extendqisi2
 451              	.LVL46:
2777:./ThirdParty/FatFs/Src/ff.c **** 		if (c == RDDEM) c = DDEM;	/* Restore replaced DDEM character */
 452              		.loc 1 2777 3 is_stmt 1 view .LVU121
2777:./ThirdParty/FatFs/Src/ff.c **** 		if (c == RDDEM) c = DDEM;	/* Restore replaced DDEM character */
 453              		.loc 1 2777 6 is_stmt 0 view .LVU122
 454 002e 202B     		cmp	r3, #32
 455 0030 F6D0     		beq	.L21
2778:./ThirdParty/FatFs/Src/ff.c **** 		if (si == 9) fno->fname[di++] = '.';/* Insert a . if extension is exist */
 456              		.loc 1 2778 3 is_stmt 1 view .LVU123
2778:./ThirdParty/FatFs/Src/ff.c **** 		if (si == 9) fno->fname[di++] = '.';/* Insert a . if extension is exist */
 457              		.loc 1 2778 6 is_stmt 0 view .LVU124
 458 0032 052B     		cmp	r3, #5
 459 0034 EED1     		bne	.L22
2778:./ThirdParty/FatFs/Src/ff.c **** 		if (si == 9) fno->fname[di++] = '.';/* Insert a . if extension is exist */
 460              		.loc 1 2778 21 discriminator 1 view .LVU125
 461 0036 E523     		movs	r3, #229
 462              	.LVL47:
2778:./ThirdParty/FatFs/Src/ff.c **** 		if (si == 9) fno->fname[di++] = '.';/* Insert a . if extension is exist */
 463              		.loc 1 2778 21 discriminator 1 view .LVU126
 464 0038 ECE7     		b	.L22
 465              	.LVL48:
 466              	.L27:
2779:./ThirdParty/FatFs/Src/ff.c **** 		fno->fname[di++] = c;
 467              		.loc 1 2779 16 is_stmt 1 discriminator 1 view .LVU127
2779:./ThirdParty/FatFs/Src/ff.c **** 		fno->fname[di++] = c;
 468              		.loc 1 2779 33 is_stmt 0 discriminator 1 view .LVU128
ARM GAS  C:\Users\Xuleo\AppData\Local\Temp\ccTDbepL.s 			page 58


 469 003a A118     		adds	r1, r4, r2
 470 003c 2E20     		movs	r0, #46
 471 003e 4872     		strb	r0, [r1, #9]
2779:./ThirdParty/FatFs/Src/ff.c **** 		fno->fname[di++] = c;
 472              		.loc 1 2779 29 discriminator 1 view .LVU129
 473 0040 0132     		adds	r2, r2, #1
 474              	.LVL49:
2779:./ThirdParty/FatFs/Src/ff.c **** 		fno->fname[di++] = c;
 475              		.loc 1 2779 29 discriminator 1 view .LVU130
 476 0042 EAE7     		b	.L23
 477              	.LVL50:
 478              	.L28:
2781:./ThirdParty/FatFs/Src/ff.c **** 	}
2782:./ThirdParty/FatFs/Src/ff.c **** 	fno->fname[di] = 0;		/* Terminate the SFN */
 479              		.loc 1 2782 2 is_stmt 1 view .LVU131
 480              		.loc 1 2782 17 is_stmt 0 view .LVU132
 481 0044 2244     		add	r2, r2, r4
 482              	.LVL51:
 483              		.loc 1 2782 17 view .LVU133
 484 0046 0023     		movs	r3, #0
 485              	.LVL52:
 486              		.loc 1 2782 17 view .LVU134
 487 0048 5372     		strb	r3, [r2, #9]
2783:./ThirdParty/FatFs/Src/ff.c **** #endif
2784:./ThirdParty/FatFs/Src/ff.c **** 
2785:./ThirdParty/FatFs/Src/ff.c **** 	fno->fattrib = dp->dir[DIR_Attr] & AM_MASK;		/* Attribute */
 488              		.loc 1 2785 2 is_stmt 1 view .LVU135
 489              		.loc 1 2785 19 is_stmt 0 view .LVU136
 490 004a EB69     		ldr	r3, [r5, #28]
 491              		.loc 1 2785 24 view .LVU137
 492 004c DB7A     		ldrb	r3, [r3, #11]	@ zero_extendqisi2
 493              		.loc 1 2785 35 view .LVU138
 494 004e 03F03F03 		and	r3, r3, #63
 495              		.loc 1 2785 15 view .LVU139
 496 0052 2372     		strb	r3, [r4, #8]
2786:./ThirdParty/FatFs/Src/ff.c **** 	fno->fsize = ld_32(dp->dir + DIR_FileSize);		/* Size */
 497              		.loc 1 2786 2 is_stmt 1 view .LVU140
 498              		.loc 1 2786 23 is_stmt 0 view .LVU141
 499 0054 E869     		ldr	r0, [r5, #28]
 500              		.loc 1 2786 15 view .LVU142
 501 0056 1C30     		adds	r0, r0, #28
 502 0058 FFF7FEFF 		bl	ld_32
 503              	.LVL53:
 504              		.loc 1 2786 13 discriminator 1 view .LVU143
 505 005c 2060     		str	r0, [r4]
2787:./ThirdParty/FatFs/Src/ff.c **** 	fno->ftime = ld_16(dp->dir + DIR_ModTime + 0);	/* Last modified time */
 506              		.loc 1 2787 2 is_stmt 1 view .LVU144
 507              		.loc 1 2787 23 is_stmt 0 view .LVU145
 508 005e E869     		ldr	r0, [r5, #28]
 509              		.loc 1 2787 15 view .LVU146
 510 0060 1630     		adds	r0, r0, #22
 511 0062 FFF7FEFF 		bl	ld_16
 512              	.LVL54:
 513              		.loc 1 2787 13 discriminator 1 view .LVU147
 514 0066 E080     		strh	r0, [r4, #6]	@ movhi
2788:./ThirdParty/FatFs/Src/ff.c **** 	fno->fdate = ld_16(dp->dir + DIR_ModTime + 2);	/* Last Modified date */
 515              		.loc 1 2788 2 is_stmt 1 view .LVU148
ARM GAS  C:\Users\Xuleo\AppData\Local\Temp\ccTDbepL.s 			page 59


 516              		.loc 1 2788 23 is_stmt 0 view .LVU149
 517 0068 E869     		ldr	r0, [r5, #28]
 518              		.loc 1 2788 15 view .LVU150
 519 006a 1830     		adds	r0, r0, #24
 520 006c FFF7FEFF 		bl	ld_16
 521              	.LVL55:
 522              		.loc 1 2788 13 discriminator 1 view .LVU151
 523 0070 A080     		strh	r0, [r4, #4]	@ movhi
 524              	.LVL56:
 525              	.L18:
2789:./ThirdParty/FatFs/Src/ff.c **** #if FF_FS_CRTIME
2790:./ThirdParty/FatFs/Src/ff.c **** 	fno->crtime = ld_16(dp->dir + DIR_CrtTime + 0);	/* Created time */
2791:./ThirdParty/FatFs/Src/ff.c **** 	fno->crdate = ld_16(dp->dir + DIR_CrtTime + 2);	/* Created date */
2792:./ThirdParty/FatFs/Src/ff.c **** #endif
2793:./ThirdParty/FatFs/Src/ff.c **** }
 526              		.loc 1 2793 1 view .LVU152
 527 0072 38BD     		pop	{r3, r4, r5, pc}
 528              		.cfi_endproc
 529              	.LFE24:
 531              		.section	.text.get_ldnumber,"ax",%progbits
 532              		.align	1
 533              		.syntax unified
 534              		.thumb
 535              		.thumb_func
 537              	get_ldnumber:
 538              	.LVL57:
 539              	.LFB27:
2794:./ThirdParty/FatFs/Src/ff.c **** 
2795:./ThirdParty/FatFs/Src/ff.c **** #endif /* FF_FS_MINIMIZE <= 1 || FF_FS_RPATH >= 2 */
2796:./ThirdParty/FatFs/Src/ff.c **** 
2797:./ThirdParty/FatFs/Src/ff.c **** 
2798:./ThirdParty/FatFs/Src/ff.c **** 
2799:./ThirdParty/FatFs/Src/ff.c **** #if FF_USE_FIND && FF_FS_MINIMIZE <= 1
2800:./ThirdParty/FatFs/Src/ff.c **** /*-----------------------------------------------------------------------*/
2801:./ThirdParty/FatFs/Src/ff.c **** /* Pattern matching                                                      */
2802:./ThirdParty/FatFs/Src/ff.c **** /*-----------------------------------------------------------------------*/
2803:./ThirdParty/FatFs/Src/ff.c **** 
2804:./ThirdParty/FatFs/Src/ff.c **** #define FIND_RECURS	4	/* Maximum number of wildcard terms in the pattern to limit recursion */
2805:./ThirdParty/FatFs/Src/ff.c **** 
2806:./ThirdParty/FatFs/Src/ff.c **** 
2807:./ThirdParty/FatFs/Src/ff.c **** static DWORD get_achar (	/* Get a character and advance ptr */
2808:./ThirdParty/FatFs/Src/ff.c **** 	const TCHAR** ptr		/* Pointer to pointer to the ANSI/OEM or Unicode string */
2809:./ThirdParty/FatFs/Src/ff.c **** )
2810:./ThirdParty/FatFs/Src/ff.c **** {
2811:./ThirdParty/FatFs/Src/ff.c **** 	DWORD chr;
2812:./ThirdParty/FatFs/Src/ff.c **** 
2813:./ThirdParty/FatFs/Src/ff.c **** 
2814:./ThirdParty/FatFs/Src/ff.c **** #if FF_USE_LFN && FF_LFN_UNICODE >= 1	/* Unicode input */
2815:./ThirdParty/FatFs/Src/ff.c **** 	chr = tchar2uni(ptr);
2816:./ThirdParty/FatFs/Src/ff.c **** 	if (chr == 0xFFFFFFFF) chr = 0;		/* Wrong UTF encoding is recognized as end of the string */
2817:./ThirdParty/FatFs/Src/ff.c **** 	chr = ff_wtoupper(chr);
2818:./ThirdParty/FatFs/Src/ff.c **** 
2819:./ThirdParty/FatFs/Src/ff.c **** #else									/* ANSI/OEM input */
2820:./ThirdParty/FatFs/Src/ff.c **** 	chr = (BYTE)*(*ptr)++;				/* Get a byte */
2821:./ThirdParty/FatFs/Src/ff.c **** 	if (IsLower(chr)) chr -= 0x20;		/* To upper ASCII char */
2822:./ThirdParty/FatFs/Src/ff.c **** #if FF_CODE_PAGE == 0
2823:./ThirdParty/FatFs/Src/ff.c **** 	if (ExCvt && chr >= 0x80) chr = ExCvt[chr - 0x80];	/* To upper (SBCS extended char) */
ARM GAS  C:\Users\Xuleo\AppData\Local\Temp\ccTDbepL.s 			page 60


2824:./ThirdParty/FatFs/Src/ff.c **** #elif FF_CODE_PAGE < 900
2825:./ThirdParty/FatFs/Src/ff.c **** 	if (chr >= 0x80) chr = ExCvt[chr - 0x80];	/* To upper (SBCS extended char) */
2826:./ThirdParty/FatFs/Src/ff.c **** #endif
2827:./ThirdParty/FatFs/Src/ff.c **** #if FF_CODE_PAGE == 0 || FF_CODE_PAGE >= 900
2828:./ThirdParty/FatFs/Src/ff.c **** 	if (dbc_1st((BYTE)chr)) {	/* Get DBC 2nd byte if needed */
2829:./ThirdParty/FatFs/Src/ff.c **** 		chr = dbc_2nd((BYTE)**ptr) ? chr << 8 | (BYTE)*(*ptr)++ : 0;
2830:./ThirdParty/FatFs/Src/ff.c **** 	}
2831:./ThirdParty/FatFs/Src/ff.c **** #endif
2832:./ThirdParty/FatFs/Src/ff.c **** 
2833:./ThirdParty/FatFs/Src/ff.c **** #endif
2834:./ThirdParty/FatFs/Src/ff.c **** 	return chr;
2835:./ThirdParty/FatFs/Src/ff.c **** }
2836:./ThirdParty/FatFs/Src/ff.c **** 
2837:./ThirdParty/FatFs/Src/ff.c **** 
2838:./ThirdParty/FatFs/Src/ff.c **** static int pattern_match (	/* 0:mismatched, 1:matched */
2839:./ThirdParty/FatFs/Src/ff.c **** 	const TCHAR* pat,	/* Matching pattern */
2840:./ThirdParty/FatFs/Src/ff.c **** 	const TCHAR* nam,	/* String to be tested */
2841:./ThirdParty/FatFs/Src/ff.c **** 	UINT skip,			/* Number of pre-skip chars (number of ?s, b8:infinite (* specified)) */
2842:./ThirdParty/FatFs/Src/ff.c **** 	UINT recur			/* Recursion count */
2843:./ThirdParty/FatFs/Src/ff.c **** )
2844:./ThirdParty/FatFs/Src/ff.c **** {
2845:./ThirdParty/FatFs/Src/ff.c **** 	const TCHAR *pptr;
2846:./ThirdParty/FatFs/Src/ff.c **** 	const TCHAR *nptr;
2847:./ThirdParty/FatFs/Src/ff.c **** 	DWORD pchr, nchr;
2848:./ThirdParty/FatFs/Src/ff.c **** 	UINT sk;
2849:./ThirdParty/FatFs/Src/ff.c **** 
2850:./ThirdParty/FatFs/Src/ff.c **** 
2851:./ThirdParty/FatFs/Src/ff.c **** 	while ((skip & 0xFF) != 0) {		/* Pre-skip name chars */
2852:./ThirdParty/FatFs/Src/ff.c **** 		if (!get_achar(&nam)) return 0;	/* Branch mismatched if less name chars */
2853:./ThirdParty/FatFs/Src/ff.c **** 		skip--;
2854:./ThirdParty/FatFs/Src/ff.c **** 	}
2855:./ThirdParty/FatFs/Src/ff.c **** 	if (*pat == 0 && skip) return 1;	/* Matched? (short circuit) */
2856:./ThirdParty/FatFs/Src/ff.c **** 
2857:./ThirdParty/FatFs/Src/ff.c **** 	do {
2858:./ThirdParty/FatFs/Src/ff.c **** 		pptr = pat; nptr = nam;			/* Top of pattern and name to match */
2859:./ThirdParty/FatFs/Src/ff.c **** 		for (;;) {
2860:./ThirdParty/FatFs/Src/ff.c **** 			if (*pptr == '\?' || *pptr == '*') {	/* Wildcard term? */
2861:./ThirdParty/FatFs/Src/ff.c **** 				if (recur == 0) return 0;	/* Too many wildcard terms? */
2862:./ThirdParty/FatFs/Src/ff.c **** 				sk = 0;
2863:./ThirdParty/FatFs/Src/ff.c **** 				do {	/* Analyze the wildcard term */
2864:./ThirdParty/FatFs/Src/ff.c **** 					if (*pptr++ == '\?') {
2865:./ThirdParty/FatFs/Src/ff.c **** 						sk++;
2866:./ThirdParty/FatFs/Src/ff.c **** 					} else {
2867:./ThirdParty/FatFs/Src/ff.c **** 						sk |= 0x100;
2868:./ThirdParty/FatFs/Src/ff.c **** 					}
2869:./ThirdParty/FatFs/Src/ff.c **** 				} while (*pptr == '\?' || *pptr == '*');
2870:./ThirdParty/FatFs/Src/ff.c **** 				if (pattern_match(pptr, nptr, sk, recur - 1)) return 1;	/* Test new branch (recursive call) */
2871:./ThirdParty/FatFs/Src/ff.c **** 				nchr = *nptr; break;	/* Branch mismatched */
2872:./ThirdParty/FatFs/Src/ff.c **** 			}
2873:./ThirdParty/FatFs/Src/ff.c **** 			pchr = get_achar(&pptr);	/* Get a pattern char */
2874:./ThirdParty/FatFs/Src/ff.c **** 			nchr = get_achar(&nptr);	/* Get a name char */
2875:./ThirdParty/FatFs/Src/ff.c **** 			if (pchr != nchr) break;	/* Branch mismatched? */
2876:./ThirdParty/FatFs/Src/ff.c **** 			if (pchr == 0) return 1;	/* Branch matched? (matched at end of both strings) */
2877:./ThirdParty/FatFs/Src/ff.c **** 		}
2878:./ThirdParty/FatFs/Src/ff.c **** 		get_achar(&nam);			/* nam++ */
2879:./ThirdParty/FatFs/Src/ff.c **** 	} while (skip && nchr);		/* Retry until end of name if infinite search is specified */
2880:./ThirdParty/FatFs/Src/ff.c **** 
ARM GAS  C:\Users\Xuleo\AppData\Local\Temp\ccTDbepL.s 			page 61


2881:./ThirdParty/FatFs/Src/ff.c **** 	return 0;
2882:./ThirdParty/FatFs/Src/ff.c **** }
2883:./ThirdParty/FatFs/Src/ff.c **** 
2884:./ThirdParty/FatFs/Src/ff.c **** #endif /* FF_USE_FIND && FF_FS_MINIMIZE <= 1 */
2885:./ThirdParty/FatFs/Src/ff.c **** 
2886:./ThirdParty/FatFs/Src/ff.c **** 
2887:./ThirdParty/FatFs/Src/ff.c **** 
2888:./ThirdParty/FatFs/Src/ff.c **** /*-----------------------------------------------------------------------*/
2889:./ThirdParty/FatFs/Src/ff.c **** /* Pick a top segment and create the object name in directory form       */
2890:./ThirdParty/FatFs/Src/ff.c **** /*-----------------------------------------------------------------------*/
2891:./ThirdParty/FatFs/Src/ff.c **** 
2892:./ThirdParty/FatFs/Src/ff.c **** static FRESULT create_name (	/* FR_OK: successful, FR_INVALID_NAME: could not create */
2893:./ThirdParty/FatFs/Src/ff.c **** 	DIR* dp,					/* Pointer to the directory object */
2894:./ThirdParty/FatFs/Src/ff.c **** 	const TCHAR** path			/* Pointer to pointer to the segment in the path string */
2895:./ThirdParty/FatFs/Src/ff.c **** )
2896:./ThirdParty/FatFs/Src/ff.c **** {
2897:./ThirdParty/FatFs/Src/ff.c **** #if FF_USE_LFN		/* LFN configuration */
2898:./ThirdParty/FatFs/Src/ff.c **** 	BYTE b, cf;
2899:./ThirdParty/FatFs/Src/ff.c **** 	WCHAR wc;
2900:./ThirdParty/FatFs/Src/ff.c **** 	WCHAR *lfn;
2901:./ThirdParty/FatFs/Src/ff.c **** 	const TCHAR* p;
2902:./ThirdParty/FatFs/Src/ff.c **** 	DWORD uc;
2903:./ThirdParty/FatFs/Src/ff.c **** 	UINT i, ni, si, di;
2904:./ThirdParty/FatFs/Src/ff.c **** 
2905:./ThirdParty/FatFs/Src/ff.c **** 
2906:./ThirdParty/FatFs/Src/ff.c **** 	/* Create an LFN into LFN working buffer */
2907:./ThirdParty/FatFs/Src/ff.c **** 	p = *path; lfn = dp->obj.fs->lfnbuf; di = 0;
2908:./ThirdParty/FatFs/Src/ff.c **** 	for (;;) {
2909:./ThirdParty/FatFs/Src/ff.c **** 		uc = tchar2uni(&p);			/* Get a character */
2910:./ThirdParty/FatFs/Src/ff.c **** 		if (uc == 0xFFFFFFFF) return FR_INVALID_NAME;		/* Invalid code or UTF decode error */
2911:./ThirdParty/FatFs/Src/ff.c **** 		if (uc >= 0x10000) lfn[di++] = (WCHAR)(uc >> 16);	/* Store high surrogate if needed */
2912:./ThirdParty/FatFs/Src/ff.c **** 		wc = (WCHAR)uc;
2913:./ThirdParty/FatFs/Src/ff.c **** 		if (wc < ' ' || IsSeparator(wc)) break;	/* Break if end of the path or a separator is found */
2914:./ThirdParty/FatFs/Src/ff.c **** 		if (wc < 0x80 && strchr("*:<>|\"\?\x7F", (int)wc)) return FR_INVALID_NAME;	/* Reject illegal char
2915:./ThirdParty/FatFs/Src/ff.c **** 		if (di >= FF_MAX_LFN) return FR_INVALID_NAME;	/* Reject too long name */
2916:./ThirdParty/FatFs/Src/ff.c **** 		lfn[di++] = wc;				/* Store the Unicode character */
2917:./ThirdParty/FatFs/Src/ff.c **** 	}
2918:./ThirdParty/FatFs/Src/ff.c **** 	if (wc < ' ') {				/* Stopped at end of the path? */
2919:./ThirdParty/FatFs/Src/ff.c **** 		cf = NS_LAST;			/* Last segment */
2920:./ThirdParty/FatFs/Src/ff.c **** 	} else {					/* Stopped at a separator */
2921:./ThirdParty/FatFs/Src/ff.c **** 		while (IsSeparator(*p)) p++;	/* Skip duplicated separators if exist */
2922:./ThirdParty/FatFs/Src/ff.c **** 		cf = 0;					/* Next segment may follow */
2923:./ThirdParty/FatFs/Src/ff.c **** 		if (IsTerminator(*p)) cf = NS_LAST;	/* Ignore terminating separator */
2924:./ThirdParty/FatFs/Src/ff.c **** 	}
2925:./ThirdParty/FatFs/Src/ff.c **** 	*path = p;					/* Return pointer to the next segment */
2926:./ThirdParty/FatFs/Src/ff.c **** 
2927:./ThirdParty/FatFs/Src/ff.c **** #if FF_FS_RPATH
2928:./ThirdParty/FatFs/Src/ff.c **** 	if ((di == 1 && lfn[di - 1] == '.') ||
2929:./ThirdParty/FatFs/Src/ff.c **** 		(di == 2 && lfn[di - 1] == '.' && lfn[di - 2] == '.')) {	/* Is this segment a dot name? */
2930:./ThirdParty/FatFs/Src/ff.c **** 		lfn[di] = 0;
2931:./ThirdParty/FatFs/Src/ff.c **** 		for (i = 0; i < 11; i++) {	/* Create dot name for SFN entry */
2932:./ThirdParty/FatFs/Src/ff.c **** 			dp->fn[i] = (i < di) ? '.' : ' ';
2933:./ThirdParty/FatFs/Src/ff.c **** 		}
2934:./ThirdParty/FatFs/Src/ff.c **** 		dp->fn[i] = cf | NS_DOT;	/* This is a dot entry */
2935:./ThirdParty/FatFs/Src/ff.c **** 		return FR_OK;
2936:./ThirdParty/FatFs/Src/ff.c **** 	}
2937:./ThirdParty/FatFs/Src/ff.c **** #endif
ARM GAS  C:\Users\Xuleo\AppData\Local\Temp\ccTDbepL.s 			page 62


2938:./ThirdParty/FatFs/Src/ff.c **** 	while (di) {					/* Snip off trailing spaces and dots if exist */
2939:./ThirdParty/FatFs/Src/ff.c **** 		wc = lfn[di - 1];
2940:./ThirdParty/FatFs/Src/ff.c **** 		if (wc != ' ' && wc != '.') break;
2941:./ThirdParty/FatFs/Src/ff.c **** 		di--;
2942:./ThirdParty/FatFs/Src/ff.c **** 	}
2943:./ThirdParty/FatFs/Src/ff.c **** 	lfn[di] = 0;							/* LFN is created into the working buffer */
2944:./ThirdParty/FatFs/Src/ff.c **** 	if (di == 0) return FR_INVALID_NAME;	/* Reject null name */
2945:./ThirdParty/FatFs/Src/ff.c **** 
2946:./ThirdParty/FatFs/Src/ff.c **** 	/* Create SFN in directory form */
2947:./ThirdParty/FatFs/Src/ff.c **** 	for (si = 0; lfn[si] == ' '; si++) ;	/* Remove leading spaces */
2948:./ThirdParty/FatFs/Src/ff.c **** 	if (si > 0 || lfn[si] == '.') cf |= NS_LOSS | NS_LFN;	/* Is there any leading space or dot? */
2949:./ThirdParty/FatFs/Src/ff.c **** 	while (di > 0 && lfn[di - 1] != '.') di--;	/* Find last dot (di<=si: no extension) */
2950:./ThirdParty/FatFs/Src/ff.c **** 
2951:./ThirdParty/FatFs/Src/ff.c **** 	memset(dp->fn, ' ', 11);
2952:./ThirdParty/FatFs/Src/ff.c **** 	i = b = 0; ni = 8;
2953:./ThirdParty/FatFs/Src/ff.c **** 	for (;;) {
2954:./ThirdParty/FatFs/Src/ff.c **** 		wc = lfn[si++];					/* Get an LFN character */
2955:./ThirdParty/FatFs/Src/ff.c **** 		if (wc == 0) break;				/* Break on end of the LFN */
2956:./ThirdParty/FatFs/Src/ff.c **** 		if (wc == ' ' || (wc == '.' && si != di)) {	/* Remove embedded spaces and dots */
2957:./ThirdParty/FatFs/Src/ff.c **** 			cf |= NS_LOSS | NS_LFN;
2958:./ThirdParty/FatFs/Src/ff.c **** 			continue;
2959:./ThirdParty/FatFs/Src/ff.c **** 		}
2960:./ThirdParty/FatFs/Src/ff.c **** 
2961:./ThirdParty/FatFs/Src/ff.c **** 		if (i >= ni || si == di) {		/* End of field? */
2962:./ThirdParty/FatFs/Src/ff.c **** 			if (ni == 11) {				/* Name extension overflow? */
2963:./ThirdParty/FatFs/Src/ff.c **** 				cf |= NS_LOSS | NS_LFN;
2964:./ThirdParty/FatFs/Src/ff.c **** 				break;
2965:./ThirdParty/FatFs/Src/ff.c **** 			}
2966:./ThirdParty/FatFs/Src/ff.c **** 			if (si != di) cf |= NS_LOSS | NS_LFN;	/* Name body overflow? */
2967:./ThirdParty/FatFs/Src/ff.c **** 			if (si > di) break;						/* No name extension? */
2968:./ThirdParty/FatFs/Src/ff.c **** 			si = di; i = 8; ni = 11; b <<= 2;		/* Enter name extension */
2969:./ThirdParty/FatFs/Src/ff.c **** 			continue;
2970:./ThirdParty/FatFs/Src/ff.c **** 		}
2971:./ThirdParty/FatFs/Src/ff.c **** 
2972:./ThirdParty/FatFs/Src/ff.c **** 		if (wc >= 0x80) {	/* Is this an extended character? */
2973:./ThirdParty/FatFs/Src/ff.c **** 			cf |= NS_LFN;	/* LFN entry needs to be created */
2974:./ThirdParty/FatFs/Src/ff.c **** #if FF_CODE_PAGE == 0
2975:./ThirdParty/FatFs/Src/ff.c **** 			if (ExCvt) {	/* In SBCS cfg */
2976:./ThirdParty/FatFs/Src/ff.c **** 				wc = ff_uni2oem(wc, CODEPAGE);			/* Unicode ==> ANSI/OEM code */
2977:./ThirdParty/FatFs/Src/ff.c **** 				if (wc & 0x80) wc = ExCvt[wc & 0x7F];	/* Convert extended character to upper (SBCS) */
2978:./ThirdParty/FatFs/Src/ff.c **** 			} else {		/* In DBCS cfg */
2979:./ThirdParty/FatFs/Src/ff.c **** 				wc = ff_uni2oem(ff_wtoupper(wc), CODEPAGE);	/* Unicode ==> Up-convert ==> ANSI/OEM code */
2980:./ThirdParty/FatFs/Src/ff.c **** 			}
2981:./ThirdParty/FatFs/Src/ff.c **** #elif FF_CODE_PAGE < 900	/* In SBCS cfg */
2982:./ThirdParty/FatFs/Src/ff.c **** 			wc = ff_uni2oem(wc, CODEPAGE);			/* Unicode ==> ANSI/OEM code */
2983:./ThirdParty/FatFs/Src/ff.c **** 			if (wc & 0x80) wc = ExCvt[wc & 0x7F];	/* Convert extended character to upper (SBCS) */
2984:./ThirdParty/FatFs/Src/ff.c **** #else						/* In DBCS cfg */
2985:./ThirdParty/FatFs/Src/ff.c **** 			wc = ff_uni2oem(ff_wtoupper(wc), CODEPAGE);	/* Unicode ==> Up-convert ==> ANSI/OEM code */
2986:./ThirdParty/FatFs/Src/ff.c **** #endif
2987:./ThirdParty/FatFs/Src/ff.c **** 		}
2988:./ThirdParty/FatFs/Src/ff.c **** 
2989:./ThirdParty/FatFs/Src/ff.c **** 		if (wc >= 0x100) {				/* Is this a DBC? */
