ARM GAS  C:\Users\Xuleo\AppData\Local\Temp\ccz8fNTO.s 			page 1


   1              		.cpu cortex-m33
   2              		.arch armv8-m.main
   3              		.fpu fpv4-sp-d16
   4              		.arch_extension dsp
   5              		.eabi_attribute 27, 1
   6              		.eabi_attribute 28, 1
   7              		.eabi_attribute 20, 1
   8              		.eabi_attribute 21, 1
   9              		.eabi_attribute 23, 3
  10              		.eabi_attribute 24, 1
  11              		.eabi_attribute 25, 1
  12              		.eabi_attribute 26, 1
  13              		.eabi_attribute 30, 1
  14              		.eabi_attribute 34, 1
  15              		.eabi_attribute 18, 4
  16              		.file	"file_transfer.c"
  17              		.text
  18              	.Ltext0:
  19              		.cfi_sections	.debug_frame
  20              		.file 1 "./Application/Src/file_transfer.c"
  21              		.section	.text.FT_FlushWriteBuffer,"ax",%progbits
  22              		.align	1
  23              		.syntax unified
  24              		.thumb
  25              		.thumb_func
  27              	FT_FlushWriteBuffer:
  28              	.LFB160:
   1:./Application/Src/file_transfer.c **** /*
   2:./Application/Src/file_transfer.c ****  * file_transfer.c - TXT file transfer via Bluetooth (HC-04)
   3:./Application/Src/file_transfer.c ****  * Implements chunked binary protocol for reliable file upload
   4:./Application/Src/file_transfer.c ****  * Ported from F103C to H533
   5:./Application/Src/file_transfer.c ****  */
   6:./Application/Src/file_transfer.c **** 
   7:./Application/Src/file_transfer.c **** #include <file_transfer.h>
   8:./Application/Src/file_transfer.c **** #include <hc04bt.h>
   9:./Application/Src/file_transfer.c **** #include <sdcard.h>
  10:./Application/Src/file_transfer.c **** #include <string.h>
  11:./Application/Src/file_transfer.c **** #include <stdio.h>
  12:./Application/Src/file_transfer.c **** #include "stm32h5xx_hal.h"
  13:./Application/Src/file_transfer.c **** 
  14:./Application/Src/file_transfer.c **** /* Global transfer context */
  15:./Application/Src/file_transfer.c **** static FT_Context_t ftContext;
  16:./Application/Src/file_transfer.c **** 
  17:./Application/Src/file_transfer.c **** /* Write buffer for batching SD writes */
  18:./Application/Src/file_transfer.c **** #define FT_WRITE_BUFFER_SIZE 512 /* Match SD sector size */
  19:./Application/Src/file_transfer.c **** static uint8_t ftWriteBuffer[FT_WRITE_BUFFER_SIZE];
  20:./Application/Src/file_transfer.c **** static uint16_t ftWriteBufferIndex = 0;
  21:./Application/Src/file_transfer.c **** 
  22:./Application/Src/file_transfer.c **** /* Track last completed transfer for duplicate FILE_END handling */
  23:./Application/Src/file_transfer.c **** static uint16_t lastCompletedBytes = 0;
  24:./Application/Src/file_transfer.c **** static uint32_t lastCompletedTime = 0;
  25:./Application/Src/file_transfer.c **** 
  26:./Application/Src/file_transfer.c **** /* Flush write buffer to SD card */
  27:./Application/Src/file_transfer.c **** static int FT_FlushWriteBuffer(void)
  28:./Application/Src/file_transfer.c **** {
  29              		.loc 1 28 1 view -0
  30              		.cfi_startproc
ARM GAS  C:\Users\Xuleo\AppData\Local\Temp\ccz8fNTO.s 			page 2


  31              		@ args = 0, pretend = 0, frame = 8
  32              		@ frame_needed = 0, uses_anonymous_args = 0
  29:./Application/Src/file_transfer.c ****     if (ftWriteBufferIndex == 0)
  33              		.loc 1 29 5 view .LVU1
  34              		.loc 1 29 28 is_stmt 0 view .LVU2
  35 0000 0D4B     		ldr	r3, .L11
  36 0002 1A88     		ldrh	r2, [r3]
  37              		.loc 1 29 8 view .LVU3
  38 0004 0AB9     		cbnz	r2, .L10
  30:./Application/Src/file_transfer.c ****         return 0;
  39              		.loc 1 30 16 view .LVU4
  40 0006 1046     		mov	r0, r2
  31:./Application/Src/file_transfer.c **** 
  32:./Application/Src/file_transfer.c ****     UINT bytesWritten;
  33:./Application/Src/file_transfer.c ****     FRESULT res = f_write(&ftContext.file, ftWriteBuffer, ftWriteBufferIndex, &bytesWritten);
  34:./Application/Src/file_transfer.c ****     if (res != FR_OK || bytesWritten != ftWriteBufferIndex)
  35:./Application/Src/file_transfer.c ****     {
  36:./Application/Src/file_transfer.c ****         return -1;
  37:./Application/Src/file_transfer.c ****     }
  38:./Application/Src/file_transfer.c ****     ftWriteBufferIndex = 0;
  39:./Application/Src/file_transfer.c ****     return 0;
  40:./Application/Src/file_transfer.c **** }
  41              		.loc 1 40 1 view .LVU5
  42 0008 7047     		bx	lr
  43              	.L10:
  28:./Application/Src/file_transfer.c ****     if (ftWriteBufferIndex == 0)
  44              		.loc 1 28 1 view .LVU6
  45 000a 00B5     		push	{lr}
  46              	.LCFI0:
  47              		.cfi_def_cfa_offset 4
  48              		.cfi_offset 14, -4
  49 000c 83B0     		sub	sp, sp, #12
  50              	.LCFI1:
  51              		.cfi_def_cfa_offset 16
  32:./Application/Src/file_transfer.c ****     FRESULT res = f_write(&ftContext.file, ftWriteBuffer, ftWriteBufferIndex, &bytesWritten);
  52              		.loc 1 32 5 is_stmt 1 view .LVU7
  33:./Application/Src/file_transfer.c ****     if (res != FR_OK || bytesWritten != ftWriteBufferIndex)
  53              		.loc 1 33 5 view .LVU8
  33:./Application/Src/file_transfer.c ****     if (res != FR_OK || bytesWritten != ftWriteBufferIndex)
  54              		.loc 1 33 19 is_stmt 0 view .LVU9
  55 000e 01AB     		add	r3, sp, #4
  56 0010 0A49     		ldr	r1, .L11+4
  57 0012 0B48     		ldr	r0, .L11+8
  58 0014 FFF7FEFF 		bl	f_write
  59              	.LVL0:
  34:./Application/Src/file_transfer.c ****     {
  60              		.loc 1 34 5 is_stmt 1 view .LVU10
  34:./Application/Src/file_transfer.c ****     {
  61              		.loc 1 34 8 is_stmt 0 view .LVU11
  62 0018 40B9     		cbnz	r0, .L4
  34:./Application/Src/file_transfer.c ****     {
  63              		.loc 1 34 38 discriminator 1 view .LVU12
  64 001a 074B     		ldr	r3, .L11
  65 001c 1A88     		ldrh	r2, [r3]
  66 001e 019B     		ldr	r3, [sp, #4]
  34:./Application/Src/file_transfer.c ****     {
  67              		.loc 1 34 22 discriminator 1 view .LVU13
ARM GAS  C:\Users\Xuleo\AppData\Local\Temp\ccz8fNTO.s 			page 3


  68 0020 9A42     		cmp	r2, r3
  69 0022 06D1     		bne	.L5
  38:./Application/Src/file_transfer.c ****     return 0;
  70              		.loc 1 38 5 is_stmt 1 view .LVU14
  38:./Application/Src/file_transfer.c ****     return 0;
  71              		.loc 1 38 24 is_stmt 0 view .LVU15
  72 0024 044B     		ldr	r3, .L11
  73 0026 1880     		strh	r0, [r3]	@ movhi
  39:./Application/Src/file_transfer.c **** }
  74              		.loc 1 39 5 is_stmt 1 view .LVU16
  75              	.LVL1:
  76              	.L1:
  77              		.loc 1 40 1 is_stmt 0 view .LVU17
  78 0028 03B0     		add	sp, sp, #12
  79              	.LCFI2:
  80              		.cfi_remember_state
  81              		.cfi_def_cfa_offset 4
  82              		@ sp needed
  83 002a 00BD     		pop	{pc}
  84              	.LVL2:
  85              	.L4:
  86              	.LCFI3:
  87              		.cfi_restore_state
  36:./Application/Src/file_transfer.c ****     }
  88              		.loc 1 36 16 view .LVU18
  89 002c 4FF0FF30 		mov	r0, #-1
  90              	.LVL3:
  36:./Application/Src/file_transfer.c ****     }
  91              		.loc 1 36 16 view .LVU19
  92 0030 FAE7     		b	.L1
  93              	.LVL4:
  94              	.L5:
  36:./Application/Src/file_transfer.c ****     }
  95              		.loc 1 36 16 view .LVU20
  96 0032 4FF0FF30 		mov	r0, #-1
  97              	.LVL5:
  36:./Application/Src/file_transfer.c ****     }
  98              		.loc 1 36 16 view .LVU21
  99 0036 F7E7     		b	.L1
 100              	.L12:
 101              		.align	2
 102              	.L11:
 103 0038 00000000 		.word	ftWriteBufferIndex
 104 003c 00000000 		.word	ftWriteBuffer
 105 0040 04000000 		.word	ftContext+4
 106              		.cfi_endproc
 107              	.LFE160:
 109              		.section	.text.FT_Init,"ax",%progbits
 110              		.align	1
 111              		.global	FT_Init
 112              		.syntax unified
 113              		.thumb
 114              		.thumb_func
 116              	FT_Init:
 117              	.LFB161:
  41:./Application/Src/file_transfer.c **** 
  42:./Application/Src/file_transfer.c **** /* Initialize file transfer module */
ARM GAS  C:\Users\Xuleo\AppData\Local\Temp\ccz8fNTO.s 			page 4


  43:./Application/Src/file_transfer.c **** void FT_Init(void)
  44:./Application/Src/file_transfer.c **** {
 118              		.loc 1 44 1 is_stmt 1 view -0
 119              		.cfi_startproc
 120              		@ args = 0, pretend = 0, frame = 0
 121              		@ frame_needed = 0, uses_anonymous_args = 0
 122 0000 08B5     		push	{r3, lr}
 123              	.LCFI4:
 124              		.cfi_def_cfa_offset 8
 125              		.cfi_offset 3, -8
 126              		.cfi_offset 14, -4
  45:./Application/Src/file_transfer.c ****     memset(&ftContext, 0, sizeof(ftContext));
 127              		.loc 1 45 5 view .LVU23
 128 0002 4FF41372 		mov	r2, #588
 129 0006 0021     		movs	r1, #0
 130 0008 0348     		ldr	r0, .L15
 131 000a FFF7FEFF 		bl	memset
 132              	.LVL6:
  46:./Application/Src/file_transfer.c ****     ftContext.state = FT_STATE_IDLE;
 133              		.loc 1 46 5 view .LVU24
  47:./Application/Src/file_transfer.c ****     ftContext.errorCode = FT_ERR_NONE;
 134              		.loc 1 47 5 view .LVU25
  48:./Application/Src/file_transfer.c ****     ftWriteBufferIndex = 0;
 135              		.loc 1 48 5 view .LVU26
 136              		.loc 1 48 24 is_stmt 0 view .LVU27
 137 000e 034B     		ldr	r3, .L15+4
 138 0010 0022     		movs	r2, #0
 139 0012 1A80     		strh	r2, [r3]	@ movhi
  49:./Application/Src/file_transfer.c **** }
 140              		.loc 1 49 1 view .LVU28
 141 0014 08BD     		pop	{r3, pc}
 142              	.L16:
 143 0016 00BF     		.align	2
 144              	.L15:
 145 0018 00000000 		.word	ftContext
 146 001c 00000000 		.word	ftWriteBufferIndex
 147              		.cfi_endproc
 148              	.LFE161:
 150              		.section	.text.FT_CalculateChecksum,"ax",%progbits
 151              		.align	1
 152              		.global	FT_CalculateChecksum
 153              		.syntax unified
 154              		.thumb
 155              		.thumb_func
 157              	FT_CalculateChecksum:
 158              	.LVL7:
 159              	.LFB162:
  50:./Application/Src/file_transfer.c **** 
  51:./Application/Src/file_transfer.c **** /* Calculate XOR checksum */
  52:./Application/Src/file_transfer.c **** uint8_t FT_CalculateChecksum(uint8_t *data, uint16_t length)
  53:./Application/Src/file_transfer.c **** {
 160              		.loc 1 53 1 is_stmt 1 view -0
 161              		.cfi_startproc
 162              		@ args = 0, pretend = 0, frame = 0
 163              		@ frame_needed = 0, uses_anonymous_args = 0
 164              		@ link register save eliminated.
 165              		.loc 1 53 1 is_stmt 0 view .LVU30
ARM GAS  C:\Users\Xuleo\AppData\Local\Temp\ccz8fNTO.s 			page 5


 166 0000 8446     		mov	ip, r0
  54:./Application/Src/file_transfer.c ****     uint8_t checksum = 0;
 167              		.loc 1 54 5 is_stmt 1 view .LVU31
 168              	.LVL8:
  55:./Application/Src/file_transfer.c ****     for (uint16_t i = 0; i < length; i++)
 169              		.loc 1 55 5 view .LVU32
 170              	.LBB2:
 171              		.loc 1 55 10 view .LVU33
 172              		.loc 1 55 19 is_stmt 0 view .LVU34
 173 0002 0023     		movs	r3, #0
 174              	.LBE2:
  54:./Application/Src/file_transfer.c ****     uint8_t checksum = 0;
 175              		.loc 1 54 13 view .LVU35
 176 0004 1846     		mov	r0, r3
 177              	.LVL9:
 178              	.LBB3:
 179              		.loc 1 55 5 view .LVU36
 180 0006 04E0     		b	.L18
 181              	.LVL10:
 182              	.L19:
  56:./Application/Src/file_transfer.c ****     {
  57:./Application/Src/file_transfer.c ****         checksum ^= data[i];
 183              		.loc 1 57 9 is_stmt 1 view .LVU37
 184              		.loc 1 57 25 is_stmt 0 view .LVU38
 185 0008 1CF80320 		ldrb	r2, [ip, r3]	@ zero_extendqisi2
 186              		.loc 1 57 18 view .LVU39
 187 000c 5040     		eors	r0, r0, r2
 188              	.LVL11:
  55:./Application/Src/file_transfer.c ****     for (uint16_t i = 0; i < length; i++)
 189              		.loc 1 55 39 is_stmt 1 discriminator 3 view .LVU40
 190 000e 0133     		adds	r3, r3, #1
 191              	.LVL12:
  55:./Application/Src/file_transfer.c ****     for (uint16_t i = 0; i < length; i++)
 192              		.loc 1 55 39 is_stmt 0 discriminator 3 view .LVU41
 193 0010 9BB2     		uxth	r3, r3
 194              	.LVL13:
 195              	.L18:
  55:./Application/Src/file_transfer.c ****     for (uint16_t i = 0; i < length; i++)
 196              		.loc 1 55 28 is_stmt 1 discriminator 1 view .LVU42
 197 0012 8B42     		cmp	r3, r1
 198 0014 F8D3     		bcc	.L19
 199              	.LBE3:
  58:./Application/Src/file_transfer.c ****     }
  59:./Application/Src/file_transfer.c ****     return checksum;
 200              		.loc 1 59 5 view .LVU43
  60:./Application/Src/file_transfer.c **** }
 201              		.loc 1 60 1 is_stmt 0 view .LVU44
 202 0016 7047     		bx	lr
 203              		.cfi_endproc
 204              	.LFE162:
 206              		.section	.text.FT_SendResponse,"ax",%progbits
 207              		.align	1
 208              		.global	FT_SendResponse
 209              		.syntax unified
 210              		.thumb
 211              		.thumb_func
 213              	FT_SendResponse:
ARM GAS  C:\Users\Xuleo\AppData\Local\Temp\ccz8fNTO.s 			page 6


 214              	.LVL14:
 215              	.LFB163:
  61:./Application/Src/file_transfer.c **** 
  62:./Application/Src/file_transfer.c **** /* Send response packet to PC */
  63:./Application/Src/file_transfer.c **** void FT_SendResponse(uint8_t responseCode, uint8_t *data, uint8_t dataLen)
  64:./Application/Src/file_transfer.c **** {
 216              		.loc 1 64 1 is_stmt 1 view -0
 217              		.cfi_startproc
 218              		@ args = 0, pretend = 0, frame = 8
 219              		@ frame_needed = 0, uses_anonymous_args = 0
 220              		.loc 1 64 1 is_stmt 0 view .LVU46
 221 0000 30B5     		push	{r4, r5, lr}
 222              	.LCFI5:
 223              		.cfi_def_cfa_offset 12
 224              		.cfi_offset 4, -12
 225              		.cfi_offset 5, -8
 226              		.cfi_offset 14, -4
 227 0002 83B0     		sub	sp, sp, #12
 228              	.LCFI6:
 229              		.cfi_def_cfa_offset 24
  65:./Application/Src/file_transfer.c ****     uint8_t response[8];
 230              		.loc 1 65 5 is_stmt 1 view .LVU47
  66:./Application/Src/file_transfer.c ****     uint8_t idx = 0;
 231              		.loc 1 66 5 view .LVU48
  67:./Application/Src/file_transfer.c **** 
  68:./Application/Src/file_transfer.c ****     response[idx++] = responseCode;
 232              		.loc 1 68 5 view .LVU49
 233              	.LVL15:
 234              		.loc 1 68 21 is_stmt 0 view .LVU50
 235 0004 8DF80000 		strb	r0, [sp]
  69:./Application/Src/file_transfer.c ****     for (uint8_t i = 0; i < dataLen; i++)
 236              		.loc 1 69 5 is_stmt 1 view .LVU51
 237              	.LBB4:
 238              		.loc 1 69 10 view .LVU52
 239              	.LVL16:
 240              		.loc 1 69 18 is_stmt 0 view .LVU53
 241 0008 0023     		movs	r3, #0
 242              	.LBE4:
  68:./Application/Src/file_transfer.c ****     for (uint8_t i = 0; i < dataLen; i++)
 243              		.loc 1 68 17 view .LVU54
 244 000a 0124     		movs	r4, #1
 245              	.LBB5:
 246              		.loc 1 69 5 view .LVU55
 247 000c 09E0     		b	.L21
 248              	.LVL17:
 249              	.L22:
  70:./Application/Src/file_transfer.c ****     {
  71:./Application/Src/file_transfer.c ****         response[idx++] = data[i];
 250              		.loc 1 71 9 is_stmt 1 view .LVU56
 251              		.loc 1 71 21 is_stmt 0 view .LVU57
 252 000e 601C     		adds	r0, r4, #1
 253              	.LVL18:
 254              		.loc 1 71 31 view .LVU58
 255 0010 11F803C0 		ldrb	ip, [r1, r3]	@ zero_extendqisi2
 256              		.loc 1 71 25 view .LVU59
 257 0014 0834     		adds	r4, r4, #8
 258 0016 6C44     		add	r4, sp, r4
ARM GAS  C:\Users\Xuleo\AppData\Local\Temp\ccz8fNTO.s 			page 7


 259 0018 04F808CC 		strb	ip, [r4, #-8]
  69:./Application/Src/file_transfer.c ****     {
 260              		.loc 1 69 39 is_stmt 1 discriminator 3 view .LVU60
 261 001c 0133     		adds	r3, r3, #1
 262              	.LVL19:
  69:./Application/Src/file_transfer.c ****     {
 263              		.loc 1 69 39 is_stmt 0 discriminator 3 view .LVU61
 264 001e DBB2     		uxtb	r3, r3
 265              	.LVL20:
 266              		.loc 1 71 21 view .LVU62
 267 0020 C4B2     		uxtb	r4, r0
 268              	.LVL21:
 269              	.L21:
  69:./Application/Src/file_transfer.c ****     {
 270              		.loc 1 69 27 is_stmt 1 discriminator 1 view .LVU63
 271 0022 9342     		cmp	r3, r2
 272 0024 F3D3     		bcc	.L22
 273              	.LBE5:
  72:./Application/Src/file_transfer.c ****     }
  73:./Application/Src/file_transfer.c ****     response[idx] = FT_CalculateChecksum(response, idx);
 274              		.loc 1 73 5 view .LVU64
 275              		.loc 1 73 21 is_stmt 0 view .LVU65
 276 0026 2146     		mov	r1, r4
 277              	.LVL22:
 278              		.loc 1 73 21 view .LVU66
 279 0028 6846     		mov	r0, sp
 280 002a FFF7FEFF 		bl	FT_CalculateChecksum
 281              	.LVL23:
 282              		.loc 1 73 19 discriminator 1 view .LVU67
 283 002e 04F10803 		add	r3, r4, #8
 284 0032 6B44     		add	r3, sp, r3
 285 0034 03F8080C 		strb	r0, [r3, #-8]
  74:./Application/Src/file_transfer.c ****     idx++;
 286              		.loc 1 74 5 is_stmt 1 view .LVU68
 287              		.loc 1 74 8 is_stmt 0 view .LVU69
 288 0038 611C     		adds	r1, r4, #1
 289              	.LVL24:
  75:./Application/Src/file_transfer.c **** 
  76:./Application/Src/file_transfer.c ****     HC04_SendBytes(response, idx);
 290              		.loc 1 76 5 is_stmt 1 view .LVU70
 291 003a C9B2     		uxtb	r1, r1
 292              		.loc 1 76 5 is_stmt 0 view .LVU71
 293 003c 6846     		mov	r0, sp
 294 003e FFF7FEFF 		bl	HC04_SendBytes
 295              	.LVL25:
  77:./Application/Src/file_transfer.c **** }
 296              		.loc 1 77 1 view .LVU72
 297 0042 03B0     		add	sp, sp, #12
 298              	.LCFI7:
 299              		.cfi_def_cfa_offset 12
 300              		@ sp needed
 301 0044 30BD     		pop	{r4, r5, pc}
 302              		.loc 1 77 1 view .LVU73
 303              		.cfi_endproc
 304              	.LFE163:
 306              		.section	.rodata.FT_HandleFileStart.str1.4,"aMS",%progbits,1
 307              		.align	2
ARM GAS  C:\Users\Xuleo\AppData\Local\Temp\ccz8fNTO.s 			page 8


 308              	.LC0:
 309 0000 25732573 		.ascii	"%s%s\000"
 309      00
 310              		.section	.text.FT_HandleFileStart,"ax",%progbits
 311              		.align	1
 312              		.syntax unified
 313              		.thumb
 314              		.thumb_func
 316              	FT_HandleFileStart:
 317              	.LVL26:
 318              	.LFB164:
  78:./Application/Src/file_transfer.c **** 
  79:./Application/Src/file_transfer.c **** /* Handle FILE_START packet */
  80:./Application/Src/file_transfer.c **** static int FT_HandleFileStart(uint8_t *packet, uint16_t length)
  81:./Application/Src/file_transfer.c **** {
 319              		.loc 1 81 1 is_stmt 1 view -0
 320              		.cfi_startproc
 321              		@ args = 0, pretend = 0, frame = 32
 322              		@ frame_needed = 0, uses_anonymous_args = 0
 323              		.loc 1 81 1 is_stmt 0 view .LVU75
 324 0000 F0B5     		push	{r4, r5, r6, r7, lr}
 325              	.LCFI8:
 326              		.cfi_def_cfa_offset 20
 327              		.cfi_offset 4, -20
 328              		.cfi_offset 5, -16
 329              		.cfi_offset 6, -12
 330              		.cfi_offset 7, -8
 331              		.cfi_offset 14, -4
 332 0002 8BB0     		sub	sp, sp, #44
 333              	.LCFI9:
 334              		.cfi_def_cfa_offset 64
  82:./Application/Src/file_transfer.c ****     if (length < FT_FILE_START_SIZE)
 335              		.loc 1 82 5 is_stmt 1 view .LVU76
 336              		.loc 1 82 8 is_stmt 0 view .LVU77
 337 0004 1129     		cmp	r1, #17
 338 0006 37D9     		bls	.L43
 339 0008 0446     		mov	r4, r0
  83:./Application/Src/file_transfer.c ****     {
  84:./Application/Src/file_transfer.c ****         FT_SendResponse(FT_RSP_ERROR, (uint8_t[]){FT_ERR_OVERFLOW}, 1);
  85:./Application/Src/file_transfer.c ****         return -1;
  86:./Application/Src/file_transfer.c ****     }
  87:./Application/Src/file_transfer.c **** 
  88:./Application/Src/file_transfer.c ****     /* Verify checksum */
  89:./Application/Src/file_transfer.c ****     if (FT_CalculateChecksum(packet, length - 1) != packet[length - 1])
 340              		.loc 1 89 5 is_stmt 1 view .LVU78
 341              		.loc 1 89 9 is_stmt 0 view .LVU79
 342 000a 4D1E     		subs	r5, r1, #1
 343 000c A9B2     		uxth	r1, r5
 344              	.LVL27:
 345              		.loc 1 89 9 view .LVU80
 346 000e FFF7FEFF 		bl	FT_CalculateChecksum
 347              	.LVL28:
 348              		.loc 1 89 59 discriminator 1 view .LVU81
 349 0012 635D     		ldrb	r3, [r4, r5]	@ zero_extendqisi2
 350              		.loc 1 89 8 discriminator 1 view .LVU82
 351 0014 9842     		cmp	r0, r3
 352 0016 3AD1     		bne	.L44
ARM GAS  C:\Users\Xuleo\AppData\Local\Temp\ccz8fNTO.s 			page 9


  90:./Application/Src/file_transfer.c ****     {
  91:./Application/Src/file_transfer.c ****         FT_SendResponse(FT_RSP_NAK, (uint8_t[]){0, 0, FT_ERR_CHECKSUM}, 3);
  92:./Application/Src/file_transfer.c ****         return -1;
  93:./Application/Src/file_transfer.c ****     }
  94:./Application/Src/file_transfer.c **** 
  95:./Application/Src/file_transfer.c ****     /* If already receiving and got another FILE_START, PC didn't get our READY */
  96:./Application/Src/file_transfer.c ****     /* Re-send READY if we're at chunk 0 (just started), otherwise abort and restart */
  97:./Application/Src/file_transfer.c ****     if (ftContext.state == FT_STATE_RECEIVING)
 353              		.loc 1 97 5 is_stmt 1 view .LVU83
 354              		.loc 1 97 18 is_stmt 0 view .LVU84
 355 0018 5E4B     		ldr	r3, .L49
 356 001a 1B78     		ldrb	r3, [r3]	@ zero_extendqisi2
 357              		.loc 1 97 8 view .LVU85
 358 001c 012B     		cmp	r3, #1
 359 001e 11D1     		bne	.L28
  98:./Application/Src/file_transfer.c ****     {
  99:./Application/Src/file_transfer.c ****         if (ftContext.currentChunk == 0)
 360              		.loc 1 99 9 is_stmt 1 view .LVU86
 361              		.loc 1 99 22 is_stmt 0 view .LVU87
 362 0020 5C4B     		ldr	r3, .L49
 363 0022 B3F84232 		ldrh	r3, [r3, #578]
 364              		.loc 1 99 12 view .LVU88
 365 0026 002B     		cmp	r3, #0
 366 0028 41D0     		beq	.L45
 100:./Application/Src/file_transfer.c ****         {
 101:./Application/Src/file_transfer.c ****             /* Just re-send READY - PC retried because it didn't get our response */
 102:./Application/Src/file_transfer.c ****             FT_SendResponse(FT_RSP_READY, NULL, 0);
 103:./Application/Src/file_transfer.c ****             ftContext.lastActivityTime = HAL_GetTick();
 104:./Application/Src/file_transfer.c ****             return 0;
 105:./Application/Src/file_transfer.c ****         }
 106:./Application/Src/file_transfer.c ****         else
 107:./Application/Src/file_transfer.c ****         {
 108:./Application/Src/file_transfer.c ****             /* Mid-transfer FILE_START means something went wrong - abort and restart */
 109:./Application/Src/file_transfer.c ****             f_close(&ftContext.file);
 367              		.loc 1 109 13 is_stmt 1 view .LVU89
 368 002a 5B4D     		ldr	r5, .L49+4
 369              	.LVL29:
 370              		.loc 1 109 13 is_stmt 0 view .LVU90
 371 002c 2846     		mov	r0, r5
 372 002e FFF7FEFF 		bl	f_close
 373              	.LVL30:
 110:./Application/Src/file_transfer.c ****             f_unlink(ftContext.filename);
 374              		.loc 1 110 13 is_stmt 1 view .LVU91
 375 0032 05F50970 		add	r0, r5, #548
 376 0036 FFF7FEFF 		bl	f_unlink
 377              	.LVL31:
 111:./Application/Src/file_transfer.c ****             ftContext.state = FT_STATE_IDLE;
 378              		.loc 1 111 13 view .LVU92
 379              		.loc 1 111 29 is_stmt 0 view .LVU93
 380 003a 0023     		movs	r3, #0
 381 003c 05F8043C 		strb	r3, [r5, #-4]
 112:./Application/Src/file_transfer.c ****             ftWriteBufferIndex = 0;
 382              		.loc 1 112 13 is_stmt 1 view .LVU94
 383              		.loc 1 112 32 is_stmt 0 view .LVU95
 384 0040 564A     		ldr	r2, .L49+8
 385 0042 1380     		strh	r3, [r2]	@ movhi
 386              	.L28:
ARM GAS  C:\Users\Xuleo\AppData\Local\Temp\ccz8fNTO.s 			page 10


 113:./Application/Src/file_transfer.c ****         }
 114:./Application/Src/file_transfer.c ****     }
 115:./Application/Src/file_transfer.c **** 
 116:./Application/Src/file_transfer.c ****     /* Parse file info */
 117:./Application/Src/file_transfer.c ****     uint16_t fileSize = packet[1] | (packet[2] << 8);
 387              		.loc 1 117 5 is_stmt 1 view .LVU96
 388              		.loc 1 117 31 is_stmt 0 view .LVU97
 389 0044 6378     		ldrb	r3, [r4, #1]	@ zero_extendqisi2
 390              		.loc 1 117 44 view .LVU98
 391 0046 A278     		ldrb	r2, [r4, #2]	@ zero_extendqisi2
 392              		.loc 1 117 14 view .LVU99
 393 0048 43EA0223 		orr	r3, r3, r2, lsl #8
 394 004c 1E46     		mov	r6, r3
 395              	.LVL32:
 118:./Application/Src/file_transfer.c ****     uint16_t totalChunks = packet[3] | (packet[4] << 8);
 396              		.loc 1 118 5 is_stmt 1 view .LVU100
 397              		.loc 1 118 34 is_stmt 0 view .LVU101
 398 004e E378     		ldrb	r3, [r4, #3]	@ zero_extendqisi2
 399              		.loc 1 118 47 view .LVU102
 400 0050 2279     		ldrb	r2, [r4, #4]	@ zero_extendqisi2
 401              		.loc 1 118 14 view .LVU103
 402 0052 43EA0223 		orr	r3, r3, r2, lsl #8
 403 0056 1F46     		mov	r7, r3
 404              	.LVL33:
 119:./Application/Src/file_transfer.c **** 
 120:./Application/Src/file_transfer.c ****     /* Build filename from 8.3 format */
 121:./Application/Src/file_transfer.c ****     char name[9], ext[5];
 405              		.loc 1 121 5 is_stmt 1 view .LVU104
 122:./Application/Src/file_transfer.c ****     memcpy(name, &packet[5], 8);
 406              		.loc 1 122 5 view .LVU105
 407 0058 05AB     		add	r3, sp, #20
 408 005a D4F80500 		ldr	r0, [r4, #5]	@ unaligned
 409 005e D4F80910 		ldr	r1, [r4, #9]	@ unaligned
 410 0062 03C3     		stmia	r3!, {r0, r1}
 123:./Application/Src/file_transfer.c ****     name[8] = '\0';
 411              		.loc 1 123 5 view .LVU106
 412              		.loc 1 123 13 is_stmt 0 view .LVU107
 413 0064 0023     		movs	r3, #0
 414 0066 8DF81C30 		strb	r3, [sp, #28]
 124:./Application/Src/file_transfer.c ****     memcpy(ext, &packet[13], 4);
 415              		.loc 1 124 5 is_stmt 1 view .LVU108
 416 006a D4F80D20 		ldr	r2, [r4, #13]	@ unaligned
 417 006e 0392     		str	r2, [sp, #12]
 125:./Application/Src/file_transfer.c ****     ext[4] = '\0';
 418              		.loc 1 125 5 view .LVU109
 419              		.loc 1 125 12 is_stmt 0 view .LVU110
 420 0070 8DF81030 		strb	r3, [sp, #16]
 126:./Application/Src/file_transfer.c **** 
 127:./Application/Src/file_transfer.c ****     /* Trim trailing spaces/nulls from name */
 128:./Application/Src/file_transfer.c ****     for (int i = 7; i >= 0; i--)
 421              		.loc 1 128 5 is_stmt 1 view .LVU111
 422              	.LBB6:
 423              		.loc 1 128 10 view .LVU112
 424              	.LVL34:
 425              		.loc 1 128 14 is_stmt 0 view .LVU113
 426 0074 0723     		movs	r3, #7
 427              		.loc 1 128 5 view .LVU114
ARM GAS  C:\Users\Xuleo\AppData\Local\Temp\ccz8fNTO.s 			page 11


 428 0076 2DE0     		b	.L30
 429              	.LVL35:
 430              	.L43:
 431              		.loc 1 128 5 view .LVU115
 432              	.LBE6:
 433              	.LBB7:
  84:./Application/Src/file_transfer.c ****         return -1;
 434              		.loc 1 84 9 is_stmt 1 view .LVU116
  84:./Application/Src/file_transfer.c ****         return -1;
 435              		.loc 1 84 50 is_stmt 0 view .LVU117
 436 0078 0823     		movs	r3, #8
 437 007a 8DF82030 		strb	r3, [sp, #32]
  84:./Application/Src/file_transfer.c ****         return -1;
 438              		.loc 1 84 9 view .LVU118
 439 007e 0122     		movs	r2, #1
 440 0080 08A9     		add	r1, sp, #32
 441              	.LVL36:
  84:./Application/Src/file_transfer.c ****         return -1;
 442              		.loc 1 84 9 view .LVU119
 443 0082 A320     		movs	r0, #163
 444              	.LVL37:
  84:./Application/Src/file_transfer.c ****         return -1;
 445              		.loc 1 84 9 view .LVU120
 446 0084 FFF7FEFF 		bl	FT_SendResponse
 447              	.LVL38:
  85:./Application/Src/file_transfer.c ****     }
 448              		.loc 1 85 9 is_stmt 1 view .LVU121
  85:./Application/Src/file_transfer.c ****     }
 449              		.loc 1 85 16 is_stmt 0 view .LVU122
 450 0088 4FF0FF30 		mov	r0, #-1
 451 008c 6EE0     		b	.L24
 452              	.LVL39:
 453              	.L44:
  85:./Application/Src/file_transfer.c ****     }
 454              		.loc 1 85 16 view .LVU123
 455              	.LBE7:
 456              	.LBB8:
  91:./Application/Src/file_transfer.c ****         return -1;
 457              		.loc 1 91 9 is_stmt 1 view .LVU124
  91:./Application/Src/file_transfer.c ****         return -1;
 458              		.loc 1 91 48 is_stmt 0 view .LVU125
 459 008e 0023     		movs	r3, #0
 460 0090 8DF82430 		strb	r3, [sp, #36]
 461 0094 8DF82530 		strb	r3, [sp, #37]
 462 0098 0123     		movs	r3, #1
 463 009a 8DF82630 		strb	r3, [sp, #38]
  91:./Application/Src/file_transfer.c ****         return -1;
 464              		.loc 1 91 9 view .LVU126
 465 009e 0322     		movs	r2, #3
 466 00a0 09A9     		add	r1, sp, #36
 467 00a2 A120     		movs	r0, #161
 468 00a4 FFF7FEFF 		bl	FT_SendResponse
 469              	.LVL40:
  92:./Application/Src/file_transfer.c ****     }
 470              		.loc 1 92 9 is_stmt 1 view .LVU127
  92:./Application/Src/file_transfer.c ****     }
 471              		.loc 1 92 16 is_stmt 0 view .LVU128
ARM GAS  C:\Users\Xuleo\AppData\Local\Temp\ccz8fNTO.s 			page 12


 472 00a8 4FF0FF30 		mov	r0, #-1
 473 00ac 5EE0     		b	.L24
 474              	.L45:
 475              	.LBE8:
 102:./Application/Src/file_transfer.c ****             ftContext.lastActivityTime = HAL_GetTick();
 476              		.loc 1 102 13 is_stmt 1 view .LVU129
 477 00ae 1A46     		mov	r2, r3
 478 00b0 1946     		mov	r1, r3
 479 00b2 A220     		movs	r0, #162
 480 00b4 FFF7FEFF 		bl	FT_SendResponse
 481              	.LVL41:
 103:./Application/Src/file_transfer.c ****             return 0;
 482              		.loc 1 103 13 view .LVU130
 103:./Application/Src/file_transfer.c ****             return 0;
 483              		.loc 1 103 42 is_stmt 0 view .LVU131
 484 00b8 FFF7FEFF 		bl	HAL_GetTick
 485              	.LVL42:
 103:./Application/Src/file_transfer.c ****             return 0;
 486              		.loc 1 103 40 discriminator 1 view .LVU132
 487 00bc 354B     		ldr	r3, .L49
 488 00be C3F84402 		str	r0, [r3, #580]
 104:./Application/Src/file_transfer.c ****         }
 489              		.loc 1 104 13 is_stmt 1 view .LVU133
 104:./Application/Src/file_transfer.c ****         }
 490              		.loc 1 104 20 is_stmt 0 view .LVU134
 491 00c2 0020     		movs	r0, #0
 492 00c4 52E0     		b	.L24
 493              	.LVL43:
 494              	.L31:
 495              	.LBB9:
 129:./Application/Src/file_transfer.c ****     {
 130:./Application/Src/file_transfer.c ****         if (name[i] == ' ' || name[i] == '\0')
 131:./Application/Src/file_transfer.c ****         {
 132:./Application/Src/file_transfer.c ****             name[i] = '\0';
 496              		.loc 1 132 13 is_stmt 1 view .LVU135
 497              		.loc 1 132 21 is_stmt 0 view .LVU136
 498 00c6 03F12802 		add	r2, r3, #40
 499 00ca 6A44     		add	r2, sp, r2
 500 00cc 0021     		movs	r1, #0
 501 00ce 02F8141C 		strb	r1, [r2, #-20]
 128:./Application/Src/file_transfer.c ****     {
 502              		.loc 1 128 30 is_stmt 1 discriminator 2 view .LVU137
 503 00d2 013B     		subs	r3, r3, #1
 504              	.LVL44:
 505              	.L30:
 128:./Application/Src/file_transfer.c ****     {
 506              		.loc 1 128 23 discriminator 1 view .LVU138
 507 00d4 002B     		cmp	r3, #0
 508 00d6 0ADB     		blt	.L46
 130:./Application/Src/file_transfer.c ****         {
 509              		.loc 1 130 9 view .LVU139
 130:./Application/Src/file_transfer.c ****         {
 510              		.loc 1 130 17 is_stmt 0 view .LVU140
 511 00d8 03F12802 		add	r2, r3, #40
 512 00dc 6A44     		add	r2, sp, r2
 513 00de 12F8142C 		ldrb	r2, [r2, #-20]	@ zero_extendqisi2
 130:./Application/Src/file_transfer.c ****         {
ARM GAS  C:\Users\Xuleo\AppData\Local\Temp\ccz8fNTO.s 			page 13


 514              		.loc 1 130 12 view .LVU141
 515 00e2 202A     		cmp	r2, #32
 516 00e4 EFD0     		beq	.L31
 130:./Application/Src/file_transfer.c ****         {
 517              		.loc 1 130 28 discriminator 1 view .LVU142
 518 00e6 002A     		cmp	r2, #0
 519 00e8 EDD0     		beq	.L31
 520 00ea 0323     		movs	r3, #3
 521              	.LVL45:
 130:./Application/Src/file_transfer.c ****         {
 522              		.loc 1 130 28 discriminator 1 view .LVU143
 523 00ec 08E0     		b	.L36
 524              	.LVL46:
 525              	.L46:
 130:./Application/Src/file_transfer.c ****         {
 526              		.loc 1 130 28 discriminator 1 view .LVU144
 527 00ee 0323     		movs	r3, #3
 528              	.LVL47:
 130:./Application/Src/file_transfer.c ****         {
 529              		.loc 1 130 28 discriminator 1 view .LVU145
 530 00f0 06E0     		b	.L36
 531              	.LVL48:
 532              	.L34:
 130:./Application/Src/file_transfer.c ****         {
 533              		.loc 1 130 28 discriminator 1 view .LVU146
 534              	.LBE9:
 535              	.LBB10:
 133:./Application/Src/file_transfer.c ****         }
 134:./Application/Src/file_transfer.c ****         else
 135:./Application/Src/file_transfer.c ****         {
 136:./Application/Src/file_transfer.c ****             break;
 137:./Application/Src/file_transfer.c ****         }
 138:./Application/Src/file_transfer.c ****     }
 139:./Application/Src/file_transfer.c **** 
 140:./Application/Src/file_transfer.c ****     /* Trim trailing spaces/nulls from extension */
 141:./Application/Src/file_transfer.c ****     for (int i = 3; i >= 0; i--)
 142:./Application/Src/file_transfer.c ****     {
 143:./Application/Src/file_transfer.c ****         if (ext[i] == ' ' || ext[i] == '\0')
 144:./Application/Src/file_transfer.c ****         {
 145:./Application/Src/file_transfer.c ****             ext[i] = '\0';
 536              		.loc 1 145 13 is_stmt 1 view .LVU147
 537              		.loc 1 145 20 is_stmt 0 view .LVU148
 538 00f2 03F12802 		add	r2, r3, #40
 539 00f6 6A44     		add	r2, sp, r2
 540 00f8 0021     		movs	r1, #0
 541 00fa 02F81C1C 		strb	r1, [r2, #-28]
 141:./Application/Src/file_transfer.c ****     {
 542              		.loc 1 141 30 is_stmt 1 discriminator 2 view .LVU149
 543 00fe 013B     		subs	r3, r3, #1
 544              	.LVL49:
 545              	.L36:
 141:./Application/Src/file_transfer.c ****     {
 546              		.loc 1 141 23 discriminator 1 view .LVU150
 547 0100 002B     		cmp	r3, #0
 548 0102 08DB     		blt	.L35
 143:./Application/Src/file_transfer.c ****         {
 549              		.loc 1 143 9 view .LVU151
ARM GAS  C:\Users\Xuleo\AppData\Local\Temp\ccz8fNTO.s 			page 14


 143:./Application/Src/file_transfer.c ****         {
 550              		.loc 1 143 16 is_stmt 0 view .LVU152
 551 0104 03F12802 		add	r2, r3, #40
 552 0108 6A44     		add	r2, sp, r2
 553 010a 12F81C2C 		ldrb	r2, [r2, #-28]	@ zero_extendqisi2
 143:./Application/Src/file_transfer.c ****         {
 554              		.loc 1 143 12 view .LVU153
 555 010e 202A     		cmp	r2, #32
 556 0110 EFD0     		beq	.L34
 143:./Application/Src/file_transfer.c ****         {
 557              		.loc 1 143 27 discriminator 1 view .LVU154
 558 0112 002A     		cmp	r2, #0
 559 0114 EDD0     		beq	.L34
 560              	.L35:
 561              	.LBE10:
 146:./Application/Src/file_transfer.c ****         }
 147:./Application/Src/file_transfer.c ****         else
 148:./Application/Src/file_transfer.c ****         {
 149:./Application/Src/file_transfer.c ****             break;
 150:./Application/Src/file_transfer.c ****         }
 151:./Application/Src/file_transfer.c ****     }
 152:./Application/Src/file_transfer.c **** 
 153:./Application/Src/file_transfer.c ****     /* Combine name and extension */
 154:./Application/Src/file_transfer.c ****     snprintf(ftContext.filename, sizeof(ftContext.filename), "%s%s", name, ext);
 562              		.loc 1 154 5 is_stmt 1 view .LVU155
 563 0116 224C     		ldr	r4, .L49+12
 564              	.LVL50:
 565              		.loc 1 154 5 is_stmt 0 view .LVU156
 566 0118 03AB     		add	r3, sp, #12
 567              	.LVL51:
 568              		.loc 1 154 5 view .LVU157
 569 011a 0093     		str	r3, [sp]
 570 011c 05AB     		add	r3, sp, #20
 571 011e 214A     		ldr	r2, .L49+16
 572 0120 0D21     		movs	r1, #13
 573 0122 2046     		mov	r0, r4
 574 0124 FFF7FEFF 		bl	snprintf
 575              	.LVL52:
 155:./Application/Src/file_transfer.c **** 
 156:./Application/Src/file_transfer.c ****     /* Open file for writing (create or overwrite) */
 157:./Application/Src/file_transfer.c ****     FRESULT res = f_open(&ftContext.file, ftContext.filename,
 576              		.loc 1 157 5 is_stmt 1 view .LVU158
 577              		.loc 1 157 19 is_stmt 0 view .LVU159
 578 0128 0A22     		movs	r2, #10
 579 012a 2146     		mov	r1, r4
 580 012c A4F50970 		sub	r0, r4, #548
 581 0130 FFF7FEFF 		bl	f_open
 582              	.LVL53:
 158:./Application/Src/file_transfer.c ****                          FA_WRITE | FA_CREATE_ALWAYS);
 159:./Application/Src/file_transfer.c ****     if (res != FR_OK)
 583              		.loc 1 159 5 is_stmt 1 view .LVU160
 584              		.loc 1 159 8 is_stmt 0 view .LVU161
 585 0134 0346     		mov	r3, r0
 586 0136 D8B9     		cbnz	r0, .L47
 160:./Application/Src/file_transfer.c ****     {
 161:./Application/Src/file_transfer.c ****         /* Send error with the actual FRESULT so we can debug */
 162:./Application/Src/file_transfer.c ****         uint8_t errData[2];
ARM GAS  C:\Users\Xuleo\AppData\Local\Temp\ccz8fNTO.s 			page 15


 163:./Application/Src/file_transfer.c ****         errData[0] = (res == FR_DISK_ERR) ? FT_ERR_SD_WRITE : FT_ERR_SD_FULL;
 164:./Application/Src/file_transfer.c ****         errData[1] = (uint8_t)res; /* raw FRESULT for debug */
 165:./Application/Src/file_transfer.c ****         FT_SendResponse(FT_RSP_ERROR, errData, 2);
 166:./Application/Src/file_transfer.c ****         return -1;
 167:./Application/Src/file_transfer.c ****     }
 168:./Application/Src/file_transfer.c **** 
 169:./Application/Src/file_transfer.c ****     /* Initialize context */
 170:./Application/Src/file_transfer.c ****     ftContext.state = FT_STATE_RECEIVING;
 587              		.loc 1 170 5 is_stmt 1 view .LVU162
 588              		.loc 1 170 21 is_stmt 0 view .LVU163
 589 0138 164D     		ldr	r5, .L49
 590 013a 0123     		movs	r3, #1
 591 013c 2B70     		strb	r3, [r5]
 171:./Application/Src/file_transfer.c ****     ftContext.expectedSize = fileSize;
 592              		.loc 1 171 5 is_stmt 1 view .LVU164
 593              		.loc 1 171 28 is_stmt 0 view .LVU165
 594 013e C5F83862 		str	r6, [r5, #568]
 172:./Application/Src/file_transfer.c ****     ftContext.totalChunks = totalChunks;
 595              		.loc 1 172 5 is_stmt 1 view .LVU166
 596              		.loc 1 172 27 is_stmt 0 view .LVU167
 597 0142 A5F84072 		strh	r7, [r5, #576]	@ movhi
 173:./Application/Src/file_transfer.c ****     ftContext.currentChunk = 0;
 598              		.loc 1 173 5 is_stmt 1 view .LVU168
 599              		.loc 1 173 28 is_stmt 0 view .LVU169
 600 0146 0446     		mov	r4, r0
 601 0148 A5F84202 		strh	r0, [r5, #578]	@ movhi
 174:./Application/Src/file_transfer.c ****     ftContext.bytesReceived = 0;
 602              		.loc 1 174 5 is_stmt 1 view .LVU170
 603              		.loc 1 174 29 is_stmt 0 view .LVU171
 604 014c C5F83C02 		str	r0, [r5, #572]
 175:./Application/Src/file_transfer.c ****     ftContext.lastActivityTime = HAL_GetTick();
 605              		.loc 1 175 5 is_stmt 1 view .LVU172
 606              		.loc 1 175 34 is_stmt 0 view .LVU173
 607 0150 FFF7FEFF 		bl	HAL_GetTick
 608              	.LVL54:
 609              		.loc 1 175 32 discriminator 1 view .LVU174
 610 0154 C5F84402 		str	r0, [r5, #580]
 176:./Application/Src/file_transfer.c ****     ftContext.errorCode = FT_ERR_NONE;
 611              		.loc 1 176 5 is_stmt 1 view .LVU175
 612              		.loc 1 176 25 is_stmt 0 view .LVU176
 613 0158 4FF00003 		mov	r3, #0	@ movhi
 614 015c 85F84832 		strb	r3, [r5, #584]
 177:./Application/Src/file_transfer.c **** 
 178:./Application/Src/file_transfer.c ****     FT_SendResponse(FT_RSP_READY, NULL, 0);
 615              		.loc 1 178 5 is_stmt 1 view .LVU177
 616 0160 2246     		mov	r2, r4
 617 0162 2146     		mov	r1, r4
 618 0164 A220     		movs	r0, #162
 619 0166 FFF7FEFF 		bl	FT_SendResponse
 620              	.LVL55:
 179:./Application/Src/file_transfer.c ****     return 0;
 621              		.loc 1 179 5 view .LVU178
 622              		.loc 1 179 12 is_stmt 0 view .LVU179
 623 016a 2046     		mov	r0, r4
 624              	.LVL56:
 625              	.L24:
 180:./Application/Src/file_transfer.c **** }
ARM GAS  C:\Users\Xuleo\AppData\Local\Temp\ccz8fNTO.s 			page 16


 626              		.loc 1 180 1 view .LVU180
 627 016c 0BB0     		add	sp, sp, #44
 628              	.LCFI10:
 629              		.cfi_remember_state
 630              		.cfi_def_cfa_offset 20
 631              		@ sp needed
 632 016e F0BD     		pop	{r4, r5, r6, r7, pc}
 633              	.LVL57:
 634              	.L47:
 635              	.LCFI11:
 636              		.cfi_restore_state
 637              	.LBB11:
 162:./Application/Src/file_transfer.c ****         errData[0] = (res == FR_DISK_ERR) ? FT_ERR_SD_WRITE : FT_ERR_SD_FULL;
 638              		.loc 1 162 9 is_stmt 1 view .LVU181
 163:./Application/Src/file_transfer.c ****         errData[1] = (uint8_t)res; /* raw FRESULT for debug */
 639              		.loc 1 163 9 view .LVU182
 163:./Application/Src/file_transfer.c ****         errData[1] = (uint8_t)res; /* raw FRESULT for debug */
 640              		.loc 1 163 20 is_stmt 0 view .LVU183
 641 0170 0128     		cmp	r0, #1
 642 0172 0CD0     		beq	.L48
 163:./Application/Src/file_transfer.c ****         errData[1] = (uint8_t)res; /* raw FRESULT for debug */
 643              		.loc 1 163 20 discriminator 2 view .LVU184
 644 0174 0422     		movs	r2, #4
 645              	.L39:
 163:./Application/Src/file_transfer.c ****         errData[1] = (uint8_t)res; /* raw FRESULT for debug */
 646              		.loc 1 163 20 discriminator 4 view .LVU185
 647 0176 8DF80820 		strb	r2, [sp, #8]
 164:./Application/Src/file_transfer.c ****         FT_SendResponse(FT_RSP_ERROR, errData, 2);
 648              		.loc 1 164 9 is_stmt 1 view .LVU186
 164:./Application/Src/file_transfer.c ****         FT_SendResponse(FT_RSP_ERROR, errData, 2);
 649              		.loc 1 164 20 is_stmt 0 view .LVU187
 650 017a 8DF80930 		strb	r3, [sp, #9]
 165:./Application/Src/file_transfer.c ****         return -1;
 651              		.loc 1 165 9 is_stmt 1 view .LVU188
 652 017e 0222     		movs	r2, #2
 653 0180 02A9     		add	r1, sp, #8
 654 0182 A320     		movs	r0, #163
 655              	.LVL58:
 165:./Application/Src/file_transfer.c ****         return -1;
 656              		.loc 1 165 9 is_stmt 0 view .LVU189
 657 0184 FFF7FEFF 		bl	FT_SendResponse
 658              	.LVL59:
 166:./Application/Src/file_transfer.c ****     }
 659              		.loc 1 166 9 is_stmt 1 view .LVU190
 166:./Application/Src/file_transfer.c ****     }
 660              		.loc 1 166 16 is_stmt 0 view .LVU191
 661 0188 4FF0FF30 		mov	r0, #-1
 662 018c EEE7     		b	.L24
 663              	.LVL60:
 664              	.L48:
 163:./Application/Src/file_transfer.c ****         errData[1] = (uint8_t)res; /* raw FRESULT for debug */
 665              		.loc 1 163 20 discriminator 1 view .LVU192
 666 018e 0322     		movs	r2, #3
 667 0190 F1E7     		b	.L39
 668              	.L50:
 669 0192 00BF     		.align	2
 670              	.L49:
ARM GAS  C:\Users\Xuleo\AppData\Local\Temp\ccz8fNTO.s 			page 17


 671 0194 00000000 		.word	ftContext
 672 0198 04000000 		.word	ftContext+4
 673 019c 00000000 		.word	ftWriteBufferIndex
 674 01a0 28020000 		.word	ftContext+552
 675 01a4 00000000 		.word	.LC0
 676              	.LBE11:
 677              		.cfi_endproc
 678              	.LFE164:
 680              		.section	.text.FT_HandleFileData,"ax",%progbits
 681              		.align	1
 682              		.syntax unified
 683              		.thumb
 684              		.thumb_func
 686              	FT_HandleFileData:
 687              	.LVL61:
 688              	.LFB165:
 181:./Application/Src/file_transfer.c **** 
 182:./Application/Src/file_transfer.c **** /* Handle FILE_DATA packet */
 183:./Application/Src/file_transfer.c **** static int FT_HandleFileData(uint8_t *packet, uint16_t length)
 184:./Application/Src/file_transfer.c **** {
 689              		.loc 1 184 1 is_stmt 1 view -0
 690              		.cfi_startproc
 691              		@ args = 0, pretend = 0, frame = 16
 692              		@ frame_needed = 0, uses_anonymous_args = 0
 693              		.loc 1 184 1 is_stmt 0 view .LVU194
 694 0000 2DE9F043 		push	{r4, r5, r6, r7, r8, r9, lr}
 695              	.LCFI12:
 696              		.cfi_def_cfa_offset 28
 697              		.cfi_offset 4, -28
 698              		.cfi_offset 5, -24
 699              		.cfi_offset 6, -20
 700              		.cfi_offset 7, -16
 701              		.cfi_offset 8, -12
 702              		.cfi_offset 9, -8
 703              		.cfi_offset 14, -4
 704 0004 85B0     		sub	sp, sp, #20
 705              	.LCFI13:
 706              		.cfi_def_cfa_offset 48
 185:./Application/Src/file_transfer.c ****     if (ftContext.state != FT_STATE_RECEIVING)
 707              		.loc 1 185 5 is_stmt 1 view .LVU195
 708              		.loc 1 185 18 is_stmt 0 view .LVU196
 709 0006 5D4B     		ldr	r3, .L68
 710 0008 1B78     		ldrb	r3, [r3]	@ zero_extendqisi2
 711              		.loc 1 185 8 view .LVU197
 712 000a 012B     		cmp	r3, #1
 713 000c 4ED1     		bne	.L61
 714 000e 0546     		mov	r5, r0
 186:./Application/Src/file_transfer.c ****     {
 187:./Application/Src/file_transfer.c ****         FT_SendResponse(FT_RSP_ERROR, (uint8_t[]){FT_ERR_SEQUENCE}, 1);
 188:./Application/Src/file_transfer.c ****         return -1;
 189:./Application/Src/file_transfer.c ****     }
 190:./Application/Src/file_transfer.c **** 
 191:./Application/Src/file_transfer.c ****     if (length < 5)
 715              		.loc 1 191 5 is_stmt 1 view .LVU198
 716              		.loc 1 191 8 is_stmt 0 view .LVU199
 717 0010 0429     		cmp	r1, #4
 718 0012 56D9     		bls	.L62
ARM GAS  C:\Users\Xuleo\AppData\Local\Temp\ccz8fNTO.s 			page 18


 192:./Application/Src/file_transfer.c ****     {
 193:./Application/Src/file_transfer.c ****         FT_SendResponse(FT_RSP_ERROR, (uint8_t[]){FT_ERR_OVERFLOW}, 1);
 194:./Application/Src/file_transfer.c ****         return -1;
 195:./Application/Src/file_transfer.c ****     }
 196:./Application/Src/file_transfer.c **** 
 197:./Application/Src/file_transfer.c ****     uint16_t chunkIndex = packet[1] | (packet[2] << 8);
 719              		.loc 1 197 5 is_stmt 1 view .LVU200
 720              		.loc 1 197 33 is_stmt 0 view .LVU201
 721 0014 4478     		ldrb	r4, [r0, #1]	@ zero_extendqisi2
 722              		.loc 1 197 46 view .LVU202
 723 0016 8378     		ldrb	r3, [r0, #2]	@ zero_extendqisi2
 724              		.loc 1 197 37 view .LVU203
 725 0018 44EA0324 		orr	r4, r4, r3, lsl #8
 726 001c 0FFA84F8 		sxth	r8, r4
 727              	.LVL62:
 198:./Application/Src/file_transfer.c ****     uint8_t dataLen = packet[3];
 728              		.loc 1 198 5 is_stmt 1 view .LVU204
 729              		.loc 1 198 13 is_stmt 0 view .LVU205
 730 0020 C678     		ldrb	r6, [r0, #3]	@ zero_extendqisi2
 731              	.LVL63:
 199:./Application/Src/file_transfer.c **** 
 200:./Application/Src/file_transfer.c ****     /* Verify we have enough data */
 201:./Application/Src/file_transfer.c ****     if (length < (uint16_t)(5 + dataLen))
 732              		.loc 1 201 5 is_stmt 1 view .LVU206
 733              		.loc 1 201 18 is_stmt 0 view .LVU207
 734 0022 731D     		adds	r3, r6, #5
 735              		.loc 1 201 8 view .LVU208
 736 0024 8B42     		cmp	r3, r1
 737 0026 57D8     		bhi	.L63
 202:./Application/Src/file_transfer.c ****     {
 203:./Application/Src/file_transfer.c ****         uint8_t nakData[] = {chunkIndex & 0xFF, chunkIndex >> 8, FT_ERR_OVERFLOW};
 204:./Application/Src/file_transfer.c ****         FT_SendResponse(FT_RSP_NAK, nakData, 3);
 205:./Application/Src/file_transfer.c ****         return -1;
 206:./Application/Src/file_transfer.c ****     }
 207:./Application/Src/file_transfer.c **** 
 208:./Application/Src/file_transfer.c ****     /* Verify checksum */
 209:./Application/Src/file_transfer.c ****     if (FT_CalculateChecksum(packet, 4 + dataLen) != packet[4 + dataLen])
 738              		.loc 1 209 5 is_stmt 1 view .LVU209
 739              		.loc 1 209 9 is_stmt 0 view .LVU210
 740 0028 311D     		adds	r1, r6, #4
 741              	.LVL64:
 742              		.loc 1 209 9 view .LVU211
 743 002a FFF7FEFF 		bl	FT_CalculateChecksum
 744              	.LVL65:
 745              		.loc 1 209 63 discriminator 1 view .LVU212
 746 002e 331D     		adds	r3, r6, #4
 747              		.loc 1 209 60 discriminator 1 view .LVU213
 748 0030 EB5C     		ldrb	r3, [r5, r3]	@ zero_extendqisi2
 749              		.loc 1 209 8 discriminator 1 view .LVU214
 750 0032 9842     		cmp	r0, r3
 751 0034 60D1     		bne	.L64
 210:./Application/Src/file_transfer.c ****     {
 211:./Application/Src/file_transfer.c ****         uint8_t nakData[] = {chunkIndex & 0xFF, chunkIndex >> 8, FT_ERR_CHECKSUM};
 212:./Application/Src/file_transfer.c ****         FT_SendResponse(FT_RSP_NAK, nakData, 3);
 213:./Application/Src/file_transfer.c ****         return -1;
 214:./Application/Src/file_transfer.c ****     }
 215:./Application/Src/file_transfer.c **** 
ARM GAS  C:\Users\Xuleo\AppData\Local\Temp\ccz8fNTO.s 			page 19


 216:./Application/Src/file_transfer.c ****     /* Handle DUPLICATE packet (PC retried because ACK was lost) */
 217:./Application/Src/file_transfer.c ****     /* If we receive the chunk we JUST processed, re-ACK without re-writing */
 218:./Application/Src/file_transfer.c ****     if (chunkIndex == ftContext.currentChunk - 1 && ftContext.currentChunk > 0)
 752              		.loc 1 218 5 is_stmt 1 view .LVU215
 753              		.loc 1 218 32 is_stmt 0 view .LVU216
 754 0036 514B     		ldr	r3, .L68
 755 0038 B3F84232 		ldrh	r3, [r3, #578]
 756              		.loc 1 218 46 view .LVU217
 757 003c 5A1E     		subs	r2, r3, #1
 758              		.loc 1 218 8 view .LVU218
 759 003e 9442     		cmp	r4, r2
 760 0040 6AD0     		beq	.L65
 761              	.L57:
 219:./Application/Src/file_transfer.c ****     {
 220:./Application/Src/file_transfer.c ****         /* Duplicate of last successful chunk - just re-send ACK */
 221:./Application/Src/file_transfer.c ****         uint8_t ackData[] = {chunkIndex & 0xFF, chunkIndex >> 8};
 222:./Application/Src/file_transfer.c ****         FT_SendResponse(FT_RSP_ACK, ackData, 2);
 223:./Application/Src/file_transfer.c ****         ftContext.lastActivityTime = HAL_GetTick();
 224:./Application/Src/file_transfer.c ****         return 0; /* Success - no data written */
 225:./Application/Src/file_transfer.c ****     }
 226:./Application/Src/file_transfer.c **** 
 227:./Application/Src/file_transfer.c ****     /* Verify sequence - must be the expected chunk */
 228:./Application/Src/file_transfer.c ****     if (chunkIndex != ftContext.currentChunk)
 762              		.loc 1 228 5 is_stmt 1 view .LVU219
 763              		.loc 1 228 8 is_stmt 0 view .LVU220
 764 0042 A342     		cmp	r3, r4
 765 0044 7BD1     		bne	.L66
 229:./Application/Src/file_transfer.c ****     {
 230:./Application/Src/file_transfer.c ****         uint8_t nakData[] = {chunkIndex & 0xFF, chunkIndex >> 8, FT_ERR_SEQUENCE};
 231:./Application/Src/file_transfer.c ****         FT_SendResponse(FT_RSP_NAK, nakData, 3);
 232:./Application/Src/file_transfer.c ****         return -1;
 233:./Application/Src/file_transfer.c ****     }
 234:./Application/Src/file_transfer.c **** 
 235:./Application/Src/file_transfer.c ****     /* Copy data to write buffer */
 236:./Application/Src/file_transfer.c ****     memcpy(&ftWriteBuffer[ftWriteBufferIndex], &packet[4], dataLen);
 766              		.loc 1 236 5 is_stmt 1 view .LVU221
 767              		.loc 1 236 26 is_stmt 0 view .LVU222
 768 0046 DFF83C91 		ldr	r9, .L68+8
 769 004a B9F80070 		ldrh	r7, [r9]
 770              		.loc 1 236 5 view .LVU223
 771 004e 3246     		mov	r2, r6
 772 0050 291D     		adds	r1, r5, #4
 773 0052 4B48     		ldr	r0, .L68+4
 774 0054 3844     		add	r0, r0, r7
 775 0056 FFF7FEFF 		bl	memcpy
 776              	.LVL66:
 237:./Application/Src/file_transfer.c ****     ftWriteBufferIndex += dataLen;
 777              		.loc 1 237 5 is_stmt 1 view .LVU224
 778              		.loc 1 237 24 is_stmt 0 view .LVU225
 779 005a 3744     		add	r7, r7, r6
 780 005c BFB2     		uxth	r7, r7
 781 005e A9F80070 		strh	r7, [r9]	@ movhi
 238:./Application/Src/file_transfer.c ****     ftContext.bytesReceived += dataLen;
 782              		.loc 1 238 5 is_stmt 1 view .LVU226
 783              		.loc 1 238 14 is_stmt 0 view .LVU227
 784 0062 464B     		ldr	r3, .L68
 785 0064 D3F83C22 		ldr	r2, [r3, #572]
ARM GAS  C:\Users\Xuleo\AppData\Local\Temp\ccz8fNTO.s 			page 20


 786              		.loc 1 238 29 view .LVU228
 787 0068 1644     		add	r6, r6, r2
 788              	.LVL67:
 789              		.loc 1 238 29 view .LVU229
 790 006a C3F83C62 		str	r6, [r3, #572]
 239:./Application/Src/file_transfer.c **** 
 240:./Application/Src/file_transfer.c ****     /* Flush buffer when full (512 bytes = 1 SD sector) */
 241:./Application/Src/file_transfer.c ****     if (ftWriteBufferIndex >= FT_WRITE_BUFFER_SIZE)
 791              		.loc 1 241 5 is_stmt 1 view .LVU230
 792              		.loc 1 241 8 is_stmt 0 view .LVU231
 793 006e B7F5007F 		cmp	r7, #512
 794 0072 03D3     		bcc	.L59
 242:./Application/Src/file_transfer.c ****     {
 243:./Application/Src/file_transfer.c ****         if (FT_FlushWriteBuffer() != 0)
 795              		.loc 1 243 9 is_stmt 1 view .LVU232
 796              		.loc 1 243 13 is_stmt 0 view .LVU233
 797 0074 FFF7FEFF 		bl	FT_FlushWriteBuffer
 798              	.LVL68:
 799              		.loc 1 243 12 discriminator 1 view .LVU234
 800 0078 0028     		cmp	r0, #0
 801 007a 70D1     		bne	.L67
 802              	.L59:
 244:./Application/Src/file_transfer.c ****         {
 245:./Application/Src/file_transfer.c ****             uint8_t nakData[] = {chunkIndex & 0xFF, chunkIndex >> 8, FT_ERR_SD_WRITE};
 246:./Application/Src/file_transfer.c ****             FT_SendResponse(FT_RSP_NAK, nakData, 3);
 247:./Application/Src/file_transfer.c ****             return -1;
 248:./Application/Src/file_transfer.c ****         }
 249:./Application/Src/file_transfer.c ****     }
 250:./Application/Src/file_transfer.c **** 
 251:./Application/Src/file_transfer.c ****     /* Update context */
 252:./Application/Src/file_transfer.c ****     ftContext.currentChunk++;
 803              		.loc 1 252 5 is_stmt 1 view .LVU235
 804              		.loc 1 252 14 is_stmt 0 view .LVU236
 805 007c 3F4D     		ldr	r5, .L68
 806              	.LVL69:
 807              		.loc 1 252 14 view .LVU237
 808 007e B5F84232 		ldrh	r3, [r5, #578]
 809              		.loc 1 252 27 view .LVU238
 810 0082 0133     		adds	r3, r3, #1
 811 0084 A5F84232 		strh	r3, [r5, #578]	@ movhi
 253:./Application/Src/file_transfer.c ****     ftContext.lastActivityTime = HAL_GetTick();
 812              		.loc 1 253 5 is_stmt 1 view .LVU239
 813              		.loc 1 253 34 is_stmt 0 view .LVU240
 814 0088 FFF7FEFF 		bl	HAL_GetTick
 815              	.LVL70:
 816              		.loc 1 253 32 discriminator 1 view .LVU241
 817 008c C5F84402 		str	r0, [r5, #580]
 254:./Application/Src/file_transfer.c **** 
 255:./Application/Src/file_transfer.c ****     /* Send ACK */
 256:./Application/Src/file_transfer.c ****     uint8_t ackData[] = {chunkIndex & 0xFF, chunkIndex >> 8};
 818              		.loc 1 256 5 is_stmt 1 view .LVU242
 819              		.loc 1 256 13 is_stmt 0 view .LVU243
 820 0090 8DF80480 		strb	r8, [sp, #4]
 821 0094 240A     		lsrs	r4, r4, #8
 822              	.LVL71:
 823              		.loc 1 256 13 view .LVU244
 824 0096 8DF80540 		strb	r4, [sp, #5]
ARM GAS  C:\Users\Xuleo\AppData\Local\Temp\ccz8fNTO.s 			page 21


 257:./Application/Src/file_transfer.c ****     FT_SendResponse(FT_RSP_ACK, ackData, 2);
 825              		.loc 1 257 5 is_stmt 1 view .LVU245
 826 009a 0222     		movs	r2, #2
 827 009c 01A9     		add	r1, sp, #4
 828 009e A020     		movs	r0, #160
 829 00a0 FFF7FEFF 		bl	FT_SendResponse
 830              	.LVL72:
 258:./Application/Src/file_transfer.c ****     return 0;
 831              		.loc 1 258 5 view .LVU246
 832              		.loc 1 258 12 is_stmt 0 view .LVU247
 833 00a4 0020     		movs	r0, #0
 834              	.LVL73:
 835              	.L51:
 259:./Application/Src/file_transfer.c **** }
 836              		.loc 1 259 1 view .LVU248
 837 00a6 05B0     		add	sp, sp, #20
 838              	.LCFI14:
 839              		.cfi_remember_state
 840              		.cfi_def_cfa_offset 28
 841              		@ sp needed
 842 00a8 BDE8F083 		pop	{r4, r5, r6, r7, r8, r9, pc}
 843              	.LVL74:
 844              	.L61:
 845              	.LCFI15:
 846              		.cfi_restore_state
 847              	.LBB12:
 187:./Application/Src/file_transfer.c ****         return -1;
 848              		.loc 1 187 9 is_stmt 1 view .LVU249
 187:./Application/Src/file_transfer.c ****         return -1;
 849              		.loc 1 187 50 is_stmt 0 view .LVU250
 850 00ac 0223     		movs	r3, #2
 851 00ae 8DF80830 		strb	r3, [sp, #8]
 187:./Application/Src/file_transfer.c ****         return -1;
 852              		.loc 1 187 9 view .LVU251
 853 00b2 0122     		movs	r2, #1
 854 00b4 02A9     		add	r1, sp, #8
 855              	.LVL75:
 187:./Application/Src/file_transfer.c ****         return -1;
 856              		.loc 1 187 9 view .LVU252
 857 00b6 A320     		movs	r0, #163
 858              	.LVL76:
 187:./Application/Src/file_transfer.c ****         return -1;
 859              		.loc 1 187 9 view .LVU253
 860 00b8 FFF7FEFF 		bl	FT_SendResponse
 861              	.LVL77:
 188:./Application/Src/file_transfer.c ****     }
 862              		.loc 1 188 9 is_stmt 1 view .LVU254
 188:./Application/Src/file_transfer.c ****     }
 863              		.loc 1 188 16 is_stmt 0 view .LVU255
 864 00bc 4FF0FF30 		mov	r0, #-1
 865 00c0 F1E7     		b	.L51
 866              	.LVL78:
 867              	.L62:
 188:./Application/Src/file_transfer.c ****     }
 868              		.loc 1 188 16 view .LVU256
 869              	.LBE12:
 870              	.LBB13:
ARM GAS  C:\Users\Xuleo\AppData\Local\Temp\ccz8fNTO.s 			page 22


 193:./Application/Src/file_transfer.c ****         return -1;
 871              		.loc 1 193 9 is_stmt 1 view .LVU257
 193:./Application/Src/file_transfer.c ****         return -1;
 872              		.loc 1 193 50 is_stmt 0 view .LVU258
 873 00c2 0823     		movs	r3, #8
 874 00c4 8DF80C30 		strb	r3, [sp, #12]
 193:./Application/Src/file_transfer.c ****         return -1;
 875              		.loc 1 193 9 view .LVU259
 876 00c8 0122     		movs	r2, #1
 877 00ca 03A9     		add	r1, sp, #12
 878              	.LVL79:
 193:./Application/Src/file_transfer.c ****         return -1;
 879              		.loc 1 193 9 view .LVU260
 880 00cc A320     		movs	r0, #163
 881              	.LVL80:
 193:./Application/Src/file_transfer.c ****         return -1;
 882              		.loc 1 193 9 view .LVU261
 883 00ce FFF7FEFF 		bl	FT_SendResponse
 884              	.LVL81:
 194:./Application/Src/file_transfer.c ****     }
 885              		.loc 1 194 9 is_stmt 1 view .LVU262
 194:./Application/Src/file_transfer.c ****     }
 886              		.loc 1 194 16 is_stmt 0 view .LVU263
 887 00d2 4FF0FF30 		mov	r0, #-1
 888 00d6 E6E7     		b	.L51
 889              	.LVL82:
 890              	.L63:
 194:./Application/Src/file_transfer.c ****     }
 891              		.loc 1 194 16 view .LVU264
 892              	.LBE13:
 893              	.LBB14:
 203:./Application/Src/file_transfer.c ****         FT_SendResponse(FT_RSP_NAK, nakData, 3);
 894              		.loc 1 203 9 is_stmt 1 view .LVU265
 203:./Application/Src/file_transfer.c ****         FT_SendResponse(FT_RSP_NAK, nakData, 3);
 895              		.loc 1 203 17 is_stmt 0 view .LVU266
 896 00d8 8DF80080 		strb	r8, [sp]
 897 00dc 240A     		lsrs	r4, r4, #8
 898              	.LVL83:
 203:./Application/Src/file_transfer.c ****         FT_SendResponse(FT_RSP_NAK, nakData, 3);
 899              		.loc 1 203 17 view .LVU267
 900 00de 8DF80140 		strb	r4, [sp, #1]
 901 00e2 0823     		movs	r3, #8
 902 00e4 8DF80230 		strb	r3, [sp, #2]
 204:./Application/Src/file_transfer.c ****         return -1;
 903              		.loc 1 204 9 is_stmt 1 view .LVU268
 904 00e8 0322     		movs	r2, #3
 905 00ea 6946     		mov	r1, sp
 906              	.LVL84:
 204:./Application/Src/file_transfer.c ****         return -1;
 907              		.loc 1 204 9 is_stmt 0 view .LVU269
 908 00ec A120     		movs	r0, #161
 909              	.LVL85:
 204:./Application/Src/file_transfer.c ****         return -1;
 910              		.loc 1 204 9 view .LVU270
 911 00ee FFF7FEFF 		bl	FT_SendResponse
 912              	.LVL86:
 205:./Application/Src/file_transfer.c ****     }
ARM GAS  C:\Users\Xuleo\AppData\Local\Temp\ccz8fNTO.s 			page 23


 913              		.loc 1 205 9 is_stmt 1 view .LVU271
 205:./Application/Src/file_transfer.c ****     }
 914              		.loc 1 205 16 is_stmt 0 view .LVU272
 915 00f2 4FF0FF30 		mov	r0, #-1
 916 00f6 D6E7     		b	.L51
 917              	.LVL87:
 918              	.L64:
 205:./Application/Src/file_transfer.c ****     }
 919              		.loc 1 205 16 view .LVU273
 920              	.LBE14:
 921              	.LBB15:
 211:./Application/Src/file_transfer.c ****         FT_SendResponse(FT_RSP_NAK, nakData, 3);
 922              		.loc 1 211 9 is_stmt 1 view .LVU274
 211:./Application/Src/file_transfer.c ****         FT_SendResponse(FT_RSP_NAK, nakData, 3);
 923              		.loc 1 211 17 is_stmt 0 view .LVU275
 924 00f8 8DF80080 		strb	r8, [sp]
 925 00fc 240A     		lsrs	r4, r4, #8
 926              	.LVL88:
 211:./Application/Src/file_transfer.c ****         FT_SendResponse(FT_RSP_NAK, nakData, 3);
 927              		.loc 1 211 17 view .LVU276
 928 00fe 8DF80140 		strb	r4, [sp, #1]
 929 0102 0123     		movs	r3, #1
 930 0104 8DF80230 		strb	r3, [sp, #2]
 212:./Application/Src/file_transfer.c ****         return -1;
 931              		.loc 1 212 9 is_stmt 1 view .LVU277
 932 0108 0322     		movs	r2, #3
 933 010a 6946     		mov	r1, sp
 934 010c A120     		movs	r0, #161
 935 010e FFF7FEFF 		bl	FT_SendResponse
 936              	.LVL89:
 213:./Application/Src/file_transfer.c ****     }
 937              		.loc 1 213 9 view .LVU278
 213:./Application/Src/file_transfer.c ****     }
 938              		.loc 1 213 16 is_stmt 0 view .LVU279
 939 0112 4FF0FF30 		mov	r0, #-1
 940 0116 C6E7     		b	.L51
 941              	.LVL90:
 942              	.L65:
 213:./Application/Src/file_transfer.c ****     }
 943              		.loc 1 213 16 view .LVU280
 944              	.LBE15:
 218:./Application/Src/file_transfer.c ****     {
 945              		.loc 1 218 50 discriminator 1 view .LVU281
 946 0118 002B     		cmp	r3, #0
 947 011a 92D0     		beq	.L57
 948              	.LBB16:
 221:./Application/Src/file_transfer.c ****         FT_SendResponse(FT_RSP_ACK, ackData, 2);
 949              		.loc 1 221 9 is_stmt 1 view .LVU282
 221:./Application/Src/file_transfer.c ****         FT_SendResponse(FT_RSP_ACK, ackData, 2);
 950              		.loc 1 221 17 is_stmt 0 view .LVU283
 951 011c 8DF80080 		strb	r8, [sp]
 952 0120 240A     		lsrs	r4, r4, #8
 953              	.LVL91:
 221:./Application/Src/file_transfer.c ****         FT_SendResponse(FT_RSP_ACK, ackData, 2);
 954              		.loc 1 221 17 view .LVU284
 955 0122 8DF80140 		strb	r4, [sp, #1]
 222:./Application/Src/file_transfer.c ****         ftContext.lastActivityTime = HAL_GetTick();
ARM GAS  C:\Users\Xuleo\AppData\Local\Temp\ccz8fNTO.s 			page 24


 956              		.loc 1 222 9 is_stmt 1 view .LVU285
 957 0126 0222     		movs	r2, #2
 958 0128 6946     		mov	r1, sp
 959 012a A020     		movs	r0, #160
 960 012c FFF7FEFF 		bl	FT_SendResponse
 961              	.LVL92:
 223:./Application/Src/file_transfer.c ****         return 0; /* Success - no data written */
 962              		.loc 1 223 9 view .LVU286
 223:./Application/Src/file_transfer.c ****         return 0; /* Success - no data written */
 963              		.loc 1 223 38 is_stmt 0 view .LVU287
 964 0130 FFF7FEFF 		bl	HAL_GetTick
 965              	.LVL93:
 223:./Application/Src/file_transfer.c ****         return 0; /* Success - no data written */
 966              		.loc 1 223 36 discriminator 1 view .LVU288
 967 0134 114B     		ldr	r3, .L68
 968 0136 C3F84402 		str	r0, [r3, #580]
 224:./Application/Src/file_transfer.c ****     }
 969              		.loc 1 224 9 is_stmt 1 view .LVU289
 224:./Application/Src/file_transfer.c ****     }
 970              		.loc 1 224 16 is_stmt 0 view .LVU290
 971 013a 0020     		movs	r0, #0
 972 013c B3E7     		b	.L51
 973              	.LVL94:
 974              	.L66:
 224:./Application/Src/file_transfer.c ****     }
 975              		.loc 1 224 16 view .LVU291
 976              	.LBE16:
 977              	.LBB17:
 230:./Application/Src/file_transfer.c ****         FT_SendResponse(FT_RSP_NAK, nakData, 3);
 978              		.loc 1 230 9 is_stmt 1 view .LVU292
 230:./Application/Src/file_transfer.c ****         FT_SendResponse(FT_RSP_NAK, nakData, 3);
 979              		.loc 1 230 17 is_stmt 0 view .LVU293
 980 013e 8DF80080 		strb	r8, [sp]
 981 0142 240A     		lsrs	r4, r4, #8
 982              	.LVL95:
 230:./Application/Src/file_transfer.c ****         FT_SendResponse(FT_RSP_NAK, nakData, 3);
 983              		.loc 1 230 17 view .LVU294
 984 0144 8DF80140 		strb	r4, [sp, #1]
 985 0148 0223     		movs	r3, #2
 986 014a 8DF80230 		strb	r3, [sp, #2]
 231:./Application/Src/file_transfer.c ****         return -1;
 987              		.loc 1 231 9 is_stmt 1 view .LVU295
 988 014e 0322     		movs	r2, #3
 989 0150 6946     		mov	r1, sp
 990 0152 A120     		movs	r0, #161
 991 0154 FFF7FEFF 		bl	FT_SendResponse
 992              	.LVL96:
 232:./Application/Src/file_transfer.c ****     }
 993              		.loc 1 232 9 view .LVU296
 232:./Application/Src/file_transfer.c ****     }
 994              		.loc 1 232 16 is_stmt 0 view .LVU297
 995 0158 4FF0FF30 		mov	r0, #-1
 996 015c A3E7     		b	.L51
 997              	.LVL97:
 998              	.L67:
 232:./Application/Src/file_transfer.c ****     }
 999              		.loc 1 232 16 view .LVU298
ARM GAS  C:\Users\Xuleo\AppData\Local\Temp\ccz8fNTO.s 			page 25


 1000              	.LBE17:
 1001              	.LBB18:
 245:./Application/Src/file_transfer.c ****             FT_SendResponse(FT_RSP_NAK, nakData, 3);
 1002              		.loc 1 245 13 is_stmt 1 view .LVU299
 245:./Application/Src/file_transfer.c ****             FT_SendResponse(FT_RSP_NAK, nakData, 3);
 1003              		.loc 1 245 21 is_stmt 0 view .LVU300
 1004 015e 8DF80080 		strb	r8, [sp]
 1005 0162 240A     		lsrs	r4, r4, #8
 1006              	.LVL98:
 245:./Application/Src/file_transfer.c ****             FT_SendResponse(FT_RSP_NAK, nakData, 3);
 1007              		.loc 1 245 21 view .LVU301
 1008 0164 8DF80140 		strb	r4, [sp, #1]
 1009 0168 0322     		movs	r2, #3
 1010 016a 8DF80220 		strb	r2, [sp, #2]
 246:./Application/Src/file_transfer.c ****             return -1;
 1011              		.loc 1 246 13 is_stmt 1 view .LVU302
 1012 016e 6946     		mov	r1, sp
 1013 0170 A120     		movs	r0, #161
 1014 0172 FFF7FEFF 		bl	FT_SendResponse
 1015              	.LVL99:
 247:./Application/Src/file_transfer.c ****         }
 1016              		.loc 1 247 13 view .LVU303
 247:./Application/Src/file_transfer.c ****         }
 1017              		.loc 1 247 20 is_stmt 0 view .LVU304
 1018 0176 4FF0FF30 		mov	r0, #-1
 1019 017a 94E7     		b	.L51
 1020              	.L69:
 1021              		.align	2
 1022              	.L68:
 1023 017c 00000000 		.word	ftContext
 1024 0180 00000000 		.word	ftWriteBuffer
 1025 0184 00000000 		.word	ftWriteBufferIndex
 1026              	.LBE18:
 1027              		.cfi_endproc
 1028              	.LFE165:
 1030              		.section	.text.FT_HandleFileEnd,"ax",%progbits
 1031              		.align	1
 1032              		.syntax unified
 1033              		.thumb
 1034              		.thumb_func
 1036              	FT_HandleFileEnd:
 1037              	.LVL100:
 1038              	.LFB166:
 260:./Application/Src/file_transfer.c **** 
 261:./Application/Src/file_transfer.c **** /* Handle FILE_END packet */
 262:./Application/Src/file_transfer.c **** static int FT_HandleFileEnd(uint8_t *packet, uint16_t length)
 263:./Application/Src/file_transfer.c **** {
 1039              		.loc 1 263 1 is_stmt 1 view -0
 1040              		.cfi_startproc
 1041              		@ args = 0, pretend = 0, frame = 32
 1042              		@ frame_needed = 0, uses_anonymous_args = 0
 1043              		.loc 1 263 1 is_stmt 0 view .LVU306
 1044 0000 70B5     		push	{r4, r5, r6, lr}
 1045              	.LCFI16:
 1046              		.cfi_def_cfa_offset 16
 1047              		.cfi_offset 4, -16
 1048              		.cfi_offset 5, -12
ARM GAS  C:\Users\Xuleo\AppData\Local\Temp\ccz8fNTO.s 			page 26


 1049              		.cfi_offset 6, -8
 1050              		.cfi_offset 14, -4
 1051 0002 88B0     		sub	sp, sp, #32
 1052              	.LCFI17:
 1053              		.cfi_def_cfa_offset 48
 264:./Application/Src/file_transfer.c ****     if (length < FT_FILE_END_SIZE)
 1054              		.loc 1 264 5 is_stmt 1 view .LVU307
 1055              		.loc 1 264 8 is_stmt 0 view .LVU308
 1056 0004 0329     		cmp	r1, #3
 1057 0006 3ED9     		bls	.L81
 1058 0008 0546     		mov	r5, r0
 265:./Application/Src/file_transfer.c ****     {
 266:./Application/Src/file_transfer.c ****         FT_SendResponse(FT_RSP_ERROR, (uint8_t[]){FT_ERR_OVERFLOW}, 1);
 267:./Application/Src/file_transfer.c ****         return -1;
 268:./Application/Src/file_transfer.c ****     }
 269:./Application/Src/file_transfer.c **** 
 270:./Application/Src/file_transfer.c ****     /* Verify checksum */
 271:./Application/Src/file_transfer.c ****     if (FT_CalculateChecksum(packet, length - 1) != packet[length - 1])
 1059              		.loc 1 271 5 is_stmt 1 view .LVU309
 1060              		.loc 1 271 9 is_stmt 0 view .LVU310
 1061 000a 4C1E     		subs	r4, r1, #1
 1062 000c A1B2     		uxth	r1, r4
 1063              	.LVL101:
 1064              		.loc 1 271 9 view .LVU311
 1065 000e FFF7FEFF 		bl	FT_CalculateChecksum
 1066              	.LVL102:
 1067              		.loc 1 271 59 discriminator 1 view .LVU312
 1068 0012 2B5D     		ldrb	r3, [r5, r4]	@ zero_extendqisi2
 1069              		.loc 1 271 8 discriminator 1 view .LVU313
 1070 0014 9842     		cmp	r0, r3
 1071 0016 43D1     		bne	.L82
 272:./Application/Src/file_transfer.c ****     {
 273:./Application/Src/file_transfer.c ****         FT_SendResponse(FT_RSP_ERROR, (uint8_t[]){FT_ERR_CHECKSUM}, 1);
 274:./Application/Src/file_transfer.c ****         return -1;
 275:./Application/Src/file_transfer.c ****     }
 276:./Application/Src/file_transfer.c **** 
 277:./Application/Src/file_transfer.c ****     uint16_t reportedBytes = packet[1] | (packet[2] << 8);
 1072              		.loc 1 277 5 is_stmt 1 view .LVU314
 1073              		.loc 1 277 36 is_stmt 0 view .LVU315
 1074 0018 6B78     		ldrb	r3, [r5, #1]	@ zero_extendqisi2
 1075              		.loc 1 277 49 view .LVU316
 1076 001a AA78     		ldrb	r2, [r5, #2]	@ zero_extendqisi2
 1077              		.loc 1 277 14 view .LVU317
 1078 001c 43EA0225 		orr	r5, r3, r2, lsl #8
 1079              	.LVL103:
 278:./Application/Src/file_transfer.c **** 
 279:./Application/Src/file_transfer.c ****     /* Handle DUPLICATE FILE_END (PC retried because SUCCESS was lost) */
 280:./Application/Src/file_transfer.c ****     /* If we're IDLE but recently completed a transfer with matching size, re-send SUCCESS */
 281:./Application/Src/file_transfer.c ****     if (ftContext.state == FT_STATE_IDLE)
 1080              		.loc 1 281 5 is_stmt 1 view .LVU318
 1081              		.loc 1 281 18 is_stmt 0 view .LVU319
 1082 0020 534B     		ldr	r3, .L88
 1083 0022 1B78     		ldrb	r3, [r3]	@ zero_extendqisi2
 1084              		.loc 1 281 8 view .LVU320
 1085 0024 002B     		cmp	r3, #0
 1086 0026 46D0     		beq	.L83
 282:./Application/Src/file_transfer.c ****     {
ARM GAS  C:\Users\Xuleo\AppData\Local\Temp\ccz8fNTO.s 			page 27


 283:./Application/Src/file_transfer.c ****         uint32_t elapsed = HAL_GetTick() - lastCompletedTime;
 284:./Application/Src/file_transfer.c ****         if (elapsed < 10000 && reportedBytes == lastCompletedBytes)
 285:./Application/Src/file_transfer.c ****         {
 286:./Application/Src/file_transfer.c ****             /* Recent completion with matching size - re-send SUCCESS */
 287:./Application/Src/file_transfer.c ****             uint8_t successData[] = {lastCompletedBytes & 0xFF, (lastCompletedBytes >> 8) & 0xFF};
 288:./Application/Src/file_transfer.c ****             FT_SendResponse(FT_RSP_SUCCESS, successData, 2);
 289:./Application/Src/file_transfer.c ****             return 0;
 290:./Application/Src/file_transfer.c ****         }
 291:./Application/Src/file_transfer.c ****         /* Not a duplicate - wrong state */
 292:./Application/Src/file_transfer.c ****         FT_SendResponse(FT_RSP_ERROR, (uint8_t[]){FT_ERR_SEQUENCE}, 1);
 293:./Application/Src/file_transfer.c ****         return -1;
 294:./Application/Src/file_transfer.c ****     }
 295:./Application/Src/file_transfer.c **** 
 296:./Application/Src/file_transfer.c ****     if (ftContext.state != FT_STATE_RECEIVING)
 1087              		.loc 1 296 5 is_stmt 1 view .LVU321
 1088              		.loc 1 296 8 is_stmt 0 view .LVU322
 1089 0028 012B     		cmp	r3, #1
 1090 002a 6AD1     		bne	.L84
 297:./Application/Src/file_transfer.c ****     {
 298:./Application/Src/file_transfer.c ****         FT_SendResponse(FT_RSP_ERROR, (uint8_t[]){FT_ERR_SEQUENCE}, 1);
 299:./Application/Src/file_transfer.c ****         return -1;
 300:./Application/Src/file_transfer.c ****     }
 301:./Application/Src/file_transfer.c **** 
 302:./Application/Src/file_transfer.c ****     /* Flush remaining data in buffer */
 303:./Application/Src/file_transfer.c ****     if (FT_FlushWriteBuffer() != 0)
 1091              		.loc 1 303 5 is_stmt 1 view .LVU323
 1092              		.loc 1 303 9 is_stmt 0 view .LVU324
 1093 002c FFF7FEFF 		bl	FT_FlushWriteBuffer
 1094              	.LVL104:
 1095              		.loc 1 303 8 discriminator 1 view .LVU325
 1096 0030 0646     		mov	r6, r0
 1097 0032 0028     		cmp	r0, #0
 1098 0034 71D1     		bne	.L85
 304:./Application/Src/file_transfer.c ****     {
 305:./Application/Src/file_transfer.c ****         f_close(&ftContext.file);
 306:./Application/Src/file_transfer.c ****         f_unlink(ftContext.filename);
 307:./Application/Src/file_transfer.c ****         FT_SendResponse(FT_RSP_ERROR, (uint8_t[]){FT_ERR_SD_WRITE}, 1);
 308:./Application/Src/file_transfer.c ****         ftContext.state = FT_STATE_ERROR;
 309:./Application/Src/file_transfer.c ****         return -1;
 310:./Application/Src/file_transfer.c ****     }
 311:./Application/Src/file_transfer.c **** 
 312:./Application/Src/file_transfer.c ****     /* Sync and close file */
 313:./Application/Src/file_transfer.c ****     f_sync(&ftContext.file);
 1099              		.loc 1 313 5 is_stmt 1 view .LVU326
 1100 0036 4F4C     		ldr	r4, .L88+4
 1101              	.LVL105:
 1102              		.loc 1 313 5 is_stmt 0 view .LVU327
 1103 0038 2046     		mov	r0, r4
 1104 003a FFF7FEFF 		bl	f_sync
 1105              	.LVL106:
 314:./Application/Src/file_transfer.c ****     f_close(&ftContext.file);
 1106              		.loc 1 314 5 is_stmt 1 view .LVU328
 1107 003e 2046     		mov	r0, r4
 1108 0040 FFF7FEFF 		bl	f_close
 1109              	.LVL107:
 315:./Application/Src/file_transfer.c **** 
 316:./Application/Src/file_transfer.c ****     /* Verify byte count */
ARM GAS  C:\Users\Xuleo\AppData\Local\Temp\ccz8fNTO.s 			page 28


 317:./Application/Src/file_transfer.c ****     if (reportedBytes != (ftContext.bytesReceived & 0xFFFF))
 1110              		.loc 1 317 5 view .LVU329
 1111              		.loc 1 317 36 is_stmt 0 view .LVU330
 1112 0044 D4F83832 		ldr	r3, [r4, #568]
 1113              		.loc 1 317 51 view .LVU331
 1114 0048 9AB2     		uxth	r2, r3
 1115              		.loc 1 317 8 view .LVU332
 1116 004a 9542     		cmp	r5, r2
 1117 004c 7BD1     		bne	.L86
 318:./Application/Src/file_transfer.c ****     {
 319:./Application/Src/file_transfer.c ****         /* Delete incomplete file */
 320:./Application/Src/file_transfer.c ****         f_unlink(ftContext.filename);
 321:./Application/Src/file_transfer.c ****         FT_SendResponse(FT_RSP_ERROR, (uint8_t[]){FT_ERR_SD_WRITE}, 1);
 322:./Application/Src/file_transfer.c ****         ftContext.state = FT_STATE_ERROR;
 323:./Application/Src/file_transfer.c ****         return -1;
 324:./Application/Src/file_transfer.c ****     }
 325:./Application/Src/file_transfer.c **** 
 326:./Application/Src/file_transfer.c ****     ftContext.state = FT_STATE_COMPLETE;
 1118              		.loc 1 326 5 is_stmt 1 view .LVU333
 1119              		.loc 1 326 21 is_stmt 0 view .LVU334
 1120 004e 484D     		ldr	r5, .L88
 1121              	.LVL108:
 1122              		.loc 1 326 21 view .LVU335
 1123 0050 0224     		movs	r4, #2
 1124 0052 2C70     		strb	r4, [r5]
 327:./Application/Src/file_transfer.c **** 
 328:./Application/Src/file_transfer.c ****     /* Track this completion for duplicate handling */
 329:./Application/Src/file_transfer.c ****     lastCompletedBytes = ftContext.bytesReceived & 0xFFFF;
 1125              		.loc 1 329 5 is_stmt 1 view .LVU336
 1126              		.loc 1 329 24 is_stmt 0 view .LVU337
 1127 0054 484A     		ldr	r2, .L88+8
 1128 0056 1380     		strh	r3, [r2]	@ movhi
 330:./Application/Src/file_transfer.c ****     lastCompletedTime = HAL_GetTick();
 1129              		.loc 1 330 5 is_stmt 1 view .LVU338
 1130              		.loc 1 330 25 is_stmt 0 view .LVU339
 1131 0058 FFF7FEFF 		bl	HAL_GetTick
 1132              	.LVL109:
 1133              		.loc 1 330 23 discriminator 1 view .LVU340
 1134 005c 474B     		ldr	r3, .L88+12
 1135 005e 1860     		str	r0, [r3]
 331:./Application/Src/file_transfer.c **** 
 332:./Application/Src/file_transfer.c ****     /* Refresh TXT file list */
 333:./Application/Src/file_transfer.c ****     SD_ListTxtFiles();
 1136              		.loc 1 333 5 is_stmt 1 view .LVU341
 1137 0060 FFF7FEFF 		bl	SD_ListTxtFiles
 1138              	.LVL110:
 334:./Application/Src/file_transfer.c **** 
 335:./Application/Src/file_transfer.c ****     /* Send success with bytes received */
 336:./Application/Src/file_transfer.c ****     uint8_t successData[] = {
 1139              		.loc 1 336 5 view .LVU342
 337:./Application/Src/file_transfer.c ****         ftContext.bytesReceived & 0xFF,
 1140              		.loc 1 337 18 is_stmt 0 view .LVU343
 1141 0064 D5F83C32 		ldr	r3, [r5, #572]
 336:./Application/Src/file_transfer.c ****         ftContext.bytesReceived & 0xFF,
 1142              		.loc 1 336 13 view .LVU344
 1143 0068 8DF80430 		strb	r3, [sp, #4]
 338:./Application/Src/file_transfer.c ****         (ftContext.bytesReceived >> 8) & 0xFF};
ARM GAS  C:\Users\Xuleo\AppData\Local\Temp\ccz8fNTO.s 			page 29


 1144              		.loc 1 338 34 view .LVU345
 1145 006c 1B0A     		lsrs	r3, r3, #8
 336:./Application/Src/file_transfer.c ****         ftContext.bytesReceived & 0xFF,
 1146              		.loc 1 336 13 view .LVU346
 1147 006e 8DF80530 		strb	r3, [sp, #5]
 339:./Application/Src/file_transfer.c ****     FT_SendResponse(FT_RSP_SUCCESS, successData, 2);
 1148              		.loc 1 339 5 is_stmt 1 view .LVU347
 1149 0072 2246     		mov	r2, r4
 1150 0074 01A9     		add	r1, sp, #4
 1151 0076 A420     		movs	r0, #164
 1152 0078 FFF7FEFF 		bl	FT_SendResponse
 1153              	.LVL111:
 340:./Application/Src/file_transfer.c **** 
 341:./Application/Src/file_transfer.c ****     /* Reset for next transfer */
 342:./Application/Src/file_transfer.c ****     FT_Init();
 1154              		.loc 1 342 5 view .LVU348
 1155 007c FFF7FEFF 		bl	FT_Init
 1156              	.LVL112:
 343:./Application/Src/file_transfer.c ****     return 0;
 1157              		.loc 1 343 5 view .LVU349
 1158              	.L70:
 344:./Application/Src/file_transfer.c **** }
 1159              		.loc 1 344 1 is_stmt 0 view .LVU350
 1160 0080 3046     		mov	r0, r6
 1161 0082 08B0     		add	sp, sp, #32
 1162              	.LCFI18:
 1163              		.cfi_remember_state
 1164              		.cfi_def_cfa_offset 16
 1165              		@ sp needed
 1166 0084 70BD     		pop	{r4, r5, r6, pc}
 1167              	.LVL113:
 1168              	.L81:
 1169              	.LCFI19:
 1170              		.cfi_restore_state
 1171              	.LBB19:
 266:./Application/Src/file_transfer.c ****         return -1;
 1172              		.loc 1 266 9 is_stmt 1 view .LVU351
 266:./Application/Src/file_transfer.c ****         return -1;
 1173              		.loc 1 266 50 is_stmt 0 view .LVU352
 1174 0086 0823     		movs	r3, #8
 1175 0088 8DF80830 		strb	r3, [sp, #8]
 266:./Application/Src/file_transfer.c ****         return -1;
 1176              		.loc 1 266 9 view .LVU353
 1177 008c 0122     		movs	r2, #1
 1178 008e 0DEB0301 		add	r1, sp, r3
 1179              	.LVL114:
 266:./Application/Src/file_transfer.c ****         return -1;
 1180              		.loc 1 266 9 view .LVU354
 1181 0092 A320     		movs	r0, #163
 1182              	.LVL115:
 266:./Application/Src/file_transfer.c ****         return -1;
 1183              		.loc 1 266 9 view .LVU355
 1184 0094 FFF7FEFF 		bl	FT_SendResponse
 1185              	.LVL116:
 267:./Application/Src/file_transfer.c ****     }
 1186              		.loc 1 267 9 is_stmt 1 view .LVU356
 267:./Application/Src/file_transfer.c ****     }
ARM GAS  C:\Users\Xuleo\AppData\Local\Temp\ccz8fNTO.s 			page 30


 1187              		.loc 1 267 16 is_stmt 0 view .LVU357
 1188 0098 4FF0FF33 		mov	r3, #-1
 1189 009c 1E46     		mov	r6, r3
 1190 009e EFE7     		b	.L70
 1191              	.LVL117:
 1192              	.L82:
 267:./Application/Src/file_transfer.c ****     }
 1193              		.loc 1 267 16 view .LVU358
 1194              	.LBE19:
 1195              	.LBB20:
 273:./Application/Src/file_transfer.c ****         return -1;
 1196              		.loc 1 273 9 is_stmt 1 view .LVU359
 273:./Application/Src/file_transfer.c ****         return -1;
 1197              		.loc 1 273 50 is_stmt 0 view .LVU360
 1198 00a0 0122     		movs	r2, #1
 1199 00a2 8DF80C20 		strb	r2, [sp, #12]
 273:./Application/Src/file_transfer.c ****         return -1;
 1200              		.loc 1 273 9 view .LVU361
 1201 00a6 03A9     		add	r1, sp, #12
 1202 00a8 A320     		movs	r0, #163
 1203 00aa FFF7FEFF 		bl	FT_SendResponse
 1204              	.LVL118:
 274:./Application/Src/file_transfer.c ****     }
 1205              		.loc 1 274 9 is_stmt 1 view .LVU362
 274:./Application/Src/file_transfer.c ****     }
 1206              		.loc 1 274 16 is_stmt 0 view .LVU363
 1207 00ae 4FF0FF33 		mov	r3, #-1
 1208 00b2 1E46     		mov	r6, r3
 1209 00b4 E4E7     		b	.L70
 1210              	.LVL119:
 1211              	.L83:
 274:./Application/Src/file_transfer.c ****     }
 1212              		.loc 1 274 16 view .LVU364
 1213              	.LBE20:
 1214              	.LBB21:
 283:./Application/Src/file_transfer.c ****         if (elapsed < 10000 && reportedBytes == lastCompletedBytes)
 1215              		.loc 1 283 9 is_stmt 1 view .LVU365
 283:./Application/Src/file_transfer.c ****         if (elapsed < 10000 && reportedBytes == lastCompletedBytes)
 1216              		.loc 1 283 28 is_stmt 0 view .LVU366
 1217 00b6 FFF7FEFF 		bl	HAL_GetTick
 1218              	.LVL120:
 283:./Application/Src/file_transfer.c ****         if (elapsed < 10000 && reportedBytes == lastCompletedBytes)
 1219              		.loc 1 283 42 discriminator 1 view .LVU367
 1220 00ba 304B     		ldr	r3, .L88+12
 1221 00bc 1B68     		ldr	r3, [r3]
 283:./Application/Src/file_transfer.c ****         if (elapsed < 10000 && reportedBytes == lastCompletedBytes)
 1222              		.loc 1 283 18 discriminator 1 view .LVU368
 1223 00be C01A     		subs	r0, r0, r3
 1224              	.LVL121:
 284:./Application/Src/file_transfer.c ****         {
 1225              		.loc 1 284 9 is_stmt 1 view .LVU369
 284:./Application/Src/file_transfer.c ****         {
 1226              		.loc 1 284 12 is_stmt 0 view .LVU370
 1227 00c0 42F20F73 		movw	r3, #9999
 1228 00c4 9842     		cmp	r0, r3
 1229 00c6 03D8     		bhi	.L75
 284:./Application/Src/file_transfer.c ****         {
ARM GAS  C:\Users\Xuleo\AppData\Local\Temp\ccz8fNTO.s 			page 31


 1230              		.loc 1 284 46 discriminator 1 view .LVU371
 1231 00c8 2B4B     		ldr	r3, .L88+8
 1232 00ca 1B88     		ldrh	r3, [r3]
 284:./Application/Src/file_transfer.c ****         {
 1233              		.loc 1 284 29 discriminator 1 view .LVU372
 1234 00cc AB42     		cmp	r3, r5
 1235 00ce 0BD0     		beq	.L87
 1236              	.L75:
 292:./Application/Src/file_transfer.c ****         return -1;
 1237              		.loc 1 292 9 is_stmt 1 view .LVU373
 292:./Application/Src/file_transfer.c ****         return -1;
 1238              		.loc 1 292 50 is_stmt 0 view .LVU374
 1239 00d0 0223     		movs	r3, #2
 1240 00d2 8DF81030 		strb	r3, [sp, #16]
 292:./Application/Src/file_transfer.c ****         return -1;
 1241              		.loc 1 292 9 view .LVU375
 1242 00d6 0122     		movs	r2, #1
 1243 00d8 04A9     		add	r1, sp, #16
 1244 00da A320     		movs	r0, #163
 1245              	.LVL122:
 292:./Application/Src/file_transfer.c ****         return -1;
 1246              		.loc 1 292 9 view .LVU376
 1247 00dc FFF7FEFF 		bl	FT_SendResponse
 1248              	.LVL123:
 293:./Application/Src/file_transfer.c ****     }
 1249              		.loc 1 293 9 is_stmt 1 view .LVU377
 293:./Application/Src/file_transfer.c ****     }
 1250              		.loc 1 293 16 is_stmt 0 view .LVU378
 1251 00e0 4FF0FF33 		mov	r3, #-1
 1252 00e4 1E46     		mov	r6, r3
 1253 00e6 CBE7     		b	.L70
 1254              	.LVL124:
 1255              	.L87:
 1256              	.LBB22:
 287:./Application/Src/file_transfer.c ****             FT_SendResponse(FT_RSP_SUCCESS, successData, 2);
 1257              		.loc 1 287 13 is_stmt 1 view .LVU379
 287:./Application/Src/file_transfer.c ****             FT_SendResponse(FT_RSP_SUCCESS, successData, 2);
 1258              		.loc 1 287 21 is_stmt 0 view .LVU380
 1259 00e8 8DF80030 		strb	r3, [sp]
 1260 00ec 1B0A     		lsrs	r3, r3, #8
 1261 00ee 8DF80130 		strb	r3, [sp, #1]
 288:./Application/Src/file_transfer.c ****             return 0;
 1262              		.loc 1 288 13 is_stmt 1 view .LVU381
 1263 00f2 0222     		movs	r2, #2
 1264 00f4 6946     		mov	r1, sp
 1265 00f6 A420     		movs	r0, #164
 1266              	.LVL125:
 288:./Application/Src/file_transfer.c ****             return 0;
 1267              		.loc 1 288 13 is_stmt 0 view .LVU382
 1268 00f8 FFF7FEFF 		bl	FT_SendResponse
 1269              	.LVL126:
 289:./Application/Src/file_transfer.c ****         }
 1270              		.loc 1 289 13 is_stmt 1 view .LVU383
 289:./Application/Src/file_transfer.c ****         }
 1271              		.loc 1 289 20 is_stmt 0 view .LVU384
 1272 00fc 0023     		movs	r3, #0
 1273 00fe 1E46     		mov	r6, r3
ARM GAS  C:\Users\Xuleo\AppData\Local\Temp\ccz8fNTO.s 			page 32


 1274 0100 BEE7     		b	.L70
 1275              	.LVL127:
 1276              	.L84:
 289:./Application/Src/file_transfer.c ****         }
 1277              		.loc 1 289 20 view .LVU385
 1278              	.LBE22:
 1279              	.LBE21:
 1280              	.LBB23:
 298:./Application/Src/file_transfer.c ****         return -1;
 1281              		.loc 1 298 9 is_stmt 1 view .LVU386
 298:./Application/Src/file_transfer.c ****         return -1;
 1282              		.loc 1 298 50 is_stmt 0 view .LVU387
 1283 0102 0223     		movs	r3, #2
 1284 0104 8DF81430 		strb	r3, [sp, #20]
 298:./Application/Src/file_transfer.c ****         return -1;
 1285              		.loc 1 298 9 view .LVU388
 1286 0108 0122     		movs	r2, #1
 1287 010a 05A9     		add	r1, sp, #20
 1288 010c A320     		movs	r0, #163
 1289 010e FFF7FEFF 		bl	FT_SendResponse
 1290              	.LVL128:
 299:./Application/Src/file_transfer.c ****     }
 1291              		.loc 1 299 9 is_stmt 1 view .LVU389
 299:./Application/Src/file_transfer.c ****     }
 1292              		.loc 1 299 16 is_stmt 0 view .LVU390
 1293 0112 4FF0FF33 		mov	r3, #-1
 1294 0116 1E46     		mov	r6, r3
 1295 0118 B2E7     		b	.L70
 1296              	.L85:
 1297              	.LBE23:
 1298              	.LBB24:
 305:./Application/Src/file_transfer.c ****         f_unlink(ftContext.filename);
 1299              		.loc 1 305 9 is_stmt 1 view .LVU391
 1300 011a 164C     		ldr	r4, .L88+4
 1301 011c 2046     		mov	r0, r4
 1302 011e FFF7FEFF 		bl	f_close
 1303              	.LVL129:
 306:./Application/Src/file_transfer.c ****         FT_SendResponse(FT_RSP_ERROR, (uint8_t[]){FT_ERR_SD_WRITE}, 1);
 1304              		.loc 1 306 9 view .LVU392
 1305 0122 04F50970 		add	r0, r4, #548
 1306 0126 FFF7FEFF 		bl	f_unlink
 1307              	.LVL130:
 307:./Application/Src/file_transfer.c ****         ftContext.state = FT_STATE_ERROR;
 1308              		.loc 1 307 9 view .LVU393
 307:./Application/Src/file_transfer.c ****         ftContext.state = FT_STATE_ERROR;
 1309              		.loc 1 307 50 is_stmt 0 view .LVU394
 1310 012a 0325     		movs	r5, #3
 1311              	.LVL131:
 307:./Application/Src/file_transfer.c ****         ftContext.state = FT_STATE_ERROR;
 1312              		.loc 1 307 50 view .LVU395
 1313 012c 8DF81850 		strb	r5, [sp, #24]
 307:./Application/Src/file_transfer.c ****         ftContext.state = FT_STATE_ERROR;
 1314              		.loc 1 307 9 view .LVU396
 1315 0130 0122     		movs	r2, #1
 1316 0132 06A9     		add	r1, sp, #24
 1317 0134 A320     		movs	r0, #163
 1318 0136 FFF7FEFF 		bl	FT_SendResponse
ARM GAS  C:\Users\Xuleo\AppData\Local\Temp\ccz8fNTO.s 			page 33


 1319              	.LVL132:
 308:./Application/Src/file_transfer.c ****         return -1;
 1320              		.loc 1 308 9 is_stmt 1 view .LVU397
 308:./Application/Src/file_transfer.c ****         return -1;
 1321              		.loc 1 308 25 is_stmt 0 view .LVU398
 1322 013a 04F8045C 		strb	r5, [r4, #-4]
 309:./Application/Src/file_transfer.c ****     }
 1323              		.loc 1 309 9 is_stmt 1 view .LVU399
 309:./Application/Src/file_transfer.c ****     }
 1324              		.loc 1 309 16 is_stmt 0 view .LVU400
 1325 013e 4FF0FF33 		mov	r3, #-1
 1326 0142 1E46     		mov	r6, r3
 1327 0144 9CE7     		b	.L70
 1328              	.LVL133:
 1329              	.L86:
 309:./Application/Src/file_transfer.c ****     }
 1330              		.loc 1 309 16 view .LVU401
 1331              	.LBE24:
 1332              	.LBB25:
 320:./Application/Src/file_transfer.c ****         FT_SendResponse(FT_RSP_ERROR, (uint8_t[]){FT_ERR_SD_WRITE}, 1);
 1333              		.loc 1 320 9 is_stmt 1 view .LVU402
 1334 0146 04F50974 		add	r4, r4, #548
 1335 014a 2046     		mov	r0, r4
 1336 014c FFF7FEFF 		bl	f_unlink
 1337              	.LVL134:
 321:./Application/Src/file_transfer.c ****         ftContext.state = FT_STATE_ERROR;
 1338              		.loc 1 321 9 view .LVU403
 321:./Application/Src/file_transfer.c ****         ftContext.state = FT_STATE_ERROR;
 1339              		.loc 1 321 50 is_stmt 0 view .LVU404
 1340 0150 0325     		movs	r5, #3
 1341              	.LVL135:
 321:./Application/Src/file_transfer.c ****         ftContext.state = FT_STATE_ERROR;
 1342              		.loc 1 321 50 view .LVU405
 1343 0152 8DF81C50 		strb	r5, [sp, #28]
 321:./Application/Src/file_transfer.c ****         ftContext.state = FT_STATE_ERROR;
 1344              		.loc 1 321 9 view .LVU406
 1345 0156 0122     		movs	r2, #1
 1346 0158 07A9     		add	r1, sp, #28
 1347 015a A320     		movs	r0, #163
 1348 015c FFF7FEFF 		bl	FT_SendResponse
 1349              	.LVL136:
 322:./Application/Src/file_transfer.c ****         return -1;
 1350              		.loc 1 322 9 is_stmt 1 view .LVU407
 322:./Application/Src/file_transfer.c ****         return -1;
 1351              		.loc 1 322 25 is_stmt 0 view .LVU408
 1352 0160 A4F50A74 		sub	r4, r4, #552
 1353 0164 2570     		strb	r5, [r4]
 323:./Application/Src/file_transfer.c ****     }
 1354              		.loc 1 323 9 is_stmt 1 view .LVU409
 323:./Application/Src/file_transfer.c ****     }
 1355              		.loc 1 323 16 is_stmt 0 view .LVU410
 1356 0166 4FF0FF33 		mov	r3, #-1
 1357 016a 1E46     		mov	r6, r3
 1358 016c 88E7     		b	.L70
 1359              	.L89:
 1360 016e 00BF     		.align	2
 1361              	.L88:
ARM GAS  C:\Users\Xuleo\AppData\Local\Temp\ccz8fNTO.s 			page 34


 1362 0170 00000000 		.word	ftContext
 1363 0174 04000000 		.word	ftContext+4
 1364 0178 00000000 		.word	lastCompletedBytes
 1365 017c 00000000 		.word	lastCompletedTime
 1366              	.LBE25:
 1367              		.cfi_endproc
 1368              	.LFE166:
 1370              		.section	.text.FT_Abort,"ax",%progbits
 1371              		.align	1
 1372              		.global	FT_Abort
 1373              		.syntax unified
 1374              		.thumb
 1375              		.thumb_func
 1377              	FT_Abort:
 1378              	.LFB170:
 345:./Application/Src/file_transfer.c **** 
 346:./Application/Src/file_transfer.c **** /* Handle FILE_ABORT packet */
 347:./Application/Src/file_transfer.c **** static int FT_HandleFileAbort(uint8_t *packet, uint16_t length)
 348:./Application/Src/file_transfer.c **** {
 349:./Application/Src/file_transfer.c ****     (void)packet;
 350:./Application/Src/file_transfer.c ****     (void)length;
 351:./Application/Src/file_transfer.c **** 
 352:./Application/Src/file_transfer.c ****     FT_Abort();
 353:./Application/Src/file_transfer.c ****     return 0;
 354:./Application/Src/file_transfer.c **** }
 355:./Application/Src/file_transfer.c **** 
 356:./Application/Src/file_transfer.c **** /* Process received packet */
 357:./Application/Src/file_transfer.c **** void FT_ProcessPacket(uint8_t *packet, uint16_t length)
 358:./Application/Src/file_transfer.c **** {
 359:./Application/Src/file_transfer.c ****     if (length == 0)
 360:./Application/Src/file_transfer.c ****         return;
 361:./Application/Src/file_transfer.c **** 
 362:./Application/Src/file_transfer.c ****     uint8_t command = packet[0];
 363:./Application/Src/file_transfer.c **** 
 364:./Application/Src/file_transfer.c ****     switch (command)
 365:./Application/Src/file_transfer.c ****     {
 366:./Application/Src/file_transfer.c ****     case FT_CMD_FILE_START:
 367:./Application/Src/file_transfer.c ****         FT_HandleFileStart(packet, length);
 368:./Application/Src/file_transfer.c ****         break;
 369:./Application/Src/file_transfer.c **** 
 370:./Application/Src/file_transfer.c ****     case FT_CMD_FILE_DATA:
 371:./Application/Src/file_transfer.c ****         FT_HandleFileData(packet, length);
 372:./Application/Src/file_transfer.c ****         break;
 373:./Application/Src/file_transfer.c **** 
 374:./Application/Src/file_transfer.c ****     case FT_CMD_FILE_END:
 375:./Application/Src/file_transfer.c ****         FT_HandleFileEnd(packet, length);
 376:./Application/Src/file_transfer.c ****         break;
 377:./Application/Src/file_transfer.c **** 
 378:./Application/Src/file_transfer.c ****     case FT_CMD_FILE_ABORT:
 379:./Application/Src/file_transfer.c ****         FT_HandleFileAbort(packet, length);
 380:./Application/Src/file_transfer.c ****         break;
 381:./Application/Src/file_transfer.c **** 
 382:./Application/Src/file_transfer.c ****     default:
 383:./Application/Src/file_transfer.c ****         FT_SendResponse(FT_RSP_ERROR, (uint8_t[]){FT_ERR_SEQUENCE}, 1);
 384:./Application/Src/file_transfer.c ****         break;
 385:./Application/Src/file_transfer.c ****     }
 386:./Application/Src/file_transfer.c **** }
ARM GAS  C:\Users\Xuleo\AppData\Local\Temp\ccz8fNTO.s 			page 35


 387:./Application/Src/file_transfer.c **** 
 388:./Application/Src/file_transfer.c **** /* Check for timeout during transfer */
 389:./Application/Src/file_transfer.c **** void FT_TimeoutCheck(void)
 390:./Application/Src/file_transfer.c **** {
 391:./Application/Src/file_transfer.c ****     if (ftContext.state == FT_STATE_RECEIVING)
 392:./Application/Src/file_transfer.c ****     {
 393:./Application/Src/file_transfer.c ****         uint32_t elapsed = HAL_GetTick() - ftContext.lastActivityTime;
 394:./Application/Src/file_transfer.c ****         if (elapsed > FT_TIMEOUT_MS)
 395:./Application/Src/file_transfer.c ****         {
 396:./Application/Src/file_transfer.c ****             /* Timeout - abort transfer */
 397:./Application/Src/file_transfer.c ****             FT_Abort();
 398:./Application/Src/file_transfer.c ****             FT_SendResponse(FT_RSP_ERROR, (uint8_t[]){FT_ERR_TIMEOUT}, 1);
 399:./Application/Src/file_transfer.c ****         }
 400:./Application/Src/file_transfer.c ****     }
 401:./Application/Src/file_transfer.c **** }
 402:./Application/Src/file_transfer.c **** 
 403:./Application/Src/file_transfer.c **** /* Abort current transfer */
 404:./Application/Src/file_transfer.c **** void FT_Abort(void)
 405:./Application/Src/file_transfer.c **** {
 1379              		.loc 1 405 1 is_stmt 1 view -0
 1380              		.cfi_startproc
 1381              		@ args = 0, pretend = 0, frame = 0
 1382              		@ frame_needed = 0, uses_anonymous_args = 0
 1383 0000 08B5     		push	{r3, lr}
 1384              	.LCFI20:
 1385              		.cfi_def_cfa_offset 8
 1386              		.cfi_offset 3, -8
 1387              		.cfi_offset 14, -4
 406:./Application/Src/file_transfer.c ****     if (ftContext.state == FT_STATE_RECEIVING)
 1388              		.loc 1 406 5 view .LVU412
 1389              		.loc 1 406 18 is_stmt 0 view .LVU413
 1390 0002 094B     		ldr	r3, .L94
 1391 0004 1B78     		ldrb	r3, [r3]	@ zero_extendqisi2
 1392              		.loc 1 406 8 view .LVU414
 1393 0006 012B     		cmp	r3, #1
 1394 0008 05D0     		beq	.L93
 1395              	.L91:
 407:./Application/Src/file_transfer.c ****     {
 408:./Application/Src/file_transfer.c ****         /* Close and delete incomplete file */
 409:./Application/Src/file_transfer.c ****         f_close(&ftContext.file);
 410:./Application/Src/file_transfer.c ****         f_unlink(ftContext.filename);
 411:./Application/Src/file_transfer.c ****     }
 412:./Application/Src/file_transfer.c **** 
 413:./Application/Src/file_transfer.c ****     ftContext.state = FT_STATE_IDLE;
 1396              		.loc 1 413 5 is_stmt 1 view .LVU415
 1397              		.loc 1 413 21 is_stmt 0 view .LVU416
 1398 000a 074B     		ldr	r3, .L94
 1399 000c 0022     		movs	r2, #0
 1400 000e 1A70     		strb	r2, [r3]
 414:./Application/Src/file_transfer.c ****     ftContext.errorCode = FT_ERR_NONE;
 1401              		.loc 1 414 5 is_stmt 1 view .LVU417
 1402              		.loc 1 414 25 is_stmt 0 view .LVU418
 1403 0010 83F84822 		strb	r2, [r3, #584]
 415:./Application/Src/file_transfer.c **** }
 1404              		.loc 1 415 1 view .LVU419
 1405 0014 08BD     		pop	{r3, pc}
 1406              	.L93:
ARM GAS  C:\Users\Xuleo\AppData\Local\Temp\ccz8fNTO.s 			page 36


 409:./Application/Src/file_transfer.c ****         f_unlink(ftContext.filename);
 1407              		.loc 1 409 9 is_stmt 1 view .LVU420
 1408 0016 0548     		ldr	r0, .L94+4
 1409 0018 FFF7FEFF 		bl	f_close
 1410              	.LVL137:
 410:./Application/Src/file_transfer.c ****     }
 1411              		.loc 1 410 9 view .LVU421
 1412 001c 034B     		ldr	r3, .L94+4
 1413 001e 03F50970 		add	r0, r3, #548
 1414 0022 FFF7FEFF 		bl	f_unlink
 1415              	.LVL138:
 1416 0026 F0E7     		b	.L91
 1417              	.L95:
 1418              		.align	2
 1419              	.L94:
 1420 0028 00000000 		.word	ftContext
 1421 002c 04000000 		.word	ftContext+4
 1422              		.cfi_endproc
 1423              	.LFE170:
 1425              		.section	.text.FT_HandleFileAbort,"ax",%progbits
 1426              		.align	1
 1427              		.syntax unified
 1428              		.thumb
 1429              		.thumb_func
 1431              	FT_HandleFileAbort:
 1432              	.LVL139:
 1433              	.LFB167:
 348:./Application/Src/file_transfer.c ****     (void)packet;
 1434              		.loc 1 348 1 view -0
 1435              		.cfi_startproc
 1436              		@ args = 0, pretend = 0, frame = 0
 1437              		@ frame_needed = 0, uses_anonymous_args = 0
 348:./Application/Src/file_transfer.c ****     (void)packet;
 1438              		.loc 1 348 1 is_stmt 0 view .LVU423
 1439 0000 08B5     		push	{r3, lr}
 1440              	.LCFI21:
 1441              		.cfi_def_cfa_offset 8
 1442              		.cfi_offset 3, -8
 1443              		.cfi_offset 14, -4
 349:./Application/Src/file_transfer.c ****     (void)length;
 1444              		.loc 1 349 5 is_stmt 1 view .LVU424
 350:./Application/Src/file_transfer.c **** 
 1445              		.loc 1 350 5 view .LVU425
 352:./Application/Src/file_transfer.c ****     return 0;
 1446              		.loc 1 352 5 view .LVU426
 1447 0002 FFF7FEFF 		bl	FT_Abort
 1448              	.LVL140:
 353:./Application/Src/file_transfer.c **** }
 1449              		.loc 1 353 5 view .LVU427
 354:./Application/Src/file_transfer.c **** 
 1450              		.loc 1 354 1 is_stmt 0 view .LVU428
 1451 0006 0020     		movs	r0, #0
 1452 0008 08BD     		pop	{r3, pc}
 1453              		.cfi_endproc
 1454              	.LFE167:
 1456              		.section	.text.FT_ProcessPacket,"ax",%progbits
 1457              		.align	1
ARM GAS  C:\Users\Xuleo\AppData\Local\Temp\ccz8fNTO.s 			page 37


 1458              		.global	FT_ProcessPacket
 1459              		.syntax unified
 1460              		.thumb
 1461              		.thumb_func
 1463              	FT_ProcessPacket:
 1464              	.LVL141:
 1465              	.LFB168:
 358:./Application/Src/file_transfer.c ****     if (length == 0)
 1466              		.loc 1 358 1 is_stmt 1 view -0
 1467              		.cfi_startproc
 1468              		@ args = 0, pretend = 0, frame = 8
 1469              		@ frame_needed = 0, uses_anonymous_args = 0
 359:./Application/Src/file_transfer.c ****         return;
 1470              		.loc 1 359 5 view .LVU430
 359:./Application/Src/file_transfer.c ****         return;
 1471              		.loc 1 359 8 is_stmt 0 view .LVU431
 1472 0000 09B3     		cbz	r1, .L108
 358:./Application/Src/file_transfer.c ****     if (length == 0)
 1473              		.loc 1 358 1 view .LVU432
 1474 0002 00B5     		push	{lr}
 1475              	.LCFI22:
 1476              		.cfi_def_cfa_offset 4
 1477              		.cfi_offset 14, -4
 1478 0004 83B0     		sub	sp, sp, #12
 1479              	.LCFI23:
 1480              		.cfi_def_cfa_offset 16
 362:./Application/Src/file_transfer.c **** 
 1481              		.loc 1 362 5 is_stmt 1 view .LVU433
 362:./Application/Src/file_transfer.c **** 
 1482              		.loc 1 362 13 is_stmt 0 view .LVU434
 1483 0006 0378     		ldrb	r3, [r0]	@ zero_extendqisi2
 1484              	.LVL142:
 364:./Application/Src/file_transfer.c ****     {
 1485              		.loc 1 364 5 is_stmt 1 view .LVU435
 1486 0008 F22B     		cmp	r3, #242
 1487 000a 10D0     		beq	.L100
 1488 000c 06D8     		bhi	.L101
 1489 000e F02B     		cmp	r3, #240
 1490 0010 09D0     		beq	.L102
 1491 0012 F12B     		cmp	r3, #241
 1492 0014 0ED1     		bne	.L104
 1493              	.LBB26:
 371:./Application/Src/file_transfer.c ****         break;
 1494              		.loc 1 371 9 view .LVU436
 1495 0016 FFF7FEFF 		bl	FT_HandleFileData
 1496              	.LVL143:
 372:./Application/Src/file_transfer.c **** 
 1497              		.loc 1 372 9 view .LVU437
 1498 001a 06E0     		b	.L98
 1499              	.LVL144:
 1500              	.L101:
 372:./Application/Src/file_transfer.c **** 
 1501              		.loc 1 372 9 is_stmt 0 view .LVU438
 1502              	.LBE26:
 364:./Application/Src/file_transfer.c ****     {
 1503              		.loc 1 364 5 view .LVU439
 1504 001c F32B     		cmp	r3, #243
ARM GAS  C:\Users\Xuleo\AppData\Local\Temp\ccz8fNTO.s 			page 38


 1505 001e 09D1     		bne	.L104
 1506              	.LBB27:
 379:./Application/Src/file_transfer.c ****         break;
 1507              		.loc 1 379 9 is_stmt 1 view .LVU440
 1508 0020 FFF7FEFF 		bl	FT_HandleFileAbort
 1509              	.LVL145:
 380:./Application/Src/file_transfer.c **** 
 1510              		.loc 1 380 9 view .LVU441
 1511 0024 01E0     		b	.L98
 1512              	.LVL146:
 1513              	.L102:
 367:./Application/Src/file_transfer.c ****         break;
 1514              		.loc 1 367 9 view .LVU442
 1515 0026 FFF7FEFF 		bl	FT_HandleFileStart
 1516              	.LVL147:
 368:./Application/Src/file_transfer.c **** 
 1517              		.loc 1 368 9 view .LVU443
 1518              	.L98:
 1519              	.LBE27:
 386:./Application/Src/file_transfer.c **** 
 1520              		.loc 1 386 1 is_stmt 0 view .LVU444
 1521 002a 03B0     		add	sp, sp, #12
 1522              	.LCFI24:
 1523              		.cfi_remember_state
 1524              		.cfi_def_cfa_offset 4
 1525              		@ sp needed
 1526 002c 00BD     		pop	{pc}
 1527              	.LVL148:
 1528              	.L100:
 1529              	.LCFI25:
 1530              		.cfi_restore_state
 1531              	.LBB28:
 375:./Application/Src/file_transfer.c ****         break;
 1532              		.loc 1 375 9 is_stmt 1 view .LVU445
 1533 002e FFF7FEFF 		bl	FT_HandleFileEnd
 1534              	.LVL149:
 376:./Application/Src/file_transfer.c **** 
 1535              		.loc 1 376 9 view .LVU446
 1536 0032 FAE7     		b	.L98
 1537              	.LVL150:
 1538              	.L104:
 383:./Application/Src/file_transfer.c ****         break;
 1539              		.loc 1 383 9 view .LVU447
 383:./Application/Src/file_transfer.c ****         break;
 1540              		.loc 1 383 50 is_stmt 0 view .LVU448
 1541 0034 0223     		movs	r3, #2
 1542              	.LVL151:
 383:./Application/Src/file_transfer.c ****         break;
 1543              		.loc 1 383 50 view .LVU449
 1544 0036 8DF80430 		strb	r3, [sp, #4]
 1545              	.LVL152:
 383:./Application/Src/file_transfer.c ****         break;
 1546              		.loc 1 383 9 view .LVU450
 1547 003a 0122     		movs	r2, #1
 1548 003c 01A9     		add	r1, sp, #4
 1549              	.LVL153:
 383:./Application/Src/file_transfer.c ****         break;
ARM GAS  C:\Users\Xuleo\AppData\Local\Temp\ccz8fNTO.s 			page 39


 1550              		.loc 1 383 9 view .LVU451
 1551 003e A320     		movs	r0, #163
 1552              	.LVL154:
 383:./Application/Src/file_transfer.c ****         break;
 1553              		.loc 1 383 9 view .LVU452
 1554 0040 FFF7FEFF 		bl	FT_SendResponse
 1555              	.LVL155:
 384:./Application/Src/file_transfer.c ****     }
 1556              		.loc 1 384 9 is_stmt 1 view .LVU453
 1557 0044 F1E7     		b	.L98
 1558              	.LVL156:
 1559              	.L108:
 1560              	.LCFI26:
 1561              		.cfi_def_cfa_offset 0
 1562              		.cfi_restore 14
 384:./Application/Src/file_transfer.c ****     }
 1563              		.loc 1 384 9 is_stmt 0 view .LVU454
 1564 0046 7047     		bx	lr
 1565              	.LBE28:
 1566              		.cfi_endproc
 1567              	.LFE168:
 1569              		.section	.text.FT_TimeoutCheck,"ax",%progbits
 1570              		.align	1
 1571              		.global	FT_TimeoutCheck
 1572              		.syntax unified
 1573              		.thumb
 1574              		.thumb_func
 1576              	FT_TimeoutCheck:
 1577              	.LFB169:
 390:./Application/Src/file_transfer.c ****     if (ftContext.state == FT_STATE_RECEIVING)
 1578              		.loc 1 390 1 is_stmt 1 view -0
 1579              		.cfi_startproc
 1580              		@ args = 0, pretend = 0, frame = 8
 1581              		@ frame_needed = 0, uses_anonymous_args = 0
 391:./Application/Src/file_transfer.c ****     {
 1582              		.loc 1 391 5 view .LVU456
 391:./Application/Src/file_transfer.c ****     {
 1583              		.loc 1 391 18 is_stmt 0 view .LVU457
 1584 0000 0E4B     		ldr	r3, .L119
 1585 0002 1B78     		ldrb	r3, [r3]	@ zero_extendqisi2
 391:./Application/Src/file_transfer.c ****     {
 1586              		.loc 1 391 8 view .LVU458
 1587 0004 012B     		cmp	r3, #1
 1588 0006 00D0     		beq	.L117
 1589 0008 7047     		bx	lr
 1590              	.L117:
 390:./Application/Src/file_transfer.c ****     if (ftContext.state == FT_STATE_RECEIVING)
 1591              		.loc 1 390 1 view .LVU459
 1592 000a 00B5     		push	{lr}
 1593              	.LCFI27:
 1594              		.cfi_def_cfa_offset 4
 1595              		.cfi_offset 14, -4
 1596 000c 83B0     		sub	sp, sp, #12
 1597              	.LCFI28:
 1598              		.cfi_def_cfa_offset 16
 1599              	.LBB29:
 393:./Application/Src/file_transfer.c ****         if (elapsed > FT_TIMEOUT_MS)
ARM GAS  C:\Users\Xuleo\AppData\Local\Temp\ccz8fNTO.s 			page 40


 1600              		.loc 1 393 9 is_stmt 1 view .LVU460
 393:./Application/Src/file_transfer.c ****         if (elapsed > FT_TIMEOUT_MS)
 1601              		.loc 1 393 28 is_stmt 0 view .LVU461
 1602 000e FFF7FEFF 		bl	HAL_GetTick
 1603              	.LVL157:
 393:./Application/Src/file_transfer.c ****         if (elapsed > FT_TIMEOUT_MS)
 1604              		.loc 1 393 53 discriminator 1 view .LVU462
 1605 0012 0A4B     		ldr	r3, .L119
 1606 0014 D3F84432 		ldr	r3, [r3, #580]
 393:./Application/Src/file_transfer.c ****         if (elapsed > FT_TIMEOUT_MS)
 1607              		.loc 1 393 18 discriminator 1 view .LVU463
 1608 0018 C01A     		subs	r0, r0, r3
 1609              	.LVL158:
 394:./Application/Src/file_transfer.c ****         {
 1610              		.loc 1 394 9 is_stmt 1 view .LVU464
 394:./Application/Src/file_transfer.c ****         {
 1611              		.loc 1 394 12 is_stmt 0 view .LVU465
 1612 001a 47F23053 		movw	r3, #30000
 1613 001e 9842     		cmp	r0, r3
 1614 0020 01D8     		bhi	.L118
 1615              	.LVL159:
 1616              	.L111:
 394:./Application/Src/file_transfer.c ****         {
 1617              		.loc 1 394 12 view .LVU466
 1618              	.LBE29:
 401:./Application/Src/file_transfer.c **** 
 1619              		.loc 1 401 1 view .LVU467
 1620 0022 03B0     		add	sp, sp, #12
 1621              	.LCFI29:
 1622              		.cfi_remember_state
 1623              		.cfi_def_cfa_offset 4
 1624              		@ sp needed
 1625 0024 00BD     		pop	{pc}
 1626              	.LVL160:
 1627              	.L118:
 1628              	.LCFI30:
 1629              		.cfi_restore_state
 1630              	.LBB31:
 1631              	.LBB30:
 397:./Application/Src/file_transfer.c ****             FT_SendResponse(FT_RSP_ERROR, (uint8_t[]){FT_ERR_TIMEOUT}, 1);
 1632              		.loc 1 397 13 is_stmt 1 view .LVU468
 1633 0026 FFF7FEFF 		bl	FT_Abort
 1634              	.LVL161:
 398:./Application/Src/file_transfer.c ****         }
 1635              		.loc 1 398 13 view .LVU469
 398:./Application/Src/file_transfer.c ****         }
 1636              		.loc 1 398 54 is_stmt 0 view .LVU470
 1637 002a 0723     		movs	r3, #7
 1638 002c 8DF80430 		strb	r3, [sp, #4]
 398:./Application/Src/file_transfer.c ****         }
 1639              		.loc 1 398 13 view .LVU471
 1640 0030 0122     		movs	r2, #1
 1641 0032 01A9     		add	r1, sp, #4
 1642 0034 A320     		movs	r0, #163
 1643 0036 FFF7FEFF 		bl	FT_SendResponse
 1644              	.LVL162:
 1645              	.LBE30:
ARM GAS  C:\Users\Xuleo\AppData\Local\Temp\ccz8fNTO.s 			page 41


 1646              	.LBE31:
 401:./Application/Src/file_transfer.c **** 
 1647              		.loc 1 401 1 view .LVU472
 1648 003a F2E7     		b	.L111
 1649              	.L120:
 1650              		.align	2
 1651              	.L119:
 1652 003c 00000000 		.word	ftContext
 1653              		.cfi_endproc
 1654              	.LFE169:
 1656              		.section	.text.FT_GetState,"ax",%progbits
 1657              		.align	1
 1658              		.global	FT_GetState
 1659              		.syntax unified
 1660              		.thumb
 1661              		.thumb_func
 1663              	FT_GetState:
 1664              	.LFB171:
 416:./Application/Src/file_transfer.c **** 
 417:./Application/Src/file_transfer.c **** /* Get current transfer state */
 418:./Application/Src/file_transfer.c **** FT_State_t FT_GetState(void)
 419:./Application/Src/file_transfer.c **** {
 1665              		.loc 1 419 1 is_stmt 1 view -0
 1666              		.cfi_startproc
 1667              		@ args = 0, pretend = 0, frame = 0
 1668              		@ frame_needed = 0, uses_anonymous_args = 0
 1669              		@ link register save eliminated.
 420:./Application/Src/file_transfer.c ****     return ftContext.state;
 1670              		.loc 1 420 5 view .LVU474
 421:./Application/Src/file_transfer.c **** }
 1671              		.loc 1 421 1 is_stmt 0 view .LVU475
 1672 0000 014B     		ldr	r3, .L122
 1673 0002 1878     		ldrb	r0, [r3]	@ zero_extendqisi2
 1674 0004 7047     		bx	lr
 1675              	.L123:
 1676 0006 00BF     		.align	2
 1677              	.L122:
 1678 0008 00000000 		.word	ftContext
 1679              		.cfi_endproc
 1680              	.LFE171:
 1682              		.section	.text.FT_GetProgress,"ax",%progbits
 1683              		.align	1
 1684              		.global	FT_GetProgress
 1685              		.syntax unified
 1686              		.thumb
 1687              		.thumb_func
 1689              	FT_GetProgress:
 1690              	.LFB172:
 422:./Application/Src/file_transfer.c **** 
 423:./Application/Src/file_transfer.c **** /* Get transfer progress (0-100) */
 424:./Application/Src/file_transfer.c **** uint8_t FT_GetProgress(void)
 425:./Application/Src/file_transfer.c **** {
 1691              		.loc 1 425 1 is_stmt 1 view -0
 1692              		.cfi_startproc
 1693              		@ args = 0, pretend = 0, frame = 0
 1694              		@ frame_needed = 0, uses_anonymous_args = 0
 1695              		@ link register save eliminated.
ARM GAS  C:\Users\Xuleo\AppData\Local\Temp\ccz8fNTO.s 			page 42


 426:./Application/Src/file_transfer.c ****     if (ftContext.state != FT_STATE_RECEIVING || ftContext.totalChunks == 0)
 1696              		.loc 1 426 5 view .LVU477
 1697              		.loc 1 426 18 is_stmt 0 view .LVU478
 1698 0000 0A4B     		ldr	r3, .L128
 1699 0002 1B78     		ldrb	r3, [r3]	@ zero_extendqisi2
 1700              		.loc 1 426 8 view .LVU479
 1701 0004 012B     		cmp	r3, #1
 1702 0006 0DD1     		bne	.L126
 1703              		.loc 1 426 59 discriminator 1 view .LVU480
 1704 0008 084B     		ldr	r3, .L128
 1705 000a B3F84032 		ldrh	r3, [r3, #576]
 1706              		.loc 1 426 47 discriminator 1 view .LVU481
 1707 000e 5BB1     		cbz	r3, .L127
 427:./Application/Src/file_transfer.c ****     {
 428:./Application/Src/file_transfer.c ****         return 0;
 429:./Application/Src/file_transfer.c ****     }
 430:./Application/Src/file_transfer.c ****     return (uint8_t)((ftContext.currentChunk * 100) / ftContext.totalChunks);
 1708              		.loc 1 430 5 is_stmt 1 view .LVU482
 1709              		.loc 1 430 32 is_stmt 0 view .LVU483
 1710 0010 064A     		ldr	r2, .L128
 1711 0012 B2F84202 		ldrh	r0, [r2, #578]
 1712              		.loc 1 430 46 view .LVU484
 1713 0016 6422     		movs	r2, #100
 1714 0018 02FB00F0 		mul	r0, r2, r0
 1715              		.loc 1 430 53 view .LVU485
 1716 001c 90FBF3F0 		sdiv	r0, r0, r3
 1717              		.loc 1 430 12 view .LVU486
 1718 0020 C0B2     		uxtb	r0, r0
 1719 0022 7047     		bx	lr
 1720              	.L126:
 428:./Application/Src/file_transfer.c ****     }
 1721              		.loc 1 428 16 view .LVU487
 1722 0024 0020     		movs	r0, #0
 1723 0026 7047     		bx	lr
 1724              	.L127:
 1725 0028 1846     		mov	r0, r3
 431:./Application/Src/file_transfer.c **** }
 1726              		.loc 1 431 1 view .LVU488
 1727 002a 7047     		bx	lr
 1728              	.L129:
 1729              		.align	2
 1730              	.L128:
 1731 002c 00000000 		.word	ftContext
 1732              		.cfi_endproc
 1733              	.LFE172:
 1735              		.section	.bss.lastCompletedTime,"aw",%nobits
 1736              		.align	2
 1739              	lastCompletedTime:
 1740 0000 00000000 		.space	4
 1741              		.section	.bss.lastCompletedBytes,"aw",%nobits
 1742              		.align	1
 1745              	lastCompletedBytes:
 1746 0000 0000     		.space	2
 1747              		.section	.bss.ftWriteBufferIndex,"aw",%nobits
 1748              		.align	1
 1751              	ftWriteBufferIndex:
 1752 0000 0000     		.space	2
ARM GAS  C:\Users\Xuleo\AppData\Local\Temp\ccz8fNTO.s 			page 43


 1753              		.section	.bss.ftWriteBuffer,"aw",%nobits
 1754              		.align	2
 1757              	ftWriteBuffer:
 1758 0000 00000000 		.space	512
 1758      00000000 
 1758      00000000 
 1758      00000000 
 1758      00000000 
 1759              		.section	.bss.ftContext,"aw",%nobits
 1760              		.align	2
 1763              	ftContext:
 1764 0000 00000000 		.space	588
 1764      00000000 
 1764      00000000 
 1764      00000000 
 1764      00000000 
 1765              		.text
 1766              	.Letext0:
 1767              		.file 2 "C:/thirdpartyLibs/arm-gnu-toolchain-15.2/arm-none-eabi/include/machine/_default_types.h"
 1768              		.file 3 "C:/thirdpartyLibs/arm-gnu-toolchain-15.2/arm-none-eabi/include/sys/_stdint.h"
 1769              		.file 4 "ThirdParty/FatFs/integer.h"
 1770              		.file 5 "ThirdParty/FatFs/ff.h"
 1771              		.file 6 "Application/Inc/file_transfer.h"
 1772              		.file 7 "C:/thirdpartyLibs/arm-gnu-toolchain-15.2/arm-none-eabi/include/stdio.h"
 1773              		.file 8 "C:/thirdpartyLibs/arm-gnu-toolchain-15.2/arm-none-eabi/include/string.h"
 1774              		.file 9 "Application/Inc/sdcard.h"
 1775              		.file 10 "Drivers/STM32H5xx_HAL_Driver/Inc/stm32h5xx_hal.h"
 1776              		.file 11 "<built-in>"
 1777              		.file 12 "Application/Inc/hc04bt.h"
ARM GAS  C:\Users\Xuleo\AppData\Local\Temp\ccz8fNTO.s 			page 44


DEFINED SYMBOLS
                            *ABS*:00000000 file_transfer.c
C:\Users\Xuleo\AppData\Local\Temp\ccz8fNTO.s:22     .text.FT_FlushWriteBuffer:00000000 $t
C:\Users\Xuleo\AppData\Local\Temp\ccz8fNTO.s:27     .text.FT_FlushWriteBuffer:00000000 FT_FlushWriteBuffer
C:\Users\Xuleo\AppData\Local\Temp\ccz8fNTO.s:103    .text.FT_FlushWriteBuffer:00000038 $d
C:\Users\Xuleo\AppData\Local\Temp\ccz8fNTO.s:1751   .bss.ftWriteBufferIndex:00000000 ftWriteBufferIndex
C:\Users\Xuleo\AppData\Local\Temp\ccz8fNTO.s:1757   .bss.ftWriteBuffer:00000000 ftWriteBuffer
C:\Users\Xuleo\AppData\Local\Temp\ccz8fNTO.s:1763   .bss.ftContext:00000000 ftContext
C:\Users\Xuleo\AppData\Local\Temp\ccz8fNTO.s:110    .text.FT_Init:00000000 $t
C:\Users\Xuleo\AppData\Local\Temp\ccz8fNTO.s:116    .text.FT_Init:00000000 FT_Init
C:\Users\Xuleo\AppData\Local\Temp\ccz8fNTO.s:145    .text.FT_Init:00000018 $d
C:\Users\Xuleo\AppData\Local\Temp\ccz8fNTO.s:151    .text.FT_CalculateChecksum:00000000 $t
C:\Users\Xuleo\AppData\Local\Temp\ccz8fNTO.s:157    .text.FT_CalculateChecksum:00000000 FT_CalculateChecksum
C:\Users\Xuleo\AppData\Local\Temp\ccz8fNTO.s:207    .text.FT_SendResponse:00000000 $t
C:\Users\Xuleo\AppData\Local\Temp\ccz8fNTO.s:213    .text.FT_SendResponse:00000000 FT_SendResponse
C:\Users\Xuleo\AppData\Local\Temp\ccz8fNTO.s:307    .rodata.FT_HandleFileStart.str1.4:00000000 $d
C:\Users\Xuleo\AppData\Local\Temp\ccz8fNTO.s:311    .text.FT_HandleFileStart:00000000 $t
C:\Users\Xuleo\AppData\Local\Temp\ccz8fNTO.s:316    .text.FT_HandleFileStart:00000000 FT_HandleFileStart
C:\Users\Xuleo\AppData\Local\Temp\ccz8fNTO.s:671    .text.FT_HandleFileStart:00000194 $d
C:\Users\Xuleo\AppData\Local\Temp\ccz8fNTO.s:681    .text.FT_HandleFileData:00000000 $t
C:\Users\Xuleo\AppData\Local\Temp\ccz8fNTO.s:686    .text.FT_HandleFileData:00000000 FT_HandleFileData
C:\Users\Xuleo\AppData\Local\Temp\ccz8fNTO.s:1023   .text.FT_HandleFileData:0000017c $d
C:\Users\Xuleo\AppData\Local\Temp\ccz8fNTO.s:1031   .text.FT_HandleFileEnd:00000000 $t
C:\Users\Xuleo\AppData\Local\Temp\ccz8fNTO.s:1036   .text.FT_HandleFileEnd:00000000 FT_HandleFileEnd
C:\Users\Xuleo\AppData\Local\Temp\ccz8fNTO.s:1362   .text.FT_HandleFileEnd:00000170 $d
C:\Users\Xuleo\AppData\Local\Temp\ccz8fNTO.s:1745   .bss.lastCompletedBytes:00000000 lastCompletedBytes
C:\Users\Xuleo\AppData\Local\Temp\ccz8fNTO.s:1739   .bss.lastCompletedTime:00000000 lastCompletedTime
C:\Users\Xuleo\AppData\Local\Temp\ccz8fNTO.s:1371   .text.FT_Abort:00000000 $t
C:\Users\Xuleo\AppData\Local\Temp\ccz8fNTO.s:1377   .text.FT_Abort:00000000 FT_Abort
C:\Users\Xuleo\AppData\Local\Temp\ccz8fNTO.s:1420   .text.FT_Abort:00000028 $d
C:\Users\Xuleo\AppData\Local\Temp\ccz8fNTO.s:1426   .text.FT_HandleFileAbort:00000000 $t
C:\Users\Xuleo\AppData\Local\Temp\ccz8fNTO.s:1431   .text.FT_HandleFileAbort:00000000 FT_HandleFileAbort
C:\Users\Xuleo\AppData\Local\Temp\ccz8fNTO.s:1457   .text.FT_ProcessPacket:00000000 $t
C:\Users\Xuleo\AppData\Local\Temp\ccz8fNTO.s:1463   .text.FT_ProcessPacket:00000000 FT_ProcessPacket
C:\Users\Xuleo\AppData\Local\Temp\ccz8fNTO.s:1570   .text.FT_TimeoutCheck:00000000 $t
C:\Users\Xuleo\AppData\Local\Temp\ccz8fNTO.s:1576   .text.FT_TimeoutCheck:00000000 FT_TimeoutCheck
C:\Users\Xuleo\AppData\Local\Temp\ccz8fNTO.s:1652   .text.FT_TimeoutCheck:0000003c $d
C:\Users\Xuleo\AppData\Local\Temp\ccz8fNTO.s:1657   .text.FT_GetState:00000000 $t
C:\Users\Xuleo\AppData\Local\Temp\ccz8fNTO.s:1663   .text.FT_GetState:00000000 FT_GetState
C:\Users\Xuleo\AppData\Local\Temp\ccz8fNTO.s:1678   .text.FT_GetState:00000008 $d
C:\Users\Xuleo\AppData\Local\Temp\ccz8fNTO.s:1683   .text.FT_GetProgress:00000000 $t
C:\Users\Xuleo\AppData\Local\Temp\ccz8fNTO.s:1689   .text.FT_GetProgress:00000000 FT_GetProgress
C:\Users\Xuleo\AppData\Local\Temp\ccz8fNTO.s:1731   .text.FT_GetProgress:0000002c $d
C:\Users\Xuleo\AppData\Local\Temp\ccz8fNTO.s:1736   .bss.lastCompletedTime:00000000 $d
C:\Users\Xuleo\AppData\Local\Temp\ccz8fNTO.s:1742   .bss.lastCompletedBytes:00000000 $d
C:\Users\Xuleo\AppData\Local\Temp\ccz8fNTO.s:1748   .bss.ftWriteBufferIndex:00000000 $d
C:\Users\Xuleo\AppData\Local\Temp\ccz8fNTO.s:1754   .bss.ftWriteBuffer:00000000 $d
C:\Users\Xuleo\AppData\Local\Temp\ccz8fNTO.s:1760   .bss.ftContext:00000000 $d

UNDEFINED SYMBOLS
f_write
memset
HC04_SendBytes
f_close
f_unlink
HAL_GetTick
snprintf
ARM GAS  C:\Users\Xuleo\AppData\Local\Temp\ccz8fNTO.s 			page 45


f_open
memcpy
f_sync
SD_ListTxtFiles
