ARM GAS  C:\Users\Xuleo\AppData\Local\Temp\ccF1qpEe.s 			page 1


   1              		.cpu cortex-m33
   2              		.arch armv8-m.main
   3              		.fpu fpv5-sp-d16
   4              		.arch_extension dsp
   5              		.eabi_attribute 27, 1
   6              		.eabi_attribute 28, 1
   7              		.eabi_attribute 20, 1
   8              		.eabi_attribute 21, 1
   9              		.eabi_attribute 23, 3
  10              		.eabi_attribute 24, 1
  11              		.eabi_attribute 25, 1
  12              		.eabi_attribute 26, 1
  13              		.eabi_attribute 30, 1
  14              		.eabi_attribute 34, 1
  15              		.eabi_attribute 18, 4
  16              		.file	"file_transfer.c"
  17              		.text
  18              	.Ltext0:
  19              		.cfi_sections	.debug_frame
  20              		.file 1 "./Application/Src/file_transfer.c"
  21              		.section	.text.FT_FlushWriteBuffer,"ax",%progbits
  22              		.align	1
  23              		.syntax unified
  24              		.thumb
  25              		.thumb_func
  27              	FT_FlushWriteBuffer:
  28              	.LFB359:
   1:./Application/Src/file_transfer.c **** #include <file_transfer.h>
   2:./Application/Src/file_transfer.c **** #include <hc04.h>
   3:./Application/Src/file_transfer.c **** #include <diskio.h>
   4:./Application/Src/file_transfer.c **** #include <string.h>
   5:./Application/Src/file_transfer.c **** #include <stdio.h>
   6:./Application/Src/file_transfer.c **** #include "stm32h5xx_hal.h"
   7:./Application/Src/file_transfer.c **** 
   8:./Application/Src/file_transfer.c **** /* Global transfer context */
   9:./Application/Src/file_transfer.c **** static FT_Context_t ftContext;
  10:./Application/Src/file_transfer.c **** 
  11:./Application/Src/file_transfer.c **** /* Write buffer for batching SD writes */
  12:./Application/Src/file_transfer.c **** #define FT_WRITE_BUFFER_SIZE 512 /* Match SD sector size */
  13:./Application/Src/file_transfer.c **** static uint8_t ftWriteBuffer[FT_WRITE_BUFFER_SIZE];
  14:./Application/Src/file_transfer.c **** static uint16_t ftWriteBufferIndex = 0;
  15:./Application/Src/file_transfer.c **** 
  16:./Application/Src/file_transfer.c **** /* Track last completed transfer for duplicate FILE_END handling */
  17:./Application/Src/file_transfer.c **** static uint16_t lastCompletedBytes = 0;
  18:./Application/Src/file_transfer.c **** static uint32_t lastCompletedTime = 0;
  19:./Application/Src/file_transfer.c **** volatile int RAM_track_index = 0;
  20:./Application/Src/file_transfer.c **** volatile int RAM_transfer_complete = 0;
  21:./Application/Src/file_transfer.c **** 
  22:./Application/Src/file_transfer.c **** /* Flush write buffer to SD card */
  23:./Application/Src/file_transfer.c **** static int FT_FlushWriteBuffer(void)
  24:./Application/Src/file_transfer.c **** {
  29              		.loc 1 24 1 view -0
  30              		.cfi_startproc
  31              		@ args = 0, pretend = 0, frame = 8
  32              		@ frame_needed = 0, uses_anonymous_args = 0
  25:./Application/Src/file_transfer.c ****     if (ftWriteBufferIndex == 0)
  33              		.loc 1 25 5 view .LVU1
ARM GAS  C:\Users\Xuleo\AppData\Local\Temp\ccF1qpEe.s 			page 2


  34              		.loc 1 25 28 is_stmt 0 view .LVU2
  35 0000 0D4B     		ldr	r3, .L11
  36 0002 1A88     		ldrh	r2, [r3]
  37              		.loc 1 25 8 view .LVU3
  38 0004 0AB9     		cbnz	r2, .L10
  26:./Application/Src/file_transfer.c ****         return 0;
  39              		.loc 1 26 16 view .LVU4
  40 0006 1046     		mov	r0, r2
  27:./Application/Src/file_transfer.c **** 
  28:./Application/Src/file_transfer.c ****     UINT bytesWritten;
  29:./Application/Src/file_transfer.c ****     FRESULT res = f_write(&ftContext.file, ftWriteBuffer, ftWriteBufferIndex, &bytesWritten);
  30:./Application/Src/file_transfer.c ****     if (res != FR_OK || bytesWritten != ftWriteBufferIndex)
  31:./Application/Src/file_transfer.c ****     {
  32:./Application/Src/file_transfer.c ****         return -1;
  33:./Application/Src/file_transfer.c ****     }
  34:./Application/Src/file_transfer.c ****     ftWriteBufferIndex = 0;
  35:./Application/Src/file_transfer.c ****     return 0;
  36:./Application/Src/file_transfer.c **** }
  41              		.loc 1 36 1 view .LVU5
  42 0008 7047     		bx	lr
  43              	.L10:
  24:./Application/Src/file_transfer.c ****     if (ftWriteBufferIndex == 0)
  44              		.loc 1 24 1 view .LVU6
  45 000a 00B5     		push	{lr}
  46              	.LCFI0:
  47              		.cfi_def_cfa_offset 4
  48              		.cfi_offset 14, -4
  49 000c 83B0     		sub	sp, sp, #12
  50              	.LCFI1:
  51              		.cfi_def_cfa_offset 16
  28:./Application/Src/file_transfer.c ****     FRESULT res = f_write(&ftContext.file, ftWriteBuffer, ftWriteBufferIndex, &bytesWritten);
  52              		.loc 1 28 5 is_stmt 1 view .LVU7
  29:./Application/Src/file_transfer.c ****     if (res != FR_OK || bytesWritten != ftWriteBufferIndex)
  53              		.loc 1 29 5 view .LVU8
  29:./Application/Src/file_transfer.c ****     if (res != FR_OK || bytesWritten != ftWriteBufferIndex)
  54              		.loc 1 29 19 is_stmt 0 view .LVU9
  55 000e 01AB     		add	r3, sp, #4
  56 0010 0A49     		ldr	r1, .L11+4
  57 0012 0B48     		ldr	r0, .L11+8
  58 0014 FFF7FEFF 		bl	f_write
  59              	.LVL0:
  30:./Application/Src/file_transfer.c ****     {
  60              		.loc 1 30 5 is_stmt 1 view .LVU10
  30:./Application/Src/file_transfer.c ****     {
  61              		.loc 1 30 8 is_stmt 0 view .LVU11
  62 0018 40B9     		cbnz	r0, .L4
  30:./Application/Src/file_transfer.c ****     {
  63              		.loc 1 30 38 discriminator 1 view .LVU12
  64 001a 074B     		ldr	r3, .L11
  65 001c 1A88     		ldrh	r2, [r3]
  66 001e 019B     		ldr	r3, [sp, #4]
  30:./Application/Src/file_transfer.c ****     {
  67              		.loc 1 30 22 discriminator 1 view .LVU13
  68 0020 9A42     		cmp	r2, r3
  69 0022 06D1     		bne	.L5
  34:./Application/Src/file_transfer.c ****     return 0;
  70              		.loc 1 34 5 is_stmt 1 view .LVU14
ARM GAS  C:\Users\Xuleo\AppData\Local\Temp\ccF1qpEe.s 			page 3


  34:./Application/Src/file_transfer.c ****     return 0;
  71              		.loc 1 34 24 is_stmt 0 view .LVU15
  72 0024 044B     		ldr	r3, .L11
  73 0026 1880     		strh	r0, [r3]	@ movhi
  35:./Application/Src/file_transfer.c **** }
  74              		.loc 1 35 5 is_stmt 1 view .LVU16
  75              	.LVL1:
  76              	.L1:
  77              		.loc 1 36 1 is_stmt 0 view .LVU17
  78 0028 03B0     		add	sp, sp, #12
  79              	.LCFI2:
  80              		.cfi_remember_state
  81              		.cfi_def_cfa_offset 4
  82              		@ sp needed
  83 002a 00BD     		pop	{pc}
  84              	.LVL2:
  85              	.L4:
  86              	.LCFI3:
  87              		.cfi_restore_state
  32:./Application/Src/file_transfer.c ****     }
  88              		.loc 1 32 16 view .LVU18
  89 002c 4FF0FF30 		mov	r0, #-1
  90              	.LVL3:
  32:./Application/Src/file_transfer.c ****     }
  91              		.loc 1 32 16 view .LVU19
  92 0030 FAE7     		b	.L1
  93              	.LVL4:
  94              	.L5:
  32:./Application/Src/file_transfer.c ****     }
  95              		.loc 1 32 16 view .LVU20
  96 0032 4FF0FF30 		mov	r0, #-1
  97              	.LVL5:
  32:./Application/Src/file_transfer.c ****     }
  98              		.loc 1 32 16 view .LVU21
  99 0036 F7E7     		b	.L1
 100              	.L12:
 101              		.align	2
 102              	.L11:
 103 0038 00000000 		.word	ftWriteBufferIndex
 104 003c 00000000 		.word	ftWriteBuffer
 105 0040 04000000 		.word	ftContext+4
 106              		.cfi_endproc
 107              	.LFE359:
 109              		.section	.text.FT_Init,"ax",%progbits
 110              		.align	1
 111              		.global	FT_Init
 112              		.syntax unified
 113              		.thumb
 114              		.thumb_func
 116              	FT_Init:
 117              	.LFB360:
  37:./Application/Src/file_transfer.c **** 
  38:./Application/Src/file_transfer.c **** /* Initialize file transfer module */
  39:./Application/Src/file_transfer.c **** void FT_Init(void)
  40:./Application/Src/file_transfer.c **** {
 118              		.loc 1 40 1 is_stmt 1 view -0
 119              		.cfi_startproc
ARM GAS  C:\Users\Xuleo\AppData\Local\Temp\ccF1qpEe.s 			page 4


 120              		@ args = 0, pretend = 0, frame = 0
 121              		@ frame_needed = 0, uses_anonymous_args = 0
 122 0000 08B5     		push	{r3, lr}
 123              	.LCFI4:
 124              		.cfi_def_cfa_offset 8
 125              		.cfi_offset 3, -8
 126              		.cfi_offset 14, -4
  41:./Application/Src/file_transfer.c ****     memset(&ftContext, 0, sizeof(ftContext));
 127              		.loc 1 41 5 view .LVU23
 128 0002 4FF41472 		mov	r2, #592
 129 0006 0021     		movs	r1, #0
 130 0008 0348     		ldr	r0, .L15
 131 000a FFF7FEFF 		bl	memset
 132              	.LVL6:
  42:./Application/Src/file_transfer.c ****     ftContext.state = FT_STATE_IDLE;
 133              		.loc 1 42 5 view .LVU24
  43:./Application/Src/file_transfer.c ****     ftContext.errorCode = FT_ERR_NONE;
 134              		.loc 1 43 5 view .LVU25
  44:./Application/Src/file_transfer.c ****     ftWriteBufferIndex = 0;
 135              		.loc 1 44 5 view .LVU26
 136              		.loc 1 44 24 is_stmt 0 view .LVU27
 137 000e 034B     		ldr	r3, .L15+4
 138 0010 0022     		movs	r2, #0
 139 0012 1A80     		strh	r2, [r3]	@ movhi
  45:./Application/Src/file_transfer.c **** }
 140              		.loc 1 45 1 view .LVU28
 141 0014 08BD     		pop	{r3, pc}
 142              	.L16:
 143 0016 00BF     		.align	2
 144              	.L15:
 145 0018 00000000 		.word	ftContext
 146 001c 00000000 		.word	ftWriteBufferIndex
 147              		.cfi_endproc
 148              	.LFE360:
 150              		.section	.text.FT_CalculateChecksum,"ax",%progbits
 151              		.align	1
 152              		.global	FT_CalculateChecksum
 153              		.syntax unified
 154              		.thumb
 155              		.thumb_func
 157              	FT_CalculateChecksum:
 158              	.LVL7:
 159              	.LFB361:
  46:./Application/Src/file_transfer.c **** 
  47:./Application/Src/file_transfer.c **** /* Calculate XOR checksum */
  48:./Application/Src/file_transfer.c **** uint8_t FT_CalculateChecksum(uint8_t *data, uint16_t length)
  49:./Application/Src/file_transfer.c **** {
 160              		.loc 1 49 1 is_stmt 1 view -0
 161              		.cfi_startproc
 162              		@ args = 0, pretend = 0, frame = 0
 163              		@ frame_needed = 0, uses_anonymous_args = 0
 164              		@ link register save eliminated.
 165              		.loc 1 49 1 is_stmt 0 view .LVU30
 166 0000 8446     		mov	ip, r0
  50:./Application/Src/file_transfer.c ****     uint8_t checksum = 0;
 167              		.loc 1 50 5 is_stmt 1 view .LVU31
 168              	.LVL8:
ARM GAS  C:\Users\Xuleo\AppData\Local\Temp\ccF1qpEe.s 			page 5


  51:./Application/Src/file_transfer.c ****     for (uint16_t i = 0; i < length; i++)
 169              		.loc 1 51 5 view .LVU32
 170              	.LBB2:
 171              		.loc 1 51 10 view .LVU33
 172              		.loc 1 51 19 is_stmt 0 view .LVU34
 173 0002 0023     		movs	r3, #0
 174              	.LBE2:
  50:./Application/Src/file_transfer.c ****     uint8_t checksum = 0;
 175              		.loc 1 50 13 view .LVU35
 176 0004 1846     		mov	r0, r3
 177              	.LVL9:
 178              	.LBB3:
 179              		.loc 1 51 5 view .LVU36
 180 0006 04E0     		b	.L18
 181              	.LVL10:
 182              	.L19:
  52:./Application/Src/file_transfer.c ****     {
  53:./Application/Src/file_transfer.c ****         checksum ^= data[i];
 183              		.loc 1 53 9 is_stmt 1 view .LVU37
 184              		.loc 1 53 25 is_stmt 0 view .LVU38
 185 0008 1CF80320 		ldrb	r2, [ip, r3]	@ zero_extendqisi2
 186              		.loc 1 53 18 view .LVU39
 187 000c 5040     		eors	r0, r0, r2
 188              	.LVL11:
  51:./Application/Src/file_transfer.c ****     for (uint16_t i = 0; i < length; i++)
 189              		.loc 1 51 39 is_stmt 1 discriminator 3 view .LVU40
 190 000e 0133     		adds	r3, r3, #1
 191              	.LVL12:
  51:./Application/Src/file_transfer.c ****     for (uint16_t i = 0; i < length; i++)
 192              		.loc 1 51 39 is_stmt 0 discriminator 3 view .LVU41
 193 0010 9BB2     		uxth	r3, r3
 194              	.LVL13:
 195              	.L18:
  51:./Application/Src/file_transfer.c ****     for (uint16_t i = 0; i < length; i++)
 196              		.loc 1 51 28 is_stmt 1 discriminator 1 view .LVU42
 197 0012 8B42     		cmp	r3, r1
 198 0014 F8D3     		bcc	.L19
 199              	.LBE3:
  54:./Application/Src/file_transfer.c ****     }
  55:./Application/Src/file_transfer.c ****     return checksum;
 200              		.loc 1 55 5 view .LVU43
  56:./Application/Src/file_transfer.c **** }
 201              		.loc 1 56 1 is_stmt 0 view .LVU44
 202 0016 7047     		bx	lr
 203              		.cfi_endproc
 204              	.LFE361:
 206              		.section	.text.RAM_CalculateChecksum,"ax",%progbits
 207              		.align	1
 208              		.global	RAM_CalculateChecksum
 209              		.syntax unified
 210              		.thumb
 211              		.thumb_func
 213              	RAM_CalculateChecksum:
 214              	.LVL14:
 215              	.LFB362:
  57:./Application/Src/file_transfer.c **** 
  58:./Application/Src/file_transfer.c **** 
ARM GAS  C:\Users\Xuleo\AppData\Local\Temp\ccF1qpEe.s 			page 6


  59:./Application/Src/file_transfer.c **** /* Calculate XOR checksum for RAM-based file transfer */
  60:./Application/Src/file_transfer.c **** uint8_t RAM_CalculateChecksum(uint8_t *data, uint16_t length){
 216              		.loc 1 60 62 is_stmt 1 view -0
 217              		.cfi_startproc
 218              		@ args = 0, pretend = 0, frame = 0
 219              		@ frame_needed = 0, uses_anonymous_args = 0
 220              		@ link register save eliminated.
 221              		.loc 1 60 62 is_stmt 0 view .LVU46
 222 0000 8446     		mov	ip, r0
  61:./Application/Src/file_transfer.c ****     uint8_t checksum = 0;
 223              		.loc 1 61 5 is_stmt 1 view .LVU47
 224              	.LVL15:
  62:./Application/Src/file_transfer.c ****     for (uint16_t i = 0; i < length; i++)
 225              		.loc 1 62 5 view .LVU48
 226              	.LBB4:
 227              		.loc 1 62 10 view .LVU49
 228              		.loc 1 62 19 is_stmt 0 view .LVU50
 229 0002 0023     		movs	r3, #0
 230              	.LBE4:
  61:./Application/Src/file_transfer.c ****     uint8_t checksum = 0;
 231              		.loc 1 61 13 view .LVU51
 232 0004 1846     		mov	r0, r3
 233              	.LVL16:
 234              	.LBB5:
 235              		.loc 1 62 5 view .LVU52
 236 0006 04E0     		b	.L21
 237              	.LVL17:
 238              	.L22:
  63:./Application/Src/file_transfer.c ****     {
  64:./Application/Src/file_transfer.c ****         checksum ^= data[i];
 239              		.loc 1 64 9 is_stmt 1 view .LVU53
 240              		.loc 1 64 25 is_stmt 0 view .LVU54
 241 0008 1CF80320 		ldrb	r2, [ip, r3]	@ zero_extendqisi2
 242              		.loc 1 64 18 view .LVU55
 243 000c 5040     		eors	r0, r0, r2
 244              	.LVL18:
  62:./Application/Src/file_transfer.c ****     for (uint16_t i = 0; i < length; i++)
 245              		.loc 1 62 39 is_stmt 1 discriminator 3 view .LVU56
 246 000e 0133     		adds	r3, r3, #1
 247              	.LVL19:
  62:./Application/Src/file_transfer.c ****     for (uint16_t i = 0; i < length; i++)
 248              		.loc 1 62 39 is_stmt 0 discriminator 3 view .LVU57
 249 0010 9BB2     		uxth	r3, r3
 250              	.LVL20:
 251              	.L21:
  62:./Application/Src/file_transfer.c ****     for (uint16_t i = 0; i < length; i++)
 252              		.loc 1 62 28 is_stmt 1 discriminator 1 view .LVU58
 253 0012 8B42     		cmp	r3, r1
 254 0014 F8D3     		bcc	.L22
 255              	.LBE5:
  65:./Application/Src/file_transfer.c ****     }
  66:./Application/Src/file_transfer.c ****     return checksum;
 256              		.loc 1 66 5 view .LVU59
  67:./Application/Src/file_transfer.c **** }
 257              		.loc 1 67 1 is_stmt 0 view .LVU60
 258 0016 7047     		bx	lr
 259              		.cfi_endproc
ARM GAS  C:\Users\Xuleo\AppData\Local\Temp\ccF1qpEe.s 			page 7


 260              	.LFE362:
 262              		.section	.text.FT_SendResponse,"ax",%progbits
 263              		.align	1
 264              		.global	FT_SendResponse
 265              		.syntax unified
 266              		.thumb
 267              		.thumb_func
 269              	FT_SendResponse:
 270              	.LVL21:
 271              	.LFB363:
  68:./Application/Src/file_transfer.c **** 
  69:./Application/Src/file_transfer.c **** /* Send response packet to PC (blocking – responses are tiny, 2-8 bytes) */
  70:./Application/Src/file_transfer.c **** void FT_SendResponse(uint8_t responseCode, uint8_t *data, uint8_t dataLen)
  71:./Application/Src/file_transfer.c **** {
 272              		.loc 1 71 1 is_stmt 1 view -0
 273              		.cfi_startproc
 274              		@ args = 0, pretend = 0, frame = 8
 275              		@ frame_needed = 0, uses_anonymous_args = 0
 276              		.loc 1 71 1 is_stmt 0 view .LVU62
 277 0000 30B5     		push	{r4, r5, lr}
 278              	.LCFI5:
 279              		.cfi_def_cfa_offset 12
 280              		.cfi_offset 4, -12
 281              		.cfi_offset 5, -8
 282              		.cfi_offset 14, -4
 283 0002 83B0     		sub	sp, sp, #12
 284              	.LCFI6:
 285              		.cfi_def_cfa_offset 24
  72:./Application/Src/file_transfer.c ****     uint8_t response[8];
 286              		.loc 1 72 5 is_stmt 1 view .LVU63
  73:./Application/Src/file_transfer.c ****     uint8_t idx = 0;
 287              		.loc 1 73 5 view .LVU64
  74:./Application/Src/file_transfer.c **** 
  75:./Application/Src/file_transfer.c ****     response[idx++] = responseCode;
 288              		.loc 1 75 5 view .LVU65
 289              	.LVL22:
 290              		.loc 1 75 21 is_stmt 0 view .LVU66
 291 0004 8DF80000 		strb	r0, [sp]
  76:./Application/Src/file_transfer.c ****     for (uint8_t i = 0; i < dataLen; i++)
 292              		.loc 1 76 5 is_stmt 1 view .LVU67
 293              	.LBB6:
 294              		.loc 1 76 10 view .LVU68
 295              	.LVL23:
 296              		.loc 1 76 18 is_stmt 0 view .LVU69
 297 0008 0023     		movs	r3, #0
 298              	.LBE6:
  75:./Application/Src/file_transfer.c ****     for (uint8_t i = 0; i < dataLen; i++)
 299              		.loc 1 75 17 view .LVU70
 300 000a 0124     		movs	r4, #1
 301              	.LBB7:
 302              		.loc 1 76 5 view .LVU71
 303 000c 09E0     		b	.L24
 304              	.LVL24:
 305              	.L25:
  77:./Application/Src/file_transfer.c ****     {
  78:./Application/Src/file_transfer.c ****         response[idx++] = data[i];
 306              		.loc 1 78 9 is_stmt 1 view .LVU72
ARM GAS  C:\Users\Xuleo\AppData\Local\Temp\ccF1qpEe.s 			page 8


 307              		.loc 1 78 21 is_stmt 0 view .LVU73
 308 000e 601C     		adds	r0, r4, #1
 309              	.LVL25:
 310              		.loc 1 78 31 view .LVU74
 311 0010 11F803C0 		ldrb	ip, [r1, r3]	@ zero_extendqisi2
 312              		.loc 1 78 25 view .LVU75
 313 0014 0834     		adds	r4, r4, #8
 314 0016 6C44     		add	r4, sp, r4
 315 0018 04F808CC 		strb	ip, [r4, #-8]
  76:./Application/Src/file_transfer.c ****     {
 316              		.loc 1 76 39 is_stmt 1 discriminator 3 view .LVU76
 317 001c 0133     		adds	r3, r3, #1
 318              	.LVL26:
  76:./Application/Src/file_transfer.c ****     {
 319              		.loc 1 76 39 is_stmt 0 discriminator 3 view .LVU77
 320 001e DBB2     		uxtb	r3, r3
 321              	.LVL27:
 322              		.loc 1 78 21 view .LVU78
 323 0020 C4B2     		uxtb	r4, r0
 324              	.LVL28:
 325              	.L24:
  76:./Application/Src/file_transfer.c ****     {
 326              		.loc 1 76 27 is_stmt 1 discriminator 1 view .LVU79
 327 0022 9342     		cmp	r3, r2
 328 0024 F3D3     		bcc	.L25
 329              	.LBE7:
  79:./Application/Src/file_transfer.c ****     }
  80:./Application/Src/file_transfer.c ****     response[idx] = FT_CalculateChecksum(response, idx);
 330              		.loc 1 80 5 view .LVU80
 331              		.loc 1 80 21 is_stmt 0 view .LVU81
 332 0026 2146     		mov	r1, r4
 333              	.LVL29:
 334              		.loc 1 80 21 view .LVU82
 335 0028 6846     		mov	r0, sp
 336 002a FFF7FEFF 		bl	FT_CalculateChecksum
 337              	.LVL30:
 338              		.loc 1 80 19 discriminator 1 view .LVU83
 339 002e 04F10803 		add	r3, r4, #8
 340 0032 6B44     		add	r3, sp, r3
 341 0034 03F8080C 		strb	r0, [r3, #-8]
  81:./Application/Src/file_transfer.c ****     idx++;
 342              		.loc 1 81 5 is_stmt 1 view .LVU84
 343              		.loc 1 81 8 is_stmt 0 view .LVU85
 344 0038 621C     		adds	r2, r4, #1
 345              	.LVL31:
  82:./Application/Src/file_transfer.c **** 
  83:./Application/Src/file_transfer.c ****     HAL_UART_Transmit(&huart1, response, idx, 50);
 346              		.loc 1 83 5 is_stmt 1 view .LVU86
 347 003a 3223     		movs	r3, #50
 348 003c D2B2     		uxtb	r2, r2
 349              		.loc 1 83 5 is_stmt 0 view .LVU87
 350 003e 6946     		mov	r1, sp
 351 0040 0248     		ldr	r0, .L27
 352 0042 FFF7FEFF 		bl	HAL_UART_Transmit
 353              	.LVL32:
  84:./Application/Src/file_transfer.c **** }
 354              		.loc 1 84 1 view .LVU88
ARM GAS  C:\Users\Xuleo\AppData\Local\Temp\ccF1qpEe.s 			page 9


 355 0046 03B0     		add	sp, sp, #12
 356              	.LCFI7:
 357              		.cfi_def_cfa_offset 12
 358              		@ sp needed
 359 0048 30BD     		pop	{r4, r5, pc}
 360              	.LVL33:
 361              	.L28:
 362              		.loc 1 84 1 view .LVU89
 363 004a 00BF     		.align	2
 364              	.L27:
 365 004c 00000000 		.word	huart1
 366              		.cfi_endproc
 367              	.LFE363:
 369              		.section	.rodata.FT_HandleFileStart.str1.4,"aMS",%progbits,1
 370              		.align	2
 371              	.LC0:
 372 0000 25732573 		.ascii	"%s%s\000"
 372      00
 373              		.section	.text.FT_HandleFileStart,"ax",%progbits
 374              		.align	1
 375              		.syntax unified
 376              		.thumb
 377              		.thumb_func
 379              	FT_HandleFileStart:
 380              	.LVL34:
 381              	.LFB364:
  85:./Application/Src/file_transfer.c **** 
  86:./Application/Src/file_transfer.c **** /* Handle FILE_START packet */
  87:./Application/Src/file_transfer.c **** static int FT_HandleFileStart(uint8_t *packet, uint16_t length)
  88:./Application/Src/file_transfer.c **** {
 382              		.loc 1 88 1 is_stmt 1 view -0
 383              		.cfi_startproc
 384              		@ args = 0, pretend = 0, frame = 32
 385              		@ frame_needed = 0, uses_anonymous_args = 0
 386              		.loc 1 88 1 is_stmt 0 view .LVU91
 387 0000 F0B5     		push	{r4, r5, r6, r7, lr}
 388              	.LCFI8:
 389              		.cfi_def_cfa_offset 20
 390              		.cfi_offset 4, -20
 391              		.cfi_offset 5, -16
 392              		.cfi_offset 6, -12
 393              		.cfi_offset 7, -8
 394              		.cfi_offset 14, -4
 395 0002 8BB0     		sub	sp, sp, #44
 396              	.LCFI9:
 397              		.cfi_def_cfa_offset 64
  89:./Application/Src/file_transfer.c ****     if (length < FT_FILE_START_SIZE)
 398              		.loc 1 89 5 is_stmt 1 view .LVU92
 399              		.loc 1 89 8 is_stmt 0 view .LVU93
 400 0004 1129     		cmp	r1, #17
 401 0006 37D9     		bls	.L48
 402 0008 0446     		mov	r4, r0
  90:./Application/Src/file_transfer.c ****     {
  91:./Application/Src/file_transfer.c ****         FT_SendResponse(FT_RSP_ERROR, (uint8_t[]){FT_ERR_OVERFLOW}, 1);
  92:./Application/Src/file_transfer.c ****         return -1;
  93:./Application/Src/file_transfer.c ****     }
  94:./Application/Src/file_transfer.c **** 
ARM GAS  C:\Users\Xuleo\AppData\Local\Temp\ccF1qpEe.s 			page 10


  95:./Application/Src/file_transfer.c ****     /* Verify checksum */
  96:./Application/Src/file_transfer.c ****     if (FT_CalculateChecksum(packet, length - 1) != packet[length - 1])
 403              		.loc 1 96 5 is_stmt 1 view .LVU94
 404              		.loc 1 96 9 is_stmt 0 view .LVU95
 405 000a 4D1E     		subs	r5, r1, #1
 406 000c A9B2     		uxth	r1, r5
 407              	.LVL35:
 408              		.loc 1 96 9 view .LVU96
 409 000e FFF7FEFF 		bl	FT_CalculateChecksum
 410              	.LVL36:
 411              		.loc 1 96 59 discriminator 1 view .LVU97
 412 0012 635D     		ldrb	r3, [r4, r5]	@ zero_extendqisi2
 413              		.loc 1 96 8 discriminator 1 view .LVU98
 414 0014 9842     		cmp	r0, r3
 415 0016 3AD1     		bne	.L49
  97:./Application/Src/file_transfer.c ****     {
  98:./Application/Src/file_transfer.c ****         FT_SendResponse(FT_RSP_NAK, (uint8_t[]){0, 0, FT_ERR_CHECKSUM}, 3);
  99:./Application/Src/file_transfer.c ****         return -1;
 100:./Application/Src/file_transfer.c ****     }
 101:./Application/Src/file_transfer.c **** 
 102:./Application/Src/file_transfer.c ****     /* If already receiving and got another FILE_START, PC didn't get our READY */
 103:./Application/Src/file_transfer.c ****     /* Re-send READY if we're at chunk 0 (just started), otherwise abort and restart */
 104:./Application/Src/file_transfer.c ****     if (ftContext.state == FT_STATE_RECEIVING)
 416              		.loc 1 104 5 is_stmt 1 view .LVU99
 417              		.loc 1 104 18 is_stmt 0 view .LVU100
 418 0018 5E4B     		ldr	r3, .L54
 419 001a 1B78     		ldrb	r3, [r3]	@ zero_extendqisi2
 420              		.loc 1 104 8 view .LVU101
 421 001c 012B     		cmp	r3, #1
 422 001e 11D1     		bne	.L33
 105:./Application/Src/file_transfer.c ****     {
 106:./Application/Src/file_transfer.c ****         if (ftContext.currentChunk == 0)
 423              		.loc 1 106 9 is_stmt 1 view .LVU102
 424              		.loc 1 106 22 is_stmt 0 view .LVU103
 425 0020 5C4B     		ldr	r3, .L54
 426 0022 B3F84632 		ldrh	r3, [r3, #582]
 427              		.loc 1 106 12 view .LVU104
 428 0026 002B     		cmp	r3, #0
 429 0028 41D0     		beq	.L50
 107:./Application/Src/file_transfer.c ****         {
 108:./Application/Src/file_transfer.c ****             /* Just re-send READY - PC retried because it didn't get our response */
 109:./Application/Src/file_transfer.c ****             FT_SendResponse(FT_RSP_READY, NULL, 0);
 110:./Application/Src/file_transfer.c ****             ftContext.lastActivityTime = HAL_GetTick();
 111:./Application/Src/file_transfer.c ****             return 0;
 112:./Application/Src/file_transfer.c ****         }
 113:./Application/Src/file_transfer.c ****         else
 114:./Application/Src/file_transfer.c ****         {
 115:./Application/Src/file_transfer.c ****             /* Mid-transfer FILE_START means something went wrong - abort and restart */
 116:./Application/Src/file_transfer.c ****             f_close(&ftContext.file);
 430              		.loc 1 116 13 is_stmt 1 view .LVU105
 431 002a 5B4D     		ldr	r5, .L54+4
 432              	.LVL37:
 433              		.loc 1 116 13 is_stmt 0 view .LVU106
 434 002c 2846     		mov	r0, r5
 435 002e FFF7FEFF 		bl	f_close
 436              	.LVL38:
 117:./Application/Src/file_transfer.c ****             f_unlink(ftContext.filename);
ARM GAS  C:\Users\Xuleo\AppData\Local\Temp\ccF1qpEe.s 			page 11


 437              		.loc 1 117 13 is_stmt 1 view .LVU107
 438 0032 05F50A70 		add	r0, r5, #552
 439 0036 FFF7FEFF 		bl	f_unlink
 440              	.LVL39:
 118:./Application/Src/file_transfer.c ****             ftContext.state = FT_STATE_IDLE;
 441              		.loc 1 118 13 view .LVU108
 442              		.loc 1 118 29 is_stmt 0 view .LVU109
 443 003a 0023     		movs	r3, #0
 444 003c 05F8043C 		strb	r3, [r5, #-4]
 119:./Application/Src/file_transfer.c ****             ftWriteBufferIndex = 0;
 445              		.loc 1 119 13 is_stmt 1 view .LVU110
 446              		.loc 1 119 32 is_stmt 0 view .LVU111
 447 0040 564A     		ldr	r2, .L54+8
 448 0042 1380     		strh	r3, [r2]	@ movhi
 449              	.L33:
 120:./Application/Src/file_transfer.c ****         }
 121:./Application/Src/file_transfer.c ****     }
 122:./Application/Src/file_transfer.c **** 
 123:./Application/Src/file_transfer.c ****     /* Parse file info */
 124:./Application/Src/file_transfer.c ****     uint16_t fileSize = packet[1] | (packet[2] << 8);
 450              		.loc 1 124 5 is_stmt 1 view .LVU112
 451              		.loc 1 124 31 is_stmt 0 view .LVU113
 452 0044 6378     		ldrb	r3, [r4, #1]	@ zero_extendqisi2
 453              		.loc 1 124 44 view .LVU114
 454 0046 A278     		ldrb	r2, [r4, #2]	@ zero_extendqisi2
 455              		.loc 1 124 14 view .LVU115
 456 0048 43EA0223 		orr	r3, r3, r2, lsl #8
 457 004c 1E46     		mov	r6, r3
 458              	.LVL40:
 125:./Application/Src/file_transfer.c ****     uint16_t totalChunks = packet[3] | (packet[4] << 8);
 459              		.loc 1 125 5 is_stmt 1 view .LVU116
 460              		.loc 1 125 34 is_stmt 0 view .LVU117
 461 004e E378     		ldrb	r3, [r4, #3]	@ zero_extendqisi2
 462              		.loc 1 125 47 view .LVU118
 463 0050 2279     		ldrb	r2, [r4, #4]	@ zero_extendqisi2
 464              		.loc 1 125 14 view .LVU119
 465 0052 43EA0223 		orr	r3, r3, r2, lsl #8
 466 0056 1F46     		mov	r7, r3
 467              	.LVL41:
 126:./Application/Src/file_transfer.c **** 
 127:./Application/Src/file_transfer.c ****     /* Build filename from 8.3 format */
 128:./Application/Src/file_transfer.c ****     char name[9], ext[5];
 468              		.loc 1 128 5 is_stmt 1 view .LVU120
 129:./Application/Src/file_transfer.c ****     memcpy(name, &packet[5], 8);
 469              		.loc 1 129 5 view .LVU121
 470 0058 05AB     		add	r3, sp, #20
 471 005a D4F80500 		ldr	r0, [r4, #5]	@ unaligned
 472 005e D4F80910 		ldr	r1, [r4, #9]	@ unaligned
 473 0062 03C3     		stmia	r3!, {r0, r1}
 130:./Application/Src/file_transfer.c ****     name[8] = '\0';
 474              		.loc 1 130 5 view .LVU122
 475              		.loc 1 130 13 is_stmt 0 view .LVU123
 476 0064 0023     		movs	r3, #0
 477 0066 8DF81C30 		strb	r3, [sp, #28]
 131:./Application/Src/file_transfer.c ****     memcpy(ext, &packet[13], 4);
 478              		.loc 1 131 5 is_stmt 1 view .LVU124
 479 006a D4F80D20 		ldr	r2, [r4, #13]	@ unaligned
ARM GAS  C:\Users\Xuleo\AppData\Local\Temp\ccF1qpEe.s 			page 12


 480 006e 0392     		str	r2, [sp, #12]
 132:./Application/Src/file_transfer.c ****     ext[4] = '\0';
 481              		.loc 1 132 5 view .LVU125
 482              		.loc 1 132 12 is_stmt 0 view .LVU126
 483 0070 8DF81030 		strb	r3, [sp, #16]
 133:./Application/Src/file_transfer.c **** 
 134:./Application/Src/file_transfer.c ****     /* Trim trailing spaces/nulls from name */
 135:./Application/Src/file_transfer.c ****     for (int i = 7; i >= 0; i--)
 484              		.loc 1 135 5 is_stmt 1 view .LVU127
 485              	.LBB8:
 486              		.loc 1 135 10 view .LVU128
 487              	.LVL42:
 488              		.loc 1 135 14 is_stmt 0 view .LVU129
 489 0074 0723     		movs	r3, #7
 490              		.loc 1 135 5 view .LVU130
 491 0076 2DE0     		b	.L35
 492              	.LVL43:
 493              	.L48:
 494              		.loc 1 135 5 view .LVU131
 495              	.LBE8:
 496              	.LBB9:
  91:./Application/Src/file_transfer.c ****         return -1;
 497              		.loc 1 91 9 is_stmt 1 view .LVU132
  91:./Application/Src/file_transfer.c ****         return -1;
 498              		.loc 1 91 50 is_stmt 0 view .LVU133
 499 0078 0823     		movs	r3, #8
 500 007a 8DF82030 		strb	r3, [sp, #32]
  91:./Application/Src/file_transfer.c ****         return -1;
 501              		.loc 1 91 9 view .LVU134
 502 007e 0122     		movs	r2, #1
 503 0080 08A9     		add	r1, sp, #32
 504              	.LVL44:
  91:./Application/Src/file_transfer.c ****         return -1;
 505              		.loc 1 91 9 view .LVU135
 506 0082 A320     		movs	r0, #163
 507              	.LVL45:
  91:./Application/Src/file_transfer.c ****         return -1;
 508              		.loc 1 91 9 view .LVU136
 509 0084 FFF7FEFF 		bl	FT_SendResponse
 510              	.LVL46:
  92:./Application/Src/file_transfer.c ****     }
 511              		.loc 1 92 9 is_stmt 1 view .LVU137
  92:./Application/Src/file_transfer.c ****     }
 512              		.loc 1 92 16 is_stmt 0 view .LVU138
 513 0088 4FF0FF30 		mov	r0, #-1
 514 008c 6EE0     		b	.L29
 515              	.LVL47:
 516              	.L49:
  92:./Application/Src/file_transfer.c ****     }
 517              		.loc 1 92 16 view .LVU139
 518              	.LBE9:
 519              	.LBB10:
  98:./Application/Src/file_transfer.c ****         return -1;
 520              		.loc 1 98 9 is_stmt 1 view .LVU140
  98:./Application/Src/file_transfer.c ****         return -1;
 521              		.loc 1 98 48 is_stmt 0 view .LVU141
 522 008e 0023     		movs	r3, #0
ARM GAS  C:\Users\Xuleo\AppData\Local\Temp\ccF1qpEe.s 			page 13


 523 0090 8DF82430 		strb	r3, [sp, #36]
 524 0094 8DF82530 		strb	r3, [sp, #37]
 525 0098 0123     		movs	r3, #1
 526 009a 8DF82630 		strb	r3, [sp, #38]
  98:./Application/Src/file_transfer.c ****         return -1;
 527              		.loc 1 98 9 view .LVU142
 528 009e 0322     		movs	r2, #3
 529 00a0 09A9     		add	r1, sp, #36
 530 00a2 A120     		movs	r0, #161
 531 00a4 FFF7FEFF 		bl	FT_SendResponse
 532              	.LVL48:
  99:./Application/Src/file_transfer.c ****     }
 533              		.loc 1 99 9 is_stmt 1 view .LVU143
  99:./Application/Src/file_transfer.c ****     }
 534              		.loc 1 99 16 is_stmt 0 view .LVU144
 535 00a8 4FF0FF30 		mov	r0, #-1
 536 00ac 5EE0     		b	.L29
 537              	.L50:
 538              	.LBE10:
 109:./Application/Src/file_transfer.c ****             ftContext.lastActivityTime = HAL_GetTick();
 539              		.loc 1 109 13 is_stmt 1 view .LVU145
 540 00ae 1A46     		mov	r2, r3
 541 00b0 1946     		mov	r1, r3
 542 00b2 A220     		movs	r0, #162
 543 00b4 FFF7FEFF 		bl	FT_SendResponse
 544              	.LVL49:
 110:./Application/Src/file_transfer.c ****             return 0;
 545              		.loc 1 110 13 view .LVU146
 110:./Application/Src/file_transfer.c ****             return 0;
 546              		.loc 1 110 42 is_stmt 0 view .LVU147
 547 00b8 FFF7FEFF 		bl	HAL_GetTick
 548              	.LVL50:
 110:./Application/Src/file_transfer.c ****             return 0;
 549              		.loc 1 110 40 discriminator 1 view .LVU148
 550 00bc 354B     		ldr	r3, .L54
 551 00be C3F84802 		str	r0, [r3, #584]
 111:./Application/Src/file_transfer.c ****         }
 552              		.loc 1 111 13 is_stmt 1 view .LVU149
 111:./Application/Src/file_transfer.c ****         }
 553              		.loc 1 111 20 is_stmt 0 view .LVU150
 554 00c2 0020     		movs	r0, #0
 555 00c4 52E0     		b	.L29
 556              	.LVL51:
 557              	.L36:
 558              	.LBB11:
 136:./Application/Src/file_transfer.c ****     {
 137:./Application/Src/file_transfer.c ****         if (name[i] == ' ' || name[i] == '\0')
 138:./Application/Src/file_transfer.c ****         {
 139:./Application/Src/file_transfer.c ****             name[i] = '\0';
 559              		.loc 1 139 13 is_stmt 1 view .LVU151
 560              		.loc 1 139 21 is_stmt 0 view .LVU152
 561 00c6 03F12802 		add	r2, r3, #40
 562 00ca 6A44     		add	r2, sp, r2
 563 00cc 0021     		movs	r1, #0
 564 00ce 02F8141C 		strb	r1, [r2, #-20]
 135:./Application/Src/file_transfer.c ****     {
 565              		.loc 1 135 30 is_stmt 1 discriminator 2 view .LVU153
ARM GAS  C:\Users\Xuleo\AppData\Local\Temp\ccF1qpEe.s 			page 14


 566 00d2 013B     		subs	r3, r3, #1
 567              	.LVL52:
 568              	.L35:
 135:./Application/Src/file_transfer.c ****     {
 569              		.loc 1 135 23 discriminator 1 view .LVU154
 570 00d4 002B     		cmp	r3, #0
 571 00d6 0ADB     		blt	.L51
 137:./Application/Src/file_transfer.c ****         {
 572              		.loc 1 137 9 view .LVU155
 137:./Application/Src/file_transfer.c ****         {
 573              		.loc 1 137 17 is_stmt 0 view .LVU156
 574 00d8 03F12802 		add	r2, r3, #40
 575 00dc 6A44     		add	r2, sp, r2
 576 00de 12F8142C 		ldrb	r2, [r2, #-20]	@ zero_extendqisi2
 137:./Application/Src/file_transfer.c ****         {
 577              		.loc 1 137 12 view .LVU157
 578 00e2 202A     		cmp	r2, #32
 579 00e4 EFD0     		beq	.L36
 137:./Application/Src/file_transfer.c ****         {
 580              		.loc 1 137 28 discriminator 1 view .LVU158
 581 00e6 002A     		cmp	r2, #0
 582 00e8 EDD0     		beq	.L36
 583 00ea 0323     		movs	r3, #3
 584              	.LVL53:
 137:./Application/Src/file_transfer.c ****         {
 585              		.loc 1 137 28 discriminator 1 view .LVU159
 586 00ec 08E0     		b	.L41
 587              	.LVL54:
 588              	.L51:
 137:./Application/Src/file_transfer.c ****         {
 589              		.loc 1 137 28 discriminator 1 view .LVU160
 590 00ee 0323     		movs	r3, #3
 591              	.LVL55:
 137:./Application/Src/file_transfer.c ****         {
 592              		.loc 1 137 28 discriminator 1 view .LVU161
 593 00f0 06E0     		b	.L41
 594              	.LVL56:
 595              	.L39:
 137:./Application/Src/file_transfer.c ****         {
 596              		.loc 1 137 28 discriminator 1 view .LVU162
 597              	.LBE11:
 598              	.LBB12:
 140:./Application/Src/file_transfer.c ****         }
 141:./Application/Src/file_transfer.c ****         else
 142:./Application/Src/file_transfer.c ****         {
 143:./Application/Src/file_transfer.c ****             break;
 144:./Application/Src/file_transfer.c ****         }
 145:./Application/Src/file_transfer.c ****     }
 146:./Application/Src/file_transfer.c **** 
 147:./Application/Src/file_transfer.c ****     /* Trim trailing spaces/nulls from extension */
 148:./Application/Src/file_transfer.c ****     for (int i = 3; i >= 0; i--)
 149:./Application/Src/file_transfer.c ****     {
 150:./Application/Src/file_transfer.c ****         if (ext[i] == ' ' || ext[i] == '\0')
 151:./Application/Src/file_transfer.c ****         {
 152:./Application/Src/file_transfer.c ****             ext[i] = '\0';
 599              		.loc 1 152 13 is_stmt 1 view .LVU163
 600              		.loc 1 152 20 is_stmt 0 view .LVU164
ARM GAS  C:\Users\Xuleo\AppData\Local\Temp\ccF1qpEe.s 			page 15


 601 00f2 03F12802 		add	r2, r3, #40
 602 00f6 6A44     		add	r2, sp, r2
 603 00f8 0021     		movs	r1, #0
 604 00fa 02F81C1C 		strb	r1, [r2, #-28]
 148:./Application/Src/file_transfer.c ****     {
 605              		.loc 1 148 30 is_stmt 1 discriminator 2 view .LVU165
 606 00fe 013B     		subs	r3, r3, #1
 607              	.LVL57:
 608              	.L41:
 148:./Application/Src/file_transfer.c ****     {
 609              		.loc 1 148 23 discriminator 1 view .LVU166
 610 0100 002B     		cmp	r3, #0
 611 0102 08DB     		blt	.L40
 150:./Application/Src/file_transfer.c ****         {
 612              		.loc 1 150 9 view .LVU167
 150:./Application/Src/file_transfer.c ****         {
 613              		.loc 1 150 16 is_stmt 0 view .LVU168
 614 0104 03F12802 		add	r2, r3, #40
 615 0108 6A44     		add	r2, sp, r2
 616 010a 12F81C2C 		ldrb	r2, [r2, #-28]	@ zero_extendqisi2
 150:./Application/Src/file_transfer.c ****         {
 617              		.loc 1 150 12 view .LVU169
 618 010e 202A     		cmp	r2, #32
 619 0110 EFD0     		beq	.L39
 150:./Application/Src/file_transfer.c ****         {
 620              		.loc 1 150 27 discriminator 1 view .LVU170
 621 0112 002A     		cmp	r2, #0
 622 0114 EDD0     		beq	.L39
 623              	.L40:
 624              	.LBE12:
 153:./Application/Src/file_transfer.c ****         }
 154:./Application/Src/file_transfer.c ****         else
 155:./Application/Src/file_transfer.c ****         {
 156:./Application/Src/file_transfer.c ****             break;
 157:./Application/Src/file_transfer.c ****         }
 158:./Application/Src/file_transfer.c ****     }
 159:./Application/Src/file_transfer.c **** 
 160:./Application/Src/file_transfer.c ****     /* Combine name and extension */
 161:./Application/Src/file_transfer.c ****     snprintf(ftContext.filename, sizeof(ftContext.filename), "%s%s", name, ext);
 625              		.loc 1 161 5 is_stmt 1 view .LVU171
 626 0116 224C     		ldr	r4, .L54+12
 627              	.LVL58:
 628              		.loc 1 161 5 is_stmt 0 view .LVU172
 629 0118 03AB     		add	r3, sp, #12
 630              	.LVL59:
 631              		.loc 1 161 5 view .LVU173
 632 011a 0093     		str	r3, [sp]
 633 011c 05AB     		add	r3, sp, #20
 634 011e 214A     		ldr	r2, .L54+16
 635 0120 0D21     		movs	r1, #13
 636 0122 2046     		mov	r0, r4
 637 0124 FFF7FEFF 		bl	snprintf
 638              	.LVL60:
 162:./Application/Src/file_transfer.c **** 
 163:./Application/Src/file_transfer.c ****     /* Open file for writing (create or overwrite) */
 164:./Application/Src/file_transfer.c ****     FRESULT res = f_open(&ftContext.file, ftContext.filename,
 639              		.loc 1 164 5 is_stmt 1 view .LVU174
ARM GAS  C:\Users\Xuleo\AppData\Local\Temp\ccF1qpEe.s 			page 16


 640              		.loc 1 164 19 is_stmt 0 view .LVU175
 641 0128 0A22     		movs	r2, #10
 642 012a 2146     		mov	r1, r4
 643 012c A4F50A70 		sub	r0, r4, #552
 644 0130 FFF7FEFF 		bl	f_open
 645              	.LVL61:
 165:./Application/Src/file_transfer.c ****                          FA_WRITE | FA_CREATE_ALWAYS);
 166:./Application/Src/file_transfer.c ****     if (res != FR_OK)
 646              		.loc 1 166 5 is_stmt 1 view .LVU176
 647              		.loc 1 166 8 is_stmt 0 view .LVU177
 648 0134 0346     		mov	r3, r0
 649 0136 D8B9     		cbnz	r0, .L52
 167:./Application/Src/file_transfer.c ****     {
 168:./Application/Src/file_transfer.c ****         /* Send error with the actual FRESULT so we can debug */
 169:./Application/Src/file_transfer.c ****         uint8_t errData[2];
 170:./Application/Src/file_transfer.c ****         errData[0] = (res == FR_DISK_ERR) ? FT_ERR_SD_WRITE : FT_ERR_SD_FULL;
 171:./Application/Src/file_transfer.c ****         errData[1] = (uint8_t)res; /* raw FRESULT for debug */
 172:./Application/Src/file_transfer.c ****         FT_SendResponse(FT_RSP_ERROR, errData, 2);
 173:./Application/Src/file_transfer.c ****         return -1;
 174:./Application/Src/file_transfer.c ****     }
 175:./Application/Src/file_transfer.c **** 
 176:./Application/Src/file_transfer.c ****     /* Initialize context */
 177:./Application/Src/file_transfer.c ****     ftContext.state = FT_STATE_RECEIVING;
 650              		.loc 1 177 5 is_stmt 1 view .LVU178
 651              		.loc 1 177 21 is_stmt 0 view .LVU179
 652 0138 164D     		ldr	r5, .L54
 653 013a 0123     		movs	r3, #1
 654 013c 2B70     		strb	r3, [r5]
 178:./Application/Src/file_transfer.c ****     ftContext.expectedSize = fileSize;
 655              		.loc 1 178 5 is_stmt 1 view .LVU180
 656              		.loc 1 178 28 is_stmt 0 view .LVU181
 657 013e C5F83C62 		str	r6, [r5, #572]
 179:./Application/Src/file_transfer.c ****     ftContext.totalChunks = totalChunks;
 658              		.loc 1 179 5 is_stmt 1 view .LVU182
 659              		.loc 1 179 27 is_stmt 0 view .LVU183
 660 0142 A5F84472 		strh	r7, [r5, #580]	@ movhi
 180:./Application/Src/file_transfer.c ****     ftContext.currentChunk = 0;
 661              		.loc 1 180 5 is_stmt 1 view .LVU184
 662              		.loc 1 180 28 is_stmt 0 view .LVU185
 663 0146 0446     		mov	r4, r0
 664 0148 A5F84602 		strh	r0, [r5, #582]	@ movhi
 181:./Application/Src/file_transfer.c ****     ftContext.bytesReceived = 0;
 665              		.loc 1 181 5 is_stmt 1 view .LVU186
 666              		.loc 1 181 29 is_stmt 0 view .LVU187
 667 014c C5F84002 		str	r0, [r5, #576]
 182:./Application/Src/file_transfer.c ****     ftContext.lastActivityTime = HAL_GetTick();
 668              		.loc 1 182 5 is_stmt 1 view .LVU188
 669              		.loc 1 182 34 is_stmt 0 view .LVU189
 670 0150 FFF7FEFF 		bl	HAL_GetTick
 671              	.LVL62:
 672              		.loc 1 182 32 discriminator 1 view .LVU190
 673 0154 C5F84802 		str	r0, [r5, #584]
 183:./Application/Src/file_transfer.c ****     ftContext.errorCode = FT_ERR_NONE;
 674              		.loc 1 183 5 is_stmt 1 view .LVU191
 675              		.loc 1 183 25 is_stmt 0 view .LVU192
 676 0158 4FF00003 		mov	r3, #0	@ movhi
 677 015c 85F84C32 		strb	r3, [r5, #588]
ARM GAS  C:\Users\Xuleo\AppData\Local\Temp\ccF1qpEe.s 			page 17


 184:./Application/Src/file_transfer.c **** 
 185:./Application/Src/file_transfer.c ****     FT_SendResponse(FT_RSP_READY, NULL, 0);
 678              		.loc 1 185 5 is_stmt 1 view .LVU193
 679 0160 2246     		mov	r2, r4
 680 0162 2146     		mov	r1, r4
 681 0164 A220     		movs	r0, #162
 682 0166 FFF7FEFF 		bl	FT_SendResponse
 683              	.LVL63:
 186:./Application/Src/file_transfer.c ****     return 0;
 684              		.loc 1 186 5 view .LVU194
 685              		.loc 1 186 12 is_stmt 0 view .LVU195
 686 016a 2046     		mov	r0, r4
 687              	.LVL64:
 688              	.L29:
 187:./Application/Src/file_transfer.c **** }
 689              		.loc 1 187 1 view .LVU196
 690 016c 0BB0     		add	sp, sp, #44
 691              	.LCFI10:
 692              		.cfi_remember_state
 693              		.cfi_def_cfa_offset 20
 694              		@ sp needed
 695 016e F0BD     		pop	{r4, r5, r6, r7, pc}
 696              	.LVL65:
 697              	.L52:
 698              	.LCFI11:
 699              		.cfi_restore_state
 700              	.LBB13:
 169:./Application/Src/file_transfer.c ****         errData[0] = (res == FR_DISK_ERR) ? FT_ERR_SD_WRITE : FT_ERR_SD_FULL;
 701              		.loc 1 169 9 is_stmt 1 view .LVU197
 170:./Application/Src/file_transfer.c ****         errData[1] = (uint8_t)res; /* raw FRESULT for debug */
 702              		.loc 1 170 9 view .LVU198
 170:./Application/Src/file_transfer.c ****         errData[1] = (uint8_t)res; /* raw FRESULT for debug */
 703              		.loc 1 170 20 is_stmt 0 view .LVU199
 704 0170 0128     		cmp	r0, #1
 705 0172 0CD0     		beq	.L53
 170:./Application/Src/file_transfer.c ****         errData[1] = (uint8_t)res; /* raw FRESULT for debug */
 706              		.loc 1 170 20 discriminator 2 view .LVU200
 707 0174 0422     		movs	r2, #4
 708              	.L44:
 170:./Application/Src/file_transfer.c ****         errData[1] = (uint8_t)res; /* raw FRESULT for debug */
 709              		.loc 1 170 20 discriminator 4 view .LVU201
 710 0176 8DF80820 		strb	r2, [sp, #8]
 171:./Application/Src/file_transfer.c ****         FT_SendResponse(FT_RSP_ERROR, errData, 2);
 711              		.loc 1 171 9 is_stmt 1 view .LVU202
 171:./Application/Src/file_transfer.c ****         FT_SendResponse(FT_RSP_ERROR, errData, 2);
 712              		.loc 1 171 20 is_stmt 0 view .LVU203
 713 017a 8DF80930 		strb	r3, [sp, #9]
 172:./Application/Src/file_transfer.c ****         return -1;
 714              		.loc 1 172 9 is_stmt 1 view .LVU204
 715 017e 0222     		movs	r2, #2
 716 0180 02A9     		add	r1, sp, #8
 717 0182 A320     		movs	r0, #163
 718              	.LVL66:
 172:./Application/Src/file_transfer.c ****         return -1;
 719              		.loc 1 172 9 is_stmt 0 view .LVU205
 720 0184 FFF7FEFF 		bl	FT_SendResponse
 721              	.LVL67:
ARM GAS  C:\Users\Xuleo\AppData\Local\Temp\ccF1qpEe.s 			page 18


 173:./Application/Src/file_transfer.c ****     }
 722              		.loc 1 173 9 is_stmt 1 view .LVU206
 173:./Application/Src/file_transfer.c ****     }
 723              		.loc 1 173 16 is_stmt 0 view .LVU207
 724 0188 4FF0FF30 		mov	r0, #-1
 725 018c EEE7     		b	.L29
 726              	.LVL68:
 727              	.L53:
 170:./Application/Src/file_transfer.c ****         errData[1] = (uint8_t)res; /* raw FRESULT for debug */
 728              		.loc 1 170 20 discriminator 1 view .LVU208
 729 018e 0322     		movs	r2, #3
 730 0190 F1E7     		b	.L44
 731              	.L55:
 732 0192 00BF     		.align	2
 733              	.L54:
 734 0194 00000000 		.word	ftContext
 735 0198 04000000 		.word	ftContext+4
 736 019c 00000000 		.word	ftWriteBufferIndex
 737 01a0 2C020000 		.word	ftContext+556
 738 01a4 00000000 		.word	.LC0
 739              	.LBE13:
 740              		.cfi_endproc
 741              	.LFE364:
 743              		.section	.text.FT_HandleFileData,"ax",%progbits
 744              		.align	1
 745              		.syntax unified
 746              		.thumb
 747              		.thumb_func
 749              	FT_HandleFileData:
 750              	.LVL69:
 751              	.LFB365:
 188:./Application/Src/file_transfer.c **** 
 189:./Application/Src/file_transfer.c **** /* Handle FILE_DATA packet */
 190:./Application/Src/file_transfer.c **** static int FT_HandleFileData(uint8_t *packet, uint16_t length)
 191:./Application/Src/file_transfer.c **** {
 752              		.loc 1 191 1 is_stmt 1 view -0
 753              		.cfi_startproc
 754              		@ args = 0, pretend = 0, frame = 16
 755              		@ frame_needed = 0, uses_anonymous_args = 0
 756              		.loc 1 191 1 is_stmt 0 view .LVU210
 757 0000 2DE9F043 		push	{r4, r5, r6, r7, r8, r9, lr}
 758              	.LCFI12:
 759              		.cfi_def_cfa_offset 28
 760              		.cfi_offset 4, -28
 761              		.cfi_offset 5, -24
 762              		.cfi_offset 6, -20
 763              		.cfi_offset 7, -16
 764              		.cfi_offset 8, -12
 765              		.cfi_offset 9, -8
 766              		.cfi_offset 14, -4
 767 0004 85B0     		sub	sp, sp, #20
 768              	.LCFI13:
 769              		.cfi_def_cfa_offset 48
 192:./Application/Src/file_transfer.c ****     if (ftContext.state != FT_STATE_RECEIVING)
 770              		.loc 1 192 5 is_stmt 1 view .LVU211
 771              		.loc 1 192 18 is_stmt 0 view .LVU212
 772 0006 5D4B     		ldr	r3, .L73
ARM GAS  C:\Users\Xuleo\AppData\Local\Temp\ccF1qpEe.s 			page 19


 773 0008 1B78     		ldrb	r3, [r3]	@ zero_extendqisi2
 774              		.loc 1 192 8 view .LVU213
 775 000a 012B     		cmp	r3, #1
 776 000c 4ED1     		bne	.L66
 777 000e 0546     		mov	r5, r0
 193:./Application/Src/file_transfer.c ****     {
 194:./Application/Src/file_transfer.c ****         FT_SendResponse(FT_RSP_ERROR, (uint8_t[]){FT_ERR_SEQUENCE}, 1);
 195:./Application/Src/file_transfer.c ****         return -1;
 196:./Application/Src/file_transfer.c ****     }
 197:./Application/Src/file_transfer.c **** 
 198:./Application/Src/file_transfer.c ****     if (length < 5)
 778              		.loc 1 198 5 is_stmt 1 view .LVU214
 779              		.loc 1 198 8 is_stmt 0 view .LVU215
 780 0010 0429     		cmp	r1, #4
 781 0012 56D9     		bls	.L67
 199:./Application/Src/file_transfer.c ****     {
 200:./Application/Src/file_transfer.c ****         FT_SendResponse(FT_RSP_ERROR, (uint8_t[]){FT_ERR_OVERFLOW}, 1);
 201:./Application/Src/file_transfer.c ****         return -1;
 202:./Application/Src/file_transfer.c ****     }
 203:./Application/Src/file_transfer.c **** 
 204:./Application/Src/file_transfer.c ****     uint16_t chunkIndex = packet[1] | (packet[2] << 8);
 782              		.loc 1 204 5 is_stmt 1 view .LVU216
 783              		.loc 1 204 33 is_stmt 0 view .LVU217
 784 0014 4478     		ldrb	r4, [r0, #1]	@ zero_extendqisi2
 785              		.loc 1 204 46 view .LVU218
 786 0016 8378     		ldrb	r3, [r0, #2]	@ zero_extendqisi2
 787              		.loc 1 204 37 view .LVU219
 788 0018 44EA0324 		orr	r4, r4, r3, lsl #8
 789 001c 0FFA84F8 		sxth	r8, r4
 790              	.LVL70:
 205:./Application/Src/file_transfer.c ****     uint8_t dataLen = packet[3];
 791              		.loc 1 205 5 is_stmt 1 view .LVU220
 792              		.loc 1 205 13 is_stmt 0 view .LVU221
 793 0020 C678     		ldrb	r6, [r0, #3]	@ zero_extendqisi2
 794              	.LVL71:
 206:./Application/Src/file_transfer.c **** 
 207:./Application/Src/file_transfer.c ****     /* Verify we have enough data */
 208:./Application/Src/file_transfer.c ****     if (length < (uint16_t)(5 + dataLen))
 795              		.loc 1 208 5 is_stmt 1 view .LVU222
 796              		.loc 1 208 18 is_stmt 0 view .LVU223
 797 0022 731D     		adds	r3, r6, #5
 798              		.loc 1 208 8 view .LVU224
 799 0024 8B42     		cmp	r3, r1
 800 0026 57D8     		bhi	.L68
 209:./Application/Src/file_transfer.c ****     {
 210:./Application/Src/file_transfer.c ****         uint8_t nakData[] = {chunkIndex & 0xFF, chunkIndex >> 8, FT_ERR_OVERFLOW};
 211:./Application/Src/file_transfer.c ****         FT_SendResponse(FT_RSP_NAK, nakData, 3);
 212:./Application/Src/file_transfer.c ****         return -1;
 213:./Application/Src/file_transfer.c ****     }
 214:./Application/Src/file_transfer.c **** 
 215:./Application/Src/file_transfer.c ****     /* Verify checksum */
 216:./Application/Src/file_transfer.c ****     if (FT_CalculateChecksum(packet, 4 + dataLen) != packet[4 + dataLen])
 801              		.loc 1 216 5 is_stmt 1 view .LVU225
 802              		.loc 1 216 9 is_stmt 0 view .LVU226
 803 0028 311D     		adds	r1, r6, #4
 804              	.LVL72:
 805              		.loc 1 216 9 view .LVU227
ARM GAS  C:\Users\Xuleo\AppData\Local\Temp\ccF1qpEe.s 			page 20


 806 002a FFF7FEFF 		bl	FT_CalculateChecksum
 807              	.LVL73:
 808              		.loc 1 216 63 discriminator 1 view .LVU228
 809 002e 331D     		adds	r3, r6, #4
 810              		.loc 1 216 60 discriminator 1 view .LVU229
 811 0030 EB5C     		ldrb	r3, [r5, r3]	@ zero_extendqisi2
 812              		.loc 1 216 8 discriminator 1 view .LVU230
 813 0032 9842     		cmp	r0, r3
 814 0034 60D1     		bne	.L69
 217:./Application/Src/file_transfer.c ****     {
 218:./Application/Src/file_transfer.c ****         uint8_t nakData[] = {chunkIndex & 0xFF, chunkIndex >> 8, FT_ERR_CHECKSUM};
 219:./Application/Src/file_transfer.c ****         FT_SendResponse(FT_RSP_NAK, nakData, 3);
 220:./Application/Src/file_transfer.c ****         return -1;
 221:./Application/Src/file_transfer.c ****     }
 222:./Application/Src/file_transfer.c **** 
 223:./Application/Src/file_transfer.c ****     /* Handle DUPLICATE packet (PC retried because ACK was lost) */
 224:./Application/Src/file_transfer.c ****     /* If we receive the chunk we JUST processed, re-ACK without re-writing */
 225:./Application/Src/file_transfer.c ****     if (chunkIndex == ftContext.currentChunk - 1 && ftContext.currentChunk > 0)
 815              		.loc 1 225 5 is_stmt 1 view .LVU231
 816              		.loc 1 225 32 is_stmt 0 view .LVU232
 817 0036 514B     		ldr	r3, .L73
 818 0038 B3F84632 		ldrh	r3, [r3, #582]
 819              		.loc 1 225 46 view .LVU233
 820 003c 5A1E     		subs	r2, r3, #1
 821              		.loc 1 225 8 view .LVU234
 822 003e 9442     		cmp	r4, r2
 823 0040 6AD0     		beq	.L70
 824              	.L62:
 226:./Application/Src/file_transfer.c ****     {
 227:./Application/Src/file_transfer.c ****         /* Duplicate of last successful chunk - just re-send ACK */
 228:./Application/Src/file_transfer.c ****         uint8_t ackData[] = {chunkIndex & 0xFF, chunkIndex >> 8};
 229:./Application/Src/file_transfer.c ****         FT_SendResponse(FT_RSP_ACK, ackData, 2);
 230:./Application/Src/file_transfer.c ****         ftContext.lastActivityTime = HAL_GetTick();
 231:./Application/Src/file_transfer.c ****         return 0; /* Success - no data written */
 232:./Application/Src/file_transfer.c ****     }
 233:./Application/Src/file_transfer.c **** 
 234:./Application/Src/file_transfer.c ****     /* Verify sequence - must be the expected chunk */
 235:./Application/Src/file_transfer.c ****     if (chunkIndex != ftContext.currentChunk)
 825              		.loc 1 235 5 is_stmt 1 view .LVU235
 826              		.loc 1 235 8 is_stmt 0 view .LVU236
 827 0042 A342     		cmp	r3, r4
 828 0044 7BD1     		bne	.L71
 236:./Application/Src/file_transfer.c ****     {
 237:./Application/Src/file_transfer.c ****         uint8_t nakData[] = {chunkIndex & 0xFF, chunkIndex >> 8, FT_ERR_SEQUENCE};
 238:./Application/Src/file_transfer.c ****         FT_SendResponse(FT_RSP_NAK, nakData, 3);
 239:./Application/Src/file_transfer.c ****         return -1;
 240:./Application/Src/file_transfer.c ****     }
 241:./Application/Src/file_transfer.c **** 
 242:./Application/Src/file_transfer.c ****     /* Copy data to write buffer */
 243:./Application/Src/file_transfer.c ****     memcpy(&ftWriteBuffer[ftWriteBufferIndex], &packet[4], dataLen);
 829              		.loc 1 243 5 is_stmt 1 view .LVU237
 830              		.loc 1 243 26 is_stmt 0 view .LVU238
 831 0046 DFF83C91 		ldr	r9, .L73+8
 832 004a B9F80070 		ldrh	r7, [r9]
 833              		.loc 1 243 5 view .LVU239
 834 004e 3246     		mov	r2, r6
 835 0050 291D     		adds	r1, r5, #4
ARM GAS  C:\Users\Xuleo\AppData\Local\Temp\ccF1qpEe.s 			page 21


 836 0052 4B48     		ldr	r0, .L73+4
 837 0054 3844     		add	r0, r0, r7
 838 0056 FFF7FEFF 		bl	memcpy
 839              	.LVL74:
 244:./Application/Src/file_transfer.c ****     ftWriteBufferIndex += dataLen;
 840              		.loc 1 244 5 is_stmt 1 view .LVU240
 841              		.loc 1 244 24 is_stmt 0 view .LVU241
 842 005a 3744     		add	r7, r7, r6
 843 005c BFB2     		uxth	r7, r7
 844 005e A9F80070 		strh	r7, [r9]	@ movhi
 245:./Application/Src/file_transfer.c ****     ftContext.bytesReceived += dataLen;
 845              		.loc 1 245 5 is_stmt 1 view .LVU242
 846              		.loc 1 245 14 is_stmt 0 view .LVU243
 847 0062 464B     		ldr	r3, .L73
 848 0064 D3F84022 		ldr	r2, [r3, #576]
 849              		.loc 1 245 29 view .LVU244
 850 0068 1644     		add	r6, r6, r2
 851              	.LVL75:
 852              		.loc 1 245 29 view .LVU245
 853 006a C3F84062 		str	r6, [r3, #576]
 246:./Application/Src/file_transfer.c **** 
 247:./Application/Src/file_transfer.c ****     /* Flush buffer when full (512 bytes = 1 SD sector) */
 248:./Application/Src/file_transfer.c ****     if (ftWriteBufferIndex >= FT_WRITE_BUFFER_SIZE)
 854              		.loc 1 248 5 is_stmt 1 view .LVU246
 855              		.loc 1 248 8 is_stmt 0 view .LVU247
 856 006e B7F5007F 		cmp	r7, #512
 857 0072 03D3     		bcc	.L64
 249:./Application/Src/file_transfer.c ****     {
 250:./Application/Src/file_transfer.c ****         if (FT_FlushWriteBuffer() != 0)
 858              		.loc 1 250 9 is_stmt 1 view .LVU248
 859              		.loc 1 250 13 is_stmt 0 view .LVU249
 860 0074 FFF7FEFF 		bl	FT_FlushWriteBuffer
 861              	.LVL76:
 862              		.loc 1 250 12 discriminator 1 view .LVU250
 863 0078 0028     		cmp	r0, #0
 864 007a 70D1     		bne	.L72
 865              	.L64:
 251:./Application/Src/file_transfer.c ****         {
 252:./Application/Src/file_transfer.c ****             uint8_t nakData[] = {chunkIndex & 0xFF, chunkIndex >> 8, FT_ERR_SD_WRITE};
 253:./Application/Src/file_transfer.c ****             FT_SendResponse(FT_RSP_NAK, nakData, 3);
 254:./Application/Src/file_transfer.c ****             return -1;
 255:./Application/Src/file_transfer.c ****         }
 256:./Application/Src/file_transfer.c ****     }
 257:./Application/Src/file_transfer.c **** 
 258:./Application/Src/file_transfer.c ****     /* Update context */
 259:./Application/Src/file_transfer.c ****     ftContext.currentChunk++;
 866              		.loc 1 259 5 is_stmt 1 view .LVU251
 867              		.loc 1 259 14 is_stmt 0 view .LVU252
 868 007c 3F4D     		ldr	r5, .L73
 869              	.LVL77:
 870              		.loc 1 259 14 view .LVU253
 871 007e B5F84632 		ldrh	r3, [r5, #582]
 872              		.loc 1 259 27 view .LVU254
 873 0082 0133     		adds	r3, r3, #1
 874 0084 A5F84632 		strh	r3, [r5, #582]	@ movhi
 260:./Application/Src/file_transfer.c ****     ftContext.lastActivityTime = HAL_GetTick();
 875              		.loc 1 260 5 is_stmt 1 view .LVU255
ARM GAS  C:\Users\Xuleo\AppData\Local\Temp\ccF1qpEe.s 			page 22


 876              		.loc 1 260 34 is_stmt 0 view .LVU256
 877 0088 FFF7FEFF 		bl	HAL_GetTick
 878              	.LVL78:
 879              		.loc 1 260 32 discriminator 1 view .LVU257
 880 008c C5F84802 		str	r0, [r5, #584]
 261:./Application/Src/file_transfer.c **** 
 262:./Application/Src/file_transfer.c ****     /* Send ACK */
 263:./Application/Src/file_transfer.c ****     uint8_t ackData[] = {chunkIndex & 0xFF, chunkIndex >> 8};
 881              		.loc 1 263 5 is_stmt 1 view .LVU258
 882              		.loc 1 263 13 is_stmt 0 view .LVU259
 883 0090 8DF80480 		strb	r8, [sp, #4]
 884 0094 240A     		lsrs	r4, r4, #8
 885              	.LVL79:
 886              		.loc 1 263 13 view .LVU260
 887 0096 8DF80540 		strb	r4, [sp, #5]
 264:./Application/Src/file_transfer.c ****     FT_SendResponse(FT_RSP_ACK, ackData, 2);
 888              		.loc 1 264 5 is_stmt 1 view .LVU261
 889 009a 0222     		movs	r2, #2
 890 009c 01A9     		add	r1, sp, #4
 891 009e A020     		movs	r0, #160
 892 00a0 FFF7FEFF 		bl	FT_SendResponse
 893              	.LVL80:
 265:./Application/Src/file_transfer.c ****     return 0;
 894              		.loc 1 265 5 view .LVU262
 895              		.loc 1 265 12 is_stmt 0 view .LVU263
 896 00a4 0020     		movs	r0, #0
 897              	.LVL81:
 898              	.L56:
 266:./Application/Src/file_transfer.c **** }
 899              		.loc 1 266 1 view .LVU264
 900 00a6 05B0     		add	sp, sp, #20
 901              	.LCFI14:
 902              		.cfi_remember_state
 903              		.cfi_def_cfa_offset 28
 904              		@ sp needed
 905 00a8 BDE8F083 		pop	{r4, r5, r6, r7, r8, r9, pc}
 906              	.LVL82:
 907              	.L66:
 908              	.LCFI15:
 909              		.cfi_restore_state
 910              	.LBB14:
 194:./Application/Src/file_transfer.c ****         return -1;
 911              		.loc 1 194 9 is_stmt 1 view .LVU265
 194:./Application/Src/file_transfer.c ****         return -1;
 912              		.loc 1 194 50 is_stmt 0 view .LVU266
 913 00ac 0223     		movs	r3, #2
 914 00ae 8DF80830 		strb	r3, [sp, #8]
 194:./Application/Src/file_transfer.c ****         return -1;
 915              		.loc 1 194 9 view .LVU267
 916 00b2 0122     		movs	r2, #1
 917 00b4 02A9     		add	r1, sp, #8
 918              	.LVL83:
 194:./Application/Src/file_transfer.c ****         return -1;
 919              		.loc 1 194 9 view .LVU268
 920 00b6 A320     		movs	r0, #163
 921              	.LVL84:
 194:./Application/Src/file_transfer.c ****         return -1;
ARM GAS  C:\Users\Xuleo\AppData\Local\Temp\ccF1qpEe.s 			page 23


 922              		.loc 1 194 9 view .LVU269
 923 00b8 FFF7FEFF 		bl	FT_SendResponse
 924              	.LVL85:
 195:./Application/Src/file_transfer.c ****     }
 925              		.loc 1 195 9 is_stmt 1 view .LVU270
 195:./Application/Src/file_transfer.c ****     }
 926              		.loc 1 195 16 is_stmt 0 view .LVU271
 927 00bc 4FF0FF30 		mov	r0, #-1
 928 00c0 F1E7     		b	.L56
 929              	.LVL86:
 930              	.L67:
 195:./Application/Src/file_transfer.c ****     }
 931              		.loc 1 195 16 view .LVU272
 932              	.LBE14:
 933              	.LBB15:
 200:./Application/Src/file_transfer.c ****         return -1;
 934              		.loc 1 200 9 is_stmt 1 view .LVU273
 200:./Application/Src/file_transfer.c ****         return -1;
 935              		.loc 1 200 50 is_stmt 0 view .LVU274
 936 00c2 0823     		movs	r3, #8
 937 00c4 8DF80C30 		strb	r3, [sp, #12]
 200:./Application/Src/file_transfer.c ****         return -1;
 938              		.loc 1 200 9 view .LVU275
 939 00c8 0122     		movs	r2, #1
 940 00ca 03A9     		add	r1, sp, #12
 941              	.LVL87:
 200:./Application/Src/file_transfer.c ****         return -1;
 942              		.loc 1 200 9 view .LVU276
 943 00cc A320     		movs	r0, #163
 944              	.LVL88:
 200:./Application/Src/file_transfer.c ****         return -1;
 945              		.loc 1 200 9 view .LVU277
 946 00ce FFF7FEFF 		bl	FT_SendResponse
 947              	.LVL89:
 201:./Application/Src/file_transfer.c ****     }
 948              		.loc 1 201 9 is_stmt 1 view .LVU278
 201:./Application/Src/file_transfer.c ****     }
 949              		.loc 1 201 16 is_stmt 0 view .LVU279
 950 00d2 4FF0FF30 		mov	r0, #-1
 951 00d6 E6E7     		b	.L56
 952              	.LVL90:
 953              	.L68:
 201:./Application/Src/file_transfer.c ****     }
 954              		.loc 1 201 16 view .LVU280
 955              	.LBE15:
 956              	.LBB16:
 210:./Application/Src/file_transfer.c ****         FT_SendResponse(FT_RSP_NAK, nakData, 3);
 957              		.loc 1 210 9 is_stmt 1 view .LVU281
 210:./Application/Src/file_transfer.c ****         FT_SendResponse(FT_RSP_NAK, nakData, 3);
 958              		.loc 1 210 17 is_stmt 0 view .LVU282
 959 00d8 8DF80080 		strb	r8, [sp]
 960 00dc 240A     		lsrs	r4, r4, #8
 961              	.LVL91:
 210:./Application/Src/file_transfer.c ****         FT_SendResponse(FT_RSP_NAK, nakData, 3);
 962              		.loc 1 210 17 view .LVU283
 963 00de 8DF80140 		strb	r4, [sp, #1]
 964 00e2 0823     		movs	r3, #8
ARM GAS  C:\Users\Xuleo\AppData\Local\Temp\ccF1qpEe.s 			page 24


 965 00e4 8DF80230 		strb	r3, [sp, #2]
 211:./Application/Src/file_transfer.c ****         return -1;
 966              		.loc 1 211 9 is_stmt 1 view .LVU284
 967 00e8 0322     		movs	r2, #3
 968 00ea 6946     		mov	r1, sp
 969              	.LVL92:
 211:./Application/Src/file_transfer.c ****         return -1;
 970              		.loc 1 211 9 is_stmt 0 view .LVU285
 971 00ec A120     		movs	r0, #161
 972              	.LVL93:
 211:./Application/Src/file_transfer.c ****         return -1;
 973              		.loc 1 211 9 view .LVU286
 974 00ee FFF7FEFF 		bl	FT_SendResponse
 975              	.LVL94:
 212:./Application/Src/file_transfer.c ****     }
 976              		.loc 1 212 9 is_stmt 1 view .LVU287
 212:./Application/Src/file_transfer.c ****     }
 977              		.loc 1 212 16 is_stmt 0 view .LVU288
 978 00f2 4FF0FF30 		mov	r0, #-1
 979 00f6 D6E7     		b	.L56
 980              	.LVL95:
 981              	.L69:
 212:./Application/Src/file_transfer.c ****     }
 982              		.loc 1 212 16 view .LVU289
 983              	.LBE16:
 984              	.LBB17:
 218:./Application/Src/file_transfer.c ****         FT_SendResponse(FT_RSP_NAK, nakData, 3);
 985              		.loc 1 218 9 is_stmt 1 view .LVU290
 218:./Application/Src/file_transfer.c ****         FT_SendResponse(FT_RSP_NAK, nakData, 3);
 986              		.loc 1 218 17 is_stmt 0 view .LVU291
 987 00f8 8DF80080 		strb	r8, [sp]
 988 00fc 240A     		lsrs	r4, r4, #8
 989              	.LVL96:
 218:./Application/Src/file_transfer.c ****         FT_SendResponse(FT_RSP_NAK, nakData, 3);
 990              		.loc 1 218 17 view .LVU292
 991 00fe 8DF80140 		strb	r4, [sp, #1]
 992 0102 0123     		movs	r3, #1
 993 0104 8DF80230 		strb	r3, [sp, #2]
 219:./Application/Src/file_transfer.c ****         return -1;
 994              		.loc 1 219 9 is_stmt 1 view .LVU293
 995 0108 0322     		movs	r2, #3
 996 010a 6946     		mov	r1, sp
 997 010c A120     		movs	r0, #161
 998 010e FFF7FEFF 		bl	FT_SendResponse
 999              	.LVL97:
 220:./Application/Src/file_transfer.c ****     }
 1000              		.loc 1 220 9 view .LVU294
 220:./Application/Src/file_transfer.c ****     }
 1001              		.loc 1 220 16 is_stmt 0 view .LVU295
 1002 0112 4FF0FF30 		mov	r0, #-1
 1003 0116 C6E7     		b	.L56
 1004              	.LVL98:
 1005              	.L70:
 220:./Application/Src/file_transfer.c ****     }
 1006              		.loc 1 220 16 view .LVU296
 1007              	.LBE17:
 225:./Application/Src/file_transfer.c ****     {
ARM GAS  C:\Users\Xuleo\AppData\Local\Temp\ccF1qpEe.s 			page 25


 1008              		.loc 1 225 50 discriminator 1 view .LVU297
 1009 0118 002B     		cmp	r3, #0
 1010 011a 92D0     		beq	.L62
 1011              	.LBB18:
 228:./Application/Src/file_transfer.c ****         FT_SendResponse(FT_RSP_ACK, ackData, 2);
 1012              		.loc 1 228 9 is_stmt 1 view .LVU298
 228:./Application/Src/file_transfer.c ****         FT_SendResponse(FT_RSP_ACK, ackData, 2);
 1013              		.loc 1 228 17 is_stmt 0 view .LVU299
 1014 011c 8DF80080 		strb	r8, [sp]
 1015 0120 240A     		lsrs	r4, r4, #8
 1016              	.LVL99:
 228:./Application/Src/file_transfer.c ****         FT_SendResponse(FT_RSP_ACK, ackData, 2);
 1017              		.loc 1 228 17 view .LVU300
 1018 0122 8DF80140 		strb	r4, [sp, #1]
 229:./Application/Src/file_transfer.c ****         ftContext.lastActivityTime = HAL_GetTick();
 1019              		.loc 1 229 9 is_stmt 1 view .LVU301
 1020 0126 0222     		movs	r2, #2
 1021 0128 6946     		mov	r1, sp
 1022 012a A020     		movs	r0, #160
 1023 012c FFF7FEFF 		bl	FT_SendResponse
 1024              	.LVL100:
 230:./Application/Src/file_transfer.c ****         return 0; /* Success - no data written */
 1025              		.loc 1 230 9 view .LVU302
 230:./Application/Src/file_transfer.c ****         return 0; /* Success - no data written */
 1026              		.loc 1 230 38 is_stmt 0 view .LVU303
 1027 0130 FFF7FEFF 		bl	HAL_GetTick
 1028              	.LVL101:
 230:./Application/Src/file_transfer.c ****         return 0; /* Success - no data written */
 1029              		.loc 1 230 36 discriminator 1 view .LVU304
 1030 0134 114B     		ldr	r3, .L73
 1031 0136 C3F84802 		str	r0, [r3, #584]
 231:./Application/Src/file_transfer.c ****     }
 1032              		.loc 1 231 9 is_stmt 1 view .LVU305
 231:./Application/Src/file_transfer.c ****     }
 1033              		.loc 1 231 16 is_stmt 0 view .LVU306
 1034 013a 0020     		movs	r0, #0
 1035 013c B3E7     		b	.L56
 1036              	.LVL102:
 1037              	.L71:
 231:./Application/Src/file_transfer.c ****     }
 1038              		.loc 1 231 16 view .LVU307
 1039              	.LBE18:
 1040              	.LBB19:
 237:./Application/Src/file_transfer.c ****         FT_SendResponse(FT_RSP_NAK, nakData, 3);
 1041              		.loc 1 237 9 is_stmt 1 view .LVU308
 237:./Application/Src/file_transfer.c ****         FT_SendResponse(FT_RSP_NAK, nakData, 3);
 1042              		.loc 1 237 17 is_stmt 0 view .LVU309
 1043 013e 8DF80080 		strb	r8, [sp]
 1044 0142 240A     		lsrs	r4, r4, #8
 1045              	.LVL103:
 237:./Application/Src/file_transfer.c ****         FT_SendResponse(FT_RSP_NAK, nakData, 3);
 1046              		.loc 1 237 17 view .LVU310
 1047 0144 8DF80140 		strb	r4, [sp, #1]
 1048 0148 0223     		movs	r3, #2
 1049 014a 8DF80230 		strb	r3, [sp, #2]
 238:./Application/Src/file_transfer.c ****         return -1;
 1050              		.loc 1 238 9 is_stmt 1 view .LVU311
ARM GAS  C:\Users\Xuleo\AppData\Local\Temp\ccF1qpEe.s 			page 26


 1051 014e 0322     		movs	r2, #3
 1052 0150 6946     		mov	r1, sp
 1053 0152 A120     		movs	r0, #161
 1054 0154 FFF7FEFF 		bl	FT_SendResponse
 1055              	.LVL104:
 239:./Application/Src/file_transfer.c ****     }
 1056              		.loc 1 239 9 view .LVU312
 239:./Application/Src/file_transfer.c ****     }
 1057              		.loc 1 239 16 is_stmt 0 view .LVU313
 1058 0158 4FF0FF30 		mov	r0, #-1
 1059 015c A3E7     		b	.L56
 1060              	.LVL105:
 1061              	.L72:
 239:./Application/Src/file_transfer.c ****     }
 1062              		.loc 1 239 16 view .LVU314
 1063              	.LBE19:
 1064              	.LBB20:
 252:./Application/Src/file_transfer.c ****             FT_SendResponse(FT_RSP_NAK, nakData, 3);
 1065              		.loc 1 252 13 is_stmt 1 view .LVU315
 252:./Application/Src/file_transfer.c ****             FT_SendResponse(FT_RSP_NAK, nakData, 3);
 1066              		.loc 1 252 21 is_stmt 0 view .LVU316
 1067 015e 8DF80080 		strb	r8, [sp]
 1068 0162 240A     		lsrs	r4, r4, #8
 1069              	.LVL106:
 252:./Application/Src/file_transfer.c ****             FT_SendResponse(FT_RSP_NAK, nakData, 3);
 1070              		.loc 1 252 21 view .LVU317
 1071 0164 8DF80140 		strb	r4, [sp, #1]
 1072 0168 0322     		movs	r2, #3
 1073 016a 8DF80220 		strb	r2, [sp, #2]
 253:./Application/Src/file_transfer.c ****             return -1;
 1074              		.loc 1 253 13 is_stmt 1 view .LVU318
 1075 016e 6946     		mov	r1, sp
 1076 0170 A120     		movs	r0, #161
 1077 0172 FFF7FEFF 		bl	FT_SendResponse
 1078              	.LVL107:
 254:./Application/Src/file_transfer.c ****         }
 1079              		.loc 1 254 13 view .LVU319
 254:./Application/Src/file_transfer.c ****         }
 1080              		.loc 1 254 20 is_stmt 0 view .LVU320
 1081 0176 4FF0FF30 		mov	r0, #-1
 1082 017a 94E7     		b	.L56
 1083              	.L74:
 1084              		.align	2
 1085              	.L73:
 1086 017c 00000000 		.word	ftContext
 1087 0180 00000000 		.word	ftWriteBuffer
 1088 0184 00000000 		.word	ftWriteBufferIndex
 1089              	.LBE20:
 1090              		.cfi_endproc
 1091              	.LFE365:
 1093              		.section	.text.FT_HandleFileEnd,"ax",%progbits
 1094              		.align	1
 1095              		.syntax unified
 1096              		.thumb
 1097              		.thumb_func
 1099              	FT_HandleFileEnd:
 1100              	.LVL108:
ARM GAS  C:\Users\Xuleo\AppData\Local\Temp\ccF1qpEe.s 			page 27


 1101              	.LFB367:
 267:./Application/Src/file_transfer.c **** 
 268:./Application/Src/file_transfer.c **** /* Handle RAM packet data
 269:./Application/Src/file_transfer.c ****    Packet: [0xE1] [row_lo] [row_hi] [56 bytes = 14 floats] [checksum]
 270:./Application/Src/file_transfer.c ****    Total = 60 bytes
 271:./Application/Src/file_transfer.c **** */
 272:./Application/Src/file_transfer.c **** static int FT_HandleRAMData(uint8_t *packet, uint16_t length){
 273:./Application/Src/file_transfer.c ****     // Packet must be exactly 60 bytes: cmd(1) + row(2) + data(56) + checksum(1)
 274:./Application/Src/file_transfer.c ****     if (length != 60)
 275:./Application/Src/file_transfer.c ****     {
 276:./Application/Src/file_transfer.c ****         uint8_t nakData[] = {0, 0, FT_ERR_OVERFLOW};
 277:./Application/Src/file_transfer.c ****         FT_SendResponse(FT_RSP_NAK, nakData, 3);
 278:./Application/Src/file_transfer.c ****         return -1;
 279:./Application/Src/file_transfer.c ****     }
 280:./Application/Src/file_transfer.c **** 
 281:./Application/Src/file_transfer.c ****     // Extract row index early so NAK responses can include it
 282:./Application/Src/file_transfer.c ****     uint16_t rowIndex = packet[1] | (packet[2] << 8);
 283:./Application/Src/file_transfer.c **** 
 284:./Application/Src/file_transfer.c ****     // Verify checksum: XOR of bytes [0..58], compare with byte [59]
 285:./Application/Src/file_transfer.c ****     if (RAM_CalculateChecksum(packet, length - 1) != packet[length - 1])
 286:./Application/Src/file_transfer.c ****     {
 287:./Application/Src/file_transfer.c ****         uint8_t nakData[] = {rowIndex & 0xFF, rowIndex >> 8, FT_ERR_CHECKSUM};
 288:./Application/Src/file_transfer.c ****         FT_SendResponse(FT_RSP_NAK, nakData, 3);
 289:./Application/Src/file_transfer.c ****         return -1;
 290:./Application/Src/file_transfer.c ****     }
 291:./Application/Src/file_transfer.c **** 
 292:./Application/Src/file_transfer.c ****     // Validate row index (0-364)
 293:./Application/Src/file_transfer.c ****     if (rowIndex >= 365)
 294:./Application/Src/file_transfer.c ****     {
 295:./Application/Src/file_transfer.c ****         uint8_t nakData[] = {rowIndex & 0xFF, rowIndex >> 8, FT_ERR_OVERFLOW};
 296:./Application/Src/file_transfer.c ****         FT_SendResponse(FT_RSP_NAK, nakData, 3);
 297:./Application/Src/file_transfer.c ****         return -1;
 298:./Application/Src/file_transfer.c ****     }
 299:./Application/Src/file_transfer.c **** 
 300:./Application/Src/file_transfer.c ****     // Copy 14 floats (56 bytes) into song_ram[rowIndex]
 301:./Application/Src/file_transfer.c ****     memcpy(song_ram[rowIndex], &packet[3], 56);
 302:./Application/Src/file_transfer.c ****     ram_rx_offset += 56;
 303:./Application/Src/file_transfer.c **** 
 304:./Application/Src/file_transfer.c ****     RAM_track_index++;
 305:./Application/Src/file_transfer.c ****     // Tell PC this row is OK
 306:./Application/Src/file_transfer.c ****     uint8_t ackData[] = {rowIndex & 0xFF, rowIndex >> 8};
 307:./Application/Src/file_transfer.c ****     FT_SendResponse(FT_RSP_ACK, ackData, 2);
 308:./Application/Src/file_transfer.c ****     return 0;
 309:./Application/Src/file_transfer.c **** }
 310:./Application/Src/file_transfer.c **** 
 311:./Application/Src/file_transfer.c **** /* Handle FILE_END packet */
 312:./Application/Src/file_transfer.c **** static int FT_HandleFileEnd(uint8_t *packet, uint16_t length)
 313:./Application/Src/file_transfer.c **** {
 1102              		.loc 1 313 1 is_stmt 1 view -0
 1103              		.cfi_startproc
 1104              		@ args = 0, pretend = 0, frame = 32
 1105              		@ frame_needed = 0, uses_anonymous_args = 0
 1106              		.loc 1 313 1 is_stmt 0 view .LVU322
 1107 0000 70B5     		push	{r4, r5, r6, lr}
 1108              	.LCFI16:
 1109              		.cfi_def_cfa_offset 16
 1110              		.cfi_offset 4, -16
ARM GAS  C:\Users\Xuleo\AppData\Local\Temp\ccF1qpEe.s 			page 28


 1111              		.cfi_offset 5, -12
 1112              		.cfi_offset 6, -8
 1113              		.cfi_offset 14, -4
 1114 0002 88B0     		sub	sp, sp, #32
 1115              	.LCFI17:
 1116              		.cfi_def_cfa_offset 48
 314:./Application/Src/file_transfer.c ****     if (length < FT_FILE_END_SIZE)
 1117              		.loc 1 314 5 is_stmt 1 view .LVU323
 1118              		.loc 1 314 8 is_stmt 0 view .LVU324
 1119 0004 0329     		cmp	r1, #3
 1120 0006 3ED9     		bls	.L86
 1121 0008 0546     		mov	r5, r0
 315:./Application/Src/file_transfer.c ****     {
 316:./Application/Src/file_transfer.c ****         FT_SendResponse(FT_RSP_ERROR, (uint8_t[]){FT_ERR_OVERFLOW}, 1);
 317:./Application/Src/file_transfer.c ****         return -1;
 318:./Application/Src/file_transfer.c ****     }
 319:./Application/Src/file_transfer.c **** 
 320:./Application/Src/file_transfer.c ****     /* Verify checksum */
 321:./Application/Src/file_transfer.c ****     if (FT_CalculateChecksum(packet, length - 1) != packet[length - 1])
 1122              		.loc 1 321 5 is_stmt 1 view .LVU325
 1123              		.loc 1 321 9 is_stmt 0 view .LVU326
 1124 000a 4C1E     		subs	r4, r1, #1
 1125 000c A1B2     		uxth	r1, r4
 1126              	.LVL109:
 1127              		.loc 1 321 9 view .LVU327
 1128 000e FFF7FEFF 		bl	FT_CalculateChecksum
 1129              	.LVL110:
 1130              		.loc 1 321 59 discriminator 1 view .LVU328
 1131 0012 2B5D     		ldrb	r3, [r5, r4]	@ zero_extendqisi2
 1132              		.loc 1 321 8 discriminator 1 view .LVU329
 1133 0014 9842     		cmp	r0, r3
 1134 0016 43D1     		bne	.L87
 322:./Application/Src/file_transfer.c ****     {
 323:./Application/Src/file_transfer.c ****         FT_SendResponse(FT_RSP_ERROR, (uint8_t[]){FT_ERR_CHECKSUM}, 1);
 324:./Application/Src/file_transfer.c ****         return -1;
 325:./Application/Src/file_transfer.c ****     }
 326:./Application/Src/file_transfer.c **** 
 327:./Application/Src/file_transfer.c ****     uint16_t reportedBytes = packet[1] | (packet[2] << 8);
 1135              		.loc 1 327 5 is_stmt 1 view .LVU330
 1136              		.loc 1 327 36 is_stmt 0 view .LVU331
 1137 0018 6B78     		ldrb	r3, [r5, #1]	@ zero_extendqisi2
 1138              		.loc 1 327 49 view .LVU332
 1139 001a AA78     		ldrb	r2, [r5, #2]	@ zero_extendqisi2
 1140              		.loc 1 327 14 view .LVU333
 1141 001c 43EA0225 		orr	r5, r3, r2, lsl #8
 1142              	.LVL111:
 328:./Application/Src/file_transfer.c **** 
 329:./Application/Src/file_transfer.c ****     /* Handle DUPLICATE FILE_END (PC retried because SUCCESS was lost) */
 330:./Application/Src/file_transfer.c ****     /* If we're IDLE but recently completed a transfer with matching size, re-send SUCCESS */
 331:./Application/Src/file_transfer.c ****     if (ftContext.state == FT_STATE_IDLE)
 1143              		.loc 1 331 5 is_stmt 1 view .LVU334
 1144              		.loc 1 331 18 is_stmt 0 view .LVU335
 1145 0020 534B     		ldr	r3, .L93
 1146 0022 1B78     		ldrb	r3, [r3]	@ zero_extendqisi2
 1147              		.loc 1 331 8 view .LVU336
 1148 0024 002B     		cmp	r3, #0
 1149 0026 46D0     		beq	.L88
ARM GAS  C:\Users\Xuleo\AppData\Local\Temp\ccF1qpEe.s 			page 29


 332:./Application/Src/file_transfer.c ****     {
 333:./Application/Src/file_transfer.c ****         uint32_t elapsed = HAL_GetTick() - lastCompletedTime;
 334:./Application/Src/file_transfer.c ****         if (elapsed < 10000 && reportedBytes == lastCompletedBytes)
 335:./Application/Src/file_transfer.c ****         {
 336:./Application/Src/file_transfer.c ****             /* Recent completion with matching size - re-send SUCCESS */
 337:./Application/Src/file_transfer.c ****             uint8_t successData[] = {lastCompletedBytes & 0xFF, (lastCompletedBytes >> 8) & 0xFF};
 338:./Application/Src/file_transfer.c ****             FT_SendResponse(FT_RSP_SUCCESS, successData, 2);
 339:./Application/Src/file_transfer.c ****             return 0;
 340:./Application/Src/file_transfer.c ****         }
 341:./Application/Src/file_transfer.c ****         /* Not a duplicate - wrong state */
 342:./Application/Src/file_transfer.c ****         FT_SendResponse(FT_RSP_ERROR, (uint8_t[]){FT_ERR_SEQUENCE}, 1);
 343:./Application/Src/file_transfer.c ****         return -1;
 344:./Application/Src/file_transfer.c ****     }
 345:./Application/Src/file_transfer.c **** 
 346:./Application/Src/file_transfer.c ****     if (ftContext.state != FT_STATE_RECEIVING)
 1150              		.loc 1 346 5 is_stmt 1 view .LVU337
 1151              		.loc 1 346 8 is_stmt 0 view .LVU338
 1152 0028 012B     		cmp	r3, #1
 1153 002a 6AD1     		bne	.L89
 347:./Application/Src/file_transfer.c ****     {
 348:./Application/Src/file_transfer.c ****         FT_SendResponse(FT_RSP_ERROR, (uint8_t[]){FT_ERR_SEQUENCE}, 1);
 349:./Application/Src/file_transfer.c ****         return -1;
 350:./Application/Src/file_transfer.c ****     }
 351:./Application/Src/file_transfer.c **** 
 352:./Application/Src/file_transfer.c ****     /* Flush remaining data in buffer */
 353:./Application/Src/file_transfer.c ****     if (FT_FlushWriteBuffer() != 0)
 1154              		.loc 1 353 5 is_stmt 1 view .LVU339
 1155              		.loc 1 353 9 is_stmt 0 view .LVU340
 1156 002c FFF7FEFF 		bl	FT_FlushWriteBuffer
 1157              	.LVL112:
 1158              		.loc 1 353 8 discriminator 1 view .LVU341
 1159 0030 0646     		mov	r6, r0
 1160 0032 0028     		cmp	r0, #0
 1161 0034 71D1     		bne	.L90
 354:./Application/Src/file_transfer.c ****     {
 355:./Application/Src/file_transfer.c ****         f_close(&ftContext.file);
 356:./Application/Src/file_transfer.c ****         f_unlink(ftContext.filename);
 357:./Application/Src/file_transfer.c ****         FT_SendResponse(FT_RSP_ERROR, (uint8_t[]){FT_ERR_SD_WRITE}, 1);
 358:./Application/Src/file_transfer.c ****         ftContext.state = FT_STATE_ERROR;
 359:./Application/Src/file_transfer.c ****         return -1;
 360:./Application/Src/file_transfer.c ****     }
 361:./Application/Src/file_transfer.c **** 
 362:./Application/Src/file_transfer.c ****     /* Sync and close file */
 363:./Application/Src/file_transfer.c ****     f_sync(&ftContext.file);
 1162              		.loc 1 363 5 is_stmt 1 view .LVU342
 1163 0036 4F4C     		ldr	r4, .L93+4
 1164              	.LVL113:
 1165              		.loc 1 363 5 is_stmt 0 view .LVU343
 1166 0038 2046     		mov	r0, r4
 1167 003a FFF7FEFF 		bl	f_sync
 1168              	.LVL114:
 364:./Application/Src/file_transfer.c ****     f_close(&ftContext.file);
 1169              		.loc 1 364 5 is_stmt 1 view .LVU344
 1170 003e 2046     		mov	r0, r4
 1171 0040 FFF7FEFF 		bl	f_close
 1172              	.LVL115:
 365:./Application/Src/file_transfer.c **** 
ARM GAS  C:\Users\Xuleo\AppData\Local\Temp\ccF1qpEe.s 			page 30


 366:./Application/Src/file_transfer.c ****     /* Verify byte count */
 367:./Application/Src/file_transfer.c ****     if (reportedBytes != (ftContext.bytesReceived & 0xFFFF))
 1173              		.loc 1 367 5 view .LVU345
 1174              		.loc 1 367 36 is_stmt 0 view .LVU346
 1175 0044 D4F83C32 		ldr	r3, [r4, #572]
 1176              		.loc 1 367 51 view .LVU347
 1177 0048 9AB2     		uxth	r2, r3
 1178              		.loc 1 367 8 view .LVU348
 1179 004a 9542     		cmp	r5, r2
 1180 004c 7BD1     		bne	.L91
 368:./Application/Src/file_transfer.c ****     {
 369:./Application/Src/file_transfer.c ****         /* Delete incomplete file */
 370:./Application/Src/file_transfer.c ****         f_unlink(ftContext.filename);
 371:./Application/Src/file_transfer.c ****         FT_SendResponse(FT_RSP_ERROR, (uint8_t[]){FT_ERR_SD_WRITE}, 1);
 372:./Application/Src/file_transfer.c ****         ftContext.state = FT_STATE_ERROR;
 373:./Application/Src/file_transfer.c ****         return -1;
 374:./Application/Src/file_transfer.c ****     }
 375:./Application/Src/file_transfer.c **** 
 376:./Application/Src/file_transfer.c ****     ftContext.state = FT_STATE_COMPLETE;
 1181              		.loc 1 376 5 is_stmt 1 view .LVU349
 1182              		.loc 1 376 21 is_stmt 0 view .LVU350
 1183 004e 484D     		ldr	r5, .L93
 1184              	.LVL116:
 1185              		.loc 1 376 21 view .LVU351
 1186 0050 0224     		movs	r4, #2
 1187 0052 2C70     		strb	r4, [r5]
 377:./Application/Src/file_transfer.c **** 
 378:./Application/Src/file_transfer.c ****     /* Track this completion for duplicate handling */
 379:./Application/Src/file_transfer.c ****     lastCompletedBytes = ftContext.bytesReceived & 0xFFFF;
 1188              		.loc 1 379 5 is_stmt 1 view .LVU352
 1189              		.loc 1 379 24 is_stmt 0 view .LVU353
 1190 0054 484A     		ldr	r2, .L93+8
 1191 0056 1380     		strh	r3, [r2]	@ movhi
 380:./Application/Src/file_transfer.c ****     lastCompletedTime = HAL_GetTick();
 1192              		.loc 1 380 5 is_stmt 1 view .LVU354
 1193              		.loc 1 380 25 is_stmt 0 view .LVU355
 1194 0058 FFF7FEFF 		bl	HAL_GetTick
 1195              	.LVL117:
 1196              		.loc 1 380 23 discriminator 1 view .LVU356
 1197 005c 474B     		ldr	r3, .L93+12
 1198 005e 1860     		str	r0, [r3]
 381:./Application/Src/file_transfer.c **** 
 382:./Application/Src/file_transfer.c ****     /* Refresh TXT file list */
 383:./Application/Src/file_transfer.c ****     sd_list_txt_files();
 1199              		.loc 1 383 5 is_stmt 1 view .LVU357
 1200 0060 FFF7FEFF 		bl	sd_list_txt_files
 1201              	.LVL118:
 384:./Application/Src/file_transfer.c **** 
 385:./Application/Src/file_transfer.c ****     /* Send success with bytes received */
 386:./Application/Src/file_transfer.c ****     uint8_t successData[] = {
 1202              		.loc 1 386 5 view .LVU358
 387:./Application/Src/file_transfer.c ****         ftContext.bytesReceived & 0xFF,
 1203              		.loc 1 387 18 is_stmt 0 view .LVU359
 1204 0064 D5F84032 		ldr	r3, [r5, #576]
 386:./Application/Src/file_transfer.c ****         ftContext.bytesReceived & 0xFF,
 1205              		.loc 1 386 13 view .LVU360
 1206 0068 8DF80430 		strb	r3, [sp, #4]
ARM GAS  C:\Users\Xuleo\AppData\Local\Temp\ccF1qpEe.s 			page 31


 388:./Application/Src/file_transfer.c ****         (ftContext.bytesReceived >> 8) & 0xFF};
 1207              		.loc 1 388 34 view .LVU361
 1208 006c 1B0A     		lsrs	r3, r3, #8
 386:./Application/Src/file_transfer.c ****         ftContext.bytesReceived & 0xFF,
 1209              		.loc 1 386 13 view .LVU362
 1210 006e 8DF80530 		strb	r3, [sp, #5]
 389:./Application/Src/file_transfer.c ****     FT_SendResponse(FT_RSP_SUCCESS, successData, 2);
 1211              		.loc 1 389 5 is_stmt 1 view .LVU363
 1212 0072 2246     		mov	r2, r4
 1213 0074 01A9     		add	r1, sp, #4
 1214 0076 A420     		movs	r0, #164
 1215 0078 FFF7FEFF 		bl	FT_SendResponse
 1216              	.LVL119:
 390:./Application/Src/file_transfer.c **** 
 391:./Application/Src/file_transfer.c ****     /* Reset for next transfer */
 392:./Application/Src/file_transfer.c ****     FT_Init();
 1217              		.loc 1 392 5 view .LVU364
 1218 007c FFF7FEFF 		bl	FT_Init
 1219              	.LVL120:
 393:./Application/Src/file_transfer.c ****     return 0;
 1220              		.loc 1 393 5 view .LVU365
 1221              	.L75:
 394:./Application/Src/file_transfer.c **** }
 1222              		.loc 1 394 1 is_stmt 0 view .LVU366
 1223 0080 3046     		mov	r0, r6
 1224 0082 08B0     		add	sp, sp, #32
 1225              	.LCFI18:
 1226              		.cfi_remember_state
 1227              		.cfi_def_cfa_offset 16
 1228              		@ sp needed
 1229 0084 70BD     		pop	{r4, r5, r6, pc}
 1230              	.LVL121:
 1231              	.L86:
 1232              	.LCFI19:
 1233              		.cfi_restore_state
 1234              	.LBB21:
 316:./Application/Src/file_transfer.c ****         return -1;
 1235              		.loc 1 316 9 is_stmt 1 view .LVU367
 316:./Application/Src/file_transfer.c ****         return -1;
 1236              		.loc 1 316 50 is_stmt 0 view .LVU368
 1237 0086 0823     		movs	r3, #8
 1238 0088 8DF80830 		strb	r3, [sp, #8]
 316:./Application/Src/file_transfer.c ****         return -1;
 1239              		.loc 1 316 9 view .LVU369
 1240 008c 0122     		movs	r2, #1
 1241 008e 0DEB0301 		add	r1, sp, r3
 1242              	.LVL122:
 316:./Application/Src/file_transfer.c ****         return -1;
 1243              		.loc 1 316 9 view .LVU370
 1244 0092 A320     		movs	r0, #163
 1245              	.LVL123:
 316:./Application/Src/file_transfer.c ****         return -1;
 1246              		.loc 1 316 9 view .LVU371
 1247 0094 FFF7FEFF 		bl	FT_SendResponse
 1248              	.LVL124:
 317:./Application/Src/file_transfer.c ****     }
 1249              		.loc 1 317 9 is_stmt 1 view .LVU372
ARM GAS  C:\Users\Xuleo\AppData\Local\Temp\ccF1qpEe.s 			page 32


 317:./Application/Src/file_transfer.c ****     }
 1250              		.loc 1 317 16 is_stmt 0 view .LVU373
 1251 0098 4FF0FF33 		mov	r3, #-1
 1252 009c 1E46     		mov	r6, r3
 1253 009e EFE7     		b	.L75
 1254              	.LVL125:
 1255              	.L87:
 317:./Application/Src/file_transfer.c ****     }
 1256              		.loc 1 317 16 view .LVU374
 1257              	.LBE21:
 1258              	.LBB22:
 323:./Application/Src/file_transfer.c ****         return -1;
 1259              		.loc 1 323 9 is_stmt 1 view .LVU375
 323:./Application/Src/file_transfer.c ****         return -1;
 1260              		.loc 1 323 50 is_stmt 0 view .LVU376
 1261 00a0 0122     		movs	r2, #1
 1262 00a2 8DF80C20 		strb	r2, [sp, #12]
 323:./Application/Src/file_transfer.c ****         return -1;
 1263              		.loc 1 323 9 view .LVU377
 1264 00a6 03A9     		add	r1, sp, #12
 1265 00a8 A320     		movs	r0, #163
 1266 00aa FFF7FEFF 		bl	FT_SendResponse
 1267              	.LVL126:
 324:./Application/Src/file_transfer.c ****     }
 1268              		.loc 1 324 9 is_stmt 1 view .LVU378
 324:./Application/Src/file_transfer.c ****     }
 1269              		.loc 1 324 16 is_stmt 0 view .LVU379
 1270 00ae 4FF0FF33 		mov	r3, #-1
 1271 00b2 1E46     		mov	r6, r3
 1272 00b4 E4E7     		b	.L75
 1273              	.LVL127:
 1274              	.L88:
 324:./Application/Src/file_transfer.c ****     }
 1275              		.loc 1 324 16 view .LVU380
 1276              	.LBE22:
 1277              	.LBB23:
 333:./Application/Src/file_transfer.c ****         if (elapsed < 10000 && reportedBytes == lastCompletedBytes)
 1278              		.loc 1 333 9 is_stmt 1 view .LVU381
 333:./Application/Src/file_transfer.c ****         if (elapsed < 10000 && reportedBytes == lastCompletedBytes)
 1279              		.loc 1 333 28 is_stmt 0 view .LVU382
 1280 00b6 FFF7FEFF 		bl	HAL_GetTick
 1281              	.LVL128:
 333:./Application/Src/file_transfer.c ****         if (elapsed < 10000 && reportedBytes == lastCompletedBytes)
 1282              		.loc 1 333 42 discriminator 1 view .LVU383
 1283 00ba 304B     		ldr	r3, .L93+12
 1284 00bc 1B68     		ldr	r3, [r3]
 333:./Application/Src/file_transfer.c ****         if (elapsed < 10000 && reportedBytes == lastCompletedBytes)
 1285              		.loc 1 333 18 discriminator 1 view .LVU384
 1286 00be C01A     		subs	r0, r0, r3
 1287              	.LVL129:
 334:./Application/Src/file_transfer.c ****         {
 1288              		.loc 1 334 9 is_stmt 1 view .LVU385
 334:./Application/Src/file_transfer.c ****         {
 1289              		.loc 1 334 12 is_stmt 0 view .LVU386
 1290 00c0 42F20F73 		movw	r3, #9999
 1291 00c4 9842     		cmp	r0, r3
 1292 00c6 03D8     		bhi	.L80
ARM GAS  C:\Users\Xuleo\AppData\Local\Temp\ccF1qpEe.s 			page 33


 334:./Application/Src/file_transfer.c ****         {
 1293              		.loc 1 334 46 discriminator 1 view .LVU387
 1294 00c8 2B4B     		ldr	r3, .L93+8
 1295 00ca 1B88     		ldrh	r3, [r3]
 334:./Application/Src/file_transfer.c ****         {
 1296              		.loc 1 334 29 discriminator 1 view .LVU388
 1297 00cc AB42     		cmp	r3, r5
 1298 00ce 0BD0     		beq	.L92
 1299              	.L80:
 342:./Application/Src/file_transfer.c ****         return -1;
 1300              		.loc 1 342 9 is_stmt 1 view .LVU389
 342:./Application/Src/file_transfer.c ****         return -1;
 1301              		.loc 1 342 50 is_stmt 0 view .LVU390
 1302 00d0 0223     		movs	r3, #2
 1303 00d2 8DF81030 		strb	r3, [sp, #16]
 342:./Application/Src/file_transfer.c ****         return -1;
 1304              		.loc 1 342 9 view .LVU391
 1305 00d6 0122     		movs	r2, #1
 1306 00d8 04A9     		add	r1, sp, #16
 1307 00da A320     		movs	r0, #163
 1308              	.LVL130:
 342:./Application/Src/file_transfer.c ****         return -1;
 1309              		.loc 1 342 9 view .LVU392
 1310 00dc FFF7FEFF 		bl	FT_SendResponse
 1311              	.LVL131:
 343:./Application/Src/file_transfer.c ****     }
 1312              		.loc 1 343 9 is_stmt 1 view .LVU393
 343:./Application/Src/file_transfer.c ****     }
 1313              		.loc 1 343 16 is_stmt 0 view .LVU394
 1314 00e0 4FF0FF33 		mov	r3, #-1
 1315 00e4 1E46     		mov	r6, r3
 1316 00e6 CBE7     		b	.L75
 1317              	.LVL132:
 1318              	.L92:
 1319              	.LBB24:
 337:./Application/Src/file_transfer.c ****             FT_SendResponse(FT_RSP_SUCCESS, successData, 2);
 1320              		.loc 1 337 13 is_stmt 1 view .LVU395
 337:./Application/Src/file_transfer.c ****             FT_SendResponse(FT_RSP_SUCCESS, successData, 2);
 1321              		.loc 1 337 21 is_stmt 0 view .LVU396
 1322 00e8 8DF80030 		strb	r3, [sp]
 1323 00ec 1B0A     		lsrs	r3, r3, #8
 1324 00ee 8DF80130 		strb	r3, [sp, #1]
 338:./Application/Src/file_transfer.c ****             return 0;
 1325              		.loc 1 338 13 is_stmt 1 view .LVU397
 1326 00f2 0222     		movs	r2, #2
 1327 00f4 6946     		mov	r1, sp
 1328 00f6 A420     		movs	r0, #164
 1329              	.LVL133:
 338:./Application/Src/file_transfer.c ****             return 0;
 1330              		.loc 1 338 13 is_stmt 0 view .LVU398
 1331 00f8 FFF7FEFF 		bl	FT_SendResponse
 1332              	.LVL134:
 339:./Application/Src/file_transfer.c ****         }
 1333              		.loc 1 339 13 is_stmt 1 view .LVU399
 339:./Application/Src/file_transfer.c ****         }
 1334              		.loc 1 339 20 is_stmt 0 view .LVU400
 1335 00fc 0023     		movs	r3, #0
ARM GAS  C:\Users\Xuleo\AppData\Local\Temp\ccF1qpEe.s 			page 34


 1336 00fe 1E46     		mov	r6, r3
 1337 0100 BEE7     		b	.L75
 1338              	.LVL135:
 1339              	.L89:
 339:./Application/Src/file_transfer.c ****         }
 1340              		.loc 1 339 20 view .LVU401
 1341              	.LBE24:
 1342              	.LBE23:
 1343              	.LBB25:
 348:./Application/Src/file_transfer.c ****         return -1;
 1344              		.loc 1 348 9 is_stmt 1 view .LVU402
 348:./Application/Src/file_transfer.c ****         return -1;
 1345              		.loc 1 348 50 is_stmt 0 view .LVU403
 1346 0102 0223     		movs	r3, #2
 1347 0104 8DF81430 		strb	r3, [sp, #20]
 348:./Application/Src/file_transfer.c ****         return -1;
 1348              		.loc 1 348 9 view .LVU404
 1349 0108 0122     		movs	r2, #1
 1350 010a 05A9     		add	r1, sp, #20
 1351 010c A320     		movs	r0, #163
 1352 010e FFF7FEFF 		bl	FT_SendResponse
 1353              	.LVL136:
 349:./Application/Src/file_transfer.c ****     }
 1354              		.loc 1 349 9 is_stmt 1 view .LVU405
 349:./Application/Src/file_transfer.c ****     }
 1355              		.loc 1 349 16 is_stmt 0 view .LVU406
 1356 0112 4FF0FF33 		mov	r3, #-1
 1357 0116 1E46     		mov	r6, r3
 1358 0118 B2E7     		b	.L75
 1359              	.L90:
 1360              	.LBE25:
 1361              	.LBB26:
 355:./Application/Src/file_transfer.c ****         f_unlink(ftContext.filename);
 1362              		.loc 1 355 9 is_stmt 1 view .LVU407
 1363 011a 164C     		ldr	r4, .L93+4
 1364 011c 2046     		mov	r0, r4
 1365 011e FFF7FEFF 		bl	f_close
 1366              	.LVL137:
 356:./Application/Src/file_transfer.c ****         FT_SendResponse(FT_RSP_ERROR, (uint8_t[]){FT_ERR_SD_WRITE}, 1);
 1367              		.loc 1 356 9 view .LVU408
 1368 0122 04F50A70 		add	r0, r4, #552
 1369 0126 FFF7FEFF 		bl	f_unlink
 1370              	.LVL138:
 357:./Application/Src/file_transfer.c ****         ftContext.state = FT_STATE_ERROR;
 1371              		.loc 1 357 9 view .LVU409
 357:./Application/Src/file_transfer.c ****         ftContext.state = FT_STATE_ERROR;
 1372              		.loc 1 357 50 is_stmt 0 view .LVU410
 1373 012a 0325     		movs	r5, #3
 1374              	.LVL139:
 357:./Application/Src/file_transfer.c ****         ftContext.state = FT_STATE_ERROR;
 1375              		.loc 1 357 50 view .LVU411
 1376 012c 8DF81850 		strb	r5, [sp, #24]
 357:./Application/Src/file_transfer.c ****         ftContext.state = FT_STATE_ERROR;
 1377              		.loc 1 357 9 view .LVU412
 1378 0130 0122     		movs	r2, #1
 1379 0132 06A9     		add	r1, sp, #24
 1380 0134 A320     		movs	r0, #163
ARM GAS  C:\Users\Xuleo\AppData\Local\Temp\ccF1qpEe.s 			page 35


 1381 0136 FFF7FEFF 		bl	FT_SendResponse
 1382              	.LVL140:
 358:./Application/Src/file_transfer.c ****         return -1;
 1383              		.loc 1 358 9 is_stmt 1 view .LVU413
 358:./Application/Src/file_transfer.c ****         return -1;
 1384              		.loc 1 358 25 is_stmt 0 view .LVU414
 1385 013a 04F8045C 		strb	r5, [r4, #-4]
 359:./Application/Src/file_transfer.c ****     }
 1386              		.loc 1 359 9 is_stmt 1 view .LVU415
 359:./Application/Src/file_transfer.c ****     }
 1387              		.loc 1 359 16 is_stmt 0 view .LVU416
 1388 013e 4FF0FF33 		mov	r3, #-1
 1389 0142 1E46     		mov	r6, r3
 1390 0144 9CE7     		b	.L75
 1391              	.LVL141:
 1392              	.L91:
 359:./Application/Src/file_transfer.c ****     }
 1393              		.loc 1 359 16 view .LVU417
 1394              	.LBE26:
 1395              	.LBB27:
 370:./Application/Src/file_transfer.c ****         FT_SendResponse(FT_RSP_ERROR, (uint8_t[]){FT_ERR_SD_WRITE}, 1);
 1396              		.loc 1 370 9 is_stmt 1 view .LVU418
 1397 0146 04F50A74 		add	r4, r4, #552
 1398 014a 2046     		mov	r0, r4
 1399 014c FFF7FEFF 		bl	f_unlink
 1400              	.LVL142:
 371:./Application/Src/file_transfer.c ****         ftContext.state = FT_STATE_ERROR;
 1401              		.loc 1 371 9 view .LVU419
 371:./Application/Src/file_transfer.c ****         ftContext.state = FT_STATE_ERROR;
 1402              		.loc 1 371 50 is_stmt 0 view .LVU420
 1403 0150 0325     		movs	r5, #3
 1404              	.LVL143:
 371:./Application/Src/file_transfer.c ****         ftContext.state = FT_STATE_ERROR;
 1405              		.loc 1 371 50 view .LVU421
 1406 0152 8DF81C50 		strb	r5, [sp, #28]
 371:./Application/Src/file_transfer.c ****         ftContext.state = FT_STATE_ERROR;
 1407              		.loc 1 371 9 view .LVU422
 1408 0156 0122     		movs	r2, #1
 1409 0158 07A9     		add	r1, sp, #28
 1410 015a A320     		movs	r0, #163
 1411 015c FFF7FEFF 		bl	FT_SendResponse
 1412              	.LVL144:
 372:./Application/Src/file_transfer.c ****         return -1;
 1413              		.loc 1 372 9 is_stmt 1 view .LVU423
 372:./Application/Src/file_transfer.c ****         return -1;
 1414              		.loc 1 372 25 is_stmt 0 view .LVU424
 1415 0160 A4F50B74 		sub	r4, r4, #556
 1416 0164 2570     		strb	r5, [r4]
 373:./Application/Src/file_transfer.c ****     }
 1417              		.loc 1 373 9 is_stmt 1 view .LVU425
 373:./Application/Src/file_transfer.c ****     }
 1418              		.loc 1 373 16 is_stmt 0 view .LVU426
 1419 0166 4FF0FF33 		mov	r3, #-1
 1420 016a 1E46     		mov	r6, r3
 1421 016c 88E7     		b	.L75
 1422              	.L94:
 1423 016e 00BF     		.align	2
ARM GAS  C:\Users\Xuleo\AppData\Local\Temp\ccF1qpEe.s 			page 36


 1424              	.L93:
 1425 0170 00000000 		.word	ftContext
 1426 0174 04000000 		.word	ftContext+4
 1427 0178 00000000 		.word	lastCompletedBytes
 1428 017c 00000000 		.word	lastCompletedTime
 1429              	.LBE27:
 1430              		.cfi_endproc
 1431              	.LFE367:
 1433              		.section	.text.FT_HandleRAMData,"ax",%progbits
 1434              		.align	1
 1435              		.syntax unified
 1436              		.thumb
 1437              		.thumb_func
 1439              	FT_HandleRAMData:
 1440              	.LVL145:
 1441              	.LFB366:
 272:./Application/Src/file_transfer.c ****     // Packet must be exactly 60 bytes: cmd(1) + row(2) + data(56) + checksum(1)
 1442              		.loc 1 272 62 is_stmt 1 view -0
 1443              		.cfi_startproc
 1444              		@ args = 0, pretend = 0, frame = 8
 1445              		@ frame_needed = 0, uses_anonymous_args = 0
 272:./Application/Src/file_transfer.c ****     // Packet must be exactly 60 bytes: cmd(1) + row(2) + data(56) + checksum(1)
 1446              		.loc 1 272 62 is_stmt 0 view .LVU428
 1447 0000 F0B5     		push	{r4, r5, r6, r7, lr}
 1448              	.LCFI20:
 1449              		.cfi_def_cfa_offset 20
 1450              		.cfi_offset 4, -20
 1451              		.cfi_offset 5, -16
 1452              		.cfi_offset 6, -12
 1453              		.cfi_offset 7, -8
 1454              		.cfi_offset 14, -4
 1455 0002 83B0     		sub	sp, sp, #12
 1456              	.LCFI21:
 1457              		.cfi_def_cfa_offset 32
 274:./Application/Src/file_transfer.c ****     {
 1458              		.loc 1 274 5 is_stmt 1 view .LVU429
 274:./Application/Src/file_transfer.c ****     {
 1459              		.loc 1 274 8 is_stmt 0 view .LVU430
 1460 0004 3C29     		cmp	r1, #60
 1461 0006 3ED1     		bne	.L102
 1462 0008 0446     		mov	r4, r0
 282:./Application/Src/file_transfer.c **** 
 1463              		.loc 1 282 5 is_stmt 1 view .LVU431
 282:./Application/Src/file_transfer.c **** 
 1464              		.loc 1 282 31 is_stmt 0 view .LVU432
 1465 000a 4578     		ldrb	r5, [r0, #1]	@ zero_extendqisi2
 282:./Application/Src/file_transfer.c **** 
 1466              		.loc 1 282 44 view .LVU433
 1467 000c 8378     		ldrb	r3, [r0, #2]	@ zero_extendqisi2
 282:./Application/Src/file_transfer.c **** 
 1468              		.loc 1 282 35 view .LVU434
 1469 000e 45EA0325 		orr	r5, r5, r3, lsl #8
 1470 0012 2BB2     		sxth	r3, r5
 1471 0014 1F46     		mov	r7, r3
 1472              	.LVL146:
 285:./Application/Src/file_transfer.c ****     {
 1473              		.loc 1 285 5 is_stmt 1 view .LVU435
ARM GAS  C:\Users\Xuleo\AppData\Local\Temp\ccF1qpEe.s 			page 37


 285:./Application/Src/file_transfer.c ****     {
 1474              		.loc 1 285 9 is_stmt 0 view .LVU436
 1475 0016 4E1E     		subs	r6, r1, #1
 1476 0018 B1B2     		uxth	r1, r6
 1477              	.LVL147:
 285:./Application/Src/file_transfer.c ****     {
 1478              		.loc 1 285 9 view .LVU437
 1479 001a FFF7FEFF 		bl	RAM_CalculateChecksum
 1480              	.LVL148:
 285:./Application/Src/file_transfer.c ****     {
 1481              		.loc 1 285 60 discriminator 1 view .LVU438
 1482 001e A35D     		ldrb	r3, [r4, r6]	@ zero_extendqisi2
 285:./Application/Src/file_transfer.c ****     {
 1483              		.loc 1 285 8 discriminator 1 view .LVU439
 1484 0020 9842     		cmp	r0, r3
 1485 0022 3FD1     		bne	.L103
 293:./Application/Src/file_transfer.c ****     {
 1486              		.loc 1 293 5 is_stmt 1 view .LVU440
 293:./Application/Src/file_transfer.c ****     {
 1487              		.loc 1 293 8 is_stmt 0 view .LVU441
 1488 0024 B5F5B67F 		cmp	r5, #364
 1489 0028 4CD8     		bhi	.L104
 301:./Application/Src/file_transfer.c ****     ram_rx_offset += 56;
 1490              		.loc 1 301 5 is_stmt 1 view .LVU442
 301:./Application/Src/file_transfer.c ****     ram_rx_offset += 56;
 1491              		.loc 1 301 20 is_stmt 0 view .LVU443
 1492 002a C5EBC501 		rsb	r1, r5, r5, lsl #3
 301:./Application/Src/file_transfer.c ****     ram_rx_offset += 56;
 1493              		.loc 1 301 32 view .LVU444
 1494 002e E21C     		adds	r2, r4, #3
 301:./Application/Src/file_transfer.c ****     ram_rx_offset += 56;
 1495              		.loc 1 301 5 view .LVU445
 1496 0030 2C4B     		ldr	r3, .L105
 1497 0032 03EBC103 		add	r3, r3, r1, lsl #3
 1498 0036 3334     		adds	r4, r4, #51
 1499              	.LVL149:
 1500              	.L100:
 301:./Application/Src/file_transfer.c ****     ram_rx_offset += 56;
 1501              		.loc 1 301 5 view .LVU446
 1502 0038 D2F800C0 		ldr	ip, [r2]	@ unaligned
 1503 003c 5668     		ldr	r6, [r2, #4]	@ unaligned
 1504 003e 9068     		ldr	r0, [r2, #8]	@ unaligned
 1505 0040 D168     		ldr	r1, [r2, #12]	@ unaligned
 1506 0042 C3F800C0 		str	ip, [r3]	@ unaligned
 1507 0046 5E60     		str	r6, [r3, #4]	@ unaligned
 1508 0048 9860     		str	r0, [r3, #8]	@ unaligned
 1509 004a D960     		str	r1, [r3, #12]	@ unaligned
 1510 004c 1032     		adds	r2, r2, #16
 1511 004e 1033     		adds	r3, r3, #16
 1512 0050 A242     		cmp	r2, r4
 1513 0052 F1D1     		bne	.L100
 1514 0054 1168     		ldr	r1, [r2]	@ unaligned
 1515 0056 5268     		ldr	r2, [r2, #4]	@ unaligned
 1516 0058 1960     		str	r1, [r3]	@ unaligned
 1517 005a 5A60     		str	r2, [r3, #4]	@ unaligned
 302:./Application/Src/file_transfer.c **** 
 1518              		.loc 1 302 5 is_stmt 1 view .LVU447
ARM GAS  C:\Users\Xuleo\AppData\Local\Temp\ccF1qpEe.s 			page 38


 302:./Application/Src/file_transfer.c **** 
 1519              		.loc 1 302 19 is_stmt 0 view .LVU448
 1520 005c 224A     		ldr	r2, .L105+4
 1521 005e 1368     		ldr	r3, [r2]
 1522 0060 3833     		adds	r3, r3, #56
 1523 0062 1360     		str	r3, [r2]
 304:./Application/Src/file_transfer.c ****     // Tell PC this row is OK
 1524              		.loc 1 304 5 is_stmt 1 view .LVU449
 304:./Application/Src/file_transfer.c ****     // Tell PC this row is OK
 1525              		.loc 1 304 20 is_stmt 0 view .LVU450
 1526 0064 214A     		ldr	r2, .L105+8
 1527 0066 1368     		ldr	r3, [r2]
 1528 0068 0133     		adds	r3, r3, #1
 1529 006a 1360     		str	r3, [r2]
 306:./Application/Src/file_transfer.c ****     FT_SendResponse(FT_RSP_ACK, ackData, 2);
 1530              		.loc 1 306 5 is_stmt 1 view .LVU451
 306:./Application/Src/file_transfer.c ****     FT_SendResponse(FT_RSP_ACK, ackData, 2);
 1531              		.loc 1 306 13 is_stmt 0 view .LVU452
 1532 006c 8DF80470 		strb	r7, [sp, #4]
 1533 0070 2D0A     		lsrs	r5, r5, #8
 1534              	.LVL150:
 306:./Application/Src/file_transfer.c ****     FT_SendResponse(FT_RSP_ACK, ackData, 2);
 1535              		.loc 1 306 13 view .LVU453
 1536 0072 8DF80550 		strb	r5, [sp, #5]
 307:./Application/Src/file_transfer.c ****     return 0;
 1537              		.loc 1 307 5 is_stmt 1 view .LVU454
 1538 0076 0222     		movs	r2, #2
 1539 0078 01A9     		add	r1, sp, #4
 1540 007a A020     		movs	r0, #160
 1541 007c FFF7FEFF 		bl	FT_SendResponse
 1542              	.LVL151:
 308:./Application/Src/file_transfer.c **** }
 1543              		.loc 1 308 5 view .LVU455
 308:./Application/Src/file_transfer.c **** }
 1544              		.loc 1 308 12 is_stmt 0 view .LVU456
 1545 0080 0020     		movs	r0, #0
 1546              	.LVL152:
 1547              	.L95:
 309:./Application/Src/file_transfer.c **** 
 1548              		.loc 1 309 1 view .LVU457
 1549 0082 03B0     		add	sp, sp, #12
 1550              	.LCFI22:
 1551              		.cfi_remember_state
 1552              		.cfi_def_cfa_offset 20
 1553              		@ sp needed
 1554 0084 F0BD     		pop	{r4, r5, r6, r7, pc}
 1555              	.LVL153:
 1556              	.L102:
 1557              	.LCFI23:
 1558              		.cfi_restore_state
 1559              	.LBB28:
 276:./Application/Src/file_transfer.c ****         FT_SendResponse(FT_RSP_NAK, nakData, 3);
 1560              		.loc 1 276 9 is_stmt 1 view .LVU458
 276:./Application/Src/file_transfer.c ****         FT_SendResponse(FT_RSP_NAK, nakData, 3);
 1561              		.loc 1 276 17 is_stmt 0 view .LVU459
 1562 0086 1A4B     		ldr	r3, .L105+12
 1563 0088 1B68     		ldr	r3, [r3]
ARM GAS  C:\Users\Xuleo\AppData\Local\Temp\ccF1qpEe.s 			page 39


 1564 008a ADF80030 		strh	r3, [sp]	@ movhi
 1565 008e 1B0C     		lsrs	r3, r3, #16
 1566 0090 8DF80230 		strb	r3, [sp, #2]
 277:./Application/Src/file_transfer.c ****         return -1;
 1567              		.loc 1 277 9 is_stmt 1 view .LVU460
 1568 0094 0322     		movs	r2, #3
 1569 0096 6946     		mov	r1, sp
 1570              	.LVL154:
 277:./Application/Src/file_transfer.c ****         return -1;
 1571              		.loc 1 277 9 is_stmt 0 view .LVU461
 1572 0098 A120     		movs	r0, #161
 1573              	.LVL155:
 277:./Application/Src/file_transfer.c ****         return -1;
 1574              		.loc 1 277 9 view .LVU462
 1575 009a FFF7FEFF 		bl	FT_SendResponse
 1576              	.LVL156:
 278:./Application/Src/file_transfer.c ****     }
 1577              		.loc 1 278 9 is_stmt 1 view .LVU463
 278:./Application/Src/file_transfer.c ****     }
 1578              		.loc 1 278 16 is_stmt 0 view .LVU464
 1579 009e 4FF0FF30 		mov	r0, #-1
 1580 00a2 EEE7     		b	.L95
 1581              	.LVL157:
 1582              	.L103:
 278:./Application/Src/file_transfer.c ****     }
 1583              		.loc 1 278 16 view .LVU465
 1584              	.LBE28:
 1585              	.LBB29:
 287:./Application/Src/file_transfer.c ****         FT_SendResponse(FT_RSP_NAK, nakData, 3);
 1586              		.loc 1 287 9 is_stmt 1 view .LVU466
 287:./Application/Src/file_transfer.c ****         FT_SendResponse(FT_RSP_NAK, nakData, 3);
 1587              		.loc 1 287 17 is_stmt 0 view .LVU467
 1588 00a4 8DF80070 		strb	r7, [sp]
 1589 00a8 2D0A     		lsrs	r5, r5, #8
 1590              	.LVL158:
 287:./Application/Src/file_transfer.c ****         FT_SendResponse(FT_RSP_NAK, nakData, 3);
 1591              		.loc 1 287 17 view .LVU468
 1592 00aa 8DF80150 		strb	r5, [sp, #1]
 1593 00ae 0123     		movs	r3, #1
 1594 00b0 8DF80230 		strb	r3, [sp, #2]
 288:./Application/Src/file_transfer.c ****         return -1;
 1595              		.loc 1 288 9 is_stmt 1 view .LVU469
 1596 00b4 0322     		movs	r2, #3
 1597 00b6 6946     		mov	r1, sp
 1598 00b8 A120     		movs	r0, #161
 1599 00ba FFF7FEFF 		bl	FT_SendResponse
 1600              	.LVL159:
 289:./Application/Src/file_transfer.c ****     }
 1601              		.loc 1 289 9 view .LVU470
 289:./Application/Src/file_transfer.c ****     }
 1602              		.loc 1 289 16 is_stmt 0 view .LVU471
 1603 00be 4FF0FF30 		mov	r0, #-1
 1604 00c2 DEE7     		b	.L95
 1605              	.LVL160:
 1606              	.L104:
 289:./Application/Src/file_transfer.c ****     }
 1607              		.loc 1 289 16 view .LVU472
ARM GAS  C:\Users\Xuleo\AppData\Local\Temp\ccF1qpEe.s 			page 40


 1608              	.LBE29:
 1609              	.LBB30:
 295:./Application/Src/file_transfer.c ****         FT_SendResponse(FT_RSP_NAK, nakData, 3);
 1610              		.loc 1 295 9 is_stmt 1 view .LVU473
 295:./Application/Src/file_transfer.c ****         FT_SendResponse(FT_RSP_NAK, nakData, 3);
 1611              		.loc 1 295 17 is_stmt 0 view .LVU474
 1612 00c4 8DF80070 		strb	r7, [sp]
 1613 00c8 2D0A     		lsrs	r5, r5, #8
 1614              	.LVL161:
 295:./Application/Src/file_transfer.c ****         FT_SendResponse(FT_RSP_NAK, nakData, 3);
 1615              		.loc 1 295 17 view .LVU475
 1616 00ca 8DF80150 		strb	r5, [sp, #1]
 1617 00ce 0823     		movs	r3, #8
 1618 00d0 8DF80230 		strb	r3, [sp, #2]
 296:./Application/Src/file_transfer.c ****         return -1;
 1619              		.loc 1 296 9 is_stmt 1 view .LVU476
 1620 00d4 0322     		movs	r2, #3
 1621 00d6 6946     		mov	r1, sp
 1622 00d8 A120     		movs	r0, #161
 1623 00da FFF7FEFF 		bl	FT_SendResponse
 1624              	.LVL162:
 297:./Application/Src/file_transfer.c ****     }
 1625              		.loc 1 297 9 view .LVU477
 297:./Application/Src/file_transfer.c ****     }
 1626              		.loc 1 297 16 is_stmt 0 view .LVU478
 1627 00de 4FF0FF30 		mov	r0, #-1
 1628 00e2 CEE7     		b	.L95
 1629              	.L106:
 1630              		.align	2
 1631              	.L105:
 1632 00e4 00000000 		.word	song_ram
 1633 00e8 00000000 		.word	ram_rx_offset
 1634 00ec 00000000 		.word	RAM_track_index
 1635 00f0 00000000 		.word	.LANCHOR0
 1636              	.LBE30:
 1637              		.cfi_endproc
 1638              	.LFE366:
 1640              		.section	.text.RAM_ProcessPacket,"ax",%progbits
 1641              		.align	1
 1642              		.global	RAM_ProcessPacket
 1643              		.syntax unified
 1644              		.thumb
 1645              		.thumb_func
 1647              	RAM_ProcessPacket:
 1648              	.LVL163:
 1649              	.LFB370:
 395:./Application/Src/file_transfer.c **** 
 396:./Application/Src/file_transfer.c **** /* Handle FILE_ABORT packet */
 397:./Application/Src/file_transfer.c **** static int FT_HandleFileAbort(uint8_t *packet, uint16_t length)
 398:./Application/Src/file_transfer.c **** {
 399:./Application/Src/file_transfer.c ****     (void)packet;
 400:./Application/Src/file_transfer.c ****     (void)length;
 401:./Application/Src/file_transfer.c **** 
 402:./Application/Src/file_transfer.c ****     FT_Abort();
 403:./Application/Src/file_transfer.c ****     return 0;
 404:./Application/Src/file_transfer.c **** }
 405:./Application/Src/file_transfer.c **** 
ARM GAS  C:\Users\Xuleo\AppData\Local\Temp\ccF1qpEe.s 			page 41


 406:./Application/Src/file_transfer.c **** /* SD card FT - Process received packet */
 407:./Application/Src/file_transfer.c **** void FT_ProcessPacket(uint8_t *packet, uint16_t length)
 408:./Application/Src/file_transfer.c **** {
 409:./Application/Src/file_transfer.c ****     if (length == 0)
 410:./Application/Src/file_transfer.c ****         return;
 411:./Application/Src/file_transfer.c **** 
 412:./Application/Src/file_transfer.c ****     uint8_t command = packet[0];
 413:./Application/Src/file_transfer.c **** 
 414:./Application/Src/file_transfer.c ****     switch (command)
 415:./Application/Src/file_transfer.c ****     {
 416:./Application/Src/file_transfer.c ****     case FT_CMD_FILE_START:
 417:./Application/Src/file_transfer.c ****         FT_HandleFileStart(packet, length);
 418:./Application/Src/file_transfer.c ****         break;
 419:./Application/Src/file_transfer.c **** 
 420:./Application/Src/file_transfer.c ****     case FT_CMD_FILE_DATA:
 421:./Application/Src/file_transfer.c ****         FT_HandleFileData(packet, length);
 422:./Application/Src/file_transfer.c ****         break;
 423:./Application/Src/file_transfer.c **** 
 424:./Application/Src/file_transfer.c ****     case FT_CMD_FILE_END:
 425:./Application/Src/file_transfer.c ****         FT_HandleFileEnd(packet, length);
 426:./Application/Src/file_transfer.c ****         break;
 427:./Application/Src/file_transfer.c **** 
 428:./Application/Src/file_transfer.c ****     case FT_CMD_FILE_ABORT:
 429:./Application/Src/file_transfer.c ****         FT_HandleFileAbort(packet, length);
 430:./Application/Src/file_transfer.c ****         break;
 431:./Application/Src/file_transfer.c **** 
 432:./Application/Src/file_transfer.c ****     default:
 433:./Application/Src/file_transfer.c ****         FT_SendResponse(FT_RSP_ERROR, (uint8_t[]){FT_ERR_SEQUENCE}, 1);
 434:./Application/Src/file_transfer.c ****         break;
 435:./Application/Src/file_transfer.c ****     }
 436:./Application/Src/file_transfer.c **** }
 437:./Application/Src/file_transfer.c **** 
 438:./Application/Src/file_transfer.c **** /* RAM FT - Process received packet */
 439:./Application/Src/file_transfer.c **** void RAM_ProcessPacket(uint8_t *packet, uint16_t length)
 440:./Application/Src/file_transfer.c **** {
 1650              		.loc 1 440 1 is_stmt 1 view -0
 1651              		.cfi_startproc
 1652              		@ args = 0, pretend = 0, frame = 16
 1653              		@ frame_needed = 0, uses_anonymous_args = 0
 441:./Application/Src/file_transfer.c ****     // Minimal length is 2, smaller means corupted data packet
 442:./Application/Src/file_transfer.c ****     if (length < 2)
 1654              		.loc 1 442 5 view .LVU480
 1655              		.loc 1 442 8 is_stmt 0 view .LVU481
 1656 0000 0129     		cmp	r1, #1
 1657 0002 53D9     		bls	.L114
 440:./Application/Src/file_transfer.c ****     // Minimal length is 2, smaller means corupted data packet
 1658              		.loc 1 440 1 view .LVU482
 1659 0004 00B5     		push	{lr}
 1660              	.LCFI24:
 1661              		.cfi_def_cfa_offset 4
 1662              		.cfi_offset 14, -4
 1663 0006 85B0     		sub	sp, sp, #20
 1664              	.LCFI25:
 1665              		.cfi_def_cfa_offset 24
 443:./Application/Src/file_transfer.c ****         return;
 444:./Application/Src/file_transfer.c **** 
 445:./Application/Src/file_transfer.c ****     uint8_t command = packet[0];
ARM GAS  C:\Users\Xuleo\AppData\Local\Temp\ccF1qpEe.s 			page 42


 1666              		.loc 1 445 5 is_stmt 1 view .LVU483
 1667              		.loc 1 445 13 is_stmt 0 view .LVU484
 1668 0008 0378     		ldrb	r3, [r0]	@ zero_extendqisi2
 1669              	.LVL164:
 446:./Application/Src/file_transfer.c **** 
 447:./Application/Src/file_transfer.c ****     switch (command)
 1670              		.loc 1 447 5 is_stmt 1 view .LVU485
 1671 000a E12B     		cmp	r3, #225
 1672 000c 29D0     		beq	.L109
 1673 000e E22B     		cmp	r3, #226
 1674 0010 2BD0     		beq	.L110
 1675 0012 E02B     		cmp	r3, #224
 1676 0014 27D1     		bne	.L107
 448:./Application/Src/file_transfer.c ****     {
 449:./Application/Src/file_transfer.c ****         case FT_CMD_RAM_START: // [0xE0] [Start Signal]
 450:./Application/Src/file_transfer.c ****             if (packet[1] == RAM_SENTINEL_START){
 1677              		.loc 1 450 13 view .LVU486
 1678              		.loc 1 450 23 is_stmt 0 view .LVU487
 1679 0016 4378     		ldrb	r3, [r0, #1]	@ zero_extendqisi2
 1680              	.LVL165:
 1681              		.loc 1 450 16 view .LVU488
 1682 0018 782B     		cmp	r3, #120
 1683 001a 0DD0     		beq	.L117
 1684              	.LBB31:
 451:./Application/Src/file_transfer.c ****                 memset(song_ram, 0, RAM_SONG_MAX_BYTES);
 452:./Application/Src/file_transfer.c ****                 ram_rx_started = 1;
 453:./Application/Src/file_transfer.c ****                 ram_rx_complete = 0;
 454:./Application/Src/file_transfer.c ****                 ram_rx_offset = 0;
 455:./Application/Src/file_transfer.c ****                 RAM_track_index = 0; // reset track index at start of new RAM transfer
 456:./Application/Src/file_transfer.c ****                 FT_SendResponse(FT_RSP_READY, NULL, 0);
 457:./Application/Src/file_transfer.c ****             } else {
 458:./Application/Src/file_transfer.c ****                 FT_SendResponse(FT_RSP_NAK, (uint8_t[]){0, 0, FT_ERR_SEQUENCE}, 3);
 1685              		.loc 1 458 17 is_stmt 1 view .LVU489
 1686              		.loc 1 458 56 is_stmt 0 view .LVU490
 1687 001c 0023     		movs	r3, #0
 1688 001e 8DF80430 		strb	r3, [sp, #4]
 1689              	.LVL166:
 1690              		.loc 1 458 56 view .LVU491
 1691 0022 8DF80530 		strb	r3, [sp, #5]
 1692 0026 0223     		movs	r3, #2
 1693 0028 8DF80630 		strb	r3, [sp, #6]
 1694              		.loc 1 458 17 view .LVU492
 1695 002c 0322     		movs	r2, #3
 1696 002e 01A9     		add	r1, sp, #4
 1697              	.LVL167:
 1698              		.loc 1 458 17 view .LVU493
 1699 0030 A120     		movs	r0, #161
 1700              	.LVL168:
 1701              		.loc 1 458 17 view .LVU494
 1702 0032 FFF7FEFF 		bl	FT_SendResponse
 1703              	.LVL169:
 1704 0036 16E0     		b	.L107
 1705              	.LVL170:
 1706              	.L117:
 1707              		.loc 1 458 17 view .LVU495
 1708              	.LBE31:
 451:./Application/Src/file_transfer.c ****                 memset(song_ram, 0, RAM_SONG_MAX_BYTES);
ARM GAS  C:\Users\Xuleo\AppData\Local\Temp\ccF1qpEe.s 			page 43


 1709              		.loc 1 451 17 is_stmt 1 view .LVU496
 1710 0038 44F6D872 		movw	r2, #20440
 1711 003c 0021     		movs	r1, #0
 1712              	.LVL171:
 451:./Application/Src/file_transfer.c ****                 memset(song_ram, 0, RAM_SONG_MAX_BYTES);
 1713              		.loc 1 451 17 is_stmt 0 view .LVU497
 1714 003e 1C48     		ldr	r0, .L119
 1715              	.LVL172:
 451:./Application/Src/file_transfer.c ****                 memset(song_ram, 0, RAM_SONG_MAX_BYTES);
 1716              		.loc 1 451 17 view .LVU498
 1717 0040 FFF7FEFF 		bl	memset
 1718              	.LVL173:
 452:./Application/Src/file_transfer.c ****                 ram_rx_complete = 0;
 1719              		.loc 1 452 17 is_stmt 1 view .LVU499
 452:./Application/Src/file_transfer.c ****                 ram_rx_complete = 0;
 1720              		.loc 1 452 32 is_stmt 0 view .LVU500
 1721 0044 1B4B     		ldr	r3, .L119+4
 1722 0046 0122     		movs	r2, #1
 1723 0048 1A60     		str	r2, [r3]
 453:./Application/Src/file_transfer.c ****                 ram_rx_offset = 0;
 1724              		.loc 1 453 17 is_stmt 1 view .LVU501
 453:./Application/Src/file_transfer.c ****                 ram_rx_offset = 0;
 1725              		.loc 1 453 33 is_stmt 0 view .LVU502
 1726 004a 0021     		movs	r1, #0
 1727 004c 1A4B     		ldr	r3, .L119+8
 1728 004e 1960     		str	r1, [r3]
 454:./Application/Src/file_transfer.c ****                 RAM_track_index = 0; // reset track index at start of new RAM transfer
 1729              		.loc 1 454 17 is_stmt 1 view .LVU503
 454:./Application/Src/file_transfer.c ****                 RAM_track_index = 0; // reset track index at start of new RAM transfer
 1730              		.loc 1 454 31 is_stmt 0 view .LVU504
 1731 0050 1A4B     		ldr	r3, .L119+12
 1732 0052 1960     		str	r1, [r3]
 455:./Application/Src/file_transfer.c ****                 FT_SendResponse(FT_RSP_READY, NULL, 0);
 1733              		.loc 1 455 17 is_stmt 1 view .LVU505
 455:./Application/Src/file_transfer.c ****                 FT_SendResponse(FT_RSP_READY, NULL, 0);
 1734              		.loc 1 455 33 is_stmt 0 view .LVU506
 1735 0054 1A4B     		ldr	r3, .L119+16
 1736 0056 1960     		str	r1, [r3]
 456:./Application/Src/file_transfer.c ****             } else {
 1737              		.loc 1 456 17 is_stmt 1 view .LVU507
 1738 0058 0A46     		mov	r2, r1
 1739 005a A220     		movs	r0, #162
 1740 005c FFF7FEFF 		bl	FT_SendResponse
 1741              	.LVL174:
 1742 0060 01E0     		b	.L107
 1743              	.LVL175:
 1744              	.L109:
 459:./Application/Src/file_transfer.c ****             }
 460:./Application/Src/file_transfer.c ****             break;
 461:./Application/Src/file_transfer.c **** 
 462:./Application/Src/file_transfer.c ****         case FT_CMD_RAM_DATA: // [0xE1] [row_lo] [row_hi] [56 bytes] [checksum]
 463:./Application/Src/file_transfer.c ****             FT_HandleRAMData(packet, length);
 1745              		.loc 1 463 13 view .LVU508
 1746 0062 FFF7FEFF 		bl	FT_HandleRAMData
 1747              	.LVL176:
 464:./Application/Src/file_transfer.c ****             break;
 1748              		.loc 1 464 13 view .LVU509
ARM GAS  C:\Users\Xuleo\AppData\Local\Temp\ccF1qpEe.s 			page 44


 1749              	.L107:
 465:./Application/Src/file_transfer.c **** 
 466:./Application/Src/file_transfer.c ****         case FT_CMD_RAM_END: // [0xE2] [End Signal]
 467:./Application/Src/file_transfer.c ****             if (packet[1] == RAM_SENTINEL_END){
 468:./Application/Src/file_transfer.c ****                 ram_rx_complete = 1;
 469:./Application/Src/file_transfer.c ****                 RAM_transfer_complete = 1;
 470:./Application/Src/file_transfer.c ****                 FT_SendResponse(FT_RSP_SUCCESS, (uint8_t[]){0, 0}, 2);
 471:./Application/Src/file_transfer.c ****             } else {
 472:./Application/Src/file_transfer.c ****                 FT_SendResponse(FT_RSP_NAK, (uint8_t[]){0, 0, FT_ERR_SEQUENCE}, 3);
 473:./Application/Src/file_transfer.c ****             }
 474:./Application/Src/file_transfer.c ****             break;
 475:./Application/Src/file_transfer.c **** 
 476:./Application/Src/file_transfer.c ****         default:
 477:./Application/Src/file_transfer.c ****             // Handle unknown command
 478:./Application/Src/file_transfer.c ****             break;
 479:./Application/Src/file_transfer.c ****     }
 480:./Application/Src/file_transfer.c **** }
 1750              		.loc 1 480 1 is_stmt 0 view .LVU510
 1751 0066 05B0     		add	sp, sp, #20
 1752              	.LCFI26:
 1753              		.cfi_remember_state
 1754              		.cfi_def_cfa_offset 4
 1755              		@ sp needed
 1756 0068 00BD     		pop	{pc}
 1757              	.LVL177:
 1758              	.L110:
 1759              	.LCFI27:
 1760              		.cfi_restore_state
 467:./Application/Src/file_transfer.c ****                 ram_rx_complete = 1;
 1761              		.loc 1 467 13 is_stmt 1 view .LVU511
 467:./Application/Src/file_transfer.c ****                 ram_rx_complete = 1;
 1762              		.loc 1 467 23 is_stmt 0 view .LVU512
 1763 006a 4378     		ldrb	r3, [r0, #1]	@ zero_extendqisi2
 1764              	.LVL178:
 467:./Application/Src/file_transfer.c ****                 ram_rx_complete = 1;
 1765              		.loc 1 467 16 view .LVU513
 1766 006c 912B     		cmp	r3, #145
 1767 006e 0DD0     		beq	.L118
 1768              	.LBB32:
 472:./Application/Src/file_transfer.c ****             }
 1769              		.loc 1 472 17 is_stmt 1 view .LVU514
 472:./Application/Src/file_transfer.c ****             }
 1770              		.loc 1 472 56 is_stmt 0 view .LVU515
 1771 0070 0023     		movs	r3, #0
 1772 0072 8DF80C30 		strb	r3, [sp, #12]
 1773              	.LVL179:
 472:./Application/Src/file_transfer.c ****             }
 1774              		.loc 1 472 56 view .LVU516
 1775 0076 8DF80D30 		strb	r3, [sp, #13]
 1776 007a 0223     		movs	r3, #2
 1777 007c 8DF80E30 		strb	r3, [sp, #14]
 472:./Application/Src/file_transfer.c ****             }
 1778              		.loc 1 472 17 view .LVU517
 1779 0080 0322     		movs	r2, #3
 1780 0082 03A9     		add	r1, sp, #12
 1781              	.LVL180:
 472:./Application/Src/file_transfer.c ****             }
ARM GAS  C:\Users\Xuleo\AppData\Local\Temp\ccF1qpEe.s 			page 45


 1782              		.loc 1 472 17 view .LVU518
 1783 0084 A120     		movs	r0, #161
 1784              	.LVL181:
 472:./Application/Src/file_transfer.c ****             }
 1785              		.loc 1 472 17 view .LVU519
 1786 0086 FFF7FEFF 		bl	FT_SendResponse
 1787              	.LVL182:
 1788 008a ECE7     		b	.L107
 1789              	.LVL183:
 1790              	.L118:
 472:./Application/Src/file_transfer.c ****             }
 1791              		.loc 1 472 17 view .LVU520
 1792              	.LBE32:
 1793              	.LBB33:
 468:./Application/Src/file_transfer.c ****                 RAM_transfer_complete = 1;
 1794              		.loc 1 468 17 is_stmt 1 view .LVU521
 468:./Application/Src/file_transfer.c ****                 RAM_transfer_complete = 1;
 1795              		.loc 1 468 33 is_stmt 0 view .LVU522
 1796 008c 0123     		movs	r3, #1
 1797 008e 0A4A     		ldr	r2, .L119+8
 1798 0090 1360     		str	r3, [r2]
 1799              	.LVL184:
 469:./Application/Src/file_transfer.c ****                 FT_SendResponse(FT_RSP_SUCCESS, (uint8_t[]){0, 0}, 2);
 1800              		.loc 1 469 17 is_stmt 1 view .LVU523
 469:./Application/Src/file_transfer.c ****                 FT_SendResponse(FT_RSP_SUCCESS, (uint8_t[]){0, 0}, 2);
 1801              		.loc 1 469 39 is_stmt 0 view .LVU524
 1802 0092 0C4A     		ldr	r2, .L119+20
 1803 0094 1360     		str	r3, [r2]
 470:./Application/Src/file_transfer.c ****             } else {
 1804              		.loc 1 470 17 is_stmt 1 view .LVU525
 470:./Application/Src/file_transfer.c ****             } else {
 1805              		.loc 1 470 60 is_stmt 0 view .LVU526
 1806 0096 0023     		movs	r3, #0
 1807 0098 8DF80830 		strb	r3, [sp, #8]
 1808 009c 8DF80930 		strb	r3, [sp, #9]
 470:./Application/Src/file_transfer.c ****             } else {
 1809              		.loc 1 470 17 view .LVU527
 1810 00a0 0222     		movs	r2, #2
 1811 00a2 02A9     		add	r1, sp, #8
 1812              	.LVL185:
 470:./Application/Src/file_transfer.c ****             } else {
 1813              		.loc 1 470 17 view .LVU528
 1814 00a4 A420     		movs	r0, #164
 1815              	.LVL186:
 470:./Application/Src/file_transfer.c ****             } else {
 1816              		.loc 1 470 17 view .LVU529
 1817 00a6 FFF7FEFF 		bl	FT_SendResponse
 1818              	.LVL187:
 1819              	.LBE33:
 1820 00aa DCE7     		b	.L107
 1821              	.LVL188:
 1822              	.L114:
 1823              	.LCFI28:
 1824              		.cfi_def_cfa_offset 0
 1825              		.cfi_restore 14
 470:./Application/Src/file_transfer.c ****             } else {
 1826              		.loc 1 470 17 view .LVU530
ARM GAS  C:\Users\Xuleo\AppData\Local\Temp\ccF1qpEe.s 			page 46


 1827 00ac 7047     		bx	lr
 1828              	.L120:
 1829 00ae 00BF     		.align	2
 1830              	.L119:
 1831 00b0 00000000 		.word	song_ram
 1832 00b4 00000000 		.word	ram_rx_started
 1833 00b8 00000000 		.word	ram_rx_complete
 1834 00bc 00000000 		.word	ram_rx_offset
 1835 00c0 00000000 		.word	RAM_track_index
 1836 00c4 00000000 		.word	RAM_transfer_complete
 1837              		.cfi_endproc
 1838              	.LFE370:
 1840              		.section	.text.FT_Abort,"ax",%progbits
 1841              		.align	1
 1842              		.global	FT_Abort
 1843              		.syntax unified
 1844              		.thumb
 1845              		.thumb_func
 1847              	FT_Abort:
 1848              	.LFB372:
 481:./Application/Src/file_transfer.c **** 
 482:./Application/Src/file_transfer.c **** /* Check for timeout during transfer */
 483:./Application/Src/file_transfer.c **** void FT_TimeoutCheck(void)
 484:./Application/Src/file_transfer.c **** {
 485:./Application/Src/file_transfer.c ****     if (ftContext.state == FT_STATE_RECEIVING)
 486:./Application/Src/file_transfer.c ****     {
 487:./Application/Src/file_transfer.c ****         uint32_t elapsed = HAL_GetTick() - ftContext.lastActivityTime;
 488:./Application/Src/file_transfer.c ****         if (elapsed > FT_TIMEOUT_MS)
 489:./Application/Src/file_transfer.c ****         {
 490:./Application/Src/file_transfer.c ****             /* Timeout - abort transfer */
 491:./Application/Src/file_transfer.c ****             FT_Abort();
 492:./Application/Src/file_transfer.c ****             FT_SendResponse(FT_RSP_ERROR, (uint8_t[]){FT_ERR_TIMEOUT}, 1);
 493:./Application/Src/file_transfer.c ****         }
 494:./Application/Src/file_transfer.c ****     }
 495:./Application/Src/file_transfer.c **** }
 496:./Application/Src/file_transfer.c **** 
 497:./Application/Src/file_transfer.c **** /* Abort current transfer */
 498:./Application/Src/file_transfer.c **** void FT_Abort(void)
 499:./Application/Src/file_transfer.c **** {
 1849              		.loc 1 499 1 is_stmt 1 view -0
 1850              		.cfi_startproc
 1851              		@ args = 0, pretend = 0, frame = 0
 1852              		@ frame_needed = 0, uses_anonymous_args = 0
 1853 0000 08B5     		push	{r3, lr}
 1854              	.LCFI29:
 1855              		.cfi_def_cfa_offset 8
 1856              		.cfi_offset 3, -8
 1857              		.cfi_offset 14, -4
 500:./Application/Src/file_transfer.c ****     if (ftContext.state == FT_STATE_RECEIVING)
 1858              		.loc 1 500 5 view .LVU532
 1859              		.loc 1 500 18 is_stmt 0 view .LVU533
 1860 0002 094B     		ldr	r3, .L125
 1861 0004 1B78     		ldrb	r3, [r3]	@ zero_extendqisi2
 1862              		.loc 1 500 8 view .LVU534
 1863 0006 012B     		cmp	r3, #1
 1864 0008 05D0     		beq	.L124
 1865              	.L122:
ARM GAS  C:\Users\Xuleo\AppData\Local\Temp\ccF1qpEe.s 			page 47


 501:./Application/Src/file_transfer.c ****     {
 502:./Application/Src/file_transfer.c ****         /* Close and delete incomplete file */
 503:./Application/Src/file_transfer.c ****         f_close(&ftContext.file);
 504:./Application/Src/file_transfer.c ****         f_unlink(ftContext.filename);
 505:./Application/Src/file_transfer.c ****     }
 506:./Application/Src/file_transfer.c **** 
 507:./Application/Src/file_transfer.c ****     ftContext.state = FT_STATE_IDLE;
 1866              		.loc 1 507 5 is_stmt 1 view .LVU535
 1867              		.loc 1 507 21 is_stmt 0 view .LVU536
 1868 000a 074B     		ldr	r3, .L125
 1869 000c 0022     		movs	r2, #0
 1870 000e 1A70     		strb	r2, [r3]
 508:./Application/Src/file_transfer.c ****     ftContext.errorCode = FT_ERR_NONE;
 1871              		.loc 1 508 5 is_stmt 1 view .LVU537
 1872              		.loc 1 508 25 is_stmt 0 view .LVU538
 1873 0010 83F84C22 		strb	r2, [r3, #588]
 509:./Application/Src/file_transfer.c **** }
 1874              		.loc 1 509 1 view .LVU539
 1875 0014 08BD     		pop	{r3, pc}
 1876              	.L124:
 503:./Application/Src/file_transfer.c ****         f_unlink(ftContext.filename);
 1877              		.loc 1 503 9 is_stmt 1 view .LVU540
 1878 0016 0548     		ldr	r0, .L125+4
 1879 0018 FFF7FEFF 		bl	f_close
 1880              	.LVL189:
 504:./Application/Src/file_transfer.c ****     }
 1881              		.loc 1 504 9 view .LVU541
 1882 001c 034B     		ldr	r3, .L125+4
 1883 001e 03F50A70 		add	r0, r3, #552
 1884 0022 FFF7FEFF 		bl	f_unlink
 1885              	.LVL190:
 1886 0026 F0E7     		b	.L122
 1887              	.L126:
 1888              		.align	2
 1889              	.L125:
 1890 0028 00000000 		.word	ftContext
 1891 002c 04000000 		.word	ftContext+4
 1892              		.cfi_endproc
 1893              	.LFE372:
 1895              		.section	.text.FT_HandleFileAbort,"ax",%progbits
 1896              		.align	1
 1897              		.syntax unified
 1898              		.thumb
 1899              		.thumb_func
 1901              	FT_HandleFileAbort:
 1902              	.LVL191:
 1903              	.LFB368:
 398:./Application/Src/file_transfer.c ****     (void)packet;
 1904              		.loc 1 398 1 view -0
 1905              		.cfi_startproc
 1906              		@ args = 0, pretend = 0, frame = 0
 1907              		@ frame_needed = 0, uses_anonymous_args = 0
 398:./Application/Src/file_transfer.c ****     (void)packet;
 1908              		.loc 1 398 1 is_stmt 0 view .LVU543
 1909 0000 08B5     		push	{r3, lr}
 1910              	.LCFI30:
 1911              		.cfi_def_cfa_offset 8
ARM GAS  C:\Users\Xuleo\AppData\Local\Temp\ccF1qpEe.s 			page 48


 1912              		.cfi_offset 3, -8
 1913              		.cfi_offset 14, -4
 399:./Application/Src/file_transfer.c ****     (void)length;
 1914              		.loc 1 399 5 is_stmt 1 view .LVU544
 400:./Application/Src/file_transfer.c **** 
 1915              		.loc 1 400 5 view .LVU545
 402:./Application/Src/file_transfer.c ****     return 0;
 1916              		.loc 1 402 5 view .LVU546
 1917 0002 FFF7FEFF 		bl	FT_Abort
 1918              	.LVL192:
 403:./Application/Src/file_transfer.c **** }
 1919              		.loc 1 403 5 view .LVU547
 404:./Application/Src/file_transfer.c **** 
 1920              		.loc 1 404 1 is_stmt 0 view .LVU548
 1921 0006 0020     		movs	r0, #0
 1922 0008 08BD     		pop	{r3, pc}
 1923              		.cfi_endproc
 1924              	.LFE368:
 1926              		.section	.text.FT_ProcessPacket,"ax",%progbits
 1927              		.align	1
 1928              		.global	FT_ProcessPacket
 1929              		.syntax unified
 1930              		.thumb
 1931              		.thumb_func
 1933              	FT_ProcessPacket:
 1934              	.LVL193:
 1935              	.LFB369:
 408:./Application/Src/file_transfer.c ****     if (length == 0)
 1936              		.loc 1 408 1 is_stmt 1 view -0
 1937              		.cfi_startproc
 1938              		@ args = 0, pretend = 0, frame = 8
 1939              		@ frame_needed = 0, uses_anonymous_args = 0
 409:./Application/Src/file_transfer.c ****         return;
 1940              		.loc 1 409 5 view .LVU550
 409:./Application/Src/file_transfer.c ****         return;
 1941              		.loc 1 409 8 is_stmt 0 view .LVU551
 1942 0000 09B3     		cbz	r1, .L139
 408:./Application/Src/file_transfer.c ****     if (length == 0)
 1943              		.loc 1 408 1 view .LVU552
 1944 0002 00B5     		push	{lr}
 1945              	.LCFI31:
 1946              		.cfi_def_cfa_offset 4
 1947              		.cfi_offset 14, -4
 1948 0004 83B0     		sub	sp, sp, #12
 1949              	.LCFI32:
 1950              		.cfi_def_cfa_offset 16
 412:./Application/Src/file_transfer.c **** 
 1951              		.loc 1 412 5 is_stmt 1 view .LVU553
 412:./Application/Src/file_transfer.c **** 
 1952              		.loc 1 412 13 is_stmt 0 view .LVU554
 1953 0006 0378     		ldrb	r3, [r0]	@ zero_extendqisi2
 1954              	.LVL194:
 414:./Application/Src/file_transfer.c ****     {
 1955              		.loc 1 414 5 is_stmt 1 view .LVU555
 1956 0008 F22B     		cmp	r3, #242
 1957 000a 10D0     		beq	.L131
 1958 000c 06D8     		bhi	.L132
ARM GAS  C:\Users\Xuleo\AppData\Local\Temp\ccF1qpEe.s 			page 49


 1959 000e F02B     		cmp	r3, #240
 1960 0010 09D0     		beq	.L133
 1961 0012 F12B     		cmp	r3, #241
 1962 0014 0ED1     		bne	.L135
 1963              	.LBB34:
 421:./Application/Src/file_transfer.c ****         break;
 1964              		.loc 1 421 9 view .LVU556
 1965 0016 FFF7FEFF 		bl	FT_HandleFileData
 1966              	.LVL195:
 422:./Application/Src/file_transfer.c **** 
 1967              		.loc 1 422 9 view .LVU557
 1968 001a 06E0     		b	.L129
 1969              	.LVL196:
 1970              	.L132:
 422:./Application/Src/file_transfer.c **** 
 1971              		.loc 1 422 9 is_stmt 0 view .LVU558
 1972              	.LBE34:
 414:./Application/Src/file_transfer.c ****     {
 1973              		.loc 1 414 5 view .LVU559
 1974 001c F32B     		cmp	r3, #243
 1975 001e 09D1     		bne	.L135
 1976              	.LBB35:
 429:./Application/Src/file_transfer.c ****         break;
 1977              		.loc 1 429 9 is_stmt 1 view .LVU560
 1978 0020 FFF7FEFF 		bl	FT_HandleFileAbort
 1979              	.LVL197:
 430:./Application/Src/file_transfer.c **** 
 1980              		.loc 1 430 9 view .LVU561
 1981 0024 01E0     		b	.L129
 1982              	.LVL198:
 1983              	.L133:
 417:./Application/Src/file_transfer.c ****         break;
 1984              		.loc 1 417 9 view .LVU562
 1985 0026 FFF7FEFF 		bl	FT_HandleFileStart
 1986              	.LVL199:
 418:./Application/Src/file_transfer.c **** 
 1987              		.loc 1 418 9 view .LVU563
 1988              	.L129:
 1989              	.LBE35:
 436:./Application/Src/file_transfer.c **** 
 1990              		.loc 1 436 1 is_stmt 0 view .LVU564
 1991 002a 03B0     		add	sp, sp, #12
 1992              	.LCFI33:
 1993              		.cfi_remember_state
 1994              		.cfi_def_cfa_offset 4
 1995              		@ sp needed
 1996 002c 00BD     		pop	{pc}
 1997              	.LVL200:
 1998              	.L131:
 1999              	.LCFI34:
 2000              		.cfi_restore_state
 2001              	.LBB36:
 425:./Application/Src/file_transfer.c ****         break;
 2002              		.loc 1 425 9 is_stmt 1 view .LVU565
 2003 002e FFF7FEFF 		bl	FT_HandleFileEnd
 2004              	.LVL201:
 426:./Application/Src/file_transfer.c **** 
ARM GAS  C:\Users\Xuleo\AppData\Local\Temp\ccF1qpEe.s 			page 50


 2005              		.loc 1 426 9 view .LVU566
 2006 0032 FAE7     		b	.L129
 2007              	.LVL202:
 2008              	.L135:
 433:./Application/Src/file_transfer.c ****         break;
 2009              		.loc 1 433 9 view .LVU567
 433:./Application/Src/file_transfer.c ****         break;
 2010              		.loc 1 433 50 is_stmt 0 view .LVU568
 2011 0034 0223     		movs	r3, #2
 2012              	.LVL203:
 433:./Application/Src/file_transfer.c ****         break;
 2013              		.loc 1 433 50 view .LVU569
 2014 0036 8DF80430 		strb	r3, [sp, #4]
 2015              	.LVL204:
 433:./Application/Src/file_transfer.c ****         break;
 2016              		.loc 1 433 9 view .LVU570
 2017 003a 0122     		movs	r2, #1
 2018 003c 01A9     		add	r1, sp, #4
 2019              	.LVL205:
 433:./Application/Src/file_transfer.c ****         break;
 2020              		.loc 1 433 9 view .LVU571
 2021 003e A320     		movs	r0, #163
 2022              	.LVL206:
 433:./Application/Src/file_transfer.c ****         break;
 2023              		.loc 1 433 9 view .LVU572
 2024 0040 FFF7FEFF 		bl	FT_SendResponse
 2025              	.LVL207:
 434:./Application/Src/file_transfer.c ****     }
 2026              		.loc 1 434 9 is_stmt 1 view .LVU573
 2027 0044 F1E7     		b	.L129
 2028              	.LVL208:
 2029              	.L139:
 2030              	.LCFI35:
 2031              		.cfi_def_cfa_offset 0
 2032              		.cfi_restore 14
 434:./Application/Src/file_transfer.c ****     }
 2033              		.loc 1 434 9 is_stmt 0 view .LVU574
 2034 0046 7047     		bx	lr
 2035              	.LBE36:
 2036              		.cfi_endproc
 2037              	.LFE369:
 2039              		.section	.text.FT_TimeoutCheck,"ax",%progbits
 2040              		.align	1
 2041              		.global	FT_TimeoutCheck
 2042              		.syntax unified
 2043              		.thumb
 2044              		.thumb_func
 2046              	FT_TimeoutCheck:
 2047              	.LFB371:
 484:./Application/Src/file_transfer.c ****     if (ftContext.state == FT_STATE_RECEIVING)
 2048              		.loc 1 484 1 is_stmt 1 view -0
 2049              		.cfi_startproc
 2050              		@ args = 0, pretend = 0, frame = 8
 2051              		@ frame_needed = 0, uses_anonymous_args = 0
 485:./Application/Src/file_transfer.c ****     {
 2052              		.loc 1 485 5 view .LVU576
 485:./Application/Src/file_transfer.c ****     {
ARM GAS  C:\Users\Xuleo\AppData\Local\Temp\ccF1qpEe.s 			page 51


 2053              		.loc 1 485 18 is_stmt 0 view .LVU577
 2054 0000 0E4B     		ldr	r3, .L150
 2055 0002 1B78     		ldrb	r3, [r3]	@ zero_extendqisi2
 485:./Application/Src/file_transfer.c ****     {
 2056              		.loc 1 485 8 view .LVU578
 2057 0004 012B     		cmp	r3, #1
 2058 0006 00D0     		beq	.L148
 2059 0008 7047     		bx	lr
 2060              	.L148:
 484:./Application/Src/file_transfer.c ****     if (ftContext.state == FT_STATE_RECEIVING)
 2061              		.loc 1 484 1 view .LVU579
 2062 000a 00B5     		push	{lr}
 2063              	.LCFI36:
 2064              		.cfi_def_cfa_offset 4
 2065              		.cfi_offset 14, -4
 2066 000c 83B0     		sub	sp, sp, #12
 2067              	.LCFI37:
 2068              		.cfi_def_cfa_offset 16
 2069              	.LBB37:
 487:./Application/Src/file_transfer.c ****         if (elapsed > FT_TIMEOUT_MS)
 2070              		.loc 1 487 9 is_stmt 1 view .LVU580
 487:./Application/Src/file_transfer.c ****         if (elapsed > FT_TIMEOUT_MS)
 2071              		.loc 1 487 28 is_stmt 0 view .LVU581
 2072 000e FFF7FEFF 		bl	HAL_GetTick
 2073              	.LVL209:
 487:./Application/Src/file_transfer.c ****         if (elapsed > FT_TIMEOUT_MS)
 2074              		.loc 1 487 53 discriminator 1 view .LVU582
 2075 0012 0A4B     		ldr	r3, .L150
 2076 0014 D3F84832 		ldr	r3, [r3, #584]
 487:./Application/Src/file_transfer.c ****         if (elapsed > FT_TIMEOUT_MS)
 2077              		.loc 1 487 18 discriminator 1 view .LVU583
 2078 0018 C01A     		subs	r0, r0, r3
 2079              	.LVL210:
 488:./Application/Src/file_transfer.c ****         {
 2080              		.loc 1 488 9 is_stmt 1 view .LVU584
 488:./Application/Src/file_transfer.c ****         {
 2081              		.loc 1 488 12 is_stmt 0 view .LVU585
 2082 001a 47F23053 		movw	r3, #30000
 2083 001e 9842     		cmp	r0, r3
 2084 0020 01D8     		bhi	.L149
 2085              	.LVL211:
 2086              	.L142:
 488:./Application/Src/file_transfer.c ****         {
 2087              		.loc 1 488 12 view .LVU586
 2088              	.LBE37:
 495:./Application/Src/file_transfer.c **** 
 2089              		.loc 1 495 1 view .LVU587
 2090 0022 03B0     		add	sp, sp, #12
 2091              	.LCFI38:
 2092              		.cfi_remember_state
 2093              		.cfi_def_cfa_offset 4
 2094              		@ sp needed
 2095 0024 00BD     		pop	{pc}
 2096              	.LVL212:
 2097              	.L149:
 2098              	.LCFI39:
 2099              		.cfi_restore_state
ARM GAS  C:\Users\Xuleo\AppData\Local\Temp\ccF1qpEe.s 			page 52


 2100              	.LBB39:
 2101              	.LBB38:
 491:./Application/Src/file_transfer.c ****             FT_SendResponse(FT_RSP_ERROR, (uint8_t[]){FT_ERR_TIMEOUT}, 1);
 2102              		.loc 1 491 13 is_stmt 1 view .LVU588
 2103 0026 FFF7FEFF 		bl	FT_Abort
 2104              	.LVL213:
 492:./Application/Src/file_transfer.c ****         }
 2105              		.loc 1 492 13 view .LVU589
 492:./Application/Src/file_transfer.c ****         }
 2106              		.loc 1 492 54 is_stmt 0 view .LVU590
 2107 002a 0723     		movs	r3, #7
 2108 002c 8DF80430 		strb	r3, [sp, #4]
 492:./Application/Src/file_transfer.c ****         }
 2109              		.loc 1 492 13 view .LVU591
 2110 0030 0122     		movs	r2, #1
 2111 0032 01A9     		add	r1, sp, #4
 2112 0034 A320     		movs	r0, #163
 2113 0036 FFF7FEFF 		bl	FT_SendResponse
 2114              	.LVL214:
 2115              	.LBE38:
 2116              	.LBE39:
 495:./Application/Src/file_transfer.c **** 
 2117              		.loc 1 495 1 view .LVU592
 2118 003a F2E7     		b	.L142
 2119              	.L151:
 2120              		.align	2
 2121              	.L150:
 2122 003c 00000000 		.word	ftContext
 2123              		.cfi_endproc
 2124              	.LFE371:
 2126              		.section	.text.FT_GetState,"ax",%progbits
 2127              		.align	1
 2128              		.global	FT_GetState
 2129              		.syntax unified
 2130              		.thumb
 2131              		.thumb_func
 2133              	FT_GetState:
 2134              	.LFB373:
 510:./Application/Src/file_transfer.c **** 
 511:./Application/Src/file_transfer.c **** /* Get current transfer state */
 512:./Application/Src/file_transfer.c **** FT_State_t FT_GetState(void)
 513:./Application/Src/file_transfer.c **** {
 2135              		.loc 1 513 1 is_stmt 1 view -0
 2136              		.cfi_startproc
 2137              		@ args = 0, pretend = 0, frame = 0
 2138              		@ frame_needed = 0, uses_anonymous_args = 0
 2139              		@ link register save eliminated.
 514:./Application/Src/file_transfer.c ****     return ftContext.state;
 2140              		.loc 1 514 5 view .LVU594
 515:./Application/Src/file_transfer.c **** }
 2141              		.loc 1 515 1 is_stmt 0 view .LVU595
 2142 0000 014B     		ldr	r3, .L153
 2143 0002 1878     		ldrb	r0, [r3]	@ zero_extendqisi2
 2144 0004 7047     		bx	lr
 2145              	.L154:
 2146 0006 00BF     		.align	2
 2147              	.L153:
ARM GAS  C:\Users\Xuleo\AppData\Local\Temp\ccF1qpEe.s 			page 53


 2148 0008 00000000 		.word	ftContext
 2149              		.cfi_endproc
 2150              	.LFE373:
 2152              		.section	.text.FT_GetProgress,"ax",%progbits
 2153              		.align	1
 2154              		.global	FT_GetProgress
 2155              		.syntax unified
 2156              		.thumb
 2157              		.thumb_func
 2159              	FT_GetProgress:
 2160              	.LFB374:
 516:./Application/Src/file_transfer.c **** 
 517:./Application/Src/file_transfer.c **** /* Get transfer progress (0-100) */
 518:./Application/Src/file_transfer.c **** uint8_t FT_GetProgress(void)
 519:./Application/Src/file_transfer.c **** {
 2161              		.loc 1 519 1 is_stmt 1 view -0
 2162              		.cfi_startproc
 2163              		@ args = 0, pretend = 0, frame = 0
 2164              		@ frame_needed = 0, uses_anonymous_args = 0
 2165              		@ link register save eliminated.
 520:./Application/Src/file_transfer.c ****     if (ftContext.state != FT_STATE_RECEIVING || ftContext.totalChunks == 0)
 2166              		.loc 1 520 5 view .LVU597
 2167              		.loc 1 520 18 is_stmt 0 view .LVU598
 2168 0000 0A4B     		ldr	r3, .L159
 2169 0002 1B78     		ldrb	r3, [r3]	@ zero_extendqisi2
 2170              		.loc 1 520 8 view .LVU599
 2171 0004 012B     		cmp	r3, #1
 2172 0006 0DD1     		bne	.L157
 2173              		.loc 1 520 59 discriminator 1 view .LVU600
 2174 0008 084B     		ldr	r3, .L159
 2175 000a B3F84432 		ldrh	r3, [r3, #580]
 2176              		.loc 1 520 47 discriminator 1 view .LVU601
 2177 000e 5BB1     		cbz	r3, .L158
 521:./Application/Src/file_transfer.c ****     {
 522:./Application/Src/file_transfer.c ****         return 0;
 523:./Application/Src/file_transfer.c ****     }
 524:./Application/Src/file_transfer.c ****     return (uint8_t)((ftContext.currentChunk * 100) / ftContext.totalChunks);
 2178              		.loc 1 524 5 is_stmt 1 view .LVU602
 2179              		.loc 1 524 32 is_stmt 0 view .LVU603
 2180 0010 064A     		ldr	r2, .L159
 2181 0012 B2F84602 		ldrh	r0, [r2, #582]
 2182              		.loc 1 524 46 view .LVU604
 2183 0016 6422     		movs	r2, #100
 2184 0018 02FB00F0 		mul	r0, r2, r0
 2185              		.loc 1 524 53 view .LVU605
 2186 001c 90FBF3F0 		sdiv	r0, r0, r3
 2187              		.loc 1 524 12 view .LVU606
 2188 0020 C0B2     		uxtb	r0, r0
 2189 0022 7047     		bx	lr
 2190              	.L157:
 522:./Application/Src/file_transfer.c ****     }
 2191              		.loc 1 522 16 view .LVU607
 2192 0024 0020     		movs	r0, #0
 2193 0026 7047     		bx	lr
 2194              	.L158:
 2195 0028 1846     		mov	r0, r3
 525:./Application/Src/file_transfer.c **** }
ARM GAS  C:\Users\Xuleo\AppData\Local\Temp\ccF1qpEe.s 			page 54


 2196              		.loc 1 525 1 view .LVU608
 2197 002a 7047     		bx	lr
 2198              	.L160:
 2199              		.align	2
 2200              	.L159:
 2201 002c 00000000 		.word	ftContext
 2202              		.cfi_endproc
 2203              	.LFE374:
 2205              		.global	RAM_transfer_complete
 2206              		.section	.bss.RAM_transfer_complete,"aw",%nobits
 2207              		.align	2
 2210              	RAM_transfer_complete:
 2211 0000 00000000 		.space	4
 2212              		.global	RAM_track_index
 2213              		.section	.bss.RAM_track_index,"aw",%nobits
 2214              		.align	2
 2217              	RAM_track_index:
 2218 0000 00000000 		.space	4
 2219              		.section	.bss.lastCompletedTime,"aw",%nobits
 2220              		.align	2
 2223              	lastCompletedTime:
 2224 0000 00000000 		.space	4
 2225              		.section	.bss.lastCompletedBytes,"aw",%nobits
 2226              		.align	1
 2229              	lastCompletedBytes:
 2230 0000 0000     		.space	2
 2231              		.section	.bss.ftWriteBufferIndex,"aw",%nobits
 2232              		.align	1
 2235              	ftWriteBufferIndex:
 2236 0000 0000     		.space	2
 2237              		.section	.bss.ftWriteBuffer,"aw",%nobits
 2238              		.align	2
 2241              	ftWriteBuffer:
 2242 0000 00000000 		.space	512
 2242      00000000 
 2242      00000000 
 2242      00000000 
 2242      00000000 
 2243              		.section	.bss.ftContext,"aw",%nobits
 2244              		.align	2
 2247              	ftContext:
 2248 0000 00000000 		.space	592
 2248      00000000 
 2248      00000000 
 2248      00000000 
 2248      00000000 
 2249              		.section	.rodata
 2250              		.align	2
 2251              		.set	.LANCHOR0,. + 0
 2252              	.LC1:
 2253 0000 000008   		.ascii	"\000\000\010"
 2254              		.text
 2255              	.Letext0:
 2256              		.file 2 "C:/thirdpartyLibs/arm-gnu-toolchain-15.2/arm-none-eabi/include/machine/_default_types.h"
 2257              		.file 3 "C:/thirdpartyLibs/arm-gnu-toolchain-15.2/arm-none-eabi/include/sys/_stdint.h"
 2258              		.file 4 "ThirdParty/FatFs/Inc/ff.h"
 2259              		.file 5 "Application/Inc/file_transfer.h"
ARM GAS  C:\Users\Xuleo\AppData\Local\Temp\ccF1qpEe.s 			page 55


 2260              		.file 6 "Drivers/CMSIS/Device/ST/STM32H5xx/Include/stm32h523xx.h"
 2261              		.file 7 "Drivers/STM32H5xx_HAL_Driver/Inc/stm32h5xx_hal_def.h"
 2262              		.file 8 "Drivers/STM32H5xx_HAL_Driver/Inc/stm32h5xx_hal_dma.h"
 2263              		.file 9 "Drivers/STM32H5xx_HAL_Driver/Inc/stm32h5xx_hal_dma_ex.h"
 2264              		.file 10 "Drivers/STM32H5xx_HAL_Driver/Inc/stm32h5xx_hal_uart.h"
 2265              		.file 11 "Core/Inc/usart.h"
 2266              		.file 12 "Application/Inc/application.h"
 2267              		.file 13 "C:/thirdpartyLibs/arm-gnu-toolchain-15.2/arm-none-eabi/include/stdio.h"
 2268              		.file 14 "C:/thirdpartyLibs/arm-gnu-toolchain-15.2/arm-none-eabi/include/string.h"
 2269              		.file 15 "<built-in>"
 2270              		.file 16 "Application/Inc/sd.h"
 2271              		.file 17 "Drivers/STM32H5xx_HAL_Driver/Inc/stm32h5xx_hal.h"
ARM GAS  C:\Users\Xuleo\AppData\Local\Temp\ccF1qpEe.s 			page 56

