ARM GAS  C:\Users\Xuleo\AppData\Local\Temp\ccg10spl.s 			page 1


   1              		.cpu cortex-m33
   2              		.arch armv8-m.main
   3              		.fpu fpv4-sp-d16
   4              		.arch_extension dsp
   5              		.eabi_attribute 27, 1
   6              		.eabi_attribute 28, 1
   7              		.eabi_attribute 20, 1
   8              		.eabi_attribute 21, 1
   9              		.eabi_attribute 23, 3
  10              		.eabi_attribute 24, 1
  11              		.eabi_attribute 25, 1
  12              		.eabi_attribute 26, 1
  13              		.eabi_attribute 30, 1
  14              		.eabi_attribute 34, 1
  15              		.eabi_attribute 18, 4
  16              		.file	"gpio.c"
  17              		.text
  18              	.Ltext0:
  19              		.cfi_sections	.debug_frame
  20              		.file 1 "Core/Src/gpio.c"
  21              		.section	.text.MX_GPIO_Init,"ax",%progbits
  22              		.align	1
  23              		.global	MX_GPIO_Init
  24              		.syntax unified
  25              		.thumb
  26              		.thumb_func
  28              	MX_GPIO_Init:
  29              	.LFB160:
   1:Core/Src/gpio.c **** /* USER CODE BEGIN Header */
   2:Core/Src/gpio.c **** /**
   3:Core/Src/gpio.c ****   ******************************************************************************
   4:Core/Src/gpio.c ****   * @file    gpio.c
   5:Core/Src/gpio.c ****   * @brief   This file provides code for the configuration
   6:Core/Src/gpio.c ****   *          of all used GPIO pins.
   7:Core/Src/gpio.c ****   ******************************************************************************
   8:Core/Src/gpio.c ****   * @attention
   9:Core/Src/gpio.c ****   *
  10:Core/Src/gpio.c ****   * Copyright (c) 2026 STMicroelectronics.
  11:Core/Src/gpio.c ****   * All rights reserved.
  12:Core/Src/gpio.c ****   *
  13:Core/Src/gpio.c ****   * This software is licensed under terms that can be found in the LICENSE file
  14:Core/Src/gpio.c ****   * in the root directory of this software component.
  15:Core/Src/gpio.c ****   * If no LICENSE file comes with this software, it is provided AS-IS.
  16:Core/Src/gpio.c ****   *
  17:Core/Src/gpio.c ****   ******************************************************************************
  18:Core/Src/gpio.c ****   */
  19:Core/Src/gpio.c **** /* USER CODE END Header */
  20:Core/Src/gpio.c **** 
  21:Core/Src/gpio.c **** /* Includes ------------------------------------------------------------------*/
  22:Core/Src/gpio.c **** #include "gpio.h"
  23:Core/Src/gpio.c **** 
  24:Core/Src/gpio.c **** /* USER CODE BEGIN 0 */
  25:Core/Src/gpio.c **** 
  26:Core/Src/gpio.c **** /* USER CODE END 0 */
  27:Core/Src/gpio.c **** 
  28:Core/Src/gpio.c **** /*----------------------------------------------------------------------------*/
  29:Core/Src/gpio.c **** /* Configure GPIO                                                             */
ARM GAS  C:\Users\Xuleo\AppData\Local\Temp\ccg10spl.s 			page 2


  30:Core/Src/gpio.c **** /*----------------------------------------------------------------------------*/
  31:Core/Src/gpio.c **** /* USER CODE BEGIN 1 */
  32:Core/Src/gpio.c **** 
  33:Core/Src/gpio.c **** /* USER CODE END 1 */
  34:Core/Src/gpio.c **** 
  35:Core/Src/gpio.c **** /** Configure pins
  36:Core/Src/gpio.c ****      PA13(JTMS/SWDIO)   ------> DEBUG_JTMS-SWDIO
  37:Core/Src/gpio.c ****      PA14(JTCK/SWCLK)   ------> DEBUG_JTCK-SWCLK
  38:Core/Src/gpio.c ****      PA15(JTDI)   ------> DEBUG_JTDI
  39:Core/Src/gpio.c ****      PB3(JTDO/TRACESWO)   ------> DEBUG_JTDO-SWO
  40:Core/Src/gpio.c **** */
  41:Core/Src/gpio.c **** void MX_GPIO_Init(void)
  42:Core/Src/gpio.c **** {
  30              		.loc 1 42 1 view -0
  31              		.cfi_startproc
  32              		@ args = 0, pretend = 0, frame = 32
  33              		@ frame_needed = 0, uses_anonymous_args = 0
  34 0000 70B5     		push	{r4, r5, r6, lr}
  35              	.LCFI0:
  36              		.cfi_def_cfa_offset 16
  37              		.cfi_offset 4, -16
  38              		.cfi_offset 5, -12
  39              		.cfi_offset 6, -8
  40              		.cfi_offset 14, -4
  41 0002 88B0     		sub	sp, sp, #32
  42              	.LCFI1:
  43              		.cfi_def_cfa_offset 48
  43:Core/Src/gpio.c **** 
  44:Core/Src/gpio.c ****   GPIO_InitTypeDef GPIO_InitStruct = {0};
  44              		.loc 1 44 3 view .LVU1
  45              		.loc 1 44 20 is_stmt 0 view .LVU2
  46 0004 03AD     		add	r5, sp, #12
  47 0006 0024     		movs	r4, #0
  48 0008 0394     		str	r4, [sp, #12]
  49 000a 0494     		str	r4, [sp, #16]
  50 000c 0594     		str	r4, [sp, #20]
  51 000e 0694     		str	r4, [sp, #24]
  52 0010 0794     		str	r4, [sp, #28]
  45:Core/Src/gpio.c **** 
  46:Core/Src/gpio.c ****   /* GPIO Ports Clock Enable */
  47:Core/Src/gpio.c ****   __HAL_RCC_GPIOC_CLK_ENABLE();
  53              		.loc 1 47 3 is_stmt 1 view .LVU3
  54              	.LBB2:
  55              		.loc 1 47 3 view .LVU4
  56              		.loc 1 47 3 view .LVU5
  57 0012 204B     		ldr	r3, .L3
  58 0014 D3F88C20 		ldr	r2, [r3, #140]
  59 0018 42F00402 		orr	r2, r2, #4
  60 001c C3F88C20 		str	r2, [r3, #140]
  61              		.loc 1 47 3 view .LVU6
  62 0020 D3F88C20 		ldr	r2, [r3, #140]
  63 0024 02F00402 		and	r2, r2, #4
  64 0028 0092     		str	r2, [sp]
  65              		.loc 1 47 3 view .LVU7
  66 002a 009A     		ldr	r2, [sp]
  67              	.LBE2:
  68              		.loc 1 47 3 view .LVU8
ARM GAS  C:\Users\Xuleo\AppData\Local\Temp\ccg10spl.s 			page 3


  48:Core/Src/gpio.c ****   __HAL_RCC_GPIOA_CLK_ENABLE();
  69              		.loc 1 48 3 view .LVU9
  70              	.LBB3:
  71              		.loc 1 48 3 view .LVU10
  72              		.loc 1 48 3 view .LVU11
  73 002c D3F88C20 		ldr	r2, [r3, #140]
  74 0030 42F00102 		orr	r2, r2, #1
  75 0034 C3F88C20 		str	r2, [r3, #140]
  76              		.loc 1 48 3 view .LVU12
  77 0038 D3F88C20 		ldr	r2, [r3, #140]
  78 003c 02F00102 		and	r2, r2, #1
  79 0040 0192     		str	r2, [sp, #4]
  80              		.loc 1 48 3 view .LVU13
  81 0042 019A     		ldr	r2, [sp, #4]
  82              	.LBE3:
  83              		.loc 1 48 3 view .LVU14
  49:Core/Src/gpio.c ****   __HAL_RCC_GPIOB_CLK_ENABLE();
  84              		.loc 1 49 3 view .LVU15
  85              	.LBB4:
  86              		.loc 1 49 3 view .LVU16
  87              		.loc 1 49 3 view .LVU17
  88 0044 D3F88C20 		ldr	r2, [r3, #140]
  89 0048 42F00202 		orr	r2, r2, #2
  90 004c C3F88C20 		str	r2, [r3, #140]
  91              		.loc 1 49 3 view .LVU18
  92 0050 D3F88C30 		ldr	r3, [r3, #140]
  93 0054 03F00203 		and	r3, r3, #2
  94 0058 0293     		str	r3, [sp, #8]
  95              		.loc 1 49 3 view .LVU19
  96 005a 029B     		ldr	r3, [sp, #8]
  97              	.LBE4:
  98              		.loc 1 49 3 view .LVU20
  50:Core/Src/gpio.c **** 
  51:Core/Src/gpio.c ****   /*Configure GPIO pin Output Level */
  52:Core/Src/gpio.c ****   HAL_GPIO_WritePin(GPIOB, GPIO_PIN_13|GPIO_PIN_14|GPIO_PIN_15, GPIO_PIN_RESET);
  99              		.loc 1 52 3 view .LVU21
 100 005c 0E4E     		ldr	r6, .L3+4
 101 005e 2246     		mov	r2, r4
 102 0060 4FF46041 		mov	r1, #57344
 103 0064 3046     		mov	r0, r6
 104 0066 FFF7FEFF 		bl	HAL_GPIO_WritePin
 105              	.LVL0:
  53:Core/Src/gpio.c **** 
  54:Core/Src/gpio.c ****   /*Configure GPIO pin : PC4 */
  55:Core/Src/gpio.c ****   GPIO_InitStruct.Pin = GPIO_PIN_4;
 106              		.loc 1 55 3 view .LVU22
 107              		.loc 1 55 23 is_stmt 0 view .LVU23
 108 006a 1023     		movs	r3, #16
 109 006c 0393     		str	r3, [sp, #12]
  56:Core/Src/gpio.c ****   GPIO_InitStruct.Mode = GPIO_MODE_INPUT;
 110              		.loc 1 56 3 is_stmt 1 view .LVU24
 111              		.loc 1 56 24 is_stmt 0 view .LVU25
 112 006e 0494     		str	r4, [sp, #16]
  57:Core/Src/gpio.c ****   GPIO_InitStruct.Pull = GPIO_NOPULL;
 113              		.loc 1 57 3 is_stmt 1 view .LVU26
 114              		.loc 1 57 24 is_stmt 0 view .LVU27
 115 0070 0594     		str	r4, [sp, #20]
ARM GAS  C:\Users\Xuleo\AppData\Local\Temp\ccg10spl.s 			page 4


  58:Core/Src/gpio.c ****   HAL_GPIO_Init(GPIOC, &GPIO_InitStruct);
 116              		.loc 1 58 3 is_stmt 1 view .LVU28
 117 0072 2946     		mov	r1, r5
 118 0074 0948     		ldr	r0, .L3+8
 119 0076 FFF7FEFF 		bl	HAL_GPIO_Init
 120              	.LVL1:
  59:Core/Src/gpio.c **** 
  60:Core/Src/gpio.c ****   /*Configure GPIO pins : PB13 PB14 PB15 */
  61:Core/Src/gpio.c ****   GPIO_InitStruct.Pin = GPIO_PIN_13|GPIO_PIN_14|GPIO_PIN_15;
 121              		.loc 1 61 3 view .LVU29
 122              		.loc 1 61 23 is_stmt 0 view .LVU30
 123 007a 4FF46043 		mov	r3, #57344
 124 007e 0393     		str	r3, [sp, #12]
  62:Core/Src/gpio.c ****   GPIO_InitStruct.Mode = GPIO_MODE_OUTPUT_PP;
 125              		.loc 1 62 3 is_stmt 1 view .LVU31
 126              		.loc 1 62 24 is_stmt 0 view .LVU32
 127 0080 0123     		movs	r3, #1
 128 0082 0493     		str	r3, [sp, #16]
  63:Core/Src/gpio.c ****   GPIO_InitStruct.Pull = GPIO_NOPULL;
 129              		.loc 1 63 3 is_stmt 1 view .LVU33
 130              		.loc 1 63 24 is_stmt 0 view .LVU34
 131 0084 0594     		str	r4, [sp, #20]
  64:Core/Src/gpio.c ****   GPIO_InitStruct.Speed = GPIO_SPEED_FREQ_MEDIUM;
 132              		.loc 1 64 3 is_stmt 1 view .LVU35
 133              		.loc 1 64 25 is_stmt 0 view .LVU36
 134 0086 0693     		str	r3, [sp, #24]
  65:Core/Src/gpio.c ****   HAL_GPIO_Init(GPIOB, &GPIO_InitStruct);
 135              		.loc 1 65 3 is_stmt 1 view .LVU37
 136 0088 2946     		mov	r1, r5
 137 008a 3046     		mov	r0, r6
 138 008c FFF7FEFF 		bl	HAL_GPIO_Init
 139              	.LVL2:
  66:Core/Src/gpio.c **** 
  67:Core/Src/gpio.c **** }
 140              		.loc 1 67 1 is_stmt 0 view .LVU38
 141 0090 08B0     		add	sp, sp, #32
 142              	.LCFI2:
 143              		.cfi_def_cfa_offset 16
 144              		@ sp needed
 145 0092 70BD     		pop	{r4, r5, r6, pc}
 146              	.L4:
 147              		.align	2
 148              	.L3:
 149 0094 000C0244 		.word	1140984832
 150 0098 00040242 		.word	1107428352
 151 009c 00080242 		.word	1107429376
 152              		.cfi_endproc
 153              	.LFE160:
 155              		.text
 156              	.Letext0:
 157              		.file 2 "C:/thirdpartyLibs/arm-gnu-toolchain-15.2/arm-none-eabi/include/machine/_default_types.h"
 158              		.file 3 "C:/thirdpartyLibs/arm-gnu-toolchain-15.2/arm-none-eabi/include/sys/_stdint.h"
 159              		.file 4 "Drivers/CMSIS/Device/ST/STM32H5xx/Include/stm32h533xx.h"
 160              		.file 5 "Drivers/STM32H5xx_HAL_Driver/Inc/stm32h5xx_hal_gpio.h"
ARM GAS  C:\Users\Xuleo\AppData\Local\Temp\ccg10spl.s 			page 5

