ARM GAS  C:\Users\Xuleo\AppData\Local\Temp\ccg94fVd.s 			page 1


   1              		.cpu cortex-m33
   2              		.arch armv8-m.main
   3              		.fpu fpv4-sp-d16
   4              		.arch_extension dsp
   5              		.eabi_attribute 27, 1
   6              		.eabi_attribute 28, 1
   7              		.eabi_attribute 20, 1
   8              		.eabi_attribute 21, 1
   9              		.eabi_attribute 23, 3
  10              		.eabi_attribute 24, 1
  11              		.eabi_attribute 25, 1
  12              		.eabi_attribute 26, 1
  13              		.eabi_attribute 30, 1
  14              		.eabi_attribute 34, 1
  15              		.eabi_attribute 18, 4
  16              		.file	"hc04bt.c"
  17              		.text
  18              	.Ltext0:
  19              		.cfi_sections	.debug_frame
  20              		.file 1 "./Application/Src/hc04bt.c"
  21              		.section	.rodata.BT_config.str1.4,"aMS",%progbits,1
  22              		.align	2
  23              	.LC1:
  24 0000 4F4B00   		.ascii	"OK\000"
  25 0003 00       		.align	2
  26              	.LC2:
  27 0004 48433034 		.ascii	"HC04 Detected!\000"
  27      20446574 
  27      65637465 
  27      642100
  28 0013 00       		.align	2
  29              	.LC3:
  30 0014 48433034 		.ascii	"HC04 cannot find!\000"
  30      2063616E 
  30      6E6F7420 
  30      66696E64 
  30      2100
  31 0026 0000     		.align	2
  32              	.LC0:
  33 0028 415400   		.ascii	"AT\000"
  34 002b 00       		.align	2
  35              	.LC4:
  36 002c 41542B42 		.ascii	"AT+BAUD=921600\000"
  36      4155443D 
  36      39323136 
  36      303000
  37              		.section	.text.BT_config,"ax",%progbits
  38              		.align	1
  39              		.global	BT_config
  40              		.syntax unified
  41              		.thumb
  42              		.thumb_func
  44              	BT_config:
  45              	.LVL0:
  46              	.LFB160:
   1:./Application/Src/hc04bt.c **** #include <hc04bt.h>
   2:./Application/Src/hc04bt.c **** #include <application.h>
ARM GAS  C:\Users\Xuleo\AppData\Local\Temp\ccg94fVd.s 			page 2


   3:./Application/Src/hc04bt.c **** #include <ILI9341.h>
   4:./Application/Src/hc04bt.c **** #include <string.h>
   5:./Application/Src/hc04bt.c **** 
   6:./Application/Src/hc04bt.c **** void BT_config(UART_HandleTypeDef* huart){
  47              		.loc 1 6 42 view -0
  48              		.cfi_startproc
  49              		@ args = 0, pretend = 0, frame = 24
  50              		@ frame_needed = 0, uses_anonymous_args = 0
  51              		.loc 1 6 42 is_stmt 0 view .LVU1
  52 0000 70B5     		push	{r4, r5, r6, lr}
  53              	.LCFI0:
  54              		.cfi_def_cfa_offset 16
  55              		.cfi_offset 4, -16
  56              		.cfi_offset 5, -12
  57              		.cfi_offset 6, -8
  58              		.cfi_offset 14, -4
  59 0002 88B0     		sub	sp, sp, #32
  60              	.LCFI1:
  61              		.cfi_def_cfa_offset 48
  62 0004 0446     		mov	r4, r0
   7:./Application/Src/hc04bt.c ****     // check existence
   8:./Application/Src/hc04bt.c ****     HAL_Delay(100);
  63              		.loc 1 8 5 is_stmt 1 view .LVU2
  64 0006 6420     		movs	r0, #100
  65              	.LVL1:
  66              		.loc 1 8 5 is_stmt 0 view .LVU3
  67 0008 FFF7FEFF 		bl	HAL_Delay
  68              	.LVL2:
   9:./Application/Src/hc04bt.c ****     uint8_t cmd[] = "AT";
  69              		.loc 1 9 5 is_stmt 1 view .LVU4
  70              		.loc 1 9 13 is_stmt 0 view .LVU5
  71 000c 344B     		ldr	r3, .L6
  72 000e 1B68     		ldr	r3, [r3]
  73 0010 ADF81C30 		strh	r3, [sp, #28]	@ movhi
  74 0014 1B0C     		lsrs	r3, r3, #16
  75 0016 8DF81E30 		strb	r3, [sp, #30]
  10:./Application/Src/hc04bt.c ****     HAL_UART_Transmit(huart, cmd, strlen((char*)cmd), 10);
  76              		.loc 1 10 5 is_stmt 1 view .LVU6
  77              		.loc 1 10 35 is_stmt 0 view .LVU7
  78 001a 07AD     		add	r5, sp, #28
  79 001c 2846     		mov	r0, r5
  80 001e FFF7FEFF 		bl	strlen
  81              	.LVL3:
  82              		.loc 1 10 5 discriminator 1 view .LVU8
  83 0022 0A23     		movs	r3, #10
  84 0024 82B2     		uxth	r2, r0
  85 0026 2946     		mov	r1, r5
  86 0028 2046     		mov	r0, r4
  87 002a FFF7FEFF 		bl	HAL_UART_Transmit
  88              	.LVL4:
  11:./Application/Src/hc04bt.c ****     HAL_StatusTypeDef status = HAL_UART_Receive(huart, rx_buffer, 4, 1000); // this command will wa
  89              		.loc 1 11 5 is_stmt 1 view .LVU9
  90              		.loc 1 11 32 is_stmt 0 view .LVU10
  91 002e 4FF47A73 		mov	r3, #1000
  92 0032 0422     		movs	r2, #4
  93 0034 2B49     		ldr	r1, .L6+4
  94 0036 2046     		mov	r0, r4
ARM GAS  C:\Users\Xuleo\AppData\Local\Temp\ccg94fVd.s 			page 3


  95 0038 FFF7FEFF 		bl	HAL_UART_Receive
  96              	.LVL5:
  12:./Application/Src/hc04bt.c ****     if (status == HAL_OK && strncmp((char*)rx_buffer, "OK", 2) == 0){
  97              		.loc 1 12 5 is_stmt 1 view .LVU11
  98              		.loc 1 12 8 is_stmt 0 view .LVU12
  99 003c 30B9     		cbnz	r0, .L2
 100              		.loc 1 12 29 discriminator 1 view .LVU13
 101 003e 0222     		movs	r2, #2
 102 0040 2949     		ldr	r1, .L6+8
 103 0042 2848     		ldr	r0, .L6+4
 104              	.LVL6:
 105              		.loc 1 12 29 discriminator 1 view .LVU14
 106 0044 FFF7FEFF 		bl	strncmp
 107              	.LVL7:
 108              		.loc 1 12 26 discriminator 2 view .LVU15
 109 0048 0028     		cmp	r0, #0
 110 004a 3DD0     		beq	.L5
 111              	.L2:
  13:./Application/Src/hc04bt.c ****         LCD_draw_string(&lcd_config, 0, 8, "HC04 Detected!", COLOR_BLACK, COLOR_WHITE);
  14:./Application/Src/hc04bt.c ****     } else{
  15:./Application/Src/hc04bt.c ****         LCD_draw_string(&lcd_config, 0, 8, "HC04 cannot find!", COLOR_BLACK, COLOR_WHITE);
 112              		.loc 1 15 9 is_stmt 1 view .LVU16
 113 004c 4FF6FF73 		movw	r3, #65535
 114 0050 0193     		str	r3, [sp, #4]
 115 0052 0021     		movs	r1, #0
 116 0054 0091     		str	r1, [sp]
 117 0056 254B     		ldr	r3, .L6+12
 118 0058 0822     		movs	r2, #8
 119 005a 2548     		ldr	r0, .L6+16
 120 005c FFF7FEFF 		bl	LCD_draw_string
 121              	.LVL8:
 122              	.L3:
  16:./Application/Src/hc04bt.c ****     }
  17:./Application/Src/hc04bt.c **** 
  18:./Application/Src/hc04bt.c ****     HAL_Delay(500);
 123              		.loc 1 18 5 view .LVU17
 124 0060 4FF4FA70 		mov	r0, #500
 125 0064 FFF7FEFF 		bl	HAL_Delay
 126              	.LVL9:
  19:./Application/Src/hc04bt.c **** 
  20:./Application/Src/hc04bt.c ****     memset(rx_buffer, 0, sizeof(rx_buffer));
 127              		.loc 1 20 5 view .LVU18
 128 0068 1E4D     		ldr	r5, .L6+4
 129 006a 8022     		movs	r2, #128
 130 006c 0021     		movs	r1, #0
 131 006e 2846     		mov	r0, r5
 132 0070 FFF7FEFF 		bl	memset
 133              	.LVL10:
  21:./Application/Src/hc04bt.c ****     uint8_t cmd2[] = "AT+BAUD=921600";
 134              		.loc 1 21 5 view .LVU19
 135              		.loc 1 21 13 is_stmt 0 view .LVU20
 136 0074 1F4B     		ldr	r3, .L6+20
 137 0076 0DF10C0C 		add	ip, sp, #12
 138 007a 0FCB     		ldm	r3, {r0, r1, r2, r3}
 139 007c ACE80700 		stmia	ip!, {r0, r1, r2}
 140 0080 2CF8023B 		strh	r3, [ip], #2	@ movhi
 141 0084 1B0C     		lsrs	r3, r3, #16
ARM GAS  C:\Users\Xuleo\AppData\Local\Temp\ccg94fVd.s 			page 4


 142 0086 8CF80030 		strb	r3, [ip]
  22:./Application/Src/hc04bt.c ****     HAL_UART_Transmit(huart, cmd2, strlen((char*)cmd2), 300);
 143              		.loc 1 22 5 is_stmt 1 view .LVU21
 144              		.loc 1 22 36 is_stmt 0 view .LVU22
 145 008a 03AE     		add	r6, sp, #12
 146 008c 3046     		mov	r0, r6
 147 008e FFF7FEFF 		bl	strlen
 148              	.LVL11:
 149              		.loc 1 22 5 discriminator 1 view .LVU23
 150 0092 4FF49673 		mov	r3, #300
 151 0096 82B2     		uxth	r2, r0
 152 0098 3146     		mov	r1, r6
 153 009a 2046     		mov	r0, r4
 154 009c FFF7FEFF 		bl	HAL_UART_Transmit
 155              	.LVL12:
  23:./Application/Src/hc04bt.c ****     status = HAL_UART_Receive(huart, rx_buffer, 6, 1000); // this command will wait buffer filled o
 156              		.loc 1 23 5 is_stmt 1 view .LVU24
 157              		.loc 1 23 14 is_stmt 0 view .LVU25
 158 00a0 4FF47A73 		mov	r3, #1000
 159 00a4 0622     		movs	r2, #6
 160 00a6 2946     		mov	r1, r5
 161 00a8 2046     		mov	r0, r4
 162 00aa FFF7FEFF 		bl	HAL_UART_Receive
 163              	.LVL13:
  24:./Application/Src/hc04bt.c ****     LCD_draw_string(&lcd_config, 5, 10, (char*)rx_buffer, COLOR_BLACK, COLOR_WHITE);
 164              		.loc 1 24 5 is_stmt 1 view .LVU26
 165 00ae 4FF6FF73 		movw	r3, #65535
 166 00b2 0193     		str	r3, [sp, #4]
 167 00b4 0023     		movs	r3, #0
 168 00b6 0093     		str	r3, [sp]
 169 00b8 2B46     		mov	r3, r5
 170 00ba 0A22     		movs	r2, #10
 171 00bc 0521     		movs	r1, #5
 172 00be 0C48     		ldr	r0, .L6+16
 173 00c0 FFF7FEFF 		bl	LCD_draw_string
 174              	.LVL14:
  25:./Application/Src/hc04bt.c ****     // DO NOT write any code below, they will not work (HAL Time out & cannot receive), change comm
  26:./Application/Src/hc04bt.c ****     // HC-04 auto restart on such command (NAME, PIN, BAUDRATE)
  27:./Application/Src/hc04bt.c ****     // The setting's baud rate is same as normal use baud rate, restart will change the setting's b
  28:./Application/Src/hc04bt.c **** }
 175              		.loc 1 28 1 is_stmt 0 view .LVU27
 176 00c4 08B0     		add	sp, sp, #32
 177              	.LCFI2:
 178              		.cfi_remember_state
 179              		.cfi_def_cfa_offset 16
 180              		@ sp needed
 181 00c6 70BD     		pop	{r4, r5, r6, pc}
 182              	.LVL15:
 183              	.L5:
 184              	.LCFI3:
 185              		.cfi_restore_state
  13:./Application/Src/hc04bt.c ****     } else{
 186              		.loc 1 13 9 is_stmt 1 view .LVU28
 187 00c8 4FF6FF73 		movw	r3, #65535
 188 00cc 0193     		str	r3, [sp, #4]
 189 00ce 0146     		mov	r1, r0
 190 00d0 0090     		str	r0, [sp]
ARM GAS  C:\Users\Xuleo\AppData\Local\Temp\ccg94fVd.s 			page 5


 191 00d2 094B     		ldr	r3, .L6+24
 192 00d4 0822     		movs	r2, #8
 193 00d6 0648     		ldr	r0, .L6+16
 194 00d8 FFF7FEFF 		bl	LCD_draw_string
 195              	.LVL16:
 196 00dc C0E7     		b	.L3
 197              	.L7:
 198 00de 00BF     		.align	2
 199              	.L6:
 200 00e0 28000000 		.word	.LC0
 201 00e4 00000000 		.word	rx_buffer
 202 00e8 00000000 		.word	.LC1
 203 00ec 14000000 		.word	.LC3
 204 00f0 00000000 		.word	lcd_config
 205 00f4 2C000000 		.word	.LC4
 206 00f8 04000000 		.word	.LC2
 207              		.cfi_endproc
 208              	.LFE160:
 210              		.section	.text.BT_send_info,"ax",%progbits
 211              		.align	1
 212              		.global	BT_send_info
 213              		.syntax unified
 214              		.thumb
 215              		.thumb_func
 217              	BT_send_info:
 218              	.LVL17:
 219              	.LFB161:
  29:./Application/Src/hc04bt.c **** 
  30:./Application/Src/hc04bt.c **** void BT_send_info(UART_HandleTypeDef* huart, uint8_t* info, uint16_t info_size){
 220              		.loc 1 30 80 view -0
 221              		.cfi_startproc
 222              		@ args = 0, pretend = 0, frame = 0
 223              		@ frame_needed = 0, uses_anonymous_args = 0
 224              		.loc 1 30 80 is_stmt 0 view .LVU30
 225 0000 70B5     		push	{r4, r5, r6, lr}
 226              	.LCFI4:
 227              		.cfi_def_cfa_offset 16
 228              		.cfi_offset 4, -16
 229              		.cfi_offset 5, -12
 230              		.cfi_offset 6, -8
 231              		.cfi_offset 14, -4
 232 0002 0446     		mov	r4, r0
 233 0004 0D46     		mov	r5, r1
 234 0006 1646     		mov	r6, r2
  31:./Application/Src/hc04bt.c ****     HAL_UART_StateTypeDef state = HAL_UART_GetState(huart);
 235              		.loc 1 31 5 is_stmt 1 view .LVU31
 236              		.loc 1 31 35 is_stmt 0 view .LVU32
 237 0008 FFF7FEFF 		bl	HAL_UART_GetState
 238              	.LVL18:
  32:./Application/Src/hc04bt.c ****     if (state == HAL_UART_STATE_READY || state == HAL_UART_STATE_BUSY_RX){
 239              		.loc 1 32 5 is_stmt 1 view .LVU33
 240              		.loc 1 32 8 is_stmt 0 view .LVU34
 241 000c 2028     		cmp	r0, #32
 242 000e 02D0     		beq	.L9
 243              		.loc 1 32 39 discriminator 1 view .LVU35
 244 0010 2228     		cmp	r0, #34
 245 0012 00D0     		beq	.L9
ARM GAS  C:\Users\Xuleo\AppData\Local\Temp\ccg94fVd.s 			page 6


 246              	.LVL19:
 247              	.L8:
  33:./Application/Src/hc04bt.c ****         HAL_UART_Transmit_IT(huart, info, info_size);
  34:./Application/Src/hc04bt.c ****     }
  35:./Application/Src/hc04bt.c **** }
 248              		.loc 1 35 1 view .LVU36
 249 0014 70BD     		pop	{r4, r5, r6, pc}
 250              	.LVL20:
 251              	.L9:
  33:./Application/Src/hc04bt.c ****         HAL_UART_Transmit_IT(huart, info, info_size);
 252              		.loc 1 33 9 is_stmt 1 view .LVU37
 253 0016 3246     		mov	r2, r6
 254 0018 2946     		mov	r1, r5
 255 001a 2046     		mov	r0, r4
 256              	.LVL21:
  33:./Application/Src/hc04bt.c ****         HAL_UART_Transmit_IT(huart, info, info_size);
 257              		.loc 1 33 9 is_stmt 0 view .LVU38
 258 001c FFF7FEFF 		bl	HAL_UART_Transmit_IT
 259              	.LVL22:
 260              		.loc 1 35 1 view .LVU39
 261 0020 F8E7     		b	.L8
 262              		.cfi_endproc
 263              	.LFE161:
 265              		.text
 266              	.Letext0:
 267              		.file 2 "C:/thirdpartyLibs/arm-gnu-toolchain-15.2/lib/gcc/arm-none-eabi/15.2.1/include/stddef.h"
 268              		.file 3 "C:/thirdpartyLibs/arm-gnu-toolchain-15.2/arm-none-eabi/include/machine/_default_types.h"
 269              		.file 4 "C:/thirdpartyLibs/arm-gnu-toolchain-15.2/arm-none-eabi/include/sys/_stdint.h"
 270              		.file 5 "Drivers/CMSIS/Device/ST/STM32H5xx/Include/stm32h533xx.h"
 271              		.file 6 "Drivers/STM32H5xx_HAL_Driver/Inc/stm32h5xx_hal_def.h"
 272              		.file 7 "Drivers/STM32H5xx_HAL_Driver/Inc/stm32h5xx_hal_dma.h"
 273              		.file 8 "Drivers/STM32H5xx_HAL_Driver/Inc/stm32h5xx_hal_dma_ex.h"
 274              		.file 9 "Drivers/STM32H5xx_HAL_Driver/Inc/stm32h5xx_hal_spi.h"
 275              		.file 10 "Drivers/STM32H5xx_HAL_Driver/Inc/stm32h5xx_hal_uart.h"
 276              		.file 11 "Application/Inc/ILI9341.h"
 277              		.file 12 "Application/Inc/application.h"
 278              		.file 13 "C:/thirdpartyLibs/arm-gnu-toolchain-15.2/arm-none-eabi/include/string.h"
 279              		.file 14 "Drivers/STM32H5xx_HAL_Driver/Inc/stm32h5xx_hal.h"
 280              		.file 15 "<built-in>"
ARM GAS  C:\Users\Xuleo\AppData\Local\Temp\ccg94fVd.s 			page 7


DEFINED SYMBOLS
                            *ABS*:00000000 hc04bt.c
C:\Users\Xuleo\AppData\Local\Temp\ccg94fVd.s:22     .rodata.BT_config.str1.4:00000000 $d
C:\Users\Xuleo\AppData\Local\Temp\ccg94fVd.s:38     .text.BT_config:00000000 $t
C:\Users\Xuleo\AppData\Local\Temp\ccg94fVd.s:44     .text.BT_config:00000000 BT_config
C:\Users\Xuleo\AppData\Local\Temp\ccg94fVd.s:200    .text.BT_config:000000e0 $d
C:\Users\Xuleo\AppData\Local\Temp\ccg94fVd.s:211    .text.BT_send_info:00000000 $t
C:\Users\Xuleo\AppData\Local\Temp\ccg94fVd.s:217    .text.BT_send_info:00000000 BT_send_info

UNDEFINED SYMBOLS
HAL_Delay
strlen
HAL_UART_Transmit
HAL_UART_Receive
strncmp
LCD_draw_string
memset
rx_buffer
lcd_config
HAL_UART_GetState
HAL_UART_Transmit_IT
