ARM GAS  C:\Users\Xuleo\AppData\Local\Temp\cc0UTfYd.s 			page 1


   1              		.cpu cortex-m33
   2              		.arch armv8-m.main
   3              		.fpu fpv5-sp-d16
   4              		.arch_extension dsp
   5              		.eabi_attribute 27, 1
   6              		.eabi_attribute 28, 1
   7              		.eabi_attribute 20, 1
   8              		.eabi_attribute 21, 1
   9              		.eabi_attribute 23, 3
  10              		.eabi_attribute 24, 1
  11              		.eabi_attribute 25, 1
  12              		.eabi_attribute 26, 1
  13              		.eabi_attribute 30, 1
  14              		.eabi_attribute 34, 1
  15              		.eabi_attribute 18, 4
  16              		.file	"hc04.c"
  17              		.text
  18              	.Ltext0:
  19              		.cfi_sections	.debug_frame
  20              		.file 1 "./Application/Src/hc04.c"
  21              		.section	.text.hc04_send_char,"ax",%progbits
  22              		.align	1
  23              		.global	hc04_send_char
  24              		.syntax unified
  25              		.thumb
  26              		.thumb_func
  28              	hc04_send_char:
  29              	.LVL0:
  30              	.LFB359:
   1:./Application/Src/hc04.c **** #include <hc04.h>
   2:./Application/Src/hc04.c **** 
   3:./Application/Src/hc04.c **** void hc04_send_char(uint8_t c){
  31              		.loc 1 3 31 view -0
  32              		.cfi_startproc
  33              		@ args = 0, pretend = 0, frame = 8
  34              		@ frame_needed = 0, uses_anonymous_args = 0
  35              		.loc 1 3 31 is_stmt 0 view .LVU1
  36 0000 00B5     		push	{lr}
  37              	.LCFI0:
  38              		.cfi_def_cfa_offset 4
  39              		.cfi_offset 14, -4
  40 0002 83B0     		sub	sp, sp, #12
  41              	.LCFI1:
  42              		.cfi_def_cfa_offset 16
  43 0004 8DF80700 		strb	r0, [sp, #7]
   4:./Application/Src/hc04.c ****     HAL_UART_Transmit_DMA(&huart2, &c, 1);
  44              		.loc 1 4 5 is_stmt 1 view .LVU2
  45 0008 0122     		movs	r2, #1
  46 000a 0DF10701 		add	r1, sp, #7
  47 000e 0248     		ldr	r0, .L3
  48              	.LVL1:
  49              		.loc 1 4 5 is_stmt 0 view .LVU3
  50 0010 FFF7FEFF 		bl	HAL_UART_Transmit_DMA
  51              	.LVL2:
   5:./Application/Src/hc04.c **** }
  52              		.loc 1 5 1 view .LVU4
  53 0014 03B0     		add	sp, sp, #12
ARM GAS  C:\Users\Xuleo\AppData\Local\Temp\cc0UTfYd.s 			page 2


  54              	.LCFI2:
  55              		.cfi_def_cfa_offset 4
  56              		@ sp needed
  57 0016 00BD     		pop	{pc}
  58              	.L4:
  59              		.align	2
  60              	.L3:
  61 0018 00000000 		.word	huart2
  62              		.cfi_endproc
  63              	.LFE359:
  65              		.section	.text.hc04_send_string,"ax",%progbits
  66              		.align	1
  67              		.global	hc04_send_string
  68              		.syntax unified
  69              		.thumb
  70              		.thumb_func
  72              	hc04_send_string:
  73              	.LVL3:
  74              	.LFB360:
   6:./Application/Src/hc04.c **** 
   7:./Application/Src/hc04.c **** void hc04_send_string(uint8_t *str){
  75              		.loc 1 7 36 is_stmt 1 view -0
  76              		.cfi_startproc
  77              		@ args = 0, pretend = 0, frame = 0
  78              		@ frame_needed = 0, uses_anonymous_args = 0
  79              		.loc 1 7 36 is_stmt 0 view .LVU6
  80 0000 10B5     		push	{r4, lr}
  81              	.LCFI3:
  82              		.cfi_def_cfa_offset 8
  83              		.cfi_offset 4, -8
  84              		.cfi_offset 14, -4
  85 0002 0446     		mov	r4, r0
   8:./Application/Src/hc04.c ****     HAL_UART_Transmit_DMA(&huart2, str, strlen((char*)str));
  86              		.loc 1 8 5 is_stmt 1 view .LVU7
  87              		.loc 1 8 41 is_stmt 0 view .LVU8
  88 0004 FFF7FEFF 		bl	strlen
  89              	.LVL4:
  90              		.loc 1 8 5 discriminator 1 view .LVU9
  91 0008 82B2     		uxth	r2, r0
  92 000a 2146     		mov	r1, r4
  93 000c 0148     		ldr	r0, .L7
  94 000e FFF7FEFF 		bl	HAL_UART_Transmit_DMA
  95              	.LVL5:
   9:./Application/Src/hc04.c **** }
  96              		.loc 1 9 1 view .LVU10
  97 0012 10BD     		pop	{r4, pc}
  98              	.LVL6:
  99              	.L8:
 100              		.loc 1 9 1 view .LVU11
 101              		.align	2
 102              	.L7:
 103 0014 00000000 		.word	huart2
 104              		.cfi_endproc
 105              	.LFE360:
 107              		.section	.text.hc04_send_bytes,"ax",%progbits
 108              		.align	1
 109              		.global	hc04_send_bytes
ARM GAS  C:\Users\Xuleo\AppData\Local\Temp\cc0UTfYd.s 			page 3


 110              		.syntax unified
 111              		.thumb
 112              		.thumb_func
 114              	hc04_send_bytes:
 115              	.LVL7:
 116              	.LFB361:
  10:./Application/Src/hc04.c **** 
  11:./Application/Src/hc04.c **** void hc04_send_bytes(uint8_t *data, uint16_t len){
 117              		.loc 1 11 50 is_stmt 1 view -0
 118              		.cfi_startproc
 119              		@ args = 0, pretend = 0, frame = 0
 120              		@ frame_needed = 0, uses_anonymous_args = 0
 121              		.loc 1 11 50 is_stmt 0 view .LVU13
 122 0000 08B5     		push	{r3, lr}
 123              	.LCFI4:
 124              		.cfi_def_cfa_offset 8
 125              		.cfi_offset 3, -8
 126              		.cfi_offset 14, -4
 127 0002 0A46     		mov	r2, r1
  12:./Application/Src/hc04.c ****     HAL_UART_Transmit_DMA(&huart2, data, len);
 128              		.loc 1 12 5 is_stmt 1 view .LVU14
 129 0004 0146     		mov	r1, r0
 130              	.LVL8:
 131              		.loc 1 12 5 is_stmt 0 view .LVU15
 132 0006 0248     		ldr	r0, .L11
 133              	.LVL9:
 134              		.loc 1 12 5 view .LVU16
 135 0008 FFF7FEFF 		bl	HAL_UART_Transmit_DMA
 136              	.LVL10:
  13:./Application/Src/hc04.c **** }
 137              		.loc 1 13 1 view .LVU17
 138 000c 08BD     		pop	{r3, pc}
 139              	.L12:
 140 000e 00BF     		.align	2
 141              	.L11:
 142 0010 00000000 		.word	huart2
 143              		.cfi_endproc
 144              	.LFE361:
 146              		.section	.text.hc04_receive_to_idle_init,"ax",%progbits
 147              		.align	1
 148              		.global	hc04_receive_to_idle_init
 149              		.syntax unified
 150              		.thumb
 151              		.thumb_func
 153              	hc04_receive_to_idle_init:
 154              	.LVL11:
 155              	.LFB362:
  14:./Application/Src/hc04.c **** 
  15:./Application/Src/hc04.c **** void hc04_receive_to_idle_init(UART_HandleTypeDef *huart, uint8_t *buffer, uint16_t buffer_size){
 156              		.loc 1 15 97 is_stmt 1 view -0
 157              		.cfi_startproc
 158              		@ args = 0, pretend = 0, frame = 0
 159              		@ frame_needed = 0, uses_anonymous_args = 0
 160              		.loc 1 15 97 is_stmt 0 view .LVU19
 161 0000 08B5     		push	{r3, lr}
 162              	.LCFI5:
 163              		.cfi_def_cfa_offset 8
ARM GAS  C:\Users\Xuleo\AppData\Local\Temp\cc0UTfYd.s 			page 4


 164              		.cfi_offset 3, -8
 165              		.cfi_offset 14, -4
  16:./Application/Src/hc04.c ****     HAL_UARTEx_ReceiveToIdle_DMA(huart, buffer, buffer_size);
 166              		.loc 1 16 5 is_stmt 1 view .LVU20
 167 0002 FFF7FEFF 		bl	HAL_UARTEx_ReceiveToIdle_DMA
 168              	.LVL12:
  17:./Application/Src/hc04.c ****     // HT and TC stay enabled — the callback accumulates until \n is found
  18:./Application/Src/hc04.c **** }
 169              		.loc 1 18 1 is_stmt 0 view .LVU21
 170 0006 08BD     		pop	{r3, pc}
 171              		.cfi_endproc
 172              	.LFE362:
 174              		.section	.text.HAL_UARTEx_RxEventCallback,"ax",%progbits
 175              		.align	1
 176              		.global	HAL_UARTEx_RxEventCallback
 177              		.syntax unified
 178              		.thumb
 179              		.thumb_func
 181              	HAL_UARTEx_RxEventCallback:
 182              	.LVL13:
 183              	.LFB363:
  19:./Application/Src/hc04.c **** 
  20:./Application/Src/hc04.c **** void HAL_UARTEx_RxEventCallback(UART_HandleTypeDef *huart, uint16_t size){
 184              		.loc 1 20 74 is_stmt 1 view -0
 185              		.cfi_startproc
 186              		@ args = 0, pretend = 0, frame = 0
 187              		@ frame_needed = 0, uses_anonymous_args = 0
  21:./Application/Src/hc04.c ****     if(huart == &huart2){
 188              		.loc 1 21 5 view .LVU23
 189              		.loc 1 21 7 is_stmt 0 view .LVU24
 190 0000 244B     		ldr	r3, .L29
 191 0002 9842     		cmp	r0, r3
 192 0004 00D0     		beq	.L27
 193 0006 7047     		bx	lr
 194              	.L27:
  20:./Application/Src/hc04.c ****     if(huart == &huart2){
 195              		.loc 1 20 74 view .LVU25
 196 0008 30B5     		push	{r4, r5, lr}
 197              	.LCFI6:
 198              		.cfi_def_cfa_offset 12
 199              		.cfi_offset 4, -12
 200              		.cfi_offset 5, -8
 201              		.cfi_offset 14, -4
 202 000a 0D46     		mov	r5, r1
 203              	.LBB2:
  22:./Application/Src/hc04.c ****         if (size == old_buffer_index) {
 204              		.loc 1 22 9 is_stmt 1 view .LVU26
 205              		.loc 1 22 18 is_stmt 0 view .LVU27
 206 000c 224B     		ldr	r3, .L29+4
 207 000e 1B68     		ldr	r3, [r3]
 208              		.loc 1 22 12 view .LVU28
 209 0010 9942     		cmp	r1, r3
 210 0012 3DD0     		beq	.L15
  23:./Application/Src/hc04.c ****             return;
  24:./Application/Src/hc04.c ****         }
  25:./Application/Src/hc04.c **** 
  26:./Application/Src/hc04.c ****         // find total length and traversal the message, stop until \n is found
ARM GAS  C:\Users\Xuleo\AppData\Local\Temp\cc0UTfYd.s 			page 5


  27:./Application/Src/hc04.c **** 
  28:./Application/Src/hc04.c ****         // find total message length
  29:./Application/Src/hc04.c ****         uint16_t len;
 211              		.loc 1 29 9 is_stmt 1 view .LVU29
  30:./Application/Src/hc04.c ****         uint16_t start = old_buffer_index;
 212              		.loc 1 30 9 view .LVU30
 213              		.loc 1 30 18 is_stmt 0 view .LVU31
 214 0014 1FFA83FE 		uxth	lr, r3
 215              	.LVL14:
  31:./Application/Src/hc04.c ****         if (size > start) {
 216              		.loc 1 31 9 is_stmt 1 view .LVU32
 217              		.loc 1 31 12 is_stmt 0 view .LVU33
 218 0018 7145     		cmp	r1, lr
 219 001a 04D9     		bls	.L17
  32:./Application/Src/hc04.c ****             len = size - start;
 220              		.loc 1 32 13 is_stmt 1 view .LVU34
 221              		.loc 1 32 17 is_stmt 0 view .LVU35
 222 001c A1EB0E01 		sub	r1, r1, lr
 223              	.LVL15:
 224              		.loc 1 32 17 view .LVU36
 225 0020 89B2     		uxth	r1, r1
 226              	.LVL16:
 227              	.L18:
  33:./Application/Src/hc04.c ****         } else {
  34:./Application/Src/hc04.c ****             // wraparound
  35:./Application/Src/hc04.c ****             len = sizeof(rx_message_buffer) - start + size;
  36:./Application/Src/hc04.c ****         }
  37:./Application/Src/hc04.c **** 
  38:./Application/Src/hc04.c ****         for (uint16_t i = 0; i < len; i++) {
 228              		.loc 1 38 9 is_stmt 1 view .LVU37
 229              	.LBB3:
 230              		.loc 1 38 14 view .LVU38
 231              		.loc 1 38 23 is_stmt 0 view .LVU39
 232 0022 0023     		movs	r3, #0
 233              		.loc 1 38 9 view .LVU40
 234 0024 11E0     		b	.L19
 235              	.LVL17:
 236              	.L17:
 237              		.loc 1 38 9 view .LVU41
 238              	.LBE3:
  35:./Application/Src/hc04.c ****         }
 239              		.loc 1 35 13 is_stmt 1 view .LVU42
  35:./Application/Src/hc04.c ****         }
 240              		.loc 1 35 53 is_stmt 0 view .LVU43
 241 0026 A1EB0E01 		sub	r1, r1, lr
 242              	.LVL18:
  35:./Application/Src/hc04.c ****         }
 243              		.loc 1 35 53 view .LVU44
 244 002a 89B2     		uxth	r1, r1
  35:./Application/Src/hc04.c ****         }
 245              		.loc 1 35 17 view .LVU45
 246 002c 8031     		adds	r1, r1, #128
 247 002e 89B2     		uxth	r1, r1
 248 0030 F7E7     		b	.L18
 249              	.LVL19:
 250              	.L20:
 251              	.LBB6:
ARM GAS  C:\Users\Xuleo\AppData\Local\Temp\cc0UTfYd.s 			page 6


 252              	.LBB4:
  39:./Application/Src/hc04.c ****             // indexing in DMA stored buffer with wraparound
  40:./Application/Src/hc04.c ****             uint16_t buf_pos = (start + i) % sizeof(rx_message_buffer);
  41:./Application/Src/hc04.c ****             uint8_t c = rx_message_buffer[buf_pos];
  42:./Application/Src/hc04.c **** 
  43:./Application/Src/hc04.c ****             if (!uart_binary_mode && c == '\n') {
  44:./Application/Src/hc04.c ****                 // complete message found (text mode only, skipped in binary mode)
  45:./Application/Src/hc04.c ****                 rx_message[rx_message_index] = '\0';
  46:./Application/Src/hc04.c ****                 rx_valid = rx_message_index; // store TOTAL accumulated length
  47:./Application/Src/hc04.c ****                 // overwrite the place by setting index back to 0
  48:./Application/Src/hc04.c ****                 rx_message_index = 0;
  49:./Application/Src/hc04.c ****                 rx_complete = 1;
  50:./Application/Src/hc04.c ****                 // update the old buffer index for next use, +1 due to \0
  51:./Application/Src/hc04.c ****                 old_buffer_index = (buf_pos + 1) % sizeof(rx_message_buffer);
  52:./Application/Src/hc04.c ****                 return;
  53:./Application/Src/hc04.c ****             }
  54:./Application/Src/hc04.c **** 
  55:./Application/Src/hc04.c ****             // if cannot find \n it will just append the message to buffer, which bypass TC and HC 
  56:./Application/Src/hc04.c ****             // it will stop usually where \n happens like idle interrupt
  57:./Application/Src/hc04.c ****             if (rx_message_index < sizeof(rx_message) - 1) {
 253              		.loc 1 57 13 is_stmt 1 view .LVU46
 254              		.loc 1 57 34 is_stmt 0 view .LVU47
 255 0032 1A4A     		ldr	r2, .L29+8
 256              	.LVL20:
 257              		.loc 1 57 34 view .LVU48
 258 0034 1288     		ldrh	r2, [r2]
 259              		.loc 1 57 16 view .LVU49
 260 0036 FE2A     		cmp	r2, #254
 261 0038 05D8     		bhi	.L21
  58:./Application/Src/hc04.c ****                 rx_message[rx_message_index++] = c;
 262              		.loc 1 58 17 is_stmt 1 view .LVU50
 263              		.loc 1 58 44 is_stmt 0 view .LVU51
 264 003a 541C     		adds	r4, r2, #1
 265 003c 1748     		ldr	r0, .L29+8
 266 003e 0480     		strh	r4, [r0]	@ movhi
 267              		.loc 1 58 48 view .LVU52
 268 0040 1748     		ldr	r0, .L29+12
 269 0042 00F802C0 		strb	ip, [r0, r2]
 270              	.L21:
 271              		.loc 1 58 48 view .LVU53
 272              	.LBE4:
  38:./Application/Src/hc04.c ****             // indexing in DMA stored buffer with wraparound
 273              		.loc 1 38 40 is_stmt 1 discriminator 2 view .LVU54
 274 0046 0133     		adds	r3, r3, #1
 275              	.LVL21:
  38:./Application/Src/hc04.c ****             // indexing in DMA stored buffer with wraparound
 276              		.loc 1 38 40 is_stmt 0 discriminator 2 view .LVU55
 277 0048 9BB2     		uxth	r3, r3
 278              	.LVL22:
 279              	.L19:
  38:./Application/Src/hc04.c ****             // indexing in DMA stored buffer with wraparound
 280              		.loc 1 38 32 is_stmt 1 discriminator 1 view .LVU56
 281 004a 9942     		cmp	r1, r3
 282 004c 1ED9     		bls	.L28
 283              	.LBB5:
  40:./Application/Src/hc04.c ****             uint8_t c = rx_message_buffer[buf_pos];
 284              		.loc 1 40 13 view .LVU57
ARM GAS  C:\Users\Xuleo\AppData\Local\Temp\cc0UTfYd.s 			page 7


  40:./Application/Src/hc04.c ****             uint8_t c = rx_message_buffer[buf_pos];
 285              		.loc 1 40 39 is_stmt 0 view .LVU58
 286 004e 03EB0E02 		add	r2, r3, lr
  40:./Application/Src/hc04.c ****             uint8_t c = rx_message_buffer[buf_pos];
 287              		.loc 1 40 22 view .LVU59
 288 0052 02F07F02 		and	r2, r2, #127
 289              	.LVL23:
  41:./Application/Src/hc04.c **** 
 290              		.loc 1 41 13 is_stmt 1 view .LVU60
  41:./Application/Src/hc04.c **** 
 291              		.loc 1 41 21 is_stmt 0 view .LVU61
 292 0056 1348     		ldr	r0, .L29+16
 293 0058 10F802C0 		ldrb	ip, [r0, r2]	@ zero_extendqisi2
 294              	.LVL24:
  43:./Application/Src/hc04.c ****                 // complete message found (text mode only, skipped in binary mode)
 295              		.loc 1 43 13 is_stmt 1 view .LVU62
  43:./Application/Src/hc04.c ****                 // complete message found (text mode only, skipped in binary mode)
 296              		.loc 1 43 17 is_stmt 0 view .LVU63
 297 005c 1248     		ldr	r0, .L29+20
 298 005e 0068     		ldr	r0, [r0]
  43:./Application/Src/hc04.c ****                 // complete message found (text mode only, skipped in binary mode)
 299              		.loc 1 43 16 view .LVU64
 300 0060 0028     		cmp	r0, #0
 301 0062 E6D1     		bne	.L20
  43:./Application/Src/hc04.c ****                 // complete message found (text mode only, skipped in binary mode)
 302              		.loc 1 43 35 discriminator 1 view .LVU65
 303 0064 BCF10A0F 		cmp	ip, #10
 304 0068 E3D1     		bne	.L20
  45:./Application/Src/hc04.c ****                 rx_valid = rx_message_index; // store TOTAL accumulated length
 305              		.loc 1 45 17 is_stmt 1 view .LVU66
  45:./Application/Src/hc04.c ****                 rx_valid = rx_message_index; // store TOTAL accumulated length
 306              		.loc 1 45 27 is_stmt 0 view .LVU67
 307 006a 0C4B     		ldr	r3, .L29+8
 308              	.LVL25:
  45:./Application/Src/hc04.c ****                 rx_valid = rx_message_index; // store TOTAL accumulated length
 309              		.loc 1 45 27 view .LVU68
 310 006c 1888     		ldrh	r0, [r3]
  45:./Application/Src/hc04.c ****                 rx_valid = rx_message_index; // store TOTAL accumulated length
 311              		.loc 1 45 46 view .LVU69
 312 006e 0021     		movs	r1, #0
 313              	.LVL26:
  45:./Application/Src/hc04.c ****                 rx_valid = rx_message_index; // store TOTAL accumulated length
 314              		.loc 1 45 46 view .LVU70
 315 0070 0B4C     		ldr	r4, .L29+12
 316 0072 2154     		strb	r1, [r4, r0]
  46:./Application/Src/hc04.c ****                 // overwrite the place by setting index back to 0
 317              		.loc 1 46 17 is_stmt 1 view .LVU71
  46:./Application/Src/hc04.c ****                 // overwrite the place by setting index back to 0
 318              		.loc 1 46 26 is_stmt 0 view .LVU72
 319 0074 0D4C     		ldr	r4, .L29+24
 320 0076 2060     		str	r0, [r4]
  48:./Application/Src/hc04.c ****                 rx_complete = 1;
 321              		.loc 1 48 17 is_stmt 1 view .LVU73
  48:./Application/Src/hc04.c ****                 rx_complete = 1;
 322              		.loc 1 48 34 is_stmt 0 view .LVU74
 323 0078 1980     		strh	r1, [r3]	@ movhi
  49:./Application/Src/hc04.c ****                 // update the old buffer index for next use, +1 due to \0
ARM GAS  C:\Users\Xuleo\AppData\Local\Temp\cc0UTfYd.s 			page 8


 324              		.loc 1 49 17 is_stmt 1 view .LVU75
  49:./Application/Src/hc04.c ****                 // update the old buffer index for next use, +1 due to \0
 325              		.loc 1 49 29 is_stmt 0 view .LVU76
 326 007a 0D4B     		ldr	r3, .L29+28
 327 007c 0121     		movs	r1, #1
 328 007e 1960     		str	r1, [r3]
  51:./Application/Src/hc04.c ****                 return;
 329              		.loc 1 51 17 is_stmt 1 view .LVU77
  51:./Application/Src/hc04.c ****                 return;
 330              		.loc 1 51 45 is_stmt 0 view .LVU78
 331 0080 0A44     		add	r2, r2, r1
 332              	.LVL27:
  51:./Application/Src/hc04.c ****                 return;
 333              		.loc 1 51 50 view .LVU79
 334 0082 02F07F02 		and	r2, r2, #127
  51:./Application/Src/hc04.c ****                 return;
 335              		.loc 1 51 34 view .LVU80
 336 0086 044B     		ldr	r3, .L29+4
 337 0088 1A60     		str	r2, [r3]
  52:./Application/Src/hc04.c ****             }
 338              		.loc 1 52 17 is_stmt 1 view .LVU81
 339 008a 01E0     		b	.L15
 340              	.LVL28:
 341              	.L28:
  52:./Application/Src/hc04.c ****             }
 342              		.loc 1 52 17 is_stmt 0 view .LVU82
 343              	.LBE5:
 344              	.LBE6:
  59:./Application/Src/hc04.c ****             }
  60:./Application/Src/hc04.c ****         }
  61:./Application/Src/hc04.c ****         old_buffer_index = size;
 345              		.loc 1 61 9 is_stmt 1 view .LVU83
 346              		.loc 1 61 26 is_stmt 0 view .LVU84
 347 008c 024B     		ldr	r3, .L29+4
 348              	.LVL29:
 349              		.loc 1 61 26 view .LVU85
 350 008e 1D60     		str	r5, [r3]
 351              	.LVL30:
 352              	.L15:
 353              		.loc 1 61 26 view .LVU86
 354              	.LBE2:
  62:./Application/Src/hc04.c ****     }
  63:./Application/Src/hc04.c **** }...
 355              		.loc 1 63 1 view .LVU87
 356 0090 30BD     		pop	{r4, r5, pc}
 357              	.L30:
 358 0092 00BF     		.align	2
 359              	.L29:
 360 0094 00000000 		.word	huart2
 361 0098 00000000 		.word	old_buffer_index
 362 009c 00000000 		.word	rx_message_index
 363 00a0 00000000 		.word	rx_message
 364 00a4 00000000 		.word	rx_message_buffer
 365 00a8 00000000 		.word	uart_binary_mode
 366 00ac 00000000 		.word	rx_valid
 367 00b0 00000000 		.word	rx_complete
 368              		.cfi_endproc
ARM GAS  C:\Users\Xuleo\AppData\Local\Temp\cc0UTfYd.s 			page 9


 369              	.LFE363:
 371              		.text
 372              	.Letext0:
 373              		.file 2 "C:/thirdpartyLibs/arm-gnu-toolchain-15.2/arm-none-eabi/include/machine/_default_types.h"
 374              		.file 3 "C:/thirdpartyLibs/arm-gnu-toolchain-15.2/arm-none-eabi/include/sys/_stdint.h"
 375              		.file 4 "C:/thirdpartyLibs/arm-gnu-toolchain-15.2/lib/gcc/arm-none-eabi/15.2.1/include/stddef.h"
 376              		.file 5 "Drivers/CMSIS/Device/ST/STM32H5xx/Include/stm32h523xx.h"
 377              		.file 6 "Drivers/STM32H5xx_HAL_Driver/Inc/stm32h5xx_hal_def.h"
 378              		.file 7 "Drivers/STM32H5xx_HAL_Driver/Inc/stm32h5xx_hal_dma.h"
 379              		.file 8 "Drivers/STM32H5xx_HAL_Driver/Inc/stm32h5xx_hal_dma_ex.h"
 380              		.file 9 "Drivers/STM32H5xx_HAL_Driver/Inc/stm32h5xx_hal_uart.h"
 381              		.file 10 "Core/Inc/usart.h"
 382              		.file 11 "Application/Inc/application.h"
 383              		.file 12 "Drivers/STM32H5xx_HAL_Driver/Inc/stm32h5xx_hal_uart_ex.h"
 384              		.file 13 "C:/thirdpartyLibs/arm-gnu-toolchain-15.2/arm-none-eabi/include/string.h"
ARM GAS  C:\Users\Xuleo\AppData\Local\Temp\cc0UTfYd.s 			page 10

