ARM GAS  C:\Users\Xuleo\AppData\Local\Temp\ccZTfFle.s 			page 1


   1              		.cpu cortex-m3
   2              		.arch armv7-m
   3              		.fpu softvfp
   4              		.eabi_attribute 20, 1
   5              		.eabi_attribute 21, 1
   6              		.eabi_attribute 23, 3
   7              		.eabi_attribute 24, 1
   8              		.eabi_attribute 25, 1
   9              		.eabi_attribute 26, 1
  10              		.eabi_attribute 30, 1
  11              		.eabi_attribute 34, 1
  12              		.eabi_attribute 18, 4
  13              		.file	"hc05bt.c"
  14              		.text
  15              	.Ltext0:
  16              		.cfi_sections	.debug_frame
  17              		.file 1 "./Application/Src/hc05bt.c"
  18              		.section	.rodata.setupBT.str1.4,"aMS",%progbits,1
  19              		.align	2
  20              	.LC1:
  21 0000 4F4B00   		.ascii	"OK\000"
  22 0003 00       		.align	2
  23              	.LC0:
  24 0004 41542B55 		.ascii	"AT+UART=115200,0,0\015\012\000"
  24      4152543D 
  24      31313532 
  24      30302C30 
  24      2C300D0A 
  25 0019 000000   		.align	2
  26              	.LC2:
  27 001c 41542B50 		.ascii	"AT+PSWD=6666\015\012\000"
  27      5357443D 
  27      36363636 
  27      0D0A00
  28              		.section	.text.setupBT,"ax",%progbits
  29              		.align	1
  30              		.global	setupBT
  31              		.syntax unified
  32              		.thumb
  33              		.thumb_func
  35              	setupBT:
  36              	.LFB65:
   1:./Application/Src/hc05bt.c **** #include <hc05bt.h>
   2:./Application/Src/hc05bt.c **** #include "usart.h"
   3:./Application/Src/hc05bt.c **** 
   4:./Application/Src/hc05bt.c **** uint8_t rx_data[100] = {0};
   5:./Application/Src/hc05bt.c **** uint8_t rx_byte;
   6:./Application/Src/hc05bt.c **** volatile uint8_t rx_complete = 0;  // flag: 1 when message ready
   7:./Application/Src/hc05bt.c **** 
   8:./Application/Src/hc05bt.c **** /* Binary mode for file transfer */
   9:./Application/Src/hc05bt.c **** volatile uint8_t rx_binary_mode = 0;
  10:./Application/Src/hc05bt.c **** volatile uint16_t rx_binary_expected = 0;
  11:./Application/Src/hc05bt.c **** uint8_t rx_binary_buffer[80] = {0};
  12:./Application/Src/hc05bt.c **** volatile uint16_t rx_binary_index = 0;
  13:./Application/Src/hc05bt.c **** volatile uint8_t rx_binary_complete = 0;
  14:./Application/Src/hc05bt.c **** 
  15:./Application/Src/hc05bt.c **** /* DMA receive buffer */
ARM GAS  C:\Users\Xuleo\AppData\Local\Temp\ccZTfFle.s 			page 2


  16:./Application/Src/hc05bt.c **** uint8_t rx_dma_buffer[128] = {0};
  17:./Application/Src/hc05bt.c **** volatile uint16_t rx_dma_len = 0;
  18:./Application/Src/hc05bt.c **** 
  19:./Application/Src/hc05bt.c **** // set up functions, work with baudrate 38400
  20:./Application/Src/hc05bt.c **** int setupBT(){
  37              		.loc 1 20 14 view -0
  38              		.cfi_startproc
  39              		@ args = 0, pretend = 0, frame = 72
  40              		@ frame_needed = 0, uses_anonymous_args = 0
  41 0000 70B5     		push	{r4, r5, r6, lr}
  42              	.LCFI0:
  43              		.cfi_def_cfa_offset 16
  44              		.cfi_offset 4, -16
  45              		.cfi_offset 5, -12
  46              		.cfi_offset 6, -8
  47              		.cfi_offset 14, -4
  48 0002 92B0     		sub	sp, sp, #72
  49              	.LCFI1:
  50              		.cfi_def_cfa_offset 88
  21:./Application/Src/hc05bt.c ****     // reset baudrate
  22:./Application/Src/hc05bt.c ****     uint8_t cmd[] = "AT+UART=115200,0,0\r\n";
  51              		.loc 1 22 5 view .LVU1
  52              		.loc 1 22 13 is_stmt 0 view .LVU2
  53 0004 0DF1300C 		add	ip, sp, #48
  54 0008 2B4C     		ldr	r4, .L7
  55 000a 0FCC     		ldmia	r4!, {r0, r1, r2, r3}
  56 000c ACE80F00 		stmia	ip!, {r0, r1, r2, r3}
  57 0010 94E80300 		ldm	r4, {r0, r1}
  58 0014 4CF8040B 		str	r0, [ip], #4
  59 0018 8CF80010 		strb	r1, [ip]
  23:./Application/Src/hc05bt.c ****     uint8_t buffer[16] = {0};
  60              		.loc 1 23 5 is_stmt 1 view .LVU3
  61              		.loc 1 23 13 is_stmt 0 view .LVU4
  62 001c 08AC     		add	r4, sp, #32
  63 001e 0023     		movs	r3, #0
  64 0020 0893     		str	r3, [sp, #32]
  65 0022 0993     		str	r3, [sp, #36]
  66 0024 0A93     		str	r3, [sp, #40]
  67 0026 0B93     		str	r3, [sp, #44]
  24:./Application/Src/hc05bt.c ****     HAL_UART_Transmit(&huart1, cmd, strlen((char*)cmd), 100);
  68              		.loc 1 24 5 is_stmt 1 view .LVU5
  69              		.loc 1 24 37 is_stmt 0 view .LVU6
  70 0028 0CAE     		add	r6, sp, #48
  71 002a 3046     		mov	r0, r6
  72 002c FFF7FEFF 		bl	strlen
  73              	.LVL0:
  74              		.loc 1 24 5 discriminator 1 view .LVU7
  75 0030 224D     		ldr	r5, .L7+4
  76 0032 6423     		movs	r3, #100
  77 0034 82B2     		uxth	r2, r0
  78 0036 3146     		mov	r1, r6
  79 0038 2846     		mov	r0, r5
  80 003a FFF7FEFF 		bl	HAL_UART_Transmit
  81              	.LVL1:
  25:./Application/Src/hc05bt.c ****     // receive response
  26:./Application/Src/hc05bt.c ****     HAL_StatusTypeDef status = HAL_UART_Receive(&huart1, buffer, 4, 1000);
  82              		.loc 1 26 5 is_stmt 1 view .LVU8
ARM GAS  C:\Users\Xuleo\AppData\Local\Temp\ccZTfFle.s 			page 3


  83              		.loc 1 26 32 is_stmt 0 view .LVU9
  84 003e 4FF47A73 		mov	r3, #1000
  85 0042 0422     		movs	r2, #4
  86 0044 2146     		mov	r1, r4
  87 0046 2846     		mov	r0, r5
  88 0048 FFF7FEFF 		bl	HAL_UART_Receive
  89              	.LVL2:
  27:./Application/Src/hc05bt.c ****     // use strncmp to compare strings and find "OK"
  28:./Application/Src/hc05bt.c ****     if (status != HAL_OK || strncmp((char*)buffer, "OK", 2) != 0){
  90              		.loc 1 28 5 is_stmt 1 view .LVU10
  91              		.loc 1 28 8 is_stmt 0 view .LVU11
  92 004c 78BB     		cbnz	r0, .L3
  93              		.loc 1 28 29 discriminator 1 view .LVU12
  94 004e 0222     		movs	r2, #2
  95 0050 1B49     		ldr	r1, .L7+8
  96 0052 2046     		mov	r0, r4
  97              	.LVL3:
  98              		.loc 1 28 29 discriminator 1 view .LVU13
  99 0054 FFF7FEFF 		bl	strncmp
 100              	.LVL4:
 101              		.loc 1 28 26 discriminator 2 view .LVU14
 102 0058 0546     		mov	r5, r0
 103 005a 08B1     		cbz	r0, .L6
  29:./Application/Src/hc05bt.c ****         return 0;
 104              		.loc 1 29 16 view .LVU15
 105 005c 0025     		movs	r5, #0
 106 005e 27E0     		b	.L1
 107              	.L6:
  30:./Application/Src/hc05bt.c ****     } 
  31:./Application/Src/hc05bt.c **** 
  32:./Application/Src/hc05bt.c ****     // set PIN (do this BEFORE changing baud rate!)
  33:./Application/Src/hc05bt.c ****     uint8_t cmd2[] = "AT+PSWD=6666\r\n";  // fixed typo: PSWD not PSDW
 108              		.loc 1 33 5 is_stmt 1 view .LVU16
 109              		.loc 1 33 13 is_stmt 0 view .LVU17
 110 0060 184B     		ldr	r3, .L7+12
 111 0062 04AC     		add	r4, sp, #16
 112 0064 0FCB     		ldm	r3, {r0, r1, r2, r3}
 113 0066 07C4     		stmia	r4!, {r0, r1, r2}
 114 0068 24F8023B 		strh	r3, [r4], #2	@ movhi
 115 006c 1B0C     		lsrs	r3, r3, #16
 116 006e 2370     		strb	r3, [r4]
  34:./Application/Src/hc05bt.c ****     uint8_t buffer2[16] = {0};
 117              		.loc 1 34 5 is_stmt 1 view .LVU18
 118              		.loc 1 34 13 is_stmt 0 view .LVU19
 119 0070 0023     		movs	r3, #0
 120 0072 0093     		str	r3, [sp]
 121 0074 0193     		str	r3, [sp, #4]
 122 0076 0293     		str	r3, [sp, #8]
 123 0078 0393     		str	r3, [sp, #12]
  35:./Application/Src/hc05bt.c ****     HAL_UART_Transmit(&huart1, cmd2, strlen((char*)cmd2), 100);
 124              		.loc 1 35 5 is_stmt 1 view .LVU20
 125              		.loc 1 35 38 is_stmt 0 view .LVU21
 126 007a 04AE     		add	r6, sp, #16
 127 007c 3046     		mov	r0, r6
 128 007e FFF7FEFF 		bl	strlen
 129              	.LVL5:
 130              		.loc 1 35 5 discriminator 1 view .LVU22
ARM GAS  C:\Users\Xuleo\AppData\Local\Temp\ccZTfFle.s 			page 4


 131 0082 6423     		movs	r3, #100
 132 0084 82B2     		uxth	r2, r0
 133 0086 3146     		mov	r1, r6
 134 0088 0C48     		ldr	r0, .L7+4
 135 008a FFF7FEFF 		bl	HAL_UART_Transmit
 136              	.LVL6:
  36:./Application/Src/hc05bt.c ****     // receive response
  37:./Application/Src/hc05bt.c ****     HAL_StatusTypeDef status2 = HAL_UART_Receive(&huart1, buffer2, 4, 1000);
 137              		.loc 1 37 5 is_stmt 1 view .LVU23
 138              		.loc 1 37 33 is_stmt 0 view .LVU24
 139 008e 4FF47A73 		mov	r3, #1000
 140 0092 0422     		movs	r2, #4
 141 0094 6946     		mov	r1, sp
 142 0096 0948     		ldr	r0, .L7+4
 143 0098 FFF7FEFF 		bl	HAL_UART_Receive
 144              	.LVL7:
  38:./Application/Src/hc05bt.c ****     // use strncmp to compare strings and find "OK"
  39:./Application/Src/hc05bt.c ****     if (status2 != HAL_OK || strncmp((char*)buffer2, "OK", 2) != 0){  // fixed: buffer2
 145              		.loc 1 39 5 is_stmt 1 view .LVU25
 146              		.loc 1 39 8 is_stmt 0 view .LVU26
 147 009c 40B9     		cbnz	r0, .L1
 148              		.loc 1 39 30 discriminator 1 view .LVU27
 149 009e 0222     		movs	r2, #2
 150 00a0 0749     		ldr	r1, .L7+8
 151 00a2 6846     		mov	r0, sp
 152              	.LVL8:
 153              		.loc 1 39 30 discriminator 1 view .LVU28
 154 00a4 FFF7FEFF 		bl	strncmp
 155              	.LVL9:
 156              		.loc 1 39 27 discriminator 2 view .LVU29
 157 00a8 10B9     		cbnz	r0, .L1
  40:./Application/Src/hc05bt.c ****         return 0;
  41:./Application/Src/hc05bt.c ****     }    
  42:./Application/Src/hc05bt.c ****     return 1; // all set done!
 158              		.loc 1 42 12 view .LVU30
 159 00aa 0125     		movs	r5, #1
 160 00ac 00E0     		b	.L1
 161              	.LVL10:
 162              	.L3:
  29:./Application/Src/hc05bt.c ****     } 
 163              		.loc 1 29 16 view .LVU31
 164 00ae 0025     		movs	r5, #0
 165              	.LVL11:
 166              	.L1:
  43:./Application/Src/hc05bt.c **** }
 167              		.loc 1 43 1 view .LVU32
 168 00b0 2846     		mov	r0, r5
 169 00b2 12B0     		add	sp, sp, #72
 170              	.LCFI2:
 171              		.cfi_def_cfa_offset 16
 172              		@ sp needed
 173 00b4 70BD     		pop	{r4, r5, r6, pc}
 174              	.L8:
 175 00b6 00BF     		.align	2
 176              	.L7:
 177 00b8 04000000 		.word	.LC0
 178 00bc 00000000 		.word	huart1
ARM GAS  C:\Users\Xuleo\AppData\Local\Temp\ccZTfFle.s 			page 5


 179 00c0 00000000 		.word	.LC1
 180 00c4 1C000000 		.word	.LC2
 181              		.cfi_endproc
 182              	.LFE65:
 184              		.section	.text.HC05_SendInfo,"ax",%progbits
 185              		.align	1
 186              		.global	HC05_SendInfo
 187              		.syntax unified
 188              		.thumb
 189              		.thumb_func
 191              	HC05_SendInfo:
 192              	.LVL12:
 193              	.LFB66:
  44:./Application/Src/hc05bt.c **** 
  45:./Application/Src/hc05bt.c **** // runtime function will use interrupt
  46:./Application/Src/hc05bt.c **** // use interrupt to send
  47:./Application/Src/hc05bt.c **** // expect input a string
  48:./Application/Src/hc05bt.c **** int HC05_SendInfo(uint8_t* buffer){
 194              		.loc 1 48 35 is_stmt 1 view -0
 195              		.cfi_startproc
 196              		@ args = 0, pretend = 0, frame = 0
 197              		@ frame_needed = 0, uses_anonymous_args = 0
 198              		.loc 1 48 35 is_stmt 0 view .LVU34
 199 0000 10B5     		push	{r4, lr}
 200              	.LCFI3:
 201              		.cfi_def_cfa_offset 8
 202              		.cfi_offset 4, -8
 203              		.cfi_offset 14, -4
 204 0002 0446     		mov	r4, r0
  49:./Application/Src/hc05bt.c ****     HAL_UART_StateTypeDef state = HAL_UART_GetState(&huart1);
 205              		.loc 1 49 5 is_stmt 1 view .LVU35
 206              		.loc 1 49 35 is_stmt 0 view .LVU36
 207 0004 0948     		ldr	r0, .L14
 208              	.LVL13:
 209              		.loc 1 49 35 view .LVU37
 210 0006 FFF7FEFF 		bl	HAL_UART_GetState
 211              	.LVL14:
  50:./Application/Src/hc05bt.c ****     // allow transmit when idle OR when only receiving (not when already transmitting)
  51:./Application/Src/hc05bt.c ****     if(state == HAL_UART_STATE_READY || state == HAL_UART_STATE_BUSY_RX){
 212              		.loc 1 51 5 is_stmt 1 view .LVU38
 213              		.loc 1 51 7 is_stmt 0 view .LVU39
 214 000a 2028     		cmp	r0, #32
 215 000c 03D0     		beq	.L10
 216              		.loc 1 51 38 discriminator 1 view .LVU40
 217 000e 2228     		cmp	r0, #34
 218 0010 01D0     		beq	.L10
  52:./Application/Src/hc05bt.c ****         HAL_UART_Transmit_IT(&huart1, buffer, strlen((char*)buffer));
  53:./Application/Src/hc05bt.c ****         return 1;
  54:./Application/Src/hc05bt.c ****     }
  55:./Application/Src/hc05bt.c **** 
  56:./Application/Src/hc05bt.c ****     return 0; // busy transmitting
 219              		.loc 1 56 12 view .LVU41
 220 0012 0020     		movs	r0, #0
 221              	.LVL15:
 222              	.L9:
  57:./Application/Src/hc05bt.c **** }
 223              		.loc 1 57 1 view .LVU42
ARM GAS  C:\Users\Xuleo\AppData\Local\Temp\ccZTfFle.s 			page 6


 224 0014 10BD     		pop	{r4, pc}
 225              	.LVL16:
 226              	.L10:
  52:./Application/Src/hc05bt.c ****         HAL_UART_Transmit_IT(&huart1, buffer, strlen((char*)buffer));
 227              		.loc 1 52 9 is_stmt 1 view .LVU43
  52:./Application/Src/hc05bt.c ****         HAL_UART_Transmit_IT(&huart1, buffer, strlen((char*)buffer));
 228              		.loc 1 52 47 is_stmt 0 view .LVU44
 229 0016 2046     		mov	r0, r4
 230              	.LVL17:
  52:./Application/Src/hc05bt.c ****         HAL_UART_Transmit_IT(&huart1, buffer, strlen((char*)buffer));
 231              		.loc 1 52 47 view .LVU45
 232 0018 FFF7FEFF 		bl	strlen
 233              	.LVL18:
  52:./Application/Src/hc05bt.c ****         HAL_UART_Transmit_IT(&huart1, buffer, strlen((char*)buffer));
 234              		.loc 1 52 9 discriminator 1 view .LVU46
 235 001c 82B2     		uxth	r2, r0
 236 001e 2146     		mov	r1, r4
 237 0020 0248     		ldr	r0, .L14
 238 0022 FFF7FEFF 		bl	HAL_UART_Transmit_IT
 239              	.LVL19:
  53:./Application/Src/hc05bt.c ****     }
 240              		.loc 1 53 9 is_stmt 1 view .LVU47
  53:./Application/Src/hc05bt.c ****     }
 241              		.loc 1 53 16 is_stmt 0 view .LVU48
 242 0026 0120     		movs	r0, #1
 243 0028 F4E7     		b	.L9
 244              	.L15:
 245 002a 00BF     		.align	2
 246              	.L14:
 247 002c 00000000 		.word	huart1
 248              		.cfi_endproc
 249              	.LFE66:
 251              		.section	.text.HC05_ReceiveInfo,"ax",%progbits
 252              		.align	1
 253              		.global	HC05_ReceiveInfo
 254              		.syntax unified
 255              		.thumb
 256              		.thumb_func
 258              	HC05_ReceiveInfo:
 259              	.LVL20:
 260              	.LFB67:
  58:./Application/Src/hc05bt.c **** 
  59:./Application/Src/hc05bt.c **** void HC05_ReceiveInfo(uint8_t* receiveBuffer){
 261              		.loc 1 59 46 is_stmt 1 view -0
 262              		.cfi_startproc
 263              		@ args = 0, pretend = 0, frame = 0
 264              		@ frame_needed = 0, uses_anonymous_args = 0
 265              		.loc 1 59 46 is_stmt 0 view .LVU50
 266 0000 10B5     		push	{r4, lr}
 267              	.LCFI4:
 268              		.cfi_def_cfa_offset 8
 269              		.cfi_offset 4, -8
 270              		.cfi_offset 14, -4
  60:./Application/Src/hc05bt.c ****     /* Use DMA with IDLE line detection */
  61:./Application/Src/hc05bt.c ****     HAL_UARTEx_ReceiveToIdle_DMA(&huart1, rx_dma_buffer, sizeof(rx_dma_buffer));
 271              		.loc 1 61 5 is_stmt 1 view .LVU51
 272 0002 064C     		ldr	r4, .L18
ARM GAS  C:\Users\Xuleo\AppData\Local\Temp\ccZTfFle.s 			page 7


 273 0004 8022     		movs	r2, #128
 274 0006 0649     		ldr	r1, .L18+4
 275 0008 2046     		mov	r0, r4
 276              	.LVL21:
 277              		.loc 1 61 5 is_stmt 0 view .LVU52
 278 000a FFF7FEFF 		bl	HAL_UARTEx_ReceiveToIdle_DMA
 279              	.LVL22:
  62:./Application/Src/hc05bt.c ****     __HAL_DMA_DISABLE_IT(huart1.hdmarx, DMA_IT_HT);
 280              		.loc 1 62 5 is_stmt 1 view .LVU53
 281 000e E36B     		ldr	r3, [r4, #60]
 282 0010 1A68     		ldr	r2, [r3]
 283 0012 1368     		ldr	r3, [r2]
 284 0014 23F00403 		bic	r3, r3, #4
 285 0018 1360     		str	r3, [r2]
  63:./Application/Src/hc05bt.c **** }
 286              		.loc 1 63 1 is_stmt 0 view .LVU54
 287 001a 10BD     		pop	{r4, pc}
 288              	.L19:
 289              		.align	2
 290              	.L18:
 291 001c 00000000 		.word	huart1
 292 0020 00000000 		.word	rx_dma_buffer
 293              		.cfi_endproc
 294              	.LFE67:
 296              		.section	.text.HC05_RestartDMA,"ax",%progbits
 297              		.align	1
 298              		.global	HC05_RestartDMA
 299              		.syntax unified
 300              		.thumb
 301              		.thumb_func
 303              	HC05_RestartDMA:
 304              	.LFB68:
  64:./Application/Src/hc05bt.c **** 
  65:./Application/Src/hc05bt.c **** /* Restart DMA reception - abort first to ensure clean state */
  66:./Application/Src/hc05bt.c **** void HC05_RestartDMA(void){
 305              		.loc 1 66 27 is_stmt 1 view -0
 306              		.cfi_startproc
 307              		@ args = 0, pretend = 0, frame = 0
 308              		@ frame_needed = 0, uses_anonymous_args = 0
 309 0000 10B5     		push	{r4, lr}
 310              	.LCFI5:
 311              		.cfi_def_cfa_offset 8
 312              		.cfi_offset 4, -8
 313              		.cfi_offset 14, -4
  67:./Application/Src/hc05bt.c ****     /* Abort any ongoing reception first */
  68:./Application/Src/hc05bt.c ****     HAL_UART_AbortReceive(&huart1);
 314              		.loc 1 68 5 view .LVU56
 315 0002 084C     		ldr	r4, .L22
 316 0004 2046     		mov	r0, r4
 317 0006 FFF7FEFF 		bl	HAL_UART_AbortReceive
 318              	.LVL23:
  69:./Application/Src/hc05bt.c ****     /* Restart DMA */
  70:./Application/Src/hc05bt.c ****     HAL_UARTEx_ReceiveToIdle_DMA(&huart1, rx_dma_buffer, sizeof(rx_dma_buffer));
 319              		.loc 1 70 5 view .LVU57
 320 000a 8022     		movs	r2, #128
 321 000c 0649     		ldr	r1, .L22+4
 322 000e 2046     		mov	r0, r4
ARM GAS  C:\Users\Xuleo\AppData\Local\Temp\ccZTfFle.s 			page 8


 323 0010 FFF7FEFF 		bl	HAL_UARTEx_ReceiveToIdle_DMA
 324              	.LVL24:
  71:./Application/Src/hc05bt.c ****     __HAL_DMA_DISABLE_IT(huart1.hdmarx, DMA_IT_HT);
 325              		.loc 1 71 5 view .LVU58
 326 0014 E36B     		ldr	r3, [r4, #60]
 327 0016 1A68     		ldr	r2, [r3]
 328 0018 1368     		ldr	r3, [r2]
 329 001a 23F00403 		bic	r3, r3, #4
 330 001e 1360     		str	r3, [r2]
  72:./Application/Src/hc05bt.c **** }
 331              		.loc 1 72 1 is_stmt 0 view .LVU59
 332 0020 10BD     		pop	{r4, pc}
 333              	.L23:
 334 0022 00BF     		.align	2
 335              	.L22:
 336 0024 00000000 		.word	huart1
 337 0028 00000000 		.word	rx_dma_buffer
 338              		.cfi_endproc
 339              	.LFE68:
 341              		.section	.text.HC05_SendBytes,"ax",%progbits
 342              		.align	1
 343              		.global	HC05_SendBytes
 344              		.syntax unified
 345              		.thumb
 346              		.thumb_func
 348              	HC05_SendBytes:
 349              	.LVL25:
 350              	.LFB69:
  73:./Application/Src/hc05bt.c **** 
  74:./Application/Src/hc05bt.c **** int HC05_SendBytes(uint8_t* buffer, uint16_t len){
 351              		.loc 1 74 50 is_stmt 1 view -0
 352              		.cfi_startproc
 353              		@ args = 0, pretend = 0, frame = 0
 354              		@ frame_needed = 0, uses_anonymous_args = 0
 355              		.loc 1 74 50 is_stmt 0 view .LVU61
 356 0000 08B5     		push	{r3, lr}
 357              	.LCFI6:
 358              		.cfi_def_cfa_offset 8
 359              		.cfi_offset 3, -8
 360              		.cfi_offset 14, -4
 361 0002 0A46     		mov	r2, r1
  75:./Application/Src/hc05bt.c ****     /* Use blocking transmit for file transfer responses to ensure delivery */
  76:./Application/Src/hc05bt.c ****     /* Timeout: 10ms per byte + 50ms base (safe margin at 115200 baud) */
  77:./Application/Src/hc05bt.c ****     uint32_t timeout = 50 + (len * 10);
 362              		.loc 1 77 5 is_stmt 1 view .LVU62
 363              		.loc 1 77 34 is_stmt 0 view .LVU63
 364 0004 01EB8103 		add	r3, r1, r1, lsl #2
 365 0008 5B00     		lsls	r3, r3, #1
 366              	.LVL26:
  78:./Application/Src/hc05bt.c ****     HAL_StatusTypeDef status = HAL_UART_Transmit(&huart1, buffer, len, timeout);
 367              		.loc 1 78 5 is_stmt 1 view .LVU64
 368              		.loc 1 78 32 is_stmt 0 view .LVU65
 369 000a 3233     		adds	r3, r3, #50
 370              	.LVL27:
 371              		.loc 1 78 32 view .LVU66
 372 000c 0146     		mov	r1, r0
 373              	.LVL28:
ARM GAS  C:\Users\Xuleo\AppData\Local\Temp\ccZTfFle.s 			page 9


 374              		.loc 1 78 32 view .LVU67
 375 000e 0348     		ldr	r0, .L26
 376              	.LVL29:
 377              		.loc 1 78 32 view .LVU68
 378 0010 FFF7FEFF 		bl	HAL_UART_Transmit
 379              	.LVL30:
  79:./Application/Src/hc05bt.c ****     return (status == HAL_OK) ? 1 : 0;
 380              		.loc 1 79 5 is_stmt 1 view .LVU69
  80:./Application/Src/hc05bt.c **** }
 381              		.loc 1 80 1 is_stmt 0 view .LVU70
 382 0014 B0FA80F0 		clz	r0, r0
 383              	.LVL31:
 384              		.loc 1 80 1 view .LVU71
 385 0018 4009     		lsrs	r0, r0, #5
 386 001a 08BD     		pop	{r3, pc}
 387              	.L27:
 388              		.align	2
 389              	.L26:
 390 001c 00000000 		.word	huart1
 391              		.cfi_endproc
 392              	.LFE69:
 394              		.section	.text.HC05_SendBytes_IT,"ax",%progbits
 395              		.align	1
 396              		.global	HC05_SendBytes_IT
 397              		.syntax unified
 398              		.thumb
 399              		.thumb_func
 401              	HC05_SendBytes_IT:
 402              	.LVL32:
 403              	.LFB70:
  81:./Application/Src/hc05bt.c **** 
  82:./Application/Src/hc05bt.c **** /* Non-blocking version for general use */
  83:./Application/Src/hc05bt.c **** int HC05_SendBytes_IT(uint8_t* buffer, uint16_t len){
 404              		.loc 1 83 53 is_stmt 1 view -0
 405              		.cfi_startproc
 406              		@ args = 0, pretend = 0, frame = 0
 407              		@ frame_needed = 0, uses_anonymous_args = 0
 408              		.loc 1 83 53 is_stmt 0 view .LVU73
 409 0000 38B5     		push	{r3, r4, r5, lr}
 410              	.LCFI7:
 411              		.cfi_def_cfa_offset 16
 412              		.cfi_offset 3, -16
 413              		.cfi_offset 4, -12
 414              		.cfi_offset 5, -8
 415              		.cfi_offset 14, -4
 416 0002 0446     		mov	r4, r0
 417 0004 0D46     		mov	r5, r1
  84:./Application/Src/hc05bt.c ****     HAL_UART_StateTypeDef state = HAL_UART_GetState(&huart1);
 418              		.loc 1 84 5 is_stmt 1 view .LVU74
 419              		.loc 1 84 35 is_stmt 0 view .LVU75
 420 0006 0848     		ldr	r0, .L33
 421              	.LVL33:
 422              		.loc 1 84 35 view .LVU76
 423 0008 FFF7FEFF 		bl	HAL_UART_GetState
 424              	.LVL34:
  85:./Application/Src/hc05bt.c ****     if(state == HAL_UART_STATE_READY || state == HAL_UART_STATE_BUSY_RX){
 425              		.loc 1 85 5 is_stmt 1 view .LVU77
ARM GAS  C:\Users\Xuleo\AppData\Local\Temp\ccZTfFle.s 			page 10


 426              		.loc 1 85 7 is_stmt 0 view .LVU78
 427 000c 2028     		cmp	r0, #32
 428 000e 03D0     		beq	.L29
 429              		.loc 1 85 38 discriminator 1 view .LVU79
 430 0010 2228     		cmp	r0, #34
 431 0012 01D0     		beq	.L29
  86:./Application/Src/hc05bt.c ****         HAL_UART_Transmit_IT(&huart1, buffer, len);
  87:./Application/Src/hc05bt.c ****         return 1;
  88:./Application/Src/hc05bt.c ****     }
  89:./Application/Src/hc05bt.c ****     return 0;
 432              		.loc 1 89 12 view .LVU80
 433 0014 0020     		movs	r0, #0
 434              	.LVL35:
 435              	.L28:
  90:./Application/Src/hc05bt.c **** }
 436              		.loc 1 90 1 view .LVU81
 437 0016 38BD     		pop	{r3, r4, r5, pc}
 438              	.LVL36:
 439              	.L29:
  86:./Application/Src/hc05bt.c ****         HAL_UART_Transmit_IT(&huart1, buffer, len);
 440              		.loc 1 86 9 is_stmt 1 view .LVU82
 441 0018 2A46     		mov	r2, r5
 442 001a 2146     		mov	r1, r4
 443 001c 0248     		ldr	r0, .L33
 444              	.LVL37:
  86:./Application/Src/hc05bt.c ****         HAL_UART_Transmit_IT(&huart1, buffer, len);
 445              		.loc 1 86 9 is_stmt 0 view .LVU83
 446 001e FFF7FEFF 		bl	HAL_UART_Transmit_IT
 447              	.LVL38:
  87:./Application/Src/hc05bt.c ****     }
 448              		.loc 1 87 9 is_stmt 1 view .LVU84
  87:./Application/Src/hc05bt.c ****     }
 449              		.loc 1 87 16 is_stmt 0 view .LVU85
 450 0022 0120     		movs	r0, #1
 451 0024 F7E7     		b	.L28
 452              	.L34:
 453 0026 00BF     		.align	2
 454              	.L33:
 455 0028 00000000 		.word	huart1
 456              		.cfi_endproc
 457              	.LFE70:
 459              		.global	rx_dma_len
 460              		.section	.bss.rx_dma_len,"aw",%nobits
 461              		.align	1
 464              	rx_dma_len:
 465 0000 0000     		.space	2
 466              		.global	rx_dma_buffer
 467              		.section	.bss.rx_dma_buffer,"aw",%nobits
 468              		.align	2
 471              	rx_dma_buffer:
 472 0000 00000000 		.space	128
 472      00000000 
 472      00000000 
 472      00000000 
 472      00000000 
 473              		.global	rx_binary_complete
 474              		.section	.bss.rx_binary_complete,"aw",%nobits
ARM GAS  C:\Users\Xuleo\AppData\Local\Temp\ccZTfFle.s 			page 11


 477              	rx_binary_complete:
 478 0000 00       		.space	1
 479              		.global	rx_binary_index
 480              		.section	.bss.rx_binary_index,"aw",%nobits
 481              		.align	1
 484              	rx_binary_index:
 485 0000 0000     		.space	2
 486              		.global	rx_binary_buffer
 487              		.section	.bss.rx_binary_buffer,"aw",%nobits
 488              		.align	2
 491              	rx_binary_buffer:
 492 0000 00000000 		.space	80
 492      00000000 
 492      00000000 
 492      00000000 
 492      00000000 
 493              		.global	rx_binary_expected
 494              		.section	.bss.rx_binary_expected,"aw",%nobits
 495              		.align	1
 498              	rx_binary_expected:
 499 0000 0000     		.space	2
 500              		.global	rx_binary_mode
 501              		.section	.bss.rx_binary_mode,"aw",%nobits
 504              	rx_binary_mode:
 505 0000 00       		.space	1
 506              		.global	rx_complete
 507              		.section	.bss.rx_complete,"aw",%nobits
 510              	rx_complete:
 511 0000 00       		.space	1
 512              		.global	rx_byte
 513              		.section	.bss.rx_byte,"aw",%nobits
 516              	rx_byte:
 517 0000 00       		.space	1
 518              		.global	rx_data
 519              		.section	.bss.rx_data,"aw",%nobits
 520              		.align	2
 523              	rx_data:
 524 0000 00000000 		.space	100
 524      00000000 
 524      00000000 
 524      00000000 
 524      00000000 
 525              		.text
 526              	.Letext0:
 527              		.file 2 "C:/thirdpartyLibs/arm-gnu-toolchain-15.2/lib/gcc/arm-none-eabi/15.2.1/include/stddef.h"
 528              		.file 3 "C:/thirdpartyLibs/arm-gnu-toolchain-15.2/arm-none-eabi/include/machine/_default_types.h"
 529              		.file 4 "C:/thirdpartyLibs/arm-gnu-toolchain-15.2/arm-none-eabi/include/sys/_stdint.h"
 530              		.file 5 "Application/Inc/hc05bt.h"
 531              		.file 6 "Drivers/CMSIS/Device/ST/STM32F1xx/Include/stm32f103xb.h"
 532              		.file 7 "Drivers/STM32F1xx_HAL_Driver/Inc/stm32f1xx_hal_def.h"
 533              		.file 8 "Drivers/STM32F1xx_HAL_Driver/Inc/stm32f1xx_hal_dma.h"
 534              		.file 9 "Drivers/STM32F1xx_HAL_Driver/Inc/stm32f1xx_hal_uart.h"
 535              		.file 10 "Core/Inc/usart.h"
 536              		.file 11 "C:/thirdpartyLibs/arm-gnu-toolchain-15.2/arm-none-eabi/include/string.h"
ARM GAS  C:\Users\Xuleo\AppData\Local\Temp\ccZTfFle.s 			page 12

