ARM GAS  C:\Users\admin\AppData\Local\Temp\ccXzbLNj.s 			page 1


   1              		.cpu cortex-m33
   2              		.arch armv8-m.main
   3              		.fpu fpv5-sp-d16
   4              		.arch_extension dsp
   5              		.eabi_attribute 27, 1
   6              		.eabi_attribute 28, 1
   7              		.eabi_attribute 20, 1
   8              		.eabi_attribute 21, 1
   9              		.eabi_attribute 23, 3
  10              		.eabi_attribute 24, 1
  11              		.eabi_attribute 25, 1
  12              		.eabi_attribute 26, 1
  13              		.eabi_attribute 30, 1
  14              		.eabi_attribute 34, 1
  15              		.eabi_attribute 18, 4
  16              		.file	"i2c.c"
  17              		.text
  18              	.Ltext0:
  19              		.cfi_sections	.debug_frame
  20              		.file 1 "Core/Src/i2c.c"
  21              		.section	.text.MX_I2C2_SMBUS_Init,"ax",%progbits
  22              		.align	1
  23              		.global	MX_I2C2_SMBUS_Init
  24              		.syntax unified
  25              		.thumb
  26              		.thumb_func
  28              	MX_I2C2_SMBUS_Init:
  29              	.LFB356:
   1:Core/Src/i2c.c **** /* USER CODE BEGIN Header */
   2:Core/Src/i2c.c **** /**
   3:Core/Src/i2c.c ****   ******************************************************************************
   4:Core/Src/i2c.c ****   * @file    i2c.c
   5:Core/Src/i2c.c ****   * @brief   This file provides code for the configuration
   6:Core/Src/i2c.c ****   *          of the I2C instances.
   7:Core/Src/i2c.c ****   ******************************************************************************
   8:Core/Src/i2c.c ****   * @attention
   9:Core/Src/i2c.c ****   *
  10:Core/Src/i2c.c ****   * Copyright (c) 2026 STMicroelectronics.
  11:Core/Src/i2c.c ****   * All rights reserved.
  12:Core/Src/i2c.c ****   *
  13:Core/Src/i2c.c ****   * This software is licensed under terms that can be found in the LICENSE file
  14:Core/Src/i2c.c ****   * in the root directory of this software component.
  15:Core/Src/i2c.c ****   * If no LICENSE file comes with this software, it is provided AS-IS.
  16:Core/Src/i2c.c ****   *
  17:Core/Src/i2c.c ****   ******************************************************************************
  18:Core/Src/i2c.c ****   */
  19:Core/Src/i2c.c **** /* USER CODE END Header */
  20:Core/Src/i2c.c **** /* Includes ------------------------------------------------------------------*/
  21:Core/Src/i2c.c **** #include "i2c.h"
  22:Core/Src/i2c.c **** 
  23:Core/Src/i2c.c **** /* USER CODE BEGIN 0 */
  24:Core/Src/i2c.c **** 
  25:Core/Src/i2c.c **** /* USER CODE END 0 */
  26:Core/Src/i2c.c **** 
  27:Core/Src/i2c.c **** SMBUS_HandleTypeDef hsmbus2;
  28:Core/Src/i2c.c **** 
  29:Core/Src/i2c.c **** /* I2C2 init function */
ARM GAS  C:\Users\admin\AppData\Local\Temp\ccXzbLNj.s 			page 2


  30:Core/Src/i2c.c **** 
  31:Core/Src/i2c.c **** void MX_I2C2_SMBUS_Init(void)
  32:Core/Src/i2c.c **** {
  30              		.loc 1 32 1 view -0
  31              		.cfi_startproc
  32              		@ args = 0, pretend = 0, frame = 0
  33              		@ frame_needed = 0, uses_anonymous_args = 0
  34 0000 08B5     		push	{r3, lr}
  35              	.LCFI0:
  36              		.cfi_def_cfa_offset 8
  37              		.cfi_offset 3, -8
  38              		.cfi_offset 14, -4
  33:Core/Src/i2c.c **** 
  34:Core/Src/i2c.c ****   /* USER CODE BEGIN I2C2_Init 0 */
  35:Core/Src/i2c.c **** 
  36:Core/Src/i2c.c ****   /* USER CODE END I2C2_Init 0 */
  37:Core/Src/i2c.c **** 
  38:Core/Src/i2c.c ****   /* USER CODE BEGIN I2C2_Init 1 */
  39:Core/Src/i2c.c **** 
  40:Core/Src/i2c.c ****   /* USER CODE END I2C2_Init 1 */
  41:Core/Src/i2c.c ****   hsmbus2.Instance = I2C2;
  39              		.loc 1 41 3 view .LVU1
  40              		.loc 1 41 20 is_stmt 0 view .LVU2
  41 0002 0E48     		ldr	r0, .L5
  42 0004 0E4B     		ldr	r3, .L5+4
  43 0006 0360     		str	r3, [r0]
  42:Core/Src/i2c.c ****   hsmbus2.Init.Timing = 0x60808CD3;
  44              		.loc 1 42 3 is_stmt 1 view .LVU3
  45              		.loc 1 42 23 is_stmt 0 view .LVU4
  46 0008 0E4B     		ldr	r3, .L5+8
  47 000a 4360     		str	r3, [r0, #4]
  43:Core/Src/i2c.c ****   hsmbus2.Init.AnalogFilter = SMBUS_ANALOGFILTER_ENABLE;
  48              		.loc 1 43 3 is_stmt 1 view .LVU5
  49              		.loc 1 43 29 is_stmt 0 view .LVU6
  50 000c 0023     		movs	r3, #0
  51 000e 8360     		str	r3, [r0, #8]
  44:Core/Src/i2c.c ****   hsmbus2.Init.OwnAddress1 = 2;
  52              		.loc 1 44 3 is_stmt 1 view .LVU7
  53              		.loc 1 44 28 is_stmt 0 view .LVU8
  54 0010 0222     		movs	r2, #2
  55 0012 C260     		str	r2, [r0, #12]
  45:Core/Src/i2c.c ****   hsmbus2.Init.AddressingMode = SMBUS_ADDRESSINGMODE_7BIT;
  56              		.loc 1 45 3 is_stmt 1 view .LVU9
  57              		.loc 1 45 31 is_stmt 0 view .LVU10
  58 0014 0122     		movs	r2, #1
  59 0016 0261     		str	r2, [r0, #16]
  46:Core/Src/i2c.c ****   hsmbus2.Init.DualAddressMode = SMBUS_DUALADDRESS_DISABLE;
  60              		.loc 1 46 3 is_stmt 1 view .LVU11
  61              		.loc 1 46 32 is_stmt 0 view .LVU12
  62 0018 4361     		str	r3, [r0, #20]
  47:Core/Src/i2c.c ****   hsmbus2.Init.OwnAddress2 = 0;
  63              		.loc 1 47 3 is_stmt 1 view .LVU13
  64              		.loc 1 47 28 is_stmt 0 view .LVU14
  65 001a 8361     		str	r3, [r0, #24]
  48:Core/Src/i2c.c ****   hsmbus2.Init.OwnAddress2Masks = SMBUS_OA2_NOMASK;
  66              		.loc 1 48 3 is_stmt 1 view .LVU15
  67              		.loc 1 48 33 is_stmt 0 view .LVU16
ARM GAS  C:\Users\admin\AppData\Local\Temp\ccXzbLNj.s 			page 3


  68 001c C361     		str	r3, [r0, #28]
  49:Core/Src/i2c.c ****   hsmbus2.Init.GeneralCallMode = SMBUS_GENERALCALL_DISABLE;
  69              		.loc 1 49 3 is_stmt 1 view .LVU17
  70              		.loc 1 49 32 is_stmt 0 view .LVU18
  71 001e 0362     		str	r3, [r0, #32]
  50:Core/Src/i2c.c ****   hsmbus2.Init.NoStretchMode = SMBUS_NOSTRETCH_DISABLE;
  72              		.loc 1 50 3 is_stmt 1 view .LVU19
  73              		.loc 1 50 30 is_stmt 0 view .LVU20
  74 0020 4362     		str	r3, [r0, #36]
  51:Core/Src/i2c.c ****   hsmbus2.Init.PacketErrorCheckMode = SMBUS_PEC_DISABLE;
  75              		.loc 1 51 3 is_stmt 1 view .LVU21
  76              		.loc 1 51 37 is_stmt 0 view .LVU22
  77 0022 8362     		str	r3, [r0, #40]
  52:Core/Src/i2c.c ****   hsmbus2.Init.PeripheralMode = SMBUS_PERIPHERAL_MODE_SMBUS_SLAVE;
  78              		.loc 1 52 3 is_stmt 1 view .LVU23
  79              		.loc 1 52 31 is_stmt 0 view .LVU24
  80 0024 C362     		str	r3, [r0, #44]
  53:Core/Src/i2c.c ****   hsmbus2.Init.SMBusTimeout = 0x00008BEB;
  81              		.loc 1 53 3 is_stmt 1 view .LVU25
  82              		.loc 1 53 29 is_stmt 0 view .LVU26
  83 0026 48F6EB33 		movw	r3, #35819
  84 002a 0363     		str	r3, [r0, #48]
  54:Core/Src/i2c.c ****   if (HAL_SMBUS_Init(&hsmbus2) != HAL_OK)
  85              		.loc 1 54 3 is_stmt 1 view .LVU27
  86              		.loc 1 54 7 is_stmt 0 view .LVU28
  87 002c FFF7FEFF 		bl	HAL_SMBUS_Init
  88              	.LVL0:
  89              		.loc 1 54 6 discriminator 1 view .LVU29
  90 0030 00B9     		cbnz	r0, .L4
  91              	.L1:
  55:Core/Src/i2c.c ****   {
  56:Core/Src/i2c.c ****     Error_Handler();
  57:Core/Src/i2c.c ****   }
  58:Core/Src/i2c.c ****   /* USER CODE BEGIN I2C2_Init 2 */
  59:Core/Src/i2c.c **** 
  60:Core/Src/i2c.c ****   /* USER CODE END I2C2_Init 2 */
  61:Core/Src/i2c.c **** 
  62:Core/Src/i2c.c **** }
  92              		.loc 1 62 1 view .LVU30
  93 0032 08BD     		pop	{r3, pc}
  94              	.L4:
  56:Core/Src/i2c.c ****   }
  95              		.loc 1 56 5 is_stmt 1 view .LVU31
  96 0034 FFF7FEFF 		bl	Error_Handler
  97              	.LVL1:
  98              		.loc 1 62 1 is_stmt 0 view .LVU32
  99 0038 FBE7     		b	.L1
 100              	.L6:
 101 003a 00BF     		.align	2
 102              	.L5:
 103 003c 00000000 		.word	hsmbus2
 104 0040 00580040 		.word	1073764352
 105 0044 D38C8060 		.word	1619037395
 106              		.cfi_endproc
 107              	.LFE356:
 109              		.section	.text.HAL_SMBUS_MspInit,"ax",%progbits
 110              		.align	1
ARM GAS  C:\Users\admin\AppData\Local\Temp\ccXzbLNj.s 			page 4


 111              		.global	HAL_SMBUS_MspInit
 112              		.syntax unified
 113              		.thumb
 114              		.thumb_func
 116              	HAL_SMBUS_MspInit:
 117              	.LVL2:
 118              	.LFB357:
  63:Core/Src/i2c.c **** 
  64:Core/Src/i2c.c **** void HAL_SMBUS_MspInit(SMBUS_HandleTypeDef* smbusHandle)
  65:Core/Src/i2c.c **** {
 119              		.loc 1 65 1 is_stmt 1 view -0
 120              		.cfi_startproc
 121              		@ args = 0, pretend = 0, frame = 240
 122              		@ frame_needed = 0, uses_anonymous_args = 0
 123              		.loc 1 65 1 is_stmt 0 view .LVU34
 124 0000 10B5     		push	{r4, lr}
 125              	.LCFI1:
 126              		.cfi_def_cfa_offset 8
 127              		.cfi_offset 4, -8
 128              		.cfi_offset 14, -4
 129 0002 BCB0     		sub	sp, sp, #240
 130              	.LCFI2:
 131              		.cfi_def_cfa_offset 248
 132 0004 0446     		mov	r4, r0
  66:Core/Src/i2c.c **** 
  67:Core/Src/i2c.c ****   GPIO_InitTypeDef GPIO_InitStruct = {0};
 133              		.loc 1 67 3 is_stmt 1 view .LVU35
 134              		.loc 1 67 20 is_stmt 0 view .LVU36
 135 0006 0021     		movs	r1, #0
 136 0008 3791     		str	r1, [sp, #220]
 137 000a 3891     		str	r1, [sp, #224]
 138 000c 3991     		str	r1, [sp, #228]
 139 000e 3A91     		str	r1, [sp, #232]
 140 0010 3B91     		str	r1, [sp, #236]
  68:Core/Src/i2c.c ****   RCC_PeriphCLKInitTypeDef PeriphClkInitStruct = {0};
 141              		.loc 1 68 3 is_stmt 1 view .LVU37
 142              		.loc 1 68 28 is_stmt 0 view .LVU38
 143 0012 D022     		movs	r2, #208
 144 0014 02A8     		add	r0, sp, #8
 145              	.LVL3:
 146              		.loc 1 68 28 view .LVU39
 147 0016 FFF7FEFF 		bl	memset
 148              	.LVL4:
  69:Core/Src/i2c.c ****   if(smbusHandle->Instance==I2C2)
 149              		.loc 1 69 3 is_stmt 1 view .LVU40
 150              		.loc 1 69 17 is_stmt 0 view .LVU41
 151 001a 2268     		ldr	r2, [r4]
 152              		.loc 1 69 5 view .LVU42
 153 001c 1C4B     		ldr	r3, .L13
 154 001e 9A42     		cmp	r2, r3
 155 0020 01D0     		beq	.L11
 156              	.LVL5:
 157              	.L7:
  70:Core/Src/i2c.c ****   {
  71:Core/Src/i2c.c ****   /* USER CODE BEGIN I2C2_MspInit 0 */
  72:Core/Src/i2c.c **** 
  73:Core/Src/i2c.c ****   /* USER CODE END I2C2_MspInit 0 */
ARM GAS  C:\Users\admin\AppData\Local\Temp\ccXzbLNj.s 			page 5


  74:Core/Src/i2c.c **** 
  75:Core/Src/i2c.c ****   /** Initializes the peripherals clock
  76:Core/Src/i2c.c ****   */
  77:Core/Src/i2c.c ****     PeriphClkInitStruct.PeriphClockSelection = RCC_PERIPHCLK_I2C2;
  78:Core/Src/i2c.c ****     PeriphClkInitStruct.I2c2ClockSelection = RCC_I2C2CLKSOURCE_PCLK1;
  79:Core/Src/i2c.c ****     if (HAL_RCCEx_PeriphCLKConfig(&PeriphClkInitStruct) != HAL_OK)
  80:Core/Src/i2c.c ****     {
  81:Core/Src/i2c.c ****       Error_Handler();
  82:Core/Src/i2c.c ****     }
  83:Core/Src/i2c.c **** 
  84:Core/Src/i2c.c ****     __HAL_RCC_GPIOB_CLK_ENABLE();
  85:Core/Src/i2c.c ****     /**I2C2 GPIO Configuration
  86:Core/Src/i2c.c ****     PB10     ------> I2C2_SCL
  87:Core/Src/i2c.c ****     PB12     ------> I2C2_SDA
  88:Core/Src/i2c.c ****     */
  89:Core/Src/i2c.c ****     GPIO_InitStruct.Pin = GPIO_PIN_10|GPIO_PIN_12;
  90:Core/Src/i2c.c ****     GPIO_InitStruct.Mode = GPIO_MODE_AF_OD;
  91:Core/Src/i2c.c ****     GPIO_InitStruct.Pull = GPIO_NOPULL;
  92:Core/Src/i2c.c ****     GPIO_InitStruct.Speed = GPIO_SPEED_FREQ_LOW;
  93:Core/Src/i2c.c ****     GPIO_InitStruct.Alternate = GPIO_AF4_I2C2;
  94:Core/Src/i2c.c ****     HAL_GPIO_Init(GPIOB, &GPIO_InitStruct);
  95:Core/Src/i2c.c **** 
  96:Core/Src/i2c.c ****     /* I2C2 clock enable */
  97:Core/Src/i2c.c ****     __HAL_RCC_I2C2_CLK_ENABLE();
  98:Core/Src/i2c.c ****   /* USER CODE BEGIN I2C2_MspInit 1 */
  99:Core/Src/i2c.c **** 
 100:Core/Src/i2c.c ****   /* USER CODE END I2C2_MspInit 1 */
 101:Core/Src/i2c.c ****   }
 102:Core/Src/i2c.c **** }
 158              		.loc 1 102 1 view .LVU43
 159 0022 3CB0     		add	sp, sp, #240
 160              	.LCFI3:
 161              		.cfi_remember_state
 162              		.cfi_def_cfa_offset 8
 163              		@ sp needed
 164 0024 10BD     		pop	{r4, pc}
 165              	.LVL6:
 166              	.L11:
 167              	.LCFI4:
 168              		.cfi_restore_state
  77:Core/Src/i2c.c ****     PeriphClkInitStruct.I2c2ClockSelection = RCC_I2C2CLKSOURCE_PCLK1;
 169              		.loc 1 77 5 is_stmt 1 view .LVU44
  77:Core/Src/i2c.c ****     PeriphClkInitStruct.I2c2ClockSelection = RCC_I2C2CLKSOURCE_PCLK1;
 170              		.loc 1 77 46 is_stmt 0 view .LVU45
 171 0026 4FF48042 		mov	r2, #16384
 172 002a 0023     		movs	r3, #0
 173 002c CDE90223 		strd	r2, [sp, #8]
  78:Core/Src/i2c.c ****     if (HAL_RCCEx_PeriphCLKConfig(&PeriphClkInitStruct) != HAL_OK)
 174              		.loc 1 78 5 is_stmt 1 view .LVU46
  79:Core/Src/i2c.c ****     {
 175              		.loc 1 79 5 view .LVU47
  79:Core/Src/i2c.c ****     {
 176              		.loc 1 79 9 is_stmt 0 view .LVU48
 177 0030 02A8     		add	r0, sp, #8
 178 0032 FFF7FEFF 		bl	HAL_RCCEx_PeriphCLKConfig
 179              	.LVL7:
  79:Core/Src/i2c.c ****     {
ARM GAS  C:\Users\admin\AppData\Local\Temp\ccXzbLNj.s 			page 6


 180              		.loc 1 79 8 discriminator 1 view .LVU49
 181 0036 38BB     		cbnz	r0, .L12
 182              	.L9:
  84:Core/Src/i2c.c ****     /**I2C2 GPIO Configuration
 183              		.loc 1 84 5 is_stmt 1 view .LVU50
 184              	.LBB2:
  84:Core/Src/i2c.c ****     /**I2C2 GPIO Configuration
 185              		.loc 1 84 5 view .LVU51
  84:Core/Src/i2c.c ****     /**I2C2 GPIO Configuration
 186              		.loc 1 84 5 view .LVU52
 187 0038 164C     		ldr	r4, .L13+4
 188              	.LVL8:
  84:Core/Src/i2c.c ****     /**I2C2 GPIO Configuration
 189              		.loc 1 84 5 is_stmt 0 view .LVU53
 190 003a D4F88C30 		ldr	r3, [r4, #140]
 191 003e 43F00203 		orr	r3, r3, #2
 192 0042 C4F88C30 		str	r3, [r4, #140]
  84:Core/Src/i2c.c ****     /**I2C2 GPIO Configuration
 193              		.loc 1 84 5 is_stmt 1 view .LVU54
 194 0046 D4F88C30 		ldr	r3, [r4, #140]
 195 004a 03F00203 		and	r3, r3, #2
 196 004e 0093     		str	r3, [sp]
  84:Core/Src/i2c.c ****     /**I2C2 GPIO Configuration
 197              		.loc 1 84 5 view .LVU55
 198 0050 009B     		ldr	r3, [sp]
 199              	.LBE2:
  84:Core/Src/i2c.c ****     /**I2C2 GPIO Configuration
 200              		.loc 1 84 5 view .LVU56
  89:Core/Src/i2c.c ****     GPIO_InitStruct.Mode = GPIO_MODE_AF_OD;
 201              		.loc 1 89 5 view .LVU57
  89:Core/Src/i2c.c ****     GPIO_InitStruct.Mode = GPIO_MODE_AF_OD;
 202              		.loc 1 89 25 is_stmt 0 view .LVU58
 203 0052 4FF4A053 		mov	r3, #5120
 204 0056 3793     		str	r3, [sp, #220]
  90:Core/Src/i2c.c ****     GPIO_InitStruct.Pull = GPIO_NOPULL;
 205              		.loc 1 90 5 is_stmt 1 view .LVU59
  90:Core/Src/i2c.c ****     GPIO_InitStruct.Pull = GPIO_NOPULL;
 206              		.loc 1 90 26 is_stmt 0 view .LVU60
 207 0058 1223     		movs	r3, #18
 208 005a 3893     		str	r3, [sp, #224]
  91:Core/Src/i2c.c ****     GPIO_InitStruct.Speed = GPIO_SPEED_FREQ_LOW;
 209              		.loc 1 91 5 is_stmt 1 view .LVU61
  91:Core/Src/i2c.c ****     GPIO_InitStruct.Speed = GPIO_SPEED_FREQ_LOW;
 210              		.loc 1 91 26 is_stmt 0 view .LVU62
 211 005c 0023     		movs	r3, #0
 212 005e 3993     		str	r3, [sp, #228]
  92:Core/Src/i2c.c ****     GPIO_InitStruct.Alternate = GPIO_AF4_I2C2;
 213              		.loc 1 92 5 is_stmt 1 view .LVU63
  92:Core/Src/i2c.c ****     GPIO_InitStruct.Alternate = GPIO_AF4_I2C2;
 214              		.loc 1 92 27 is_stmt 0 view .LVU64
 215 0060 3A93     		str	r3, [sp, #232]
  93:Core/Src/i2c.c ****     HAL_GPIO_Init(GPIOB, &GPIO_InitStruct);
 216              		.loc 1 93 5 is_stmt 1 view .LVU65
  93:Core/Src/i2c.c ****     HAL_GPIO_Init(GPIOB, &GPIO_InitStruct);
 217              		.loc 1 93 31 is_stmt 0 view .LVU66
 218 0062 0423     		movs	r3, #4
 219 0064 3B93     		str	r3, [sp, #236]
ARM GAS  C:\Users\admin\AppData\Local\Temp\ccXzbLNj.s 			page 7


  94:Core/Src/i2c.c **** 
 220              		.loc 1 94 5 is_stmt 1 view .LVU67
 221 0066 37A9     		add	r1, sp, #220
 222 0068 0B48     		ldr	r0, .L13+8
 223 006a FFF7FEFF 		bl	HAL_GPIO_Init
 224              	.LVL9:
  97:Core/Src/i2c.c ****   /* USER CODE BEGIN I2C2_MspInit 1 */
 225              		.loc 1 97 5 view .LVU68
 226              	.LBB3:
  97:Core/Src/i2c.c ****   /* USER CODE BEGIN I2C2_MspInit 1 */
 227              		.loc 1 97 5 view .LVU69
  97:Core/Src/i2c.c ****   /* USER CODE BEGIN I2C2_MspInit 1 */
 228              		.loc 1 97 5 view .LVU70
 229 006e D4F89C30 		ldr	r3, [r4, #156]
 230 0072 43F48003 		orr	r3, r3, #4194304
 231 0076 C4F89C30 		str	r3, [r4, #156]
  97:Core/Src/i2c.c ****   /* USER CODE BEGIN I2C2_MspInit 1 */
 232              		.loc 1 97 5 view .LVU71
 233 007a D4F89C30 		ldr	r3, [r4, #156]
 234 007e 03F48003 		and	r3, r3, #4194304
 235 0082 0193     		str	r3, [sp, #4]
  97:Core/Src/i2c.c ****   /* USER CODE BEGIN I2C2_MspInit 1 */
 236              		.loc 1 97 5 view .LVU72
 237 0084 019B     		ldr	r3, [sp, #4]
 238              	.LBE3:
  97:Core/Src/i2c.c ****   /* USER CODE BEGIN I2C2_MspInit 1 */
 239              		.loc 1 97 5 view .LVU73
 240              		.loc 1 102 1 is_stmt 0 view .LVU74
 241 0086 CCE7     		b	.L7
 242              	.LVL10:
 243              	.L12:
  81:Core/Src/i2c.c ****     }
 244              		.loc 1 81 7 is_stmt 1 view .LVU75
 245 0088 FFF7FEFF 		bl	Error_Handler
 246              	.LVL11:
 247 008c D4E7     		b	.L9
 248              	.L14:
 249 008e 00BF     		.align	2
 250              	.L13:
 251 0090 00580040 		.word	1073764352
 252 0094 000C0244 		.word	1140984832
 253 0098 00040242 		.word	1107428352
 254              		.cfi_endproc
 255              	.LFE357:
 257              		.section	.text.HAL_SMBUS_MspDeInit,"ax",%progbits
 258              		.align	1
 259              		.global	HAL_SMBUS_MspDeInit
 260              		.syntax unified
 261              		.thumb
 262              		.thumb_func
 264              	HAL_SMBUS_MspDeInit:
 265              	.LVL12:
 266              	.LFB358:
 103:Core/Src/i2c.c **** 
 104:Core/Src/i2c.c **** void HAL_SMBUS_MspDeInit(SMBUS_HandleTypeDef* smbusHandle)
 105:Core/Src/i2c.c **** {
 267              		.loc 1 105 1 view -0
ARM GAS  C:\Users\admin\AppData\Local\Temp\ccXzbLNj.s 			page 8


 268              		.cfi_startproc
 269              		@ args = 0, pretend = 0, frame = 0
 270              		@ frame_needed = 0, uses_anonymous_args = 0
 271              		.loc 1 105 1 is_stmt 0 view .LVU77
 272 0000 08B5     		push	{r3, lr}
 273              	.LCFI5:
 274              		.cfi_def_cfa_offset 8
 275              		.cfi_offset 3, -8
 276              		.cfi_offset 14, -4
 106:Core/Src/i2c.c **** 
 107:Core/Src/i2c.c ****   if(smbusHandle->Instance==I2C2)
 277              		.loc 1 107 3 is_stmt 1 view .LVU78
 278              		.loc 1 107 17 is_stmt 0 view .LVU79
 279 0002 0268     		ldr	r2, [r0]
 280              		.loc 1 107 5 view .LVU80
 281 0004 0A4B     		ldr	r3, .L19
 282 0006 9A42     		cmp	r2, r3
 283 0008 00D0     		beq	.L18
 284              	.LVL13:
 285              	.L15:
 108:Core/Src/i2c.c ****   {
 109:Core/Src/i2c.c ****   /* USER CODE BEGIN I2C2_MspDeInit 0 */
 110:Core/Src/i2c.c **** 
 111:Core/Src/i2c.c ****   /* USER CODE END I2C2_MspDeInit 0 */
 112:Core/Src/i2c.c ****     /* Peripheral clock disable */
 113:Core/Src/i2c.c ****     __HAL_RCC_I2C2_CLK_DISABLE();
 114:Core/Src/i2c.c **** 
 115:Core/Src/i2c.c ****     /**I2C2 GPIO Configuration
 116:Core/Src/i2c.c ****     PB10     ------> I2C2_SCL
 117:Core/Src/i2c.c ****     PB12     ------> I2C2_SDA
 118:Core/Src/i2c.c ****     */
 119:Core/Src/i2c.c ****     HAL_GPIO_DeInit(GPIOB, GPIO_PIN_10);
 120:Core/Src/i2c.c **** 
 121:Core/Src/i2c.c ****     HAL_GPIO_DeInit(GPIOB, GPIO_PIN_12);
 122:Core/Src/i2c.c **** 
 123:Core/Src/i2c.c ****   /* USER CODE BEGIN I2C2_MspDeInit 1 */
 124:Core/Src/i2c.c **** 
 125:Core/Src/i2c.c ****   /* USER CODE END I2C2_MspDeInit 1 */
 126:Core/Src/i2c.c ****   }
 127:Core/Src/i2c.c **** }
 286              		.loc 1 127 1 view .LVU81
 287 000a 08BD     		pop	{r3, pc}
 288              	.LVL14:
 289              	.L18:
 113:Core/Src/i2c.c **** 
 290              		.loc 1 113 5 is_stmt 1 view .LVU82
 291 000c 094A     		ldr	r2, .L19+4
 292 000e D2F89C30 		ldr	r3, [r2, #156]
 293 0012 23F48003 		bic	r3, r3, #4194304
 294 0016 C2F89C30 		str	r3, [r2, #156]
 119:Core/Src/i2c.c **** 
 295              		.loc 1 119 5 view .LVU83
 296 001a 4FF48061 		mov	r1, #1024
 297 001e 0648     		ldr	r0, .L19+8
 298              	.LVL15:
 119:Core/Src/i2c.c **** 
 299              		.loc 1 119 5 is_stmt 0 view .LVU84
ARM GAS  C:\Users\admin\AppData\Local\Temp\ccXzbLNj.s 			page 9


 300 0020 FFF7FEFF 		bl	HAL_GPIO_DeInit
 301              	.LVL16:
 121:Core/Src/i2c.c **** 
 302              		.loc 1 121 5 is_stmt 1 view .LVU85
 303 0024 4FF48051 		mov	r1, #4096
 304 0028 0348     		ldr	r0, .L19+8
 305 002a FFF7FEFF 		bl	HAL_GPIO_DeInit
 306              	.LVL17:
 307              		.loc 1 127 1 is_stmt 0 view .LVU86
 308 002e ECE7     		b	.L15
 309              	.L20:
 310              		.align	2
 311              	.L19:
 312 0030 00580040 		.word	1073764352
 313 0034 000C0244 		.word	1140984832
 314 0038 00040242 		.word	1107428352
 315              		.cfi_endproc
 316              	.LFE358:
 318              		.global	hsmbus2
 319              		.section	.bss.hsmbus2,"aw",%nobits
 320              		.align	2
 323              	hsmbus2:
 324 0000 00000000 		.space	80
 324      00000000 
 324      00000000 
 324      00000000 
 324      00000000 
 325              		.text
 326              	.Letext0:
 327              		.file 2 "C:/arm-bare-metal/arm-none-eabi/include/machine/_default_types.h"
 328              		.file 3 "C:/arm-bare-metal/arm-none-eabi/include/sys/_stdint.h"
 329              		.file 4 "Drivers/CMSIS/Device/ST/STM32H5xx/Include/stm32h523xx.h"
 330              		.file 5 "Drivers/STM32H5xx_HAL_Driver/Inc/stm32h5xx_hal_def.h"
 331              		.file 6 "Drivers/STM32H5xx_HAL_Driver/Inc/stm32h5xx_hal_rcc_ex.h"
 332              		.file 7 "Drivers/STM32H5xx_HAL_Driver/Inc/stm32h5xx_hal_gpio.h"
 333              		.file 8 "Drivers/STM32H5xx_HAL_Driver/Inc/stm32h5xx_hal_smbus.h"
 334              		.file 9 "Core/Inc/i2c.h"
 335              		.file 10 "Core/Inc/main.h"
 336              		.file 11 "<built-in>"
ARM GAS  C:\Users\admin\AppData\Local\Temp\ccXzbLNj.s 			page 10

