ARM GAS  C:\Users\Xuleo\AppData\Local\Temp\cc6qX2tw.s 			page 1


   1              		.cpu cortex-m33
   2              		.arch armv8-m.main
   3              		.fpu fpv5-sp-d16
   4              		.arch_extension dsp
   5              		.eabi_attribute 27, 1
   6              		.eabi_attribute 28, 1
   7              		.eabi_attribute 20, 1
   8              		.eabi_attribute 21, 1
   9              		.eabi_attribute 23, 3
  10              		.eabi_attribute 24, 1
  11              		.eabi_attribute 25, 1
  12              		.eabi_attribute 26, 1
  13              		.eabi_attribute 30, 1
  14              		.eabi_attribute 34, 1
  15              		.eabi_attribute 18, 4
  16              		.file	"ILI9225.c"
  17              		.text
  18              	.Ltext0:
  19              		.cfi_sections	.debug_frame
  20              		.file 1 "./Application/Src/ILI9225.c"
  21              		.section	.text.LCD_rs_low,"ax",%progbits
  22              		.align	1
  23              		.syntax unified
  24              		.thumb
  25              		.thumb_func
  27              	LCD_rs_low:
  28              	.LFB358:
   1:./Application/Src/ILI9225.c **** // driver source: https://github.com/Nkawu/TFT_22_ILI9225/blob/master/src/TFT_22_ILI9225.cpp
   2:./Application/Src/ILI9225.c **** // font lib from web
   3:./Application/Src/ILI9225.c **** 
   4:./Application/Src/ILI9225.c **** #include <gpio.h>
   5:./Application/Src/ILI9225.c **** #include <spi.h>
   6:./Application/Src/ILI9225.c **** #include <ILI9225.h>
   7:./Application/Src/ILI9225.c **** #include <string.h>
   8:./Application/Src/ILI9225.c **** #include <stdint.h>
   9:./Application/Src/ILI9225.c **** 
  10:./Application/Src/ILI9225.c **** LCD_Config lcd_config = {
  11:./Application/Src/ILI9225.c ****     .hspi = &hspi3,
  12:./Application/Src/ILI9225.c ****     .cs_port = LCD_CS_GPIO_Port,
  13:./Application/Src/ILI9225.c ****     .cs_pin = LCD_CS_Pin,
  14:./Application/Src/ILI9225.c ****     .rs_port = LCD_RST_GPIO_Port, // here RS and RST are reversed (misconfigured naming in schemati
  15:./Application/Src/ILI9225.c ****     .rs_pin = LCD_RST_Pin,
  16:./Application/Src/ILI9225.c ****     .rst_port = LCD_RS_GPIO_Port,
  17:./Application/Src/ILI9225.c ****     .rst_pin = LCD_RS_Pin,
  18:./Application/Src/ILI9225.c **** };
  19:./Application/Src/ILI9225.c **** 
  20:./Application/Src/ILI9225.c **** // LCD buffer render in RAM (row-major, matches LCD scan order)
  21:./Application/Src/ILI9225.c **** uint16_t plot_buffer[LCD_HEIGHT][LCD_WIDTH];
  22:./Application/Src/ILI9225.c **** 
  23:./Application/Src/ILI9225.c **** // 5x7 font for ASCII 32-126
  24:./Application/Src/ILI9225.c **** static const uint8_t font5x7[][5] = {
  25:./Application/Src/ILI9225.c ****     {0x00,0x00,0x00,0x00,0x00}, // space
  26:./Application/Src/ILI9225.c ****     {0x00,0x00,0x5F,0x00,0x00}, // !
  27:./Application/Src/ILI9225.c ****     {0x00,0x07,0x00,0x07,0x00}, // "
  28:./Application/Src/ILI9225.c ****     {0x14,0x7F,0x14,0x7F,0x14}, // #
  29:./Application/Src/ILI9225.c ****     {0x24,0x2A,0x7F,0x2A,0x12}, // $
  30:./Application/Src/ILI9225.c ****     {0x23,0x13,0x08,0x64,0x62}, // %
ARM GAS  C:\Users\Xuleo\AppData\Local\Temp\cc6qX2tw.s 			page 2


  31:./Application/Src/ILI9225.c ****     {0x36,0x49,0x55,0x22,0x50}, // &
  32:./Application/Src/ILI9225.c ****     {0x00,0x05,0x03,0x00,0x00}, // '
  33:./Application/Src/ILI9225.c ****     {0x00,0x1C,0x22,0x41,0x00}, // (
  34:./Application/Src/ILI9225.c ****     {0x00,0x41,0x22,0x1C,0x00}, // )
  35:./Application/Src/ILI9225.c ****     {0x08,0x2A,0x1C,0x2A,0x08}, // *
  36:./Application/Src/ILI9225.c ****     {0x08,0x08,0x3E,0x08,0x08}, // +
  37:./Application/Src/ILI9225.c ****     {0x00,0x50,0x30,0x00,0x00}, // ,
  38:./Application/Src/ILI9225.c ****     {0x08,0x08,0x08,0x08,0x08}, // -
  39:./Application/Src/ILI9225.c ****     {0x00,0x60,0x60,0x00,0x00}, // .
  40:./Application/Src/ILI9225.c ****     {0x20,0x10,0x08,0x04,0x02}, // /
  41:./Application/Src/ILI9225.c ****     {0x3E,0x51,0x49,0x45,0x3E}, // 0
  42:./Application/Src/ILI9225.c ****     {0x00,0x42,0x7F,0x40,0x00}, // 1
  43:./Application/Src/ILI9225.c ****     {0x42,0x61,0x51,0x49,0x46}, // 2
  44:./Application/Src/ILI9225.c ****     {0x21,0x41,0x45,0x4B,0x31}, // 3
  45:./Application/Src/ILI9225.c ****     {0x18,0x14,0x12,0x7F,0x10}, // 4
  46:./Application/Src/ILI9225.c ****     {0x27,0x45,0x45,0x45,0x39}, // 5
  47:./Application/Src/ILI9225.c ****     {0x3C,0x4A,0x49,0x49,0x30}, // 6
  48:./Application/Src/ILI9225.c ****     {0x01,0x71,0x09,0x05,0x03}, // 7
  49:./Application/Src/ILI9225.c ****     {0x36,0x49,0x49,0x49,0x36}, // 8
  50:./Application/Src/ILI9225.c ****     {0x06,0x49,0x49,0x29,0x1E}, // 9
  51:./Application/Src/ILI9225.c ****     {0x00,0x36,0x36,0x00,0x00}, // :
  52:./Application/Src/ILI9225.c ****     {0x00,0x56,0x36,0x00,0x00}, // ;
  53:./Application/Src/ILI9225.c ****     {0x00,0x08,0x14,0x22,0x41}, // <
  54:./Application/Src/ILI9225.c ****     {0x14,0x14,0x14,0x14,0x14}, // =
  55:./Application/Src/ILI9225.c ****     {0x41,0x22,0x14,0x08,0x00}, // >
  56:./Application/Src/ILI9225.c ****     {0x02,0x01,0x51,0x09,0x06}, // ?
  57:./Application/Src/ILI9225.c ****     {0x32,0x49,0x79,0x41,0x3E}, // @
  58:./Application/Src/ILI9225.c ****     {0x7E,0x11,0x11,0x11,0x7E}, // A
  59:./Application/Src/ILI9225.c ****     {0x7F,0x49,0x49,0x49,0x36}, // B
  60:./Application/Src/ILI9225.c ****     {0x3E,0x41,0x41,0x41,0x22}, // C
  61:./Application/Src/ILI9225.c ****     {0x7F,0x41,0x41,0x22,0x1C}, // D
  62:./Application/Src/ILI9225.c ****     {0x7F,0x49,0x49,0x49,0x41}, // E
  63:./Application/Src/ILI9225.c ****     {0x7F,0x09,0x09,0x01,0x01}, // F
  64:./Application/Src/ILI9225.c ****     {0x3E,0x41,0x41,0x51,0x32}, // G
  65:./Application/Src/ILI9225.c ****     {0x7F,0x08,0x08,0x08,0x7F}, // H
  66:./Application/Src/ILI9225.c ****     {0x00,0x41,0x7F,0x41,0x00}, // I
  67:./Application/Src/ILI9225.c ****     {0x20,0x40,0x41,0x3F,0x01}, // J
  68:./Application/Src/ILI9225.c ****     {0x7F,0x08,0x14,0x22,0x41}, // K
  69:./Application/Src/ILI9225.c ****     {0x7F,0x40,0x40,0x40,0x40}, // L
  70:./Application/Src/ILI9225.c ****     {0x7F,0x02,0x04,0x02,0x7F}, // M
  71:./Application/Src/ILI9225.c ****     {0x7F,0x04,0x08,0x10,0x7F}, // N
  72:./Application/Src/ILI9225.c ****     {0x3E,0x41,0x41,0x41,0x3E}, // O
  73:./Application/Src/ILI9225.c ****     {0x7F,0x09,0x09,0x09,0x06}, // P
  74:./Application/Src/ILI9225.c ****     {0x3E,0x41,0x51,0x21,0x5E}, // Q
  75:./Application/Src/ILI9225.c ****     {0x7F,0x09,0x19,0x29,0x46}, // R
  76:./Application/Src/ILI9225.c ****     {0x46,0x49,0x49,0x49,0x31}, // S
  77:./Application/Src/ILI9225.c ****     {0x01,0x01,0x7F,0x01,0x01}, // T
  78:./Application/Src/ILI9225.c ****     {0x3F,0x40,0x40,0x40,0x3F}, // U
  79:./Application/Src/ILI9225.c ****     {0x1F,0x20,0x40,0x20,0x1F}, // V
  80:./Application/Src/ILI9225.c ****     {0x7F,0x20,0x18,0x20,0x7F}, // W
  81:./Application/Src/ILI9225.c ****     {0x63,0x14,0x08,0x14,0x63}, // X
  82:./Application/Src/ILI9225.c ****     {0x03,0x04,0x78,0x04,0x03}, // Y
  83:./Application/Src/ILI9225.c ****     {0x61,0x51,0x49,0x45,0x43}, // Z
  84:./Application/Src/ILI9225.c ****     {0x00,0x00,0x7F,0x41,0x41}, // [
  85:./Application/Src/ILI9225.c ****     {0x02,0x04,0x08,0x10,0x20}, // backslash
  86:./Application/Src/ILI9225.c ****     {0x41,0x41,0x7F,0x00,0x00}, // ]
  87:./Application/Src/ILI9225.c ****     {0x04,0x02,0x01,0x02,0x04}, // ^
ARM GAS  C:\Users\Xuleo\AppData\Local\Temp\cc6qX2tw.s 			page 3


  88:./Application/Src/ILI9225.c ****     {0x40,0x40,0x40,0x40,0x40}, // _
  89:./Application/Src/ILI9225.c ****     {0x00,0x01,0x02,0x04,0x00}, // `
  90:./Application/Src/ILI9225.c ****     {0x20,0x54,0x54,0x54,0x78}, // a
  91:./Application/Src/ILI9225.c ****     {0x7F,0x48,0x44,0x44,0x38}, // b
  92:./Application/Src/ILI9225.c ****     {0x38,0x44,0x44,0x44,0x20}, // c
  93:./Application/Src/ILI9225.c ****     {0x38,0x44,0x44,0x48,0x7F}, // d
  94:./Application/Src/ILI9225.c ****     {0x38,0x54,0x54,0x54,0x18}, // e
  95:./Application/Src/ILI9225.c ****     {0x08,0x7E,0x09,0x01,0x02}, // f
  96:./Application/Src/ILI9225.c ****     {0x08,0x14,0x54,0x54,0x3C}, // g
  97:./Application/Src/ILI9225.c ****     {0x7F,0x08,0x04,0x04,0x78}, // h
  98:./Application/Src/ILI9225.c ****     {0x00,0x44,0x7D,0x40,0x00}, // i
  99:./Application/Src/ILI9225.c ****     {0x20,0x40,0x44,0x3D,0x00}, // j
 100:./Application/Src/ILI9225.c ****     {0x00,0x7F,0x10,0x28,0x44}, // k
 101:./Application/Src/ILI9225.c ****     {0x00,0x41,0x7F,0x40,0x00}, // l
 102:./Application/Src/ILI9225.c ****     {0x7C,0x04,0x18,0x04,0x78}, // m
 103:./Application/Src/ILI9225.c ****     {0x7C,0x08,0x04,0x04,0x78}, // n
 104:./Application/Src/ILI9225.c ****     {0x38,0x44,0x44,0x44,0x38}, // o
 105:./Application/Src/ILI9225.c ****     {0x7C,0x14,0x14,0x14,0x08}, // p
 106:./Application/Src/ILI9225.c ****     {0x08,0x14,0x14,0x18,0x7C}, // q
 107:./Application/Src/ILI9225.c ****     {0x7C,0x08,0x04,0x04,0x08}, // r
 108:./Application/Src/ILI9225.c ****     {0x48,0x54,0x54,0x54,0x20}, // s
 109:./Application/Src/ILI9225.c ****     {0x04,0x3F,0x44,0x40,0x20}, // t
 110:./Application/Src/ILI9225.c ****     {0x3C,0x40,0x40,0x20,0x7C}, // u
 111:./Application/Src/ILI9225.c ****     {0x1C,0x20,0x40,0x20,0x1C}, // v
 112:./Application/Src/ILI9225.c ****     {0x3C,0x40,0x30,0x40,0x3C}, // w
 113:./Application/Src/ILI9225.c ****     {0x44,0x28,0x10,0x28,0x44}, // x
 114:./Application/Src/ILI9225.c ****     {0x0C,0x50,0x50,0x50,0x3C}, // y
 115:./Application/Src/ILI9225.c ****     {0x44,0x64,0x54,0x4C,0x44}, // z
 116:./Application/Src/ILI9225.c ****     {0x00,0x08,0x36,0x41,0x00}, // {
 117:./Application/Src/ILI9225.c ****     {0x00,0x00,0x7F,0x00,0x00}, // |
 118:./Application/Src/ILI9225.c ****     {0x00,0x41,0x36,0x08,0x00}, // }
 119:./Application/Src/ILI9225.c ****     {0x08,0x08,0x2A,0x1C,0x08}, // ~
 120:./Application/Src/ILI9225.c **** };
 121:./Application/Src/ILI9225.c **** 
 122:./Application/Src/ILI9225.c **** // cursor position
 123:./Application/Src/ILI9225.c **** static uint16_t cursor_x = 0;
 124:./Application/Src/ILI9225.c **** static uint16_t cursor_y = 0;
 125:./Application/Src/ILI9225.c **** 
 126:./Application/Src/ILI9225.c **** // CS control
 127:./Application/Src/ILI9225.c **** void LCD_select(void) {
 128:./Application/Src/ILI9225.c ****     HAL_GPIO_WritePin(lcd_config.cs_port, lcd_config.cs_pin, GPIO_PIN_RESET);
 129:./Application/Src/ILI9225.c **** }
 130:./Application/Src/ILI9225.c **** 
 131:./Application/Src/ILI9225.c **** void LCD_unselect(void) {
 132:./Application/Src/ILI9225.c ****     HAL_GPIO_WritePin(lcd_config.cs_port, lcd_config.cs_pin, GPIO_PIN_SET);
 133:./Application/Src/ILI9225.c **** }
 134:./Application/Src/ILI9225.c **** 
 135:./Application/Src/ILI9225.c **** // RS pin: LOW = register/command index, HIGH = register data
 136:./Application/Src/ILI9225.c **** static void LCD_rs_low(void) {
  29              		.loc 1 136 30 view -0
  30              		.cfi_startproc
  31              		@ args = 0, pretend = 0, frame = 0
  32              		@ frame_needed = 0, uses_anonymous_args = 0
  33 0000 08B5     		push	{r3, lr}
  34              	.LCFI0:
  35              		.cfi_def_cfa_offset 8
  36              		.cfi_offset 3, -8
ARM GAS  C:\Users\Xuleo\AppData\Local\Temp\cc6qX2tw.s 			page 4


  37              		.cfi_offset 14, -4
 137:./Application/Src/ILI9225.c ****     HAL_GPIO_WritePin(lcd_config.rs_port, lcd_config.rs_pin, GPIO_PIN_RESET);
  38              		.loc 1 137 5 view .LVU1
  39 0002 034B     		ldr	r3, .L3
  40 0004 0022     		movs	r2, #0
  41 0006 198A     		ldrh	r1, [r3, #16]
  42 0008 D868     		ldr	r0, [r3, #12]
  43 000a FFF7FEFF 		bl	HAL_GPIO_WritePin
  44              	.LVL0:
 138:./Application/Src/ILI9225.c **** }
  45              		.loc 1 138 1 is_stmt 0 view .LVU2
  46 000e 08BD     		pop	{r3, pc}
  47              	.L4:
  48              		.align	2
  49              	.L3:
  50 0010 00000000 		.word	lcd_config
  51              		.cfi_endproc
  52              	.LFE358:
  54              		.section	.text.LCD_rs_high,"ax",%progbits
  55              		.align	1
  56              		.syntax unified
  57              		.thumb
  58              		.thumb_func
  60              	LCD_rs_high:
  61              	.LFB359:
 139:./Application/Src/ILI9225.c **** 
 140:./Application/Src/ILI9225.c **** static void LCD_rs_high(void) {
  62              		.loc 1 140 31 is_stmt 1 view -0
  63              		.cfi_startproc
  64              		@ args = 0, pretend = 0, frame = 0
  65              		@ frame_needed = 0, uses_anonymous_args = 0
  66 0000 08B5     		push	{r3, lr}
  67              	.LCFI1:
  68              		.cfi_def_cfa_offset 8
  69              		.cfi_offset 3, -8
  70              		.cfi_offset 14, -4
 141:./Application/Src/ILI9225.c ****     HAL_GPIO_WritePin(lcd_config.rs_port, lcd_config.rs_pin, GPIO_PIN_SET);
  71              		.loc 1 141 5 view .LVU4
  72 0002 034B     		ldr	r3, .L7
  73 0004 0122     		movs	r2, #1
  74 0006 198A     		ldrh	r1, [r3, #16]
  75 0008 D868     		ldr	r0, [r3, #12]
  76 000a FFF7FEFF 		bl	HAL_GPIO_WritePin
  77              	.LVL1:
 142:./Application/Src/ILI9225.c **** }
  78              		.loc 1 142 1 is_stmt 0 view .LVU5
  79 000e 08BD     		pop	{r3, pc}
  80              	.L8:
  81              		.align	2
  82              	.L7:
  83 0010 00000000 		.word	lcd_config
  84              		.cfi_endproc
  85              	.LFE359:
  87              		.section	.text.LCD_select,"ax",%progbits
  88              		.align	1
  89              		.global	LCD_select
  90              		.syntax unified
ARM GAS  C:\Users\Xuleo\AppData\Local\Temp\cc6qX2tw.s 			page 5


  91              		.thumb
  92              		.thumb_func
  94              	LCD_select:
  95              	.LFB356:
 127:./Application/Src/ILI9225.c ****     HAL_GPIO_WritePin(lcd_config.cs_port, lcd_config.cs_pin, GPIO_PIN_RESET);
  96              		.loc 1 127 23 is_stmt 1 view -0
  97              		.cfi_startproc
  98              		@ args = 0, pretend = 0, frame = 0
  99              		@ frame_needed = 0, uses_anonymous_args = 0
 100 0000 08B5     		push	{r3, lr}
 101              	.LCFI2:
 102              		.cfi_def_cfa_offset 8
 103              		.cfi_offset 3, -8
 104              		.cfi_offset 14, -4
 128:./Application/Src/ILI9225.c **** }
 105              		.loc 1 128 5 view .LVU7
 106 0002 034B     		ldr	r3, .L11
 107 0004 0022     		movs	r2, #0
 108 0006 1989     		ldrh	r1, [r3, #8]
 109 0008 5868     		ldr	r0, [r3, #4]
 110 000a FFF7FEFF 		bl	HAL_GPIO_WritePin
 111              	.LVL2:
 129:./Application/Src/ILI9225.c **** 
 112              		.loc 1 129 1 is_stmt 0 view .LVU8
 113 000e 08BD     		pop	{r3, pc}
 114              	.L12:
 115              		.align	2
 116              	.L11:
 117 0010 00000000 		.word	lcd_config
 118              		.cfi_endproc
 119              	.LFE356:
 121              		.section	.text.LCD_unselect,"ax",%progbits
 122              		.align	1
 123              		.global	LCD_unselect
 124              		.syntax unified
 125              		.thumb
 126              		.thumb_func
 128              	LCD_unselect:
 129              	.LFB357:
 131:./Application/Src/ILI9225.c ****     HAL_GPIO_WritePin(lcd_config.cs_port, lcd_config.cs_pin, GPIO_PIN_SET);
 130              		.loc 1 131 25 is_stmt 1 view -0
 131              		.cfi_startproc
 132              		@ args = 0, pretend = 0, frame = 0
 133              		@ frame_needed = 0, uses_anonymous_args = 0
 134 0000 08B5     		push	{r3, lr}
 135              	.LCFI3:
 136              		.cfi_def_cfa_offset 8
 137              		.cfi_offset 3, -8
 138              		.cfi_offset 14, -4
 132:./Application/Src/ILI9225.c **** }
 139              		.loc 1 132 5 view .LVU10
 140 0002 034B     		ldr	r3, .L15
 141 0004 0122     		movs	r2, #1
 142 0006 1989     		ldrh	r1, [r3, #8]
 143 0008 5868     		ldr	r0, [r3, #4]
 144 000a FFF7FEFF 		bl	HAL_GPIO_WritePin
 145              	.LVL3:
ARM GAS  C:\Users\Xuleo\AppData\Local\Temp\cc6qX2tw.s 			page 6


 133:./Application/Src/ILI9225.c **** 
 146              		.loc 1 133 1 is_stmt 0 view .LVU11
 147 000e 08BD     		pop	{r3, pc}
 148              	.L16:
 149              		.align	2
 150              	.L15:
 151 0010 00000000 		.word	lcd_config
 152              		.cfi_endproc
 153              	.LFE357:
 155              		.section	.text.LCD_write_reg,"ax",%progbits
 156              		.align	1
 157              		.global	LCD_write_reg
 158              		.syntax unified
 159              		.thumb
 160              		.thumb_func
 162              	LCD_write_reg:
 163              	.LVL4:
 164              	.LFB360:
 143:./Application/Src/ILI9225.c **** 
 144:./Application/Src/ILI9225.c **** // ILI9225 protocol: write 16-bit register index, then 16-bit data
 145:./Application/Src/ILI9225.c **** // RS=LOW for index, RS=HIGH for data
 146:./Application/Src/ILI9225.c **** void LCD_write_reg(uint16_t reg, uint16_t data) {
 165              		.loc 1 146 49 is_stmt 1 view -0
 166              		.cfi_startproc
 167              		@ args = 0, pretend = 0, frame = 8
 168              		@ frame_needed = 0, uses_anonymous_args = 0
 169              		.loc 1 146 49 is_stmt 0 view .LVU13
 170 0000 30B5     		push	{r4, r5, lr}
 171              	.LCFI4:
 172              		.cfi_def_cfa_offset 12
 173              		.cfi_offset 4, -12
 174              		.cfi_offset 5, -8
 175              		.cfi_offset 14, -4
 176 0002 83B0     		sub	sp, sp, #12
 177              	.LCFI5:
 178              		.cfi_def_cfa_offset 24
 179 0004 0546     		mov	r5, r0
 180 0006 0C46     		mov	r4, r1
 147:./Application/Src/ILI9225.c ****     LCD_select();
 181              		.loc 1 147 5 is_stmt 1 view .LVU14
 182 0008 FFF7FEFF 		bl	LCD_select
 183              	.LVL5:
 148:./Application/Src/ILI9225.c **** 
 149:./Application/Src/ILI9225.c ****     // send register index (RS low)
 150:./Application/Src/ILI9225.c ****     LCD_rs_low();
 184              		.loc 1 150 5 view .LVU15
 185 000c FFF7FEFF 		bl	LCD_rs_low
 186              	.LVL6:
 151:./Application/Src/ILI9225.c ****     uint8_t reg_bytes[2] = {reg >> 8, reg & 0xFF};
 187              		.loc 1 151 5 view .LVU16
 188              		.loc 1 151 13 is_stmt 0 view .LVU17
 189 0010 2B0A     		lsrs	r3, r5, #8
 190 0012 8DF80430 		strb	r3, [sp, #4]
 191 0016 8DF80550 		strb	r5, [sp, #5]
 152:./Application/Src/ILI9225.c ****     HAL_SPI_Transmit(lcd_config.hspi, reg_bytes, 2, HAL_MAX_DELAY);
 192              		.loc 1 152 5 is_stmt 1 view .LVU18
 193 001a 0D4D     		ldr	r5, .L19
ARM GAS  C:\Users\Xuleo\AppData\Local\Temp\cc6qX2tw.s 			page 7


 194              	.LVL7:
 195              		.loc 1 152 5 is_stmt 0 view .LVU19
 196 001c 4FF0FF33 		mov	r3, #-1
 197 0020 0222     		movs	r2, #2
 198 0022 01A9     		add	r1, sp, #4
 199 0024 2868     		ldr	r0, [r5]
 200 0026 FFF7FEFF 		bl	HAL_SPI_Transmit
 201              	.LVL8:
 153:./Application/Src/ILI9225.c **** 
 154:./Application/Src/ILI9225.c ****     // send register data (RS high)
 155:./Application/Src/ILI9225.c ****     LCD_rs_high();
 202              		.loc 1 155 5 is_stmt 1 view .LVU20
 203 002a FFF7FEFF 		bl	LCD_rs_high
 204              	.LVL9:
 156:./Application/Src/ILI9225.c ****     uint8_t data_bytes[2] = {data >> 8, data & 0xFF};
 205              		.loc 1 156 5 view .LVU21
 206              		.loc 1 156 13 is_stmt 0 view .LVU22
 207 002e 230A     		lsrs	r3, r4, #8
 208 0030 8DF80030 		strb	r3, [sp]
 209 0034 8DF80140 		strb	r4, [sp, #1]
 157:./Application/Src/ILI9225.c ****     HAL_SPI_Transmit(lcd_config.hspi, data_bytes, 2, HAL_MAX_DELAY);
 210              		.loc 1 157 5 is_stmt 1 view .LVU23
 211 0038 4FF0FF33 		mov	r3, #-1
 212 003c 0222     		movs	r2, #2
 213 003e 6946     		mov	r1, sp
 214 0040 2868     		ldr	r0, [r5]
 215 0042 FFF7FEFF 		bl	HAL_SPI_Transmit
 216              	.LVL10:
 158:./Application/Src/ILI9225.c **** 
 159:./Application/Src/ILI9225.c ****     LCD_unselect();
 217              		.loc 1 159 5 view .LVU24
 218 0046 FFF7FEFF 		bl	LCD_unselect
 219              	.LVL11:
 160:./Application/Src/ILI9225.c **** }
 220              		.loc 1 160 1 is_stmt 0 view .LVU25
 221 004a 03B0     		add	sp, sp, #12
 222              	.LCFI6:
 223              		.cfi_def_cfa_offset 12
 224              		@ sp needed
 225 004c 30BD     		pop	{r4, r5, pc}
 226              	.LVL12:
 227              	.L20:
 228              		.loc 1 160 1 view .LVU26
 229 004e 00BF     		.align	2
 230              	.L19:
 231 0050 00000000 		.word	lcd_config
 232              		.cfi_endproc
 233              	.LFE360:
 235              		.section	.text.LCD_write_data16,"ax",%progbits
 236              		.align	1
 237              		.global	LCD_write_data16
 238              		.syntax unified
 239              		.thumb
 240              		.thumb_func
 242              	LCD_write_data16:
 243              	.LVL13:
 244              	.LFB361:
ARM GAS  C:\Users\Xuleo\AppData\Local\Temp\cc6qX2tw.s 			page 8


 161:./Application/Src/ILI9225.c **** 
 162:./Application/Src/ILI9225.c **** // write 16-bit data (pixel data after GRAM register is selected)
 163:./Application/Src/ILI9225.c **** void LCD_write_data16(uint16_t data) {
 245              		.loc 1 163 38 is_stmt 1 view -0
 246              		.cfi_startproc
 247              		@ args = 0, pretend = 0, frame = 8
 248              		@ frame_needed = 0, uses_anonymous_args = 0
 249              		.loc 1 163 38 is_stmt 0 view .LVU28
 250 0000 00B5     		push	{lr}
 251              	.LCFI7:
 252              		.cfi_def_cfa_offset 4
 253              		.cfi_offset 14, -4
 254 0002 83B0     		sub	sp, sp, #12
 255              	.LCFI8:
 256              		.cfi_def_cfa_offset 16
 164:./Application/Src/ILI9225.c ****     uint8_t bytes[2] = {data >> 8, data & 0xFF};
 257              		.loc 1 164 5 is_stmt 1 view .LVU29
 258              		.loc 1 164 13 is_stmt 0 view .LVU30
 259 0004 030A     		lsrs	r3, r0, #8
 260 0006 8DF80430 		strb	r3, [sp, #4]
 261 000a 8DF80500 		strb	r0, [sp, #5]
 165:./Application/Src/ILI9225.c ****     HAL_SPI_Transmit(lcd_config.hspi, bytes, 2, HAL_MAX_DELAY);
 262              		.loc 1 165 5 is_stmt 1 view .LVU31
 263 000e 4FF0FF33 		mov	r3, #-1
 264 0012 0222     		movs	r2, #2
 265 0014 01A9     		add	r1, sp, #4
 266 0016 0348     		ldr	r0, .L23
 267              	.LVL14:
 268              		.loc 1 165 5 is_stmt 0 view .LVU32
 269 0018 0068     		ldr	r0, [r0]
 270 001a FFF7FEFF 		bl	HAL_SPI_Transmit
 271              	.LVL15:
 166:./Application/Src/ILI9225.c **** }
 272              		.loc 1 166 1 view .LVU33
 273 001e 03B0     		add	sp, sp, #12
 274              	.LCFI9:
 275              		.cfi_def_cfa_offset 4
 276              		@ sp needed
 277 0020 00BD     		pop	{pc}
 278              	.L24:
 279 0022 00BF     		.align	2
 280              	.L23:
 281 0024 00000000 		.word	lcd_config
 282              		.cfi_endproc
 283              	.LFE361:
 285              		.section	.text.LCD_start_gram_write,"ax",%progbits
 286              		.align	1
 287              		.global	LCD_start_gram_write
 288              		.syntax unified
 289              		.thumb
 290              		.thumb_func
 292              	LCD_start_gram_write:
 293              	.LFB362:
 167:./Application/Src/ILI9225.c **** 
 168:./Application/Src/ILI9225.c **** // select the GRAM register for writing pixel data
 169:./Application/Src/ILI9225.c **** void LCD_start_gram_write(void) {
 294              		.loc 1 169 33 is_stmt 1 view -0
ARM GAS  C:\Users\Xuleo\AppData\Local\Temp\cc6qX2tw.s 			page 9


 295              		.cfi_startproc
 296              		@ args = 0, pretend = 0, frame = 8
 297              		@ frame_needed = 0, uses_anonymous_args = 0
 298 0000 00B5     		push	{lr}
 299              	.LCFI10:
 300              		.cfi_def_cfa_offset 4
 301              		.cfi_offset 14, -4
 302 0002 83B0     		sub	sp, sp, #12
 303              	.LCFI11:
 304              		.cfi_def_cfa_offset 16
 170:./Application/Src/ILI9225.c ****     LCD_select();
 305              		.loc 1 170 5 view .LVU35
 306 0004 FFF7FEFF 		bl	LCD_select
 307              	.LVL16:
 171:./Application/Src/ILI9225.c **** 
 172:./Application/Src/ILI9225.c ****     // send GRAM register index (RS low)
 173:./Application/Src/ILI9225.c ****     LCD_rs_low();
 308              		.loc 1 173 5 view .LVU36
 309 0008 FFF7FEFF 		bl	LCD_rs_low
 310              	.LVL17:
 174:./Application/Src/ILI9225.c ****     uint8_t reg_bytes[2] = {0x00, ILI9225_GRAM_DATA_REG};
 311              		.loc 1 174 5 view .LVU37
 312              		.loc 1 174 13 is_stmt 0 view .LVU38
 313 000c 4FF40853 		mov	r3, #8704
 314 0010 ADF80430 		strh	r3, [sp, #4]	@ movhi
 175:./Application/Src/ILI9225.c ****     HAL_SPI_Transmit(lcd_config.hspi, reg_bytes, 2, HAL_MAX_DELAY);
 315              		.loc 1 175 5 is_stmt 1 view .LVU39
 316 0014 4FF0FF33 		mov	r3, #-1
 317 0018 0222     		movs	r2, #2
 318 001a 01A9     		add	r1, sp, #4
 319 001c 0348     		ldr	r0, .L27
 320 001e 0068     		ldr	r0, [r0]
 321 0020 FFF7FEFF 		bl	HAL_SPI_Transmit
 322              	.LVL18:
 176:./Application/Src/ILI9225.c **** 
 177:./Application/Src/ILI9225.c ****     // switch to data mode (RS high) - caller will send pixel data
 178:./Application/Src/ILI9225.c ****     LCD_rs_high();
 323              		.loc 1 178 5 view .LVU40
 324 0024 FFF7FEFF 		bl	LCD_rs_high
 325              	.LVL19:
 179:./Application/Src/ILI9225.c **** }
 326              		.loc 1 179 1 is_stmt 0 view .LVU41
 327 0028 03B0     		add	sp, sp, #12
 328              	.LCFI12:
 329              		.cfi_def_cfa_offset 4
 330              		@ sp needed
 331 002a 00BD     		pop	{pc}
 332              	.L28:
 333              		.align	2
 334              	.L27:
 335 002c 00000000 		.word	lcd_config
 336              		.cfi_endproc
 337              	.LFE362:
 339              		.section	.text.LCD_reset,"ax",%progbits
 340              		.align	1
 341              		.global	LCD_reset
 342              		.syntax unified
ARM GAS  C:\Users\Xuleo\AppData\Local\Temp\cc6qX2tw.s 			page 10


 343              		.thumb
 344              		.thumb_func
 346              	LCD_reset:
 347              	.LFB363:
 180:./Application/Src/ILI9225.c **** 
 181:./Application/Src/ILI9225.c **** // hardware reset sequence
 182:./Application/Src/ILI9225.c **** void LCD_reset(void) {
 348              		.loc 1 182 22 is_stmt 1 view -0
 349              		.cfi_startproc
 350              		@ args = 0, pretend = 0, frame = 0
 351              		@ frame_needed = 0, uses_anonymous_args = 0
 352 0000 10B5     		push	{r4, lr}
 353              	.LCFI13:
 354              		.cfi_def_cfa_offset 8
 355              		.cfi_offset 4, -8
 356              		.cfi_offset 14, -4
 183:./Application/Src/ILI9225.c ****     HAL_GPIO_WritePin(lcd_config.rst_port, lcd_config.rst_pin, GPIO_PIN_SET);
 357              		.loc 1 183 5 view .LVU43
 358 0002 0D4C     		ldr	r4, .L31
 359 0004 0122     		movs	r2, #1
 360 0006 218B     		ldrh	r1, [r4, #24]
 361 0008 6069     		ldr	r0, [r4, #20]
 362 000a FFF7FEFF 		bl	HAL_GPIO_WritePin
 363              	.LVL20:
 184:./Application/Src/ILI9225.c ****     HAL_Delay(5);
 364              		.loc 1 184 5 view .LVU44
 365 000e 0520     		movs	r0, #5
 366 0010 FFF7FEFF 		bl	HAL_Delay
 367              	.LVL21:
 185:./Application/Src/ILI9225.c ****     HAL_GPIO_WritePin(lcd_config.rst_port, lcd_config.rst_pin, GPIO_PIN_RESET);
 368              		.loc 1 185 5 view .LVU45
 369 0014 0022     		movs	r2, #0
 370 0016 218B     		ldrh	r1, [r4, #24]
 371 0018 6069     		ldr	r0, [r4, #20]
 372 001a FFF7FEFF 		bl	HAL_GPIO_WritePin
 373              	.LVL22:
 186:./Application/Src/ILI9225.c ****     HAL_Delay(20);
 374              		.loc 1 186 5 view .LVU46
 375 001e 1420     		movs	r0, #20
 376 0020 FFF7FEFF 		bl	HAL_Delay
 377              	.LVL23:
 187:./Application/Src/ILI9225.c ****     HAL_GPIO_WritePin(lcd_config.rst_port, lcd_config.rst_pin, GPIO_PIN_SET);
 378              		.loc 1 187 5 view .LVU47
 379 0024 0122     		movs	r2, #1
 380 0026 218B     		ldrh	r1, [r4, #24]
 381 0028 6069     		ldr	r0, [r4, #20]
 382 002a FFF7FEFF 		bl	HAL_GPIO_WritePin
 383              	.LVL24:
 188:./Application/Src/ILI9225.c ****     HAL_Delay(150);
 384              		.loc 1 188 5 view .LVU48
 385 002e 9620     		movs	r0, #150
 386 0030 FFF7FEFF 		bl	HAL_Delay
 387              	.LVL25:
 189:./Application/Src/ILI9225.c **** }
 388              		.loc 1 189 1 is_stmt 0 view .LVU49
 389 0034 10BD     		pop	{r4, pc}
 390              	.L32:
ARM GAS  C:\Users\Xuleo\AppData\Local\Temp\cc6qX2tw.s 			page 11


 391 0036 00BF     		.align	2
 392              	.L31:
 393 0038 00000000 		.word	lcd_config
 394              		.cfi_endproc
 395              	.LFE363:
 397              		.section	.text.LCD_set_window,"ax",%progbits
 398              		.align	1
 399              		.global	LCD_set_window
 400              		.syntax unified
 401              		.thumb
 402              		.thumb_func
 404              	LCD_set_window:
 405              	.LVL26:
 406              	.LFB365:
 190:./Application/Src/ILI9225.c **** 
 191:./Application/Src/ILI9225.c **** void LCD_init(void) {
 192:./Application/Src/ILI9225.c ****     LCD_unselect();
 193:./Application/Src/ILI9225.c ****     LCD_reset();
 194:./Application/Src/ILI9225.c **** 
 195:./Application/Src/ILI9225.c ****     // ---------- Power-on sequence (from ILI9225 datasheet) ----------
 196:./Application/Src/ILI9225.c **** 
 197:./Application/Src/ILI9225.c ****     // Power control 2: set step-up circuit
 198:./Application/Src/ILI9225.c ****     LCD_write_reg(ILI9225_POWER_CTRL2, 0x0018);
 199:./Application/Src/ILI9225.c ****     // Power control 3: set operating frequency
 200:./Application/Src/ILI9225.c ****     LCD_write_reg(ILI9225_POWER_CTRL3, 0x6121);
 201:./Application/Src/ILI9225.c ****     // Power control 4: VREG1OUT voltage
 202:./Application/Src/ILI9225.c ****     LCD_write_reg(ILI9225_POWER_CTRL4, 0x006F);
 203:./Application/Src/ILI9225.c ****     // Power control 5: VCOM amplitude
 204:./Application/Src/ILI9225.c ****     LCD_write_reg(ILI9225_POWER_CTRL5, 0x495F);
 205:./Application/Src/ILI9225.c ****     // Power control 1: start power supply
 206:./Application/Src/ILI9225.c ****     LCD_write_reg(ILI9225_POWER_CTRL1, 0x0800);
 207:./Application/Src/ILI9225.c ****     HAL_Delay(10);
 208:./Application/Src/ILI9225.c **** 
 209:./Application/Src/ILI9225.c ****     // Power control 2: step-up circuit 2
 210:./Application/Src/ILI9225.c ****     LCD_write_reg(ILI9225_POWER_CTRL2, 0x103B);
 211:./Application/Src/ILI9225.c ****     HAL_Delay(50);
 212:./Application/Src/ILI9225.c **** 
 213:./Application/Src/ILI9225.c ****     // ---------- Display control ----------
 214:./Application/Src/ILI9225.c **** 
 215:./Application/Src/ILI9225.c ****     // Driver output control: SS=0, GS=1, NL=28 (220 lines) - landscape
 216:./Application/Src/ILI9225.c ****     LCD_write_reg(ILI9225_DRIVER_OUTPUT_CTRL, 0x011C);
 217:./Application/Src/ILI9225.c ****     // LCD AC driving control: line inversion
 218:./Application/Src/ILI9225.c ****     LCD_write_reg(ILI9225_LCD_AC_DRIVING_CTRL, 0x0100);
 219:./Application/Src/ILI9225.c ****     // Entry mode: BGR, AM=1 (vertical first), ID1=0 ID0=1 - landscape
 220:./Application/Src/ILI9225.c ****     LCD_write_reg(ILI9225_ENTRY_MODE, 0x1028);
 221:./Application/Src/ILI9225.c **** 
 222:./Application/Src/ILI9225.c ****     // Blank period control
 223:./Application/Src/ILI9225.c ****     LCD_write_reg(ILI9225_BLANK_PERIOD_CTRL1, 0x0808);
 224:./Application/Src/ILI9225.c ****     // Frame cycle control
 225:./Application/Src/ILI9225.c ****     LCD_write_reg(ILI9225_FRAME_CYCLE_CTRL, 0x1100);
 226:./Application/Src/ILI9225.c ****     // Interface control
 227:./Application/Src/ILI9225.c ****     LCD_write_reg(ILI9225_INTERFACE_CTRL, 0x0000);
 228:./Application/Src/ILI9225.c ****     // Oscillator control: enable oscillator
 229:./Application/Src/ILI9225.c ****     LCD_write_reg(ILI9225_OSC_CTRL, 0x0D01);
 230:./Application/Src/ILI9225.c ****     // VCI recycling
 231:./Application/Src/ILI9225.c ****     LCD_write_reg(ILI9225_VCI_RECYCLING, 0x0020);
 232:./Application/Src/ILI9225.c **** 
ARM GAS  C:\Users\Xuleo\AppData\Local\Temp\cc6qX2tw.s 			page 12


 233:./Application/Src/ILI9225.c ****     // ---------- RAM address ----------
 234:./Application/Src/ILI9225.c ****     LCD_write_reg(ILI9225_RAM_ADDR_SET1, 0x0000);
 235:./Application/Src/ILI9225.c ****     LCD_write_reg(ILI9225_RAM_ADDR_SET2, 0x0000);
 236:./Application/Src/ILI9225.c **** 
 237:./Application/Src/ILI9225.c ****     // ---------- Gate scan control ----------
 238:./Application/Src/ILI9225.c ****     LCD_write_reg(ILI9225_GATE_SCAN_CTRL, 0x0000);
 239:./Application/Src/ILI9225.c ****     LCD_write_reg(ILI9225_VERTICAL_SCROLL_CTRL1, 0x00DB);
 240:./Application/Src/ILI9225.c ****     LCD_write_reg(ILI9225_VERTICAL_SCROLL_CTRL2, 0x0000);
 241:./Application/Src/ILI9225.c ****     LCD_write_reg(ILI9225_VERTICAL_SCROLL_CTRL3, 0x0000);
 242:./Application/Src/ILI9225.c ****     LCD_write_reg(ILI9225_PARTIAL_DRIVING_POS1, 0x00DB);
 243:./Application/Src/ILI9225.c ****     LCD_write_reg(ILI9225_PARTIAL_DRIVING_POS2, 0x0000);
 244:./Application/Src/ILI9225.c **** 
 245:./Application/Src/ILI9225.c ****     // ---------- Window address (full screen, landscape) ----------
 246:./Application/Src/ILI9225.c ****     LCD_write_reg(ILI9225_HORIZONTAL_WINDOW_ADDR1, 0x00AF); // 175 (physical horizontal)
 247:./Application/Src/ILI9225.c ****     LCD_write_reg(ILI9225_HORIZONTAL_WINDOW_ADDR2, 0x0000);
 248:./Application/Src/ILI9225.c ****     LCD_write_reg(ILI9225_VERTICAL_WINDOW_ADDR1, 0x00DB); // 219 (physical vertical)
 249:./Application/Src/ILI9225.c ****     LCD_write_reg(ILI9225_VERTICAL_WINDOW_ADDR2, 0x0000);
 250:./Application/Src/ILI9225.c **** 
 251:./Application/Src/ILI9225.c ****     // ---------- Gamma control ----------
 252:./Application/Src/ILI9225.c ****     LCD_write_reg(ILI9225_GAMMA_CTRL1, 0x0000);
 253:./Application/Src/ILI9225.c ****     LCD_write_reg(ILI9225_GAMMA_CTRL2, 0x0808);
 254:./Application/Src/ILI9225.c ****     LCD_write_reg(ILI9225_GAMMA_CTRL3, 0x080A);
 255:./Application/Src/ILI9225.c ****     LCD_write_reg(ILI9225_GAMMA_CTRL4, 0x000A);
 256:./Application/Src/ILI9225.c ****     LCD_write_reg(ILI9225_GAMMA_CTRL5, 0x0A08);
 257:./Application/Src/ILI9225.c ****     LCD_write_reg(ILI9225_GAMMA_CTRL6, 0x0808);
 258:./Application/Src/ILI9225.c ****     LCD_write_reg(ILI9225_GAMMA_CTRL7, 0x0000);
 259:./Application/Src/ILI9225.c ****     LCD_write_reg(ILI9225_GAMMA_CTRL8, 0x0A00);
 260:./Application/Src/ILI9225.c ****     LCD_write_reg(ILI9225_GAMMA_CTRL9, 0x0710);
 261:./Application/Src/ILI9225.c ****     LCD_write_reg(ILI9225_GAMMA_CTRL10, 0x0710);
 262:./Application/Src/ILI9225.c **** 
 263:./Application/Src/ILI9225.c ****     // ---------- Display ON ----------
 264:./Application/Src/ILI9225.c ****     LCD_write_reg(ILI9225_DISP_CTRL1, 0x0012);
 265:./Application/Src/ILI9225.c ****     HAL_Delay(50);
 266:./Application/Src/ILI9225.c ****     LCD_write_reg(ILI9225_DISP_CTRL1, 0x1017);
 267:./Application/Src/ILI9225.c **** 
 268:./Application/Src/ILI9225.c ****     // clear screen
 269:./Application/Src/ILI9225.c ****     LCD_fill_screen(COLOR_WHITE);
 270:./Application/Src/ILI9225.c **** }
 271:./Application/Src/ILI9225.c **** 
 272:./Application/Src/ILI9225.c **** void LCD_set_window(uint16_t x0, uint16_t y0, uint16_t x1, uint16_t y1) {
 407              		.loc 1 272 73 is_stmt 1 view -0
 408              		.cfi_startproc
 409              		@ args = 0, pretend = 0, frame = 0
 410              		@ frame_needed = 0, uses_anonymous_args = 0
 411              		.loc 1 272 73 is_stmt 0 view .LVU51
 412 0000 F8B5     		push	{r3, r4, r5, r6, r7, lr}
 413              	.LCFI14:
 414              		.cfi_def_cfa_offset 24
 415              		.cfi_offset 3, -24
 416              		.cfi_offset 4, -20
 417              		.cfi_offset 5, -16
 418              		.cfi_offset 6, -12
 419              		.cfi_offset 7, -8
 420              		.cfi_offset 14, -4
 421 0002 0646     		mov	r6, r0
 422 0004 1746     		mov	r7, r2
 273:./Application/Src/ILI9225.c ****     // landscape: logical x -> physical vertical, logical y -> physical horizontal (inverted)
ARM GAS  C:\Users\Xuleo\AppData\Local\Temp\cc6qX2tw.s 			page 13


 274:./Application/Src/ILI9225.c ****     uint16_t py0 = 175 - y1;
 423              		.loc 1 274 5 is_stmt 1 view .LVU52
 424              		.loc 1 274 14 is_stmt 0 view .LVU53
 425 0006 C3F1AF03 		rsb	r3, r3, #175
 426              	.LVL27:
 427              		.loc 1 274 14 view .LVU54
 428 000a 9DB2     		uxth	r5, r3
 429              	.LVL28:
 275:./Application/Src/ILI9225.c ****     uint16_t py1 = 175 - y0;
 430              		.loc 1 275 5 is_stmt 1 view .LVU55
 431              		.loc 1 275 14 is_stmt 0 view .LVU56
 432 000c C1F1AF04 		rsb	r4, r1, #175
 433 0010 A4B2     		uxth	r4, r4
 434              	.LVL29:
 276:./Application/Src/ILI9225.c **** 
 277:./Application/Src/ILI9225.c ****     LCD_write_reg(ILI9225_HORIZONTAL_WINDOW_ADDR1, py1);
 435              		.loc 1 277 5 is_stmt 1 view .LVU57
 436 0012 2146     		mov	r1, r4
 437              	.LVL30:
 438              		.loc 1 277 5 is_stmt 0 view .LVU58
 439 0014 3620     		movs	r0, #54
 440              	.LVL31:
 441              		.loc 1 277 5 view .LVU59
 442 0016 FFF7FEFF 		bl	LCD_write_reg
 443              	.LVL32:
 278:./Application/Src/ILI9225.c ****     LCD_write_reg(ILI9225_HORIZONTAL_WINDOW_ADDR2, py0);
 444              		.loc 1 278 5 is_stmt 1 view .LVU60
 445 001a 2946     		mov	r1, r5
 446 001c 3720     		movs	r0, #55
 447 001e FFF7FEFF 		bl	LCD_write_reg
 448              	.LVL33:
 279:./Application/Src/ILI9225.c ****     LCD_write_reg(ILI9225_VERTICAL_WINDOW_ADDR1, x1);
 449              		.loc 1 279 5 view .LVU61
 450 0022 3946     		mov	r1, r7
 451 0024 3820     		movs	r0, #56
 452 0026 FFF7FEFF 		bl	LCD_write_reg
 453              	.LVL34:
 280:./Application/Src/ILI9225.c ****     LCD_write_reg(ILI9225_VERTICAL_WINDOW_ADDR2, x0);
 454              		.loc 1 280 5 view .LVU62
 455 002a 3146     		mov	r1, r6
 456 002c 3920     		movs	r0, #57
 457 002e FFF7FEFF 		bl	LCD_write_reg
 458              	.LVL35:
 281:./Application/Src/ILI9225.c **** 
 282:./Application/Src/ILI9225.c ****     // set RAM address to start of window
 283:./Application/Src/ILI9225.c ****     LCD_write_reg(ILI9225_RAM_ADDR_SET1, py1);
 459              		.loc 1 283 5 view .LVU63
 460 0032 2146     		mov	r1, r4
 461 0034 2020     		movs	r0, #32
 462 0036 FFF7FEFF 		bl	LCD_write_reg
 463              	.LVL36:
 284:./Application/Src/ILI9225.c ****     LCD_write_reg(ILI9225_RAM_ADDR_SET2, x0);
 464              		.loc 1 284 5 view .LVU64
 465 003a 3146     		mov	r1, r6
 466 003c 2120     		movs	r0, #33
 467 003e FFF7FEFF 		bl	LCD_write_reg
 468              	.LVL37:
ARM GAS  C:\Users\Xuleo\AppData\Local\Temp\cc6qX2tw.s 			page 14


 285:./Application/Src/ILI9225.c **** }
 469              		.loc 1 285 1 is_stmt 0 view .LVU65
 470 0042 F8BD     		pop	{r3, r4, r5, r6, r7, pc}
 471              		.loc 1 285 1 view .LVU66
 472              		.cfi_endproc
 473              	.LFE365:
 475              		.section	.text.LCD_fill_screen,"ax",%progbits
 476              		.align	1
 477              		.global	LCD_fill_screen
 478              		.syntax unified
 479              		.thumb
 480              		.thumb_func
 482              	LCD_fill_screen:
 483              	.LVL38:
 484              	.LFB366:
 286:./Application/Src/ILI9225.c **** 
 287:./Application/Src/ILI9225.c **** void LCD_fill_screen(uint16_t color) {
 485              		.loc 1 287 38 is_stmt 1 view -0
 486              		.cfi_startproc
 487              		@ args = 0, pretend = 0, frame = 0
 488              		@ frame_needed = 0, uses_anonymous_args = 0
 489              		.loc 1 287 38 is_stmt 0 view .LVU68
 490 0000 38B5     		push	{r3, r4, r5, lr}
 491              	.LCFI15:
 492              		.cfi_def_cfa_offset 16
 493              		.cfi_offset 3, -16
 494              		.cfi_offset 4, -12
 495              		.cfi_offset 5, -8
 496              		.cfi_offset 14, -4
 497 0002 0546     		mov	r5, r0
 288:./Application/Src/ILI9225.c ****     LCD_set_window(0, 0, LCD_WIDTH - 1, LCD_HEIGHT - 1);
 498              		.loc 1 288 5 is_stmt 1 view .LVU69
 499 0004 AF23     		movs	r3, #175
 500 0006 DB22     		movs	r2, #219
 501 0008 0021     		movs	r1, #0
 502 000a 0846     		mov	r0, r1
 503              	.LVL39:
 504              		.loc 1 288 5 is_stmt 0 view .LVU70
 505 000c FFF7FEFF 		bl	LCD_set_window
 506              	.LVL40:
 289:./Application/Src/ILI9225.c **** 
 290:./Application/Src/ILI9225.c ****     LCD_start_gram_write();
 507              		.loc 1 290 5 is_stmt 1 view .LVU71
 508 0010 FFF7FEFF 		bl	LCD_start_gram_write
 509              	.LVL41:
 291:./Application/Src/ILI9225.c ****     for (uint32_t i = 0; i < (uint32_t)LCD_WIDTH * LCD_HEIGHT; i++) {
 510              		.loc 1 291 5 view .LVU72
 511              	.LBB2:
 512              		.loc 1 291 10 view .LVU73
 513              		.loc 1 291 19 is_stmt 0 view .LVU74
 514 0014 0024     		movs	r4, #0
 515              		.loc 1 291 5 view .LVU75
 516 0016 03E0     		b	.L36
 517              	.LVL42:
 518              	.L37:
 292:./Application/Src/ILI9225.c ****         LCD_write_data16(color);
 519              		.loc 1 292 9 is_stmt 1 view .LVU76
ARM GAS  C:\Users\Xuleo\AppData\Local\Temp\cc6qX2tw.s 			page 15


 520 0018 2846     		mov	r0, r5
 521 001a FFF7FEFF 		bl	LCD_write_data16
 522              	.LVL43:
 291:./Application/Src/ILI9225.c ****     for (uint32_t i = 0; i < (uint32_t)LCD_WIDTH * LCD_HEIGHT; i++) {
 523              		.loc 1 291 65 discriminator 3 view .LVU77
 524 001e 0134     		adds	r4, r4, #1
 525              	.LVL44:
 526              	.L36:
 291:./Application/Src/ILI9225.c ****     for (uint32_t i = 0; i < (uint32_t)LCD_WIDTH * LCD_HEIGHT; i++) {
 527              		.loc 1 291 28 discriminator 1 view .LVU78
 528 0020 49F23F73 		movw	r3, #38719
 529 0024 9C42     		cmp	r4, r3
 530 0026 F7D9     		bls	.L37
 531              	.LBE2:
 293:./Application/Src/ILI9225.c ****     }
 294:./Application/Src/ILI9225.c ****     LCD_unselect();
 532              		.loc 1 294 5 view .LVU79
 533 0028 FFF7FEFF 		bl	LCD_unselect
 534              	.LVL45:
 295:./Application/Src/ILI9225.c **** }
 535              		.loc 1 295 1 is_stmt 0 view .LVU80
 536 002c 38BD     		pop	{r3, r4, r5, pc}
 537              		.loc 1 295 1 view .LVU81
 538              		.cfi_endproc
 539              	.LFE366:
 541              		.section	.text.LCD_init,"ax",%progbits
 542              		.align	1
 543              		.global	LCD_init
 544              		.syntax unified
 545              		.thumb
 546              		.thumb_func
 548              	LCD_init:
 549              	.LFB364:
 191:./Application/Src/ILI9225.c ****     LCD_unselect();
 550              		.loc 1 191 21 is_stmt 1 view -0
 551              		.cfi_startproc
 552              		@ args = 0, pretend = 0, frame = 0
 553              		@ frame_needed = 0, uses_anonymous_args = 0
 554 0000 08B5     		push	{r3, lr}
 555              	.LCFI16:
 556              		.cfi_def_cfa_offset 8
 557              		.cfi_offset 3, -8
 558              		.cfi_offset 14, -4
 192:./Application/Src/ILI9225.c ****     LCD_reset();
 559              		.loc 1 192 5 view .LVU83
 560 0002 FFF7FEFF 		bl	LCD_unselect
 561              	.LVL46:
 193:./Application/Src/ILI9225.c **** 
 562              		.loc 1 193 5 view .LVU84
 563 0006 FFF7FEFF 		bl	LCD_reset
 564              	.LVL47:
 198:./Application/Src/ILI9225.c ****     // Power control 3: set operating frequency
 565              		.loc 1 198 5 view .LVU85
 566 000a 1821     		movs	r1, #24
 567 000c 1120     		movs	r0, #17
 568 000e FFF7FEFF 		bl	LCD_write_reg
 569              	.LVL48:
ARM GAS  C:\Users\Xuleo\AppData\Local\Temp\cc6qX2tw.s 			page 16


 200:./Application/Src/ILI9225.c ****     // Power control 4: VREG1OUT voltage
 570              		.loc 1 200 5 view .LVU86
 571 0012 46F22111 		movw	r1, #24865
 572 0016 1220     		movs	r0, #18
 573 0018 FFF7FEFF 		bl	LCD_write_reg
 574              	.LVL49:
 202:./Application/Src/ILI9225.c ****     // Power control 5: VCOM amplitude
 575              		.loc 1 202 5 view .LVU87
 576 001c 6F21     		movs	r1, #111
 577 001e 1320     		movs	r0, #19
 578 0020 FFF7FEFF 		bl	LCD_write_reg
 579              	.LVL50:
 204:./Application/Src/ILI9225.c ****     // Power control 1: start power supply
 580              		.loc 1 204 5 view .LVU88
 581 0024 44F65F11 		movw	r1, #18783
 582 0028 1420     		movs	r0, #20
 583 002a FFF7FEFF 		bl	LCD_write_reg
 584              	.LVL51:
 206:./Application/Src/ILI9225.c ****     HAL_Delay(10);
 585              		.loc 1 206 5 view .LVU89
 586 002e 4FF40061 		mov	r1, #2048
 587 0032 1020     		movs	r0, #16
 588 0034 FFF7FEFF 		bl	LCD_write_reg
 589              	.LVL52:
 207:./Application/Src/ILI9225.c **** 
 590              		.loc 1 207 5 view .LVU90
 591 0038 0A20     		movs	r0, #10
 592 003a FFF7FEFF 		bl	HAL_Delay
 593              	.LVL53:
 210:./Application/Src/ILI9225.c ****     HAL_Delay(50);
 594              		.loc 1 210 5 view .LVU91
 595 003e 41F23B01 		movw	r1, #4155
 596 0042 1120     		movs	r0, #17
 597 0044 FFF7FEFF 		bl	LCD_write_reg
 598              	.LVL54:
 211:./Application/Src/ILI9225.c **** 
 599              		.loc 1 211 5 view .LVU92
 600 0048 3220     		movs	r0, #50
 601 004a FFF7FEFF 		bl	HAL_Delay
 602              	.LVL55:
 216:./Application/Src/ILI9225.c ****     // LCD AC driving control: line inversion
 603              		.loc 1 216 5 view .LVU93
 604 004e 4FF48E71 		mov	r1, #284
 605 0052 0120     		movs	r0, #1
 606 0054 FFF7FEFF 		bl	LCD_write_reg
 607              	.LVL56:
 218:./Application/Src/ILI9225.c ****     // Entry mode: BGR, AM=1 (vertical first), ID1=0 ID0=1 - landscape
 608              		.loc 1 218 5 view .LVU94
 609 0058 4FF48071 		mov	r1, #256
 610 005c 0220     		movs	r0, #2
 611 005e FFF7FEFF 		bl	LCD_write_reg
 612              	.LVL57:
 220:./Application/Src/ILI9225.c **** 
 613              		.loc 1 220 5 view .LVU95
 614 0062 41F22801 		movw	r1, #4136
 615 0066 0320     		movs	r0, #3
 616 0068 FFF7FEFF 		bl	LCD_write_reg
ARM GAS  C:\Users\Xuleo\AppData\Local\Temp\cc6qX2tw.s 			page 17


 617              	.LVL58:
 223:./Application/Src/ILI9225.c ****     // Frame cycle control
 618              		.loc 1 223 5 view .LVU96
 619 006c 40F60801 		movw	r1, #2056
 620 0070 0820     		movs	r0, #8
 621 0072 FFF7FEFF 		bl	LCD_write_reg
 622              	.LVL59:
 225:./Application/Src/ILI9225.c ****     // Interface control
 623              		.loc 1 225 5 view .LVU97
 624 0076 4FF48851 		mov	r1, #4352
 625 007a 0B20     		movs	r0, #11
 626 007c FFF7FEFF 		bl	LCD_write_reg
 627              	.LVL60:
 227:./Application/Src/ILI9225.c ****     // Oscillator control: enable oscillator
 628              		.loc 1 227 5 view .LVU98
 629 0080 0021     		movs	r1, #0
 630 0082 0C20     		movs	r0, #12
 631 0084 FFF7FEFF 		bl	LCD_write_reg
 632              	.LVL61:
 229:./Application/Src/ILI9225.c ****     // VCI recycling
 633              		.loc 1 229 5 view .LVU99
 634 0088 40F60151 		movw	r1, #3329
 635 008c 0F20     		movs	r0, #15
 636 008e FFF7FEFF 		bl	LCD_write_reg
 637              	.LVL62:
 231:./Application/Src/ILI9225.c **** 
 638              		.loc 1 231 5 view .LVU100
 639 0092 2021     		movs	r1, #32
 640 0094 1520     		movs	r0, #21
 641 0096 FFF7FEFF 		bl	LCD_write_reg
 642              	.LVL63:
 234:./Application/Src/ILI9225.c ****     LCD_write_reg(ILI9225_RAM_ADDR_SET2, 0x0000);
 643              		.loc 1 234 5 view .LVU101
 644 009a 0021     		movs	r1, #0
 645 009c 2020     		movs	r0, #32
 646 009e FFF7FEFF 		bl	LCD_write_reg
 647              	.LVL64:
 235:./Application/Src/ILI9225.c **** 
 648              		.loc 1 235 5 view .LVU102
 649 00a2 0021     		movs	r1, #0
 650 00a4 2120     		movs	r0, #33
 651 00a6 FFF7FEFF 		bl	LCD_write_reg
 652              	.LVL65:
 238:./Application/Src/ILI9225.c ****     LCD_write_reg(ILI9225_VERTICAL_SCROLL_CTRL1, 0x00DB);
 653              		.loc 1 238 5 view .LVU103
 654 00aa 0021     		movs	r1, #0
 655 00ac 3020     		movs	r0, #48
 656 00ae FFF7FEFF 		bl	LCD_write_reg
 657              	.LVL66:
 239:./Application/Src/ILI9225.c ****     LCD_write_reg(ILI9225_VERTICAL_SCROLL_CTRL2, 0x0000);
 658              		.loc 1 239 5 view .LVU104
 659 00b2 DB21     		movs	r1, #219
 660 00b4 3120     		movs	r0, #49
 661 00b6 FFF7FEFF 		bl	LCD_write_reg
 662              	.LVL67:
 240:./Application/Src/ILI9225.c ****     LCD_write_reg(ILI9225_VERTICAL_SCROLL_CTRL3, 0x0000);
 663              		.loc 1 240 5 view .LVU105
ARM GAS  C:\Users\Xuleo\AppData\Local\Temp\cc6qX2tw.s 			page 18


 664 00ba 0021     		movs	r1, #0
 665 00bc 3220     		movs	r0, #50
 666 00be FFF7FEFF 		bl	LCD_write_reg
 667              	.LVL68:
 241:./Application/Src/ILI9225.c ****     LCD_write_reg(ILI9225_PARTIAL_DRIVING_POS1, 0x00DB);
 668              		.loc 1 241 5 view .LVU106
 669 00c2 0021     		movs	r1, #0
 670 00c4 3320     		movs	r0, #51
 671 00c6 FFF7FEFF 		bl	LCD_write_reg
 672              	.LVL69:
 242:./Application/Src/ILI9225.c ****     LCD_write_reg(ILI9225_PARTIAL_DRIVING_POS2, 0x0000);
 673              		.loc 1 242 5 view .LVU107
 674 00ca DB21     		movs	r1, #219
 675 00cc 3420     		movs	r0, #52
 676 00ce FFF7FEFF 		bl	LCD_write_reg
 677              	.LVL70:
 243:./Application/Src/ILI9225.c **** 
 678              		.loc 1 243 5 view .LVU108
 679 00d2 0021     		movs	r1, #0
 680 00d4 3520     		movs	r0, #53
 681 00d6 FFF7FEFF 		bl	LCD_write_reg
 682              	.LVL71:
 246:./Application/Src/ILI9225.c ****     LCD_write_reg(ILI9225_HORIZONTAL_WINDOW_ADDR2, 0x0000);
 683              		.loc 1 246 5 view .LVU109
 684 00da AF21     		movs	r1, #175
 685 00dc 3620     		movs	r0, #54
 686 00de FFF7FEFF 		bl	LCD_write_reg
 687              	.LVL72:
 247:./Application/Src/ILI9225.c ****     LCD_write_reg(ILI9225_VERTICAL_WINDOW_ADDR1, 0x00DB); // 219 (physical vertical)
 688              		.loc 1 247 5 view .LVU110
 689 00e2 0021     		movs	r1, #0
 690 00e4 3720     		movs	r0, #55
 691 00e6 FFF7FEFF 		bl	LCD_write_reg
 692              	.LVL73:
 248:./Application/Src/ILI9225.c ****     LCD_write_reg(ILI9225_VERTICAL_WINDOW_ADDR2, 0x0000);
 693              		.loc 1 248 5 view .LVU111
 694 00ea DB21     		movs	r1, #219
 695 00ec 3820     		movs	r0, #56
 696 00ee FFF7FEFF 		bl	LCD_write_reg
 697              	.LVL74:
 249:./Application/Src/ILI9225.c **** 
 698              		.loc 1 249 5 view .LVU112
 699 00f2 0021     		movs	r1, #0
 700 00f4 3920     		movs	r0, #57
 701 00f6 FFF7FEFF 		bl	LCD_write_reg
 702              	.LVL75:
 252:./Application/Src/ILI9225.c ****     LCD_write_reg(ILI9225_GAMMA_CTRL2, 0x0808);
 703              		.loc 1 252 5 view .LVU113
 704 00fa 0021     		movs	r1, #0
 705 00fc 5020     		movs	r0, #80
 706 00fe FFF7FEFF 		bl	LCD_write_reg
 707              	.LVL76:
 253:./Application/Src/ILI9225.c ****     LCD_write_reg(ILI9225_GAMMA_CTRL3, 0x080A);
 708              		.loc 1 253 5 view .LVU114
 709 0102 40F60801 		movw	r1, #2056
 710 0106 5120     		movs	r0, #81
 711 0108 FFF7FEFF 		bl	LCD_write_reg
ARM GAS  C:\Users\Xuleo\AppData\Local\Temp\cc6qX2tw.s 			page 19


 712              	.LVL77:
 254:./Application/Src/ILI9225.c ****     LCD_write_reg(ILI9225_GAMMA_CTRL4, 0x000A);
 713              		.loc 1 254 5 view .LVU115
 714 010c 40F60A01 		movw	r1, #2058
 715 0110 5220     		movs	r0, #82
 716 0112 FFF7FEFF 		bl	LCD_write_reg
 717              	.LVL78:
 255:./Application/Src/ILI9225.c ****     LCD_write_reg(ILI9225_GAMMA_CTRL5, 0x0A08);
 718              		.loc 1 255 5 view .LVU116
 719 0116 0A21     		movs	r1, #10
 720 0118 5320     		movs	r0, #83
 721 011a FFF7FEFF 		bl	LCD_write_reg
 722              	.LVL79:
 256:./Application/Src/ILI9225.c ****     LCD_write_reg(ILI9225_GAMMA_CTRL6, 0x0808);
 723              		.loc 1 256 5 view .LVU117
 724 011e 40F60821 		movw	r1, #2568
 725 0122 5420     		movs	r0, #84
 726 0124 FFF7FEFF 		bl	LCD_write_reg
 727              	.LVL80:
 257:./Application/Src/ILI9225.c ****     LCD_write_reg(ILI9225_GAMMA_CTRL7, 0x0000);
 728              		.loc 1 257 5 view .LVU118
 729 0128 40F60801 		movw	r1, #2056
 730 012c 5520     		movs	r0, #85
 731 012e FFF7FEFF 		bl	LCD_write_reg
 732              	.LVL81:
 258:./Application/Src/ILI9225.c ****     LCD_write_reg(ILI9225_GAMMA_CTRL8, 0x0A00);
 733              		.loc 1 258 5 view .LVU119
 734 0132 0021     		movs	r1, #0
 735 0134 5620     		movs	r0, #86
 736 0136 FFF7FEFF 		bl	LCD_write_reg
 737              	.LVL82:
 259:./Application/Src/ILI9225.c ****     LCD_write_reg(ILI9225_GAMMA_CTRL9, 0x0710);
 738              		.loc 1 259 5 view .LVU120
 739 013a 4FF42061 		mov	r1, #2560
 740 013e 5720     		movs	r0, #87
 741 0140 FFF7FEFF 		bl	LCD_write_reg
 742              	.LVL83:
 260:./Application/Src/ILI9225.c ****     LCD_write_reg(ILI9225_GAMMA_CTRL10, 0x0710);
 743              		.loc 1 260 5 view .LVU121
 744 0144 4FF4E261 		mov	r1, #1808
 745 0148 5820     		movs	r0, #88
 746 014a FFF7FEFF 		bl	LCD_write_reg
 747              	.LVL84:
 261:./Application/Src/ILI9225.c **** 
 748              		.loc 1 261 5 view .LVU122
 749 014e 4FF4E261 		mov	r1, #1808
 750 0152 5920     		movs	r0, #89
 751 0154 FFF7FEFF 		bl	LCD_write_reg
 752              	.LVL85:
 264:./Application/Src/ILI9225.c ****     HAL_Delay(50);
 753              		.loc 1 264 5 view .LVU123
 754 0158 1221     		movs	r1, #18
 755 015a 0720     		movs	r0, #7
 756 015c FFF7FEFF 		bl	LCD_write_reg
 757              	.LVL86:
 265:./Application/Src/ILI9225.c ****     LCD_write_reg(ILI9225_DISP_CTRL1, 0x1017);
 758              		.loc 1 265 5 view .LVU124
ARM GAS  C:\Users\Xuleo\AppData\Local\Temp\cc6qX2tw.s 			page 20


 759 0160 3220     		movs	r0, #50
 760 0162 FFF7FEFF 		bl	HAL_Delay
 761              	.LVL87:
 266:./Application/Src/ILI9225.c **** 
 762              		.loc 1 266 5 view .LVU125
 763 0166 41F21701 		movw	r1, #4119
 764 016a 0720     		movs	r0, #7
 765 016c FFF7FEFF 		bl	LCD_write_reg
 766              	.LVL88:
 269:./Application/Src/ILI9225.c **** }
 767              		.loc 1 269 5 view .LVU126
 768 0170 4FF6FF70 		movw	r0, #65535
 769 0174 FFF7FEFF 		bl	LCD_fill_screen
 770              	.LVL89:
 270:./Application/Src/ILI9225.c **** 
 771              		.loc 1 270 1 is_stmt 0 view .LVU127
 772 0178 08BD     		pop	{r3, pc}
 773              		.cfi_endproc
 774              	.LFE364:
 776              		.section	.text.LCD_draw_pixel,"ax",%progbits
 777              		.align	1
 778              		.global	LCD_draw_pixel
 779              		.syntax unified
 780              		.thumb
 781              		.thumb_func
 783              	LCD_draw_pixel:
 784              	.LVL90:
 785              	.LFB367:
 296:./Application/Src/ILI9225.c **** 
 297:./Application/Src/ILI9225.c **** void LCD_draw_pixel(uint16_t x, uint16_t y, uint16_t color) {
 786              		.loc 1 297 61 is_stmt 1 view -0
 787              		.cfi_startproc
 788              		@ args = 0, pretend = 0, frame = 0
 789              		@ frame_needed = 0, uses_anonymous_args = 0
 298:./Application/Src/ILI9225.c ****     if (x >= LCD_WIDTH || y >= LCD_HEIGHT) return;
 790              		.loc 1 298 5 view .LVU129
 791              		.loc 1 298 8 is_stmt 0 view .LVU130
 792 0000 DB28     		cmp	r0, #219
 793 0002 17D8     		bhi	.L44
 297:./Application/Src/ILI9225.c ****     if (x >= LCD_WIDTH || y >= LCD_HEIGHT) return;
 794              		.loc 1 297 61 view .LVU131
 795 0004 38B5     		push	{r3, r4, r5, lr}
 796              	.LCFI17:
 797              		.cfi_def_cfa_offset 16
 798              		.cfi_offset 3, -16
 799              		.cfi_offset 4, -12
 800              		.cfi_offset 5, -8
 801              		.cfi_offset 14, -4
 802 0006 0446     		mov	r4, r0
 803 0008 1546     		mov	r5, r2
 804              		.loc 1 298 24 discriminator 2 view .LVU132
 805 000a AF29     		cmp	r1, #175
 806 000c 00D9     		bls	.L47
 807              	.LVL91:
 808              	.L41:
 299:./Application/Src/ILI9225.c **** 
 300:./Application/Src/ILI9225.c ****     // landscape: x -> vertical, y -> horizontal (inverted)
ARM GAS  C:\Users\Xuleo\AppData\Local\Temp\cc6qX2tw.s 			page 21


 301:./Application/Src/ILI9225.c ****     LCD_write_reg(ILI9225_RAM_ADDR_SET1, 175 - y);
 302:./Application/Src/ILI9225.c ****     LCD_write_reg(ILI9225_RAM_ADDR_SET2, x);
 303:./Application/Src/ILI9225.c **** 
 304:./Application/Src/ILI9225.c ****     LCD_start_gram_write();
 305:./Application/Src/ILI9225.c ****     LCD_write_data16(color);
 306:./Application/Src/ILI9225.c ****     LCD_unselect();
 307:./Application/Src/ILI9225.c **** }
 809              		.loc 1 307 1 view .LVU133
 810 000e 38BD     		pop	{r3, r4, r5, pc}
 811              	.LVL92:
 812              	.L47:
 301:./Application/Src/ILI9225.c ****     LCD_write_reg(ILI9225_RAM_ADDR_SET2, x);
 813              		.loc 1 301 5 is_stmt 1 view .LVU134
 814 0010 C1F1AF01 		rsb	r1, r1, #175
 815              	.LVL93:
 301:./Application/Src/ILI9225.c ****     LCD_write_reg(ILI9225_RAM_ADDR_SET2, x);
 816              		.loc 1 301 5 is_stmt 0 view .LVU135
 817 0014 89B2     		uxth	r1, r1
 818 0016 2020     		movs	r0, #32
 819              	.LVL94:
 301:./Application/Src/ILI9225.c ****     LCD_write_reg(ILI9225_RAM_ADDR_SET2, x);
 820              		.loc 1 301 5 view .LVU136
 821 0018 FFF7FEFF 		bl	LCD_write_reg
 822              	.LVL95:
 302:./Application/Src/ILI9225.c **** 
 823              		.loc 1 302 5 is_stmt 1 view .LVU137
 824 001c 2146     		mov	r1, r4
 825 001e 2120     		movs	r0, #33
 826 0020 FFF7FEFF 		bl	LCD_write_reg
 827              	.LVL96:
 304:./Application/Src/ILI9225.c ****     LCD_write_data16(color);
 828              		.loc 1 304 5 view .LVU138
 829 0024 FFF7FEFF 		bl	LCD_start_gram_write
 830              	.LVL97:
 305:./Application/Src/ILI9225.c ****     LCD_unselect();
 831              		.loc 1 305 5 view .LVU139
 832 0028 2846     		mov	r0, r5
 833 002a FFF7FEFF 		bl	LCD_write_data16
 834              	.LVL98:
 306:./Application/Src/ILI9225.c **** }
 835              		.loc 1 306 5 view .LVU140
 836 002e FFF7FEFF 		bl	LCD_unselect
 837              	.LVL99:
 838 0032 ECE7     		b	.L41
 839              	.LVL100:
 840              	.L44:
 841              	.LCFI18:
 842              		.cfi_def_cfa_offset 0
 843              		.cfi_restore 3
 844              		.cfi_restore 4
 845              		.cfi_restore 5
 846              		.cfi_restore 14
 306:./Application/Src/ILI9225.c **** }
 847              		.loc 1 306 5 is_stmt 0 view .LVU141
 848 0034 7047     		bx	lr
 849              		.cfi_endproc
 850              	.LFE367:
ARM GAS  C:\Users\Xuleo\AppData\Local\Temp\cc6qX2tw.s 			page 22


 852              		.section	.text.LCD_draw_char,"ax",%progbits
 853              		.align	1
 854              		.global	LCD_draw_char
 855              		.syntax unified
 856              		.thumb
 857              		.thumb_func
 859              	LCD_draw_char:
 860              	.LVL101:
 861              	.LFB368:
 308:./Application/Src/ILI9225.c **** 
 309:./Application/Src/ILI9225.c **** void LCD_draw_char(uint16_t x, uint16_t y, char c, uint16_t color, uint16_t bg) {
 862              		.loc 1 309 81 is_stmt 1 view -0
 863              		.cfi_startproc
 864              		@ args = 4, pretend = 0, frame = 0
 865              		@ frame_needed = 0, uses_anonymous_args = 0
 866              		.loc 1 309 81 is_stmt 0 view .LVU143
 867 0000 2DE9F047 		push	{r4, r5, r6, r7, r8, r9, r10, lr}
 868              	.LCFI19:
 869              		.cfi_def_cfa_offset 32
 870              		.cfi_offset 4, -32
 871              		.cfi_offset 5, -28
 872              		.cfi_offset 6, -24
 873              		.cfi_offset 7, -20
 874              		.cfi_offset 8, -16
 875              		.cfi_offset 9, -12
 876              		.cfi_offset 10, -8
 877              		.cfi_offset 14, -4
 878 0004 0746     		mov	r7, r0
 879 0006 8846     		mov	r8, r1
 880 0008 9A46     		mov	r10, r3
 881 000a BDF82090 		ldrh	r9, [sp, #32]
 310:./Application/Src/ILI9225.c ****     if (c < 32 || c > 126) c = '?';
 882              		.loc 1 310 5 is_stmt 1 view .LVU144
 883              		.loc 1 310 16 is_stmt 0 view .LVU145
 884 000e A2F12003 		sub	r3, r2, #32
 885              	.LVL102:
 886              		.loc 1 310 16 view .LVU146
 887 0012 DBB2     		uxtb	r3, r3
 888              		.loc 1 310 8 view .LVU147
 889 0014 5E2B     		cmp	r3, #94
 890 0016 00D9     		bls	.L49
 891              		.loc 1 310 30 discriminator 1 view .LVU148
 892 0018 3F22     		movs	r2, #63
 893              	.LVL103:
 894              	.L49:
 311:./Application/Src/ILI9225.c **** 
 312:./Application/Src/ILI9225.c ****     const uint8_t* glyph = font5x7[c - 32];
 895              		.loc 1 312 5 is_stmt 1 view .LVU149
 896              		.loc 1 312 38 is_stmt 0 view .LVU150
 897 001a 203A     		subs	r2, r2, #32
 898              	.LVL104:
 899              		.loc 1 312 20 view .LVU151
 900 001c 02EB8202 		add	r2, r2, r2, lsl #2
 901              	.LVL105:
 902              		.loc 1 312 20 view .LVU152
 903 0020 114E     		ldr	r6, .L61
 904 0022 1644     		add	r6, r6, r2
ARM GAS  C:\Users\Xuleo\AppData\Local\Temp\cc6qX2tw.s 			page 23


 905              	.LVL106:
 313:./Application/Src/ILI9225.c **** 
 314:./Application/Src/ILI9225.c ****     // draw character pixel by pixel (6x7: 5 cols + 1 spacing)
 315:./Application/Src/ILI9225.c ****     for (uint8_t row = 0; row < 7; row++) {
 906              		.loc 1 315 5 is_stmt 1 view .LVU153
 907              	.LBB3:
 908              		.loc 1 315 10 view .LVU154
 909              		.loc 1 315 18 is_stmt 0 view .LVU155
 910 0024 0025     		movs	r5, #0
 911              		.loc 1 315 5 view .LVU156
 912 0026 18E0     		b	.L50
 913              	.LVL107:
 914              	.L55:
 915              	.LBB4:
 916              	.LBB5:
 316:./Application/Src/ILI9225.c ****         for (uint8_t col = 0; col < 6; col++) {
 317:./Application/Src/ILI9225.c ****             uint16_t px_color;
 318:./Application/Src/ILI9225.c ****             if (col < 5 && (glyph[col] & (1 << row))) {
 319:./Application/Src/ILI9225.c ****                 px_color = color;
 320:./Application/Src/ILI9225.c ****             } else {
 321:./Application/Src/ILI9225.c ****                 px_color = bg;
 917              		.loc 1 321 26 view .LVU157
 918 0028 4A46     		mov	r2, r9
 919 002a 00E0     		b	.L51
 920              	.L56:
 319:./Application/Src/ILI9225.c ****             } else {
 921              		.loc 1 319 26 view .LVU158
 922 002c 5246     		mov	r2, r10
 923              	.L51:
 924              	.LVL108:
 322:./Application/Src/ILI9225.c ****             }
 323:./Application/Src/ILI9225.c ****             LCD_draw_pixel(x + col, y + row, px_color);
 925              		.loc 1 323 13 is_stmt 1 view .LVU159
 926 002e 05EB0801 		add	r1, r5, r8
 927 0032 E019     		adds	r0, r4, r7
 928 0034 89B2     		uxth	r1, r1
 929 0036 80B2     		uxth	r0, r0
 930 0038 FFF7FEFF 		bl	LCD_draw_pixel
 931              	.LVL109:
 932              		.loc 1 323 13 is_stmt 0 view .LVU160
 933              	.LBE5:
 316:./Application/Src/ILI9225.c ****             uint16_t px_color;
 934              		.loc 1 316 43 is_stmt 1 discriminator 2 view .LVU161
 935 003c 0134     		adds	r4, r4, #1
 936              	.LVL110:
 316:./Application/Src/ILI9225.c ****             uint16_t px_color;
 937              		.loc 1 316 43 is_stmt 0 discriminator 2 view .LVU162
 938 003e E4B2     		uxtb	r4, r4
 939              	.LVL111:
 940              	.L53:
 316:./Application/Src/ILI9225.c ****             uint16_t px_color;
 941              		.loc 1 316 35 is_stmt 1 discriminator 1 view .LVU163
 942 0040 052C     		cmp	r4, #5
 943 0042 08D8     		bhi	.L59
 944              	.LBB6:
 317:./Application/Src/ILI9225.c ****             if (col < 5 && (glyph[col] & (1 << row))) {
 945              		.loc 1 317 13 view .LVU164
ARM GAS  C:\Users\Xuleo\AppData\Local\Temp\cc6qX2tw.s 			page 24


 318:./Application/Src/ILI9225.c ****                 px_color = color;
 946              		.loc 1 318 13 view .LVU165
 318:./Application/Src/ILI9225.c ****                 px_color = color;
 947              		.loc 1 318 16 is_stmt 0 view .LVU166
 948 0044 042C     		cmp	r4, #4
 949 0046 EFD8     		bhi	.L55
 318:./Application/Src/ILI9225.c ****                 px_color = color;
 950              		.loc 1 318 34 discriminator 1 view .LVU167
 951 0048 335D     		ldrb	r3, [r6, r4]	@ zero_extendqisi2
 318:./Application/Src/ILI9225.c ****                 px_color = color;
 952              		.loc 1 318 25 discriminator 1 view .LVU168
 953 004a 2B41     		asrs	r3, r3, r5
 954 004c 13F0010F 		tst	r3, #1
 955 0050 ECD1     		bne	.L56
 321:./Application/Src/ILI9225.c ****             }
 956              		.loc 1 321 26 view .LVU169
 957 0052 4A46     		mov	r2, r9
 958 0054 EBE7     		b	.L51
 959              	.L59:
 321:./Application/Src/ILI9225.c ****             }
 960              		.loc 1 321 26 view .LVU170
 961              	.LBE6:
 962              	.LBE4:
 315:./Application/Src/ILI9225.c ****         for (uint8_t col = 0; col < 6; col++) {
 963              		.loc 1 315 39 is_stmt 1 discriminator 2 view .LVU171
 964 0056 0135     		adds	r5, r5, #1
 965              	.LVL112:
 315:./Application/Src/ILI9225.c ****         for (uint8_t col = 0; col < 6; col++) {
 966              		.loc 1 315 39 is_stmt 0 discriminator 2 view .LVU172
 967 0058 EDB2     		uxtb	r5, r5
 968              	.LVL113:
 969              	.L50:
 315:./Application/Src/ILI9225.c ****         for (uint8_t col = 0; col < 6; col++) {
 970              		.loc 1 315 31 is_stmt 1 discriminator 1 view .LVU173
 971 005a 062D     		cmp	r5, #6
 972 005c 01D8     		bhi	.L60
 973              	.LBB7:
 316:./Application/Src/ILI9225.c ****             uint16_t px_color;
 974              		.loc 1 316 22 is_stmt 0 view .LVU174
 975 005e 0024     		movs	r4, #0
 976 0060 EEE7     		b	.L53
 977              	.L60:
 978              	.LBE7:
 979              	.LBE3:
 324:./Application/Src/ILI9225.c ****         }
 325:./Application/Src/ILI9225.c ****     }
 326:./Application/Src/ILI9225.c **** }
 980              		.loc 1 326 1 view .LVU175
 981 0062 BDE8F087 		pop	{r4, r5, r6, r7, r8, r9, r10, pc}
 982              	.LVL114:
 983              	.L62:
 984              		.loc 1 326 1 view .LVU176
 985 0066 00BF     		.align	2
 986              	.L61:
 987 0068 00000000 		.word	font5x7
 988              		.cfi_endproc
 989              	.LFE368:
ARM GAS  C:\Users\Xuleo\AppData\Local\Temp\cc6qX2tw.s 			page 25


 991              		.section	.text.LCD_draw_string,"ax",%progbits
 992              		.align	1
 993              		.global	LCD_draw_string
 994              		.syntax unified
 995              		.thumb
 996              		.thumb_func
 998              	LCD_draw_string:
 999              	.LVL115:
 1000              	.LFB369:
 327:./Application/Src/ILI9225.c **** 
 328:./Application/Src/ILI9225.c **** void LCD_draw_string(uint16_t x, uint16_t y, char* str, uint16_t color, uint16_t bg) {
 1001              		.loc 1 328 86 is_stmt 1 view -0
 1002              		.cfi_startproc
 1003              		@ args = 4, pretend = 0, frame = 0
 1004              		@ frame_needed = 0, uses_anonymous_args = 0
 1005              		.loc 1 328 86 is_stmt 0 view .LVU178
 1006 0000 2DE9F041 		push	{r4, r5, r6, r7, r8, lr}
 1007              	.LCFI20:
 1008              		.cfi_def_cfa_offset 24
 1009              		.cfi_offset 4, -24
 1010              		.cfi_offset 5, -20
 1011              		.cfi_offset 6, -16
 1012              		.cfi_offset 7, -12
 1013              		.cfi_offset 8, -8
 1014              		.cfi_offset 14, -4
 1015 0004 82B0     		sub	sp, sp, #8
 1016              	.LCFI21:
 1017              		.cfi_def_cfa_offset 32
 1018 0006 0446     		mov	r4, r0
 1019 0008 1646     		mov	r6, r2
 1020 000a 1F46     		mov	r7, r3
 1021 000c BDF82080 		ldrh	r8, [sp, #32]
 329:./Application/Src/ILI9225.c ****     y *= 8; // convert to pixels - 8 pixels per line
 1022              		.loc 1 329 5 is_stmt 1 view .LVU179
 1023              		.loc 1 329 7 is_stmt 0 view .LVU180
 1024 0010 C900     		lsls	r1, r1, #3
 1025              	.LVL116:
 1026              		.loc 1 329 7 view .LVU181
 1027 0012 8DB2     		uxth	r5, r1
 1028              	.LVL117:
 330:./Application/Src/ILI9225.c ****     while (*str) {
 1029              		.loc 1 330 5 is_stmt 1 view .LVU182
 1030              		.loc 1 330 11 is_stmt 0 view .LVU183
 1031 0014 0BE0     		b	.L64
 1032              	.LVL118:
 1033              	.L65:
 331:./Application/Src/ILI9225.c ****         if (x + 6 > LCD_WIDTH) {
 332:./Application/Src/ILI9225.c ****             x = 0;
 333:./Application/Src/ILI9225.c ****             y += 8;
 334:./Application/Src/ILI9225.c ****         }
 335:./Application/Src/ILI9225.c ****         if (y + 7 > LCD_HEIGHT) return;
 1034              		.loc 1 335 9 is_stmt 1 view .LVU184
 1035              		.loc 1 335 12 is_stmt 0 view .LVU185
 1036 0016 A92D     		cmp	r5, #169
 1037 0018 11D8     		bhi	.L63
 336:./Application/Src/ILI9225.c **** 
 337:./Application/Src/ILI9225.c ****         LCD_draw_char(x, y, *str, color, bg);
ARM GAS  C:\Users\Xuleo\AppData\Local\Temp\cc6qX2tw.s 			page 26


 1038              		.loc 1 337 9 is_stmt 1 view .LVU186
 1039 001a CDF80080 		str	r8, [sp]
 1040 001e 3B46     		mov	r3, r7
 1041 0020 2946     		mov	r1, r5
 1042 0022 2046     		mov	r0, r4
 1043 0024 FFF7FEFF 		bl	LCD_draw_char
 1044              	.LVL119:
 338:./Application/Src/ILI9225.c ****         x += 6;  // 5 pixels + 1 spacing
 1045              		.loc 1 338 9 view .LVU187
 1046              		.loc 1 338 11 is_stmt 0 view .LVU188
 1047 0028 0634     		adds	r4, r4, #6
 1048              	.LVL120:
 1049              		.loc 1 338 11 view .LVU189
 1050 002a A4B2     		uxth	r4, r4
 1051              	.LVL121:
 339:./Application/Src/ILI9225.c ****         str++;
 1052              		.loc 1 339 9 is_stmt 1 view .LVU190
 1053              		.loc 1 339 12 is_stmt 0 view .LVU191
 1054 002c 0136     		adds	r6, r6, #1
 1055              	.LVL122:
 1056              	.L64:
 330:./Application/Src/ILI9225.c ****         if (x + 6 > LCD_WIDTH) {
 1057              		.loc 1 330 12 is_stmt 1 view .LVU192
 1058 002e 3278     		ldrb	r2, [r6]	@ zero_extendqisi2
 1059 0030 2AB1     		cbz	r2, .L63
 331:./Application/Src/ILI9225.c ****             x = 0;
 1060              		.loc 1 331 9 view .LVU193
 331:./Application/Src/ILI9225.c ****             x = 0;
 1061              		.loc 1 331 12 is_stmt 0 view .LVU194
 1062 0032 D62C     		cmp	r4, #214
 1063 0034 EFD9     		bls	.L65
 332:./Application/Src/ILI9225.c ****             y += 8;
 1064              		.loc 1 332 13 is_stmt 1 view .LVU195
 1065              	.LVL123:
 333:./Application/Src/ILI9225.c ****         }
 1066              		.loc 1 333 13 view .LVU196
 333:./Application/Src/ILI9225.c ****         }
 1067              		.loc 1 333 15 is_stmt 0 view .LVU197
 1068 0036 0835     		adds	r5, r5, #8
 1069              	.LVL124:
 333:./Application/Src/ILI9225.c ****         }
 1070              		.loc 1 333 15 view .LVU198
 1071 0038 ADB2     		uxth	r5, r5
 1072              	.LVL125:
 332:./Application/Src/ILI9225.c ****             y += 8;
 1073              		.loc 1 332 15 view .LVU199
 1074 003a 0024     		movs	r4, #0
 1075 003c EBE7     		b	.L65
 1076              	.LVL126:
 1077              	.L63:
 340:./Application/Src/ILI9225.c ****     }
 341:./Application/Src/ILI9225.c **** }
 1078              		.loc 1 341 1 view .LVU200
 1079 003e 02B0     		add	sp, sp, #8
 1080              	.LCFI22:
 1081              		.cfi_def_cfa_offset 24
 1082              		@ sp needed
ARM GAS  C:\Users\Xuleo\AppData\Local\Temp\cc6qX2tw.s 			page 27


 1083 0040 BDE8F081 		pop	{r4, r5, r6, r7, r8, pc}
 1084              		.loc 1 341 1 view .LVU201
 1085              		.cfi_endproc
 1086              	.LFE369:
 1088              		.section	.text.LCD_set_cursor,"ax",%progbits
 1089              		.align	1
 1090              		.global	LCD_set_cursor
 1091              		.syntax unified
 1092              		.thumb
 1093              		.thumb_func
 1095              	LCD_set_cursor:
 1096              	.LVL127:
 1097              	.LFB370:
 342:./Application/Src/ILI9225.c **** 
 343:./Application/Src/ILI9225.c **** void LCD_set_cursor(uint16_t x, uint16_t y) {
 1098              		.loc 1 343 45 is_stmt 1 view -0
 1099              		.cfi_startproc
 1100              		@ args = 0, pretend = 0, frame = 0
 1101              		@ frame_needed = 0, uses_anonymous_args = 0
 1102              		@ link register save eliminated.
 344:./Application/Src/ILI9225.c ****     cursor_x = x;
 1103              		.loc 1 344 5 view .LVU203
 1104              		.loc 1 344 14 is_stmt 0 view .LVU204
 1105 0000 024B     		ldr	r3, .L70
 1106 0002 1880     		strh	r0, [r3]	@ movhi
 345:./Application/Src/ILI9225.c ****     cursor_y = y;
 1107              		.loc 1 345 5 is_stmt 1 view .LVU205
 1108              		.loc 1 345 14 is_stmt 0 view .LVU206
 1109 0004 024B     		ldr	r3, .L70+4
 1110 0006 1980     		strh	r1, [r3]	@ movhi
 346:./Application/Src/ILI9225.c **** }
 1111              		.loc 1 346 1 view .LVU207
 1112 0008 7047     		bx	lr
 1113              	.L71:
 1114 000a 00BF     		.align	2
 1115              	.L70:
 1116 000c 00000000 		.word	cursor_x
 1117 0010 00000000 		.word	cursor_y
 1118              		.cfi_endproc
 1119              	.LFE370:
 1121              		.section	.text.LCD_print,"ax",%progbits
 1122              		.align	1
 1123              		.global	LCD_print
 1124              		.syntax unified
 1125              		.thumb
 1126              		.thumb_func
 1128              	LCD_print:
 1129              	.LVL128:
 1130              	.LFB371:
 347:./Application/Src/ILI9225.c **** 
 348:./Application/Src/ILI9225.c **** void LCD_print(const char* str, uint16_t color, uint16_t bg) {
 1131              		.loc 1 348 62 is_stmt 1 view -0
 1132              		.cfi_startproc
 1133              		@ args = 0, pretend = 0, frame = 0
 1134              		@ frame_needed = 0, uses_anonymous_args = 0
 1135              		.loc 1 348 62 is_stmt 0 view .LVU209
 1136 0000 F0B5     		push	{r4, r5, r6, r7, lr}
ARM GAS  C:\Users\Xuleo\AppData\Local\Temp\cc6qX2tw.s 			page 28


 1137              	.LCFI23:
 1138              		.cfi_def_cfa_offset 20
 1139              		.cfi_offset 4, -20
 1140              		.cfi_offset 5, -16
 1141              		.cfi_offset 6, -12
 1142              		.cfi_offset 7, -8
 1143              		.cfi_offset 14, -4
 1144 0002 83B0     		sub	sp, sp, #12
 1145              	.LCFI24:
 1146              		.cfi_def_cfa_offset 32
 1147 0004 0546     		mov	r5, r0
 1148 0006 0F46     		mov	r7, r1
 1149 0008 1646     		mov	r6, r2
 349:./Application/Src/ILI9225.c ****     while (*str) {
 1150              		.loc 1 349 5 is_stmt 1 view .LVU210
 1151              		.loc 1 349 11 is_stmt 0 view .LVU211
 1152 000a 0EE0     		b	.L73
 1153              	.LVL129:
 1154              	.L75:
 350:./Application/Src/ILI9225.c ****         if (cursor_x + 6 > LCD_WIDTH) {
 351:./Application/Src/ILI9225.c ****             cursor_x = 0;
 352:./Application/Src/ILI9225.c ****             cursor_y += 8;
 353:./Application/Src/ILI9225.c ****         }
 354:./Application/Src/ILI9225.c ****         if (cursor_y + 7 > LCD_HEIGHT) {
 355:./Application/Src/ILI9225.c ****             cursor_y = 0;
 356:./Application/Src/ILI9225.c ****         }
 357:./Application/Src/ILI9225.c ****         LCD_draw_char(cursor_x, cursor_y, *str, color, bg);
 1155              		.loc 1 357 9 is_stmt 1 view .LVU212
 1156 000c 124C     		ldr	r4, .L79
 1157 000e 0096     		str	r6, [sp]
 1158 0010 3B46     		mov	r3, r7
 1159 0012 1248     		ldr	r0, .L79+4
 1160 0014 0188     		ldrh	r1, [r0]
 1161 0016 2088     		ldrh	r0, [r4]
 1162 0018 FFF7FEFF 		bl	LCD_draw_char
 1163              	.LVL130:
 358:./Application/Src/ILI9225.c ****         cursor_x += 6;
 1164              		.loc 1 358 9 view .LVU213
 1165              		.loc 1 358 18 is_stmt 0 view .LVU214
 1166 001c B4F800C0 		ldrh	ip, [r4]
 1167 0020 0CF1060C 		add	ip, ip, #6
 1168 0024 A4F800C0 		strh	ip, [r4]	@ movhi
 359:./Application/Src/ILI9225.c ****         str++;
 1169              		.loc 1 359 9 is_stmt 1 view .LVU215
 1170              		.loc 1 359 12 is_stmt 0 view .LVU216
 1171 0028 0135     		adds	r5, r5, #1
 1172              	.LVL131:
 1173              	.L73:
 349:./Application/Src/ILI9225.c ****         if (cursor_x + 6 > LCD_WIDTH) {
 1174              		.loc 1 349 12 is_stmt 1 view .LVU217
 1175 002a 2A78     		ldrb	r2, [r5]	@ zero_extendqisi2
 1176 002c 92B1     		cbz	r2, .L78
 350:./Application/Src/ILI9225.c ****             cursor_x = 0;
 1177              		.loc 1 350 9 view .LVU218
 350:./Application/Src/ILI9225.c ****             cursor_x = 0;
 1178              		.loc 1 350 26 is_stmt 0 view .LVU219
 1179 002e 0A4B     		ldr	r3, .L79
ARM GAS  C:\Users\Xuleo\AppData\Local\Temp\cc6qX2tw.s 			page 29


 1180 0030 1B88     		ldrh	r3, [r3]
 350:./Application/Src/ILI9225.c ****             cursor_x = 0;
 1181              		.loc 1 350 12 view .LVU220
 1182 0032 D62B     		cmp	r3, #214
 1183 0034 06D9     		bls	.L74
 351:./Application/Src/ILI9225.c ****             cursor_y += 8;
 1184              		.loc 1 351 13 is_stmt 1 view .LVU221
 351:./Application/Src/ILI9225.c ****             cursor_y += 8;
 1185              		.loc 1 351 22 is_stmt 0 view .LVU222
 1186 0036 084B     		ldr	r3, .L79
 1187 0038 0021     		movs	r1, #0
 1188 003a 1980     		strh	r1, [r3]	@ movhi
 352:./Application/Src/ILI9225.c ****         }
 1189              		.loc 1 352 13 is_stmt 1 view .LVU223
 352:./Application/Src/ILI9225.c ****         }
 1190              		.loc 1 352 22 is_stmt 0 view .LVU224
 1191 003c 0749     		ldr	r1, .L79+4
 1192 003e 0B88     		ldrh	r3, [r1]
 1193 0040 0833     		adds	r3, r3, #8
 1194 0042 0B80     		strh	r3, [r1]	@ movhi
 1195              	.L74:
 354:./Application/Src/ILI9225.c ****             cursor_y = 0;
 1196              		.loc 1 354 9 is_stmt 1 view .LVU225
 354:./Application/Src/ILI9225.c ****             cursor_y = 0;
 1197              		.loc 1 354 26 is_stmt 0 view .LVU226
 1198 0044 054B     		ldr	r3, .L79+4
 1199 0046 1B88     		ldrh	r3, [r3]
 354:./Application/Src/ILI9225.c ****             cursor_y = 0;
 1200              		.loc 1 354 12 view .LVU227
 1201 0048 A92B     		cmp	r3, #169
 1202 004a DFD9     		bls	.L75
 355:./Application/Src/ILI9225.c ****         }
 1203              		.loc 1 355 13 is_stmt 1 view .LVU228
 355:./Application/Src/ILI9225.c ****         }
 1204              		.loc 1 355 22 is_stmt 0 view .LVU229
 1205 004c 034B     		ldr	r3, .L79+4
 1206 004e 0021     		movs	r1, #0
 1207 0050 1980     		strh	r1, [r3]	@ movhi
 1208 0052 DBE7     		b	.L75
 1209              	.L78:
 360:./Application/Src/ILI9225.c ****     }
 361:./Application/Src/ILI9225.c **** }
 1210              		.loc 1 361 1 view .LVU230
 1211 0054 03B0     		add	sp, sp, #12
 1212              	.LCFI25:
 1213              		.cfi_def_cfa_offset 20
 1214              		@ sp needed
 1215 0056 F0BD     		pop	{r4, r5, r6, r7, pc}
 1216              	.LVL132:
 1217              	.L80:
 1218              		.loc 1 361 1 view .LVU231
 1219              		.align	2
 1220              	.L79:
 1221 0058 00000000 		.word	cursor_x
 1222 005c 00000000 		.word	cursor_y
 1223              		.cfi_endproc
 1224              	.LFE371:
ARM GAS  C:\Users\Xuleo\AppData\Local\Temp\cc6qX2tw.s 			page 30


 1226              		.section	.text.LCD_draw_picture,"ax",%progbits
 1227              		.align	1
 1228              		.global	LCD_draw_picture
 1229              		.syntax unified
 1230              		.thumb
 1231              		.thumb_func
 1233              	LCD_draw_picture:
 1234              	.LVL133:
 1235              	.LFB372:
 362:./Application/Src/ILI9225.c **** 
 363:./Application/Src/ILI9225.c **** void LCD_draw_picture(const uint16_t* pixel_data){
 1236              		.loc 1 363 50 is_stmt 1 view -0
 1237              		.cfi_startproc
 1238              		@ args = 0, pretend = 0, frame = 0
 1239              		@ frame_needed = 0, uses_anonymous_args = 0
 1240              		.loc 1 363 50 is_stmt 0 view .LVU233
 1241 0000 70B5     		push	{r4, r5, r6, lr}
 1242              	.LCFI26:
 1243              		.cfi_def_cfa_offset 16
 1244              		.cfi_offset 4, -16
 1245              		.cfi_offset 5, -12
 1246              		.cfi_offset 6, -8
 1247              		.cfi_offset 14, -4
 1248 0002 0646     		mov	r6, r0
 364:./Application/Src/ILI9225.c ****     LCD_set_window(0, 0, LCD_WIDTH - 1, LCD_HEIGHT - 1);
 1249              		.loc 1 364 5 is_stmt 1 view .LVU234
 1250 0004 AF23     		movs	r3, #175
 1251 0006 DB22     		movs	r2, #219
 1252 0008 0021     		movs	r1, #0
 1253 000a 0846     		mov	r0, r1
 1254              	.LVL134:
 1255              		.loc 1 364 5 is_stmt 0 view .LVU235
 1256 000c FFF7FEFF 		bl	LCD_set_window
 1257              	.LVL135:
 365:./Application/Src/ILI9225.c **** 
 366:./Application/Src/ILI9225.c ****     LCD_start_gram_write();
 1258              		.loc 1 366 5 is_stmt 1 view .LVU236
 1259 0010 FFF7FEFF 		bl	LCD_start_gram_write
 1260              	.LVL136:
 367:./Application/Src/ILI9225.c ****     // HAL_SPI_Transmit size is uint16_t (max 65535), so send in chunks
 368:./Application/Src/ILI9225.c ****     uint32_t total_bytes = (uint32_t)LCD_WIDTH * LCD_HEIGHT * 2;
 1261              		.loc 1 368 5 view .LVU237
 369:./Application/Src/ILI9225.c ****     const uint8_t* ptr = (const uint8_t*)pixel_data;
 1262              		.loc 1 369 5 view .LVU238
 370:./Application/Src/ILI9225.c ****     while (total_bytes > 0) {
 1263              		.loc 1 370 5 view .LVU239
 368:./Application/Src/ILI9225.c ****     const uint8_t* ptr = (const uint8_t*)pixel_data;
 1264              		.loc 1 368 14 is_stmt 0 view .LVU240
 1265 0014 0B4C     		ldr	r4, .L88
 1266              		.loc 1 370 11 view .LVU241
 1267 0016 0BE0     		b	.L82
 1268              	.LVL137:
 1269              	.L85:
 1270              	.LBB8:
 371:./Application/Src/ILI9225.c ****         uint16_t chunk = (total_bytes > 65534) ? 65534 : (uint16_t)total_bytes;
 1271              		.loc 1 371 18 discriminator 2 view .LVU242
 1272 0018 4FF6FE75 		movw	r5, #65534
ARM GAS  C:\Users\Xuleo\AppData\Local\Temp\cc6qX2tw.s 			page 31


 1273              	.L83:
 1274              	.LVL138:
 372:./Application/Src/ILI9225.c ****         HAL_SPI_Transmit(lcd_config.hspi, (uint8_t*)ptr, chunk, HAL_MAX_DELAY);
 1275              		.loc 1 372 9 is_stmt 1 view .LVU243
 1276 001c 4FF0FF33 		mov	r3, #-1
 1277 0020 2A46     		mov	r2, r5
 1278 0022 3146     		mov	r1, r6
 1279 0024 0848     		ldr	r0, .L88+4
 1280 0026 0068     		ldr	r0, [r0]
 1281 0028 FFF7FEFF 		bl	HAL_SPI_Transmit
 1282              	.LVL139:
 373:./Application/Src/ILI9225.c ****         ptr += chunk;
 1283              		.loc 1 373 9 view .LVU244
 1284              		.loc 1 373 13 is_stmt 0 view .LVU245
 1285 002c 2E44     		add	r6, r6, r5
 1286              	.LVL140:
 374:./Application/Src/ILI9225.c ****         total_bytes -= chunk;
 1287              		.loc 1 374 9 is_stmt 1 view .LVU246
 1288              		.loc 1 374 21 is_stmt 0 view .LVU247
 1289 002e 641B     		subs	r4, r4, r5
 1290              	.LVL141:
 1291              	.L82:
 1292              		.loc 1 374 21 view .LVU248
 1293              	.LBE8:
 370:./Application/Src/ILI9225.c ****         uint16_t chunk = (total_bytes > 65534) ? 65534 : (uint16_t)total_bytes;
 1294              		.loc 1 370 24 is_stmt 1 view .LVU249
 1295 0030 2CB1     		cbz	r4, .L87
 1296              	.LBB9:
 371:./Application/Src/ILI9225.c ****         HAL_SPI_Transmit(lcd_config.hspi, (uint8_t*)ptr, chunk, HAL_MAX_DELAY);
 1297              		.loc 1 371 9 view .LVU250
 371:./Application/Src/ILI9225.c ****         HAL_SPI_Transmit(lcd_config.hspi, (uint8_t*)ptr, chunk, HAL_MAX_DELAY);
 1298              		.loc 1 371 18 is_stmt 0 view .LVU251
 1299 0032 4FF6FE73 		movw	r3, #65534
 1300 0036 9C42     		cmp	r4, r3
 1301 0038 EED8     		bhi	.L85
 371:./Application/Src/ILI9225.c ****         HAL_SPI_Transmit(lcd_config.hspi, (uint8_t*)ptr, chunk, HAL_MAX_DELAY);
 1302              		.loc 1 371 18 discriminator 1 view .LVU252
 1303 003a A5B2     		uxth	r5, r4
 1304              	.LVL142:
 371:./Application/Src/ILI9225.c ****         HAL_SPI_Transmit(lcd_config.hspi, (uint8_t*)ptr, chunk, HAL_MAX_DELAY);
 1305              		.loc 1 371 18 discriminator 1 view .LVU253
 1306 003c EEE7     		b	.L83
 1307              	.LVL143:
 1308              	.L87:
 371:./Application/Src/ILI9225.c ****         HAL_SPI_Transmit(lcd_config.hspi, (uint8_t*)ptr, chunk, HAL_MAX_DELAY);
 1309              		.loc 1 371 18 discriminator 1 view .LVU254
 1310              	.LBE9:
 375:./Application/Src/ILI9225.c ****     }
 376:./Application/Src/ILI9225.c ****     LCD_unselect();
 1311              		.loc 1 376 5 is_stmt 1 view .LVU255
 1312 003e FFF7FEFF 		bl	LCD_unselect
 1313              	.LVL144:
 377:./Application/Src/ILI9225.c **** }
 1314              		.loc 1 377 1 is_stmt 0 view .LVU256
 1315 0042 70BD     		pop	{r4, r5, r6, pc}
 1316              	.LVL145:
 1317              	.L89:
ARM GAS  C:\Users\Xuleo\AppData\Local\Temp\cc6qX2tw.s 			page 32


 1318              		.loc 1 377 1 view .LVU257
 1319              		.align	2
 1320              	.L88:
 1321 0044 802E0100 		.word	77440
 1322 0048 00000000 		.word	lcd_config
 1323              		.cfi_endproc
 1324              	.LFE372:
 1326              		.section	.text.LCD_draw_region,"ax",%progbits
 1327              		.align	1
 1328              		.global	LCD_draw_region
 1329              		.syntax unified
 1330              		.thumb
 1331              		.thumb_func
 1333              	LCD_draw_region:
 1334              	.LVL146:
 1335              	.LFB373:
 378:./Application/Src/ILI9225.c **** 
 379:./Application/Src/ILI9225.c **** void LCD_draw_region(uint16_t x0, uint16_t y0, uint16_t x1, uint16_t y1, const uint16_t* data) {
 1336              		.loc 1 379 96 is_stmt 1 view -0
 1337              		.cfi_startproc
 1338              		@ args = 4, pretend = 0, frame = 0
 1339              		@ frame_needed = 0, uses_anonymous_args = 0
 1340              		.loc 1 379 96 is_stmt 0 view .LVU259
 1341 0000 2DE9F041 		push	{r4, r5, r6, r7, r8, lr}
 1342              	.LCFI27:
 1343              		.cfi_def_cfa_offset 24
 1344              		.cfi_offset 4, -24
 1345              		.cfi_offset 5, -20
 1346              		.cfi_offset 6, -16
 1347              		.cfi_offset 7, -12
 1348              		.cfi_offset 8, -8
 1349              		.cfi_offset 14, -4
 1350 0004 8046     		mov	r8, r0
 1351 0006 0F46     		mov	r7, r1
 1352 0008 1546     		mov	r5, r2
 1353 000a 1C46     		mov	r4, r3
 1354 000c 069E     		ldr	r6, [sp, #24]
 380:./Application/Src/ILI9225.c ****     LCD_set_window(x0, y0, x1, y1);
 1355              		.loc 1 380 5 is_stmt 1 view .LVU260
 1356 000e FFF7FEFF 		bl	LCD_set_window
 1357              	.LVL147:
 381:./Application/Src/ILI9225.c **** 
 382:./Application/Src/ILI9225.c ****     LCD_start_gram_write();
 1358              		.loc 1 382 5 view .LVU261
 1359 0012 FFF7FEFF 		bl	LCD_start_gram_write
 1360              	.LVL148:
 383:./Application/Src/ILI9225.c ****     uint32_t total_bytes = (uint32_t)(x1 - x0 + 1) * (y1 - y0 + 1) * 2;
 1361              		.loc 1 383 5 view .LVU262
 1362              		.loc 1 383 42 is_stmt 0 view .LVU263
 1363 0016 4346     		mov	r3, r8
 1364 0018 ED1A     		subs	r5, r5, r3
 1365              	.LVL149:
 1366              		.loc 1 383 58 view .LVU264
 1367 001a E41B     		subs	r4, r4, r7
 1368              	.LVL150:
 1369              		.loc 1 383 63 view .LVU265
 1370 001c 0134     		adds	r4, r4, #1
ARM GAS  C:\Users\Xuleo\AppData\Local\Temp\cc6qX2tw.s 			page 33


 1371              		.loc 1 383 52 view .LVU266
 1372 001e 05FB0444 		mla	r4, r5, r4, r4
 1373              		.loc 1 383 14 view .LVU267
 1374 0022 6400     		lsls	r4, r4, #1
 1375              	.LVL151:
 384:./Application/Src/ILI9225.c ****     const uint8_t* ptr = (const uint8_t*)data;
 1376              		.loc 1 384 5 is_stmt 1 view .LVU268
 385:./Application/Src/ILI9225.c ****     while (total_bytes > 0) {
 1377              		.loc 1 385 5 view .LVU269
 1378              		.loc 1 385 11 is_stmt 0 view .LVU270
 1379 0024 0BE0     		b	.L91
 1380              	.L94:
 1381              	.LBB10:
 386:./Application/Src/ILI9225.c ****         uint16_t chunk = (total_bytes > 65534) ? 65534 : (uint16_t)total_bytes;
 1382              		.loc 1 386 18 discriminator 2 view .LVU271
 1383 0026 4FF6FE75 		movw	r5, #65534
 1384              	.L92:
 1385              	.LVL152:
 387:./Application/Src/ILI9225.c ****         HAL_SPI_Transmit(lcd_config.hspi, (uint8_t*)ptr, chunk, HAL_MAX_DELAY);
 1386              		.loc 1 387 9 is_stmt 1 view .LVU272
 1387 002a 4FF0FF33 		mov	r3, #-1
 1388 002e 2A46     		mov	r2, r5
 1389 0030 3146     		mov	r1, r6
 1390 0032 0848     		ldr	r0, .L97
 1391 0034 0068     		ldr	r0, [r0]
 1392 0036 FFF7FEFF 		bl	HAL_SPI_Transmit
 1393              	.LVL153:
 388:./Application/Src/ILI9225.c ****         ptr += chunk;
 1394              		.loc 1 388 9 view .LVU273
 1395              		.loc 1 388 13 is_stmt 0 view .LVU274
 1396 003a 2E44     		add	r6, r6, r5
 1397              	.LVL154:
 389:./Application/Src/ILI9225.c ****         total_bytes -= chunk;
 1398              		.loc 1 389 9 is_stmt 1 view .LVU275
 1399              		.loc 1 389 21 is_stmt 0 view .LVU276
 1400 003c 641B     		subs	r4, r4, r5
 1401              	.LVL155:
 1402              	.L91:
 1403              		.loc 1 389 21 view .LVU277
 1404              	.LBE10:
 385:./Application/Src/ILI9225.c ****         uint16_t chunk = (total_bytes > 65534) ? 65534 : (uint16_t)total_bytes;
 1405              		.loc 1 385 24 is_stmt 1 view .LVU278
 1406 003e 2CB1     		cbz	r4, .L96
 1407              	.LBB11:
 386:./Application/Src/ILI9225.c ****         HAL_SPI_Transmit(lcd_config.hspi, (uint8_t*)ptr, chunk, HAL_MAX_DELAY);
 1408              		.loc 1 386 9 view .LVU279
 386:./Application/Src/ILI9225.c ****         HAL_SPI_Transmit(lcd_config.hspi, (uint8_t*)ptr, chunk, HAL_MAX_DELAY);
 1409              		.loc 1 386 18 is_stmt 0 view .LVU280
 1410 0040 4FF6FE73 		movw	r3, #65534
 1411 0044 9C42     		cmp	r4, r3
 1412 0046 EED8     		bhi	.L94
 386:./Application/Src/ILI9225.c ****         HAL_SPI_Transmit(lcd_config.hspi, (uint8_t*)ptr, chunk, HAL_MAX_DELAY);
 1413              		.loc 1 386 18 discriminator 1 view .LVU281
 1414 0048 A5B2     		uxth	r5, r4
 1415              	.LVL156:
 386:./Application/Src/ILI9225.c ****         HAL_SPI_Transmit(lcd_config.hspi, (uint8_t*)ptr, chunk, HAL_MAX_DELAY);
 1416              		.loc 1 386 18 discriminator 1 view .LVU282
ARM GAS  C:\Users\Xuleo\AppData\Local\Temp\cc6qX2tw.s 			page 34


 1417 004a EEE7     		b	.L92
 1418              	.LVL157:
 1419              	.L96:
 386:./Application/Src/ILI9225.c ****         HAL_SPI_Transmit(lcd_config.hspi, (uint8_t*)ptr, chunk, HAL_MAX_DELAY);
 1420              		.loc 1 386 18 discriminator 1 view .LVU283
 1421              	.LBE11:
 390:./Application/Src/ILI9225.c ****     }
 391:./Application/Src/ILI9225.c ****     LCD_unselect();
 1422              		.loc 1 391 5 is_stmt 1 view .LVU284
 1423 004c FFF7FEFF 		bl	LCD_unselect
 1424              	.LVL158:
 392:./Application/Src/ILI9225.c **** }
 1425              		.loc 1 392 1 is_stmt 0 view .LVU285
 1426 0050 BDE8F081 		pop	{r4, r5, r6, r7, r8, pc}
 1427              	.LVL159:
 1428              	.L98:
 1429              		.loc 1 392 1 view .LVU286
 1430              		.align	2
 1431              	.L97:
 1432 0054 00000000 		.word	lcd_config
 1433              		.cfi_endproc
 1434              	.LFE373:
 1436              		.section	.text.LCD_draw_image,"ax",%progbits
 1437              		.align	1
 1438              		.global	LCD_draw_image
 1439              		.syntax unified
 1440              		.thumb
 1441              		.thumb_func
 1443              	LCD_draw_image:
 1444              	.LVL160:
 1445              	.LFB374:
 393:./Application/Src/ILI9225.c **** 
 394:./Application/Src/ILI9225.c **** void LCD_draw_image(const tImage* img) {
 1446              		.loc 1 394 40 is_stmt 1 view -0
 1447              		.cfi_startproc
 1448              		@ args = 0, pretend = 0, frame = 0
 1449              		@ frame_needed = 0, uses_anonymous_args = 0
 1450              		.loc 1 394 40 is_stmt 0 view .LVU288
 1451 0000 70B5     		push	{r4, r5, r6, lr}
 1452              	.LCFI28:
 1453              		.cfi_def_cfa_offset 16
 1454              		.cfi_offset 4, -16
 1455              		.cfi_offset 5, -12
 1456              		.cfi_offset 6, -8
 1457              		.cfi_offset 14, -4
 1458 0002 0446     		mov	r4, r0
 395:./Application/Src/ILI9225.c ****     LCD_set_window(0, 0, img->width - 1, img->height - 1);
 1459              		.loc 1 395 5 is_stmt 1 view .LVU289
 1460              		.loc 1 395 29 is_stmt 0 view .LVU290
 1461 0004 8288     		ldrh	r2, [r0, #4]
 1462              		.loc 1 395 45 view .LVU291
 1463 0006 C388     		ldrh	r3, [r0, #6]
 1464              		.loc 1 395 5 view .LVU292
 1465 0008 013B     		subs	r3, r3, #1
 1466 000a 013A     		subs	r2, r2, #1
 1467 000c 9BB2     		uxth	r3, r3
 1468 000e 92B2     		uxth	r2, r2
ARM GAS  C:\Users\Xuleo\AppData\Local\Temp\cc6qX2tw.s 			page 35


 1469 0010 0021     		movs	r1, #0
 1470 0012 0846     		mov	r0, r1
 1471              	.LVL161:
 1472              		.loc 1 395 5 view .LVU293
 1473 0014 FFF7FEFF 		bl	LCD_set_window
 1474              	.LVL162:
 396:./Application/Src/ILI9225.c **** 
 397:./Application/Src/ILI9225.c ****     LCD_start_gram_write();
 1475              		.loc 1 397 5 is_stmt 1 view .LVU294
 1476 0018 FFF7FEFF 		bl	LCD_start_gram_write
 1477              	.LVL163:
 398:./Application/Src/ILI9225.c ****     uint32_t total_pixels = (uint32_t)img->width * img->height;
 1478              		.loc 1 398 5 view .LVU295
 1479              		.loc 1 398 42 is_stmt 0 view .LVU296
 1480 001c A688     		ldrh	r6, [r4, #4]
 1481              		.loc 1 398 55 view .LVU297
 1482 001e E388     		ldrh	r3, [r4, #6]
 1483              		.loc 1 398 14 view .LVU298
 1484 0020 03FB06F6 		mul	r6, r3, r6
 1485              	.LVL164:
 399:./Application/Src/ILI9225.c ****     const uint8_t* src = img->data;
 1486              		.loc 1 399 5 is_stmt 1 view .LVU299
 1487              		.loc 1 399 20 is_stmt 0 view .LVU300
 1488 0024 2568     		ldr	r5, [r4]
 1489              	.LVL165:
 400:./Application/Src/ILI9225.c ****     for (uint32_t i = 0; i < total_pixels; i++) {
 1490              		.loc 1 400 5 is_stmt 1 view .LVU301
 1491              	.LBB12:
 1492              		.loc 1 400 10 view .LVU302
 1493              		.loc 1 400 19 is_stmt 0 view .LVU303
 1494 0026 0024     		movs	r4, #0
 1495              	.LVL166:
 1496              		.loc 1 400 5 view .LVU304
 1497 0028 14E0     		b	.L100
 1498              	.LVL167:
 1499              	.L101:
 1500              	.LBB13:
 401:./Application/Src/ILI9225.c ****         // convert RGB888 to RGB565
 402:./Application/Src/ILI9225.c ****         uint8_t r = src[i * 3];
 1501              		.loc 1 402 9 is_stmt 1 view .LVU305
 1502              		.loc 1 402 27 is_stmt 0 view .LVU306
 1503 002a 04EB4402 		add	r2, r4, r4, lsl #1
 1504              		.loc 1 402 17 view .LVU307
 1505 002e A85C     		ldrb	r0, [r5, r2]	@ zero_extendqisi2
 1506              	.LVL168:
 403:./Application/Src/ILI9225.c ****         uint8_t g = src[i * 3 + 1];
 1507              		.loc 1 403 9 is_stmt 1 view .LVU308
 1508              		.loc 1 403 31 is_stmt 0 view .LVU309
 1509 0030 531C     		adds	r3, r2, #1
 1510              		.loc 1 403 17 view .LVU310
 1511 0032 EB5C     		ldrb	r3, [r5, r3]	@ zero_extendqisi2
 1512              	.LVL169:
 404:./Application/Src/ILI9225.c ****         uint8_t b = src[i * 3 + 2];
 1513              		.loc 1 404 9 is_stmt 1 view .LVU311
 1514              		.loc 1 404 31 is_stmt 0 view .LVU312
 1515 0034 0232     		adds	r2, r2, #2
 1516              	.LVL170:
ARM GAS  C:\Users\Xuleo\AppData\Local\Temp\cc6qX2tw.s 			page 36


 1517              		.loc 1 404 17 view .LVU313
 1518 0036 AA5C     		ldrb	r2, [r5, r2]	@ zero_extendqisi2
 1519              	.LVL171:
 405:./Application/Src/ILI9225.c ****         uint16_t color = ((r & 0xF8) << 8) | ((g & 0xFC) << 3) | (b >> 3);
 1520              		.loc 1 405 9 is_stmt 1 view .LVU314
 1521              		.loc 1 405 38 is_stmt 0 view .LVU315
 1522 0038 0002     		lsls	r0, r0, #8
 1523 003a 00F47840 		and	r0, r0, #63488
 1524 003e 00B2     		sxth	r0, r0
 1525              		.loc 1 405 58 view .LVU316
 1526 0040 DB00     		lsls	r3, r3, #3
 1527 0042 03F4FC63 		and	r3, r3, #2016
 1528              		.loc 1 405 44 view .LVU317
 1529 0046 1843     		orrs	r0, r0, r3
 1530              		.loc 1 405 64 view .LVU318
 1531 0048 40EAD200 		orr	r0, r0, r2, lsr #3
 1532              	.LVL172:
 406:./Application/Src/ILI9225.c ****         LCD_write_data16(color);
 1533              		.loc 1 406 9 is_stmt 1 view .LVU319
 1534 004c 80B2     		uxth	r0, r0
 1535              		.loc 1 406 9 is_stmt 0 view .LVU320
 1536 004e FFF7FEFF 		bl	LCD_write_data16
 1537              	.LVL173:
 1538              		.loc 1 406 9 view .LVU321
 1539              	.LBE13:
 400:./Application/Src/ILI9225.c ****         // convert RGB888 to RGB565
 1540              		.loc 1 400 45 is_stmt 1 discriminator 3 view .LVU322
 1541 0052 0134     		adds	r4, r4, #1
 1542              	.LVL174:
 1543              	.L100:
 400:./Application/Src/ILI9225.c ****         // convert RGB888 to RGB565
 1544              		.loc 1 400 28 discriminator 1 view .LVU323
 1545 0054 B442     		cmp	r4, r6
 1546 0056 E8D3     		bcc	.L101
 1547              	.LBE12:
 407:./Application/Src/ILI9225.c ****     }
 408:./Application/Src/ILI9225.c ****     LCD_unselect();
 1548              		.loc 1 408 5 view .LVU324
 1549 0058 FFF7FEFF 		bl	LCD_unselect
 1550              	.LVL175:
 409:./Application/Src/ILI9225.c **** }
 1551              		.loc 1 409 1 is_stmt 0 view .LVU325
 1552 005c 70BD     		pop	{r4, r5, r6, pc}
 1553              		.loc 1 409 1 view .LVU326
 1554              		.cfi_endproc
 1555              	.LFE374:
 1557              		.section	.text.LCD_clear_screen,"ax",%progbits
 1558              		.align	1
 1559              		.global	LCD_clear_screen
 1560              		.syntax unified
 1561              		.thumb
 1562              		.thumb_func
 1564              	LCD_clear_screen:
 1565              	.LVL176:
 1566              	.LFB375:
 410:./Application/Src/ILI9225.c **** 
 411:./Application/Src/ILI9225.c **** void LCD_clear_screen(uint16_t color){
ARM GAS  C:\Users\Xuleo\AppData\Local\Temp\cc6qX2tw.s 			page 37


 1567              		.loc 1 411 38 is_stmt 1 view -0
 1568              		.cfi_startproc
 1569              		@ args = 0, pretend = 0, frame = 0
 1570              		@ frame_needed = 0, uses_anonymous_args = 0
 1571              		.loc 1 411 38 is_stmt 0 view .LVU328
 1572 0000 70B5     		push	{r4, r5, r6, lr}
 1573              	.LCFI29:
 1574              		.cfi_def_cfa_offset 16
 1575              		.cfi_offset 4, -16
 1576              		.cfi_offset 5, -12
 1577              		.cfi_offset 6, -8
 1578              		.cfi_offset 14, -4
 1579 0002 0446     		mov	r4, r0
 412:./Application/Src/ILI9225.c ****     LCD_select();
 1580              		.loc 1 412 5 is_stmt 1 view .LVU329
 1581 0004 FFF7FEFF 		bl	LCD_select
 1582              	.LVL177:
 413:./Application/Src/ILI9225.c ****     uint16_t swapped = LCD_SWAP16(color);
 1583              		.loc 1 413 5 view .LVU330
 1584              		.loc 1 413 14 is_stmt 0 view .LVU331
 1585 0008 4FEA042C 		lsl	ip, r4, #8
 1586 000c 4CEA142C 		orr	ip, ip, r4, lsr #8
 1587 0010 1FFA8CFC 		uxth	ip, ip
 1588              	.LVL178:
 414:./Application/Src/ILI9225.c ****     for (uint16_t y = 0; y < LCD_HEIGHT; y++) {
 1589              		.loc 1 414 5 is_stmt 1 view .LVU332
 1590              	.LBB14:
 1591              		.loc 1 414 10 view .LVU333
 1592              		.loc 1 414 19 is_stmt 0 view .LVU334
 1593 0014 0020     		movs	r0, #0
 1594              		.loc 1 414 5 view .LVU335
 1595 0016 0BE0     		b	.L104
 1596              	.LVL179:
 1597              	.L105:
 1598              	.LBB15:
 415:./Application/Src/ILI9225.c ****         for (uint16_t x = 0; x < LCD_WIDTH; x++) {
 416:./Application/Src/ILI9225.c ****             plot_buffer[y][x] = swapped;
 1599              		.loc 1 416 13 is_stmt 1 view .LVU336
 1600              		.loc 1 416 31 is_stmt 0 view .LVU337
 1601 0018 DC22     		movs	r2, #220
 1602 001a 02FB0032 		mla	r2, r2, r0, r3
 1603 001e 1749     		ldr	r1, .L115
 1604 0020 21F812C0 		strh	ip, [r1, r2, lsl #1]	@ movhi
 415:./Application/Src/ILI9225.c ****         for (uint16_t x = 0; x < LCD_WIDTH; x++) {
 1605              		.loc 1 415 46 is_stmt 1 discriminator 3 view .LVU338
 1606 0024 0133     		adds	r3, r3, #1
 1607              	.LVL180:
 415:./Application/Src/ILI9225.c ****         for (uint16_t x = 0; x < LCD_WIDTH; x++) {
 1608              		.loc 1 415 46 is_stmt 0 discriminator 3 view .LVU339
 1609 0026 9BB2     		uxth	r3, r3
 1610              	.LVL181:
 1611              	.L106:
 415:./Application/Src/ILI9225.c ****         for (uint16_t x = 0; x < LCD_WIDTH; x++) {
 1612              		.loc 1 415 32 is_stmt 1 discriminator 1 view .LVU340
 1613 0028 DB2B     		cmp	r3, #219
 1614 002a F5D9     		bls	.L105
 1615              	.LBE15:
ARM GAS  C:\Users\Xuleo\AppData\Local\Temp\cc6qX2tw.s 			page 38


 414:./Application/Src/ILI9225.c ****     for (uint16_t y = 0; y < LCD_HEIGHT; y++) {
 1616              		.loc 1 414 43 discriminator 2 view .LVU341
 1617 002c 0130     		adds	r0, r0, #1
 1618              	.LVL182:
 414:./Application/Src/ILI9225.c ****     for (uint16_t y = 0; y < LCD_HEIGHT; y++) {
 1619              		.loc 1 414 43 is_stmt 0 discriminator 2 view .LVU342
 1620 002e 80B2     		uxth	r0, r0
 1621              	.LVL183:
 1622              	.L104:
 414:./Application/Src/ILI9225.c ****     for (uint16_t y = 0; y < LCD_HEIGHT; y++) {
 1623              		.loc 1 414 28 is_stmt 1 discriminator 1 view .LVU343
 1624 0030 AF28     		cmp	r0, #175
 1625 0032 01D8     		bhi	.L113
 1626              	.LBB16:
 415:./Application/Src/ILI9225.c ****         for (uint16_t x = 0; x < LCD_WIDTH; x++) {
 1627              		.loc 1 415 23 is_stmt 0 view .LVU344
 1628 0034 0023     		movs	r3, #0
 1629 0036 F7E7     		b	.L106
 1630              	.L113:
 1631              	.LBE16:
 1632              	.LBE14:
 417:./Application/Src/ILI9225.c ****         }
 418:./Application/Src/ILI9225.c ****     }
 419:./Application/Src/ILI9225.c ****     // set up window and start GRAM write, then send entire buffer
 420:./Application/Src/ILI9225.c ****     LCD_set_window(0, 0, LCD_WIDTH - 1, LCD_HEIGHT - 1);
 1633              		.loc 1 420 5 is_stmt 1 view .LVU345
 1634 0038 AF23     		movs	r3, #175
 1635 003a DB22     		movs	r2, #219
 1636 003c 0021     		movs	r1, #0
 1637 003e 0846     		mov	r0, r1
 1638              	.LVL184:
 1639              		.loc 1 420 5 is_stmt 0 view .LVU346
 1640 0040 FFF7FEFF 		bl	LCD_set_window
 1641              	.LVL185:
 421:./Application/Src/ILI9225.c ****     LCD_start_gram_write();
 1642              		.loc 1 421 5 is_stmt 1 view .LVU347
 1643 0044 FFF7FEFF 		bl	LCD_start_gram_write
 1644              	.LVL186:
 422:./Application/Src/ILI9225.c **** 
 423:./Application/Src/ILI9225.c ****     uint32_t total_bytes = (uint32_t)LCD_WIDTH * LCD_HEIGHT * sizeof(uint16_t);
 1645              		.loc 1 423 5 view .LVU348
 424:./Application/Src/ILI9225.c ****     const uint8_t* ptr = (const uint8_t*)plot_buffer;
 1646              		.loc 1 424 5 view .LVU349
 425:./Application/Src/ILI9225.c ****     while (total_bytes > 0) {
 1647              		.loc 1 425 5 view .LVU350
 424:./Application/Src/ILI9225.c ****     const uint8_t* ptr = (const uint8_t*)plot_buffer;
 1648              		.loc 1 424 20 is_stmt 0 view .LVU351
 1649 0048 0C4E     		ldr	r6, .L115
 423:./Application/Src/ILI9225.c ****     const uint8_t* ptr = (const uint8_t*)plot_buffer;
 1650              		.loc 1 423 14 view .LVU352
 1651 004a 0D4C     		ldr	r4, .L115+4
 1652              	.LVL187:
 1653              		.loc 1 425 11 view .LVU353
 1654 004c 0BE0     		b	.L107
 1655              	.LVL188:
 1656              	.L111:
 1657              	.LBB17:
ARM GAS  C:\Users\Xuleo\AppData\Local\Temp\cc6qX2tw.s 			page 39


 426:./Application/Src/ILI9225.c ****         uint16_t chunk = (total_bytes > 65534) ? 65534 : (uint16_t)total_bytes;
 1658              		.loc 1 426 18 discriminator 2 view .LVU354
 1659 004e 4FF6FE75 		movw	r5, #65534
 1660              	.L108:
 1661              	.LVL189:
 427:./Application/Src/ILI9225.c ****         HAL_SPI_Transmit(lcd_config.hspi, (uint8_t*)ptr, chunk, HAL_MAX_DELAY);
 1662              		.loc 1 427 9 is_stmt 1 view .LVU355
 1663 0052 4FF0FF33 		mov	r3, #-1
 1664 0056 2A46     		mov	r2, r5
 1665 0058 3146     		mov	r1, r6
 1666 005a 0A48     		ldr	r0, .L115+8
 1667 005c 0068     		ldr	r0, [r0]
 1668 005e FFF7FEFF 		bl	HAL_SPI_Transmit
 1669              	.LVL190:
 428:./Application/Src/ILI9225.c ****         ptr += chunk;
 1670              		.loc 1 428 9 view .LVU356
 1671              		.loc 1 428 13 is_stmt 0 view .LVU357
 1672 0062 2E44     		add	r6, r6, r5
 1673              	.LVL191:
 429:./Application/Src/ILI9225.c ****         total_bytes -= chunk;
 1674              		.loc 1 429 9 is_stmt 1 view .LVU358
 1675              		.loc 1 429 21 is_stmt 0 view .LVU359
 1676 0064 641B     		subs	r4, r4, r5
 1677              	.LVL192:
 1678              	.L107:
 1679              		.loc 1 429 21 view .LVU360
 1680              	.LBE17:
 425:./Application/Src/ILI9225.c ****         uint16_t chunk = (total_bytes > 65534) ? 65534 : (uint16_t)total_bytes;
 1681              		.loc 1 425 24 is_stmt 1 view .LVU361
 1682 0066 2CB1     		cbz	r4, .L114
 1683              	.LBB18:
 426:./Application/Src/ILI9225.c ****         HAL_SPI_Transmit(lcd_config.hspi, (uint8_t*)ptr, chunk, HAL_MAX_DELAY);
 1684              		.loc 1 426 9 view .LVU362
 426:./Application/Src/ILI9225.c ****         HAL_SPI_Transmit(lcd_config.hspi, (uint8_t*)ptr, chunk, HAL_MAX_DELAY);
 1685              		.loc 1 426 18 is_stmt 0 view .LVU363
 1686 0068 4FF6FE73 		movw	r3, #65534
 1687 006c 9C42     		cmp	r4, r3
 1688 006e EED8     		bhi	.L111
 426:./Application/Src/ILI9225.c ****         HAL_SPI_Transmit(lcd_config.hspi, (uint8_t*)ptr, chunk, HAL_MAX_DELAY);
 1689              		.loc 1 426 18 discriminator 1 view .LVU364
 1690 0070 A5B2     		uxth	r5, r4
 1691              	.LVL193:
 426:./Application/Src/ILI9225.c ****         HAL_SPI_Transmit(lcd_config.hspi, (uint8_t*)ptr, chunk, HAL_MAX_DELAY);
 1692              		.loc 1 426 18 discriminator 1 view .LVU365
 1693 0072 EEE7     		b	.L108
 1694              	.LVL194:
 1695              	.L114:
 426:./Application/Src/ILI9225.c ****         HAL_SPI_Transmit(lcd_config.hspi, (uint8_t*)ptr, chunk, HAL_MAX_DELAY);
 1696              		.loc 1 426 18 discriminator 1 view .LVU366
 1697              	.LBE18:
 430:./Application/Src/ILI9225.c ****     }
 431:./Application/Src/ILI9225.c ****     LCD_unselect();
 1698              		.loc 1 431 5 is_stmt 1 view .LVU367
 1699 0074 FFF7FEFF 		bl	LCD_unselect
 1700              	.LVL195:
 432:./Application/Src/ILI9225.c **** }
 1701              		.loc 1 432 1 is_stmt 0 view .LVU368
ARM GAS  C:\Users\Xuleo\AppData\Local\Temp\cc6qX2tw.s 			page 40


 1702 0078 70BD     		pop	{r4, r5, r6, pc}
 1703              	.LVL196:
 1704              	.L116:
 1705              		.loc 1 432 1 view .LVU369
 1706 007a 00BF     		.align	2
 1707              	.L115:
 1708 007c 00000000 		.word	plot_buffer
 1709 0080 802E0100 		.word	77440
 1710 0084 00000000 		.word	lcd_config
 1711              		.cfi_endproc
 1712              	.LFE375:
 1714              		.section	.bss.cursor_y,"aw",%nobits
 1715              		.align	1
 1718              	cursor_y:
 1719 0000 0000     		.space	2
 1720              		.section	.bss.cursor_x,"aw",%nobits
 1721              		.align	1
 1724              	cursor_x:
 1725 0000 0000     		.space	2
 1726              		.section	.rodata.font5x7,"a"
 1727              		.align	2
 1730              	font5x7:
 1731 0000 00000000 		.ascii	"\000\000\000\000\000"
 1731      00
 1732 0005 00005F00 		.ascii	"\000\000_\000\000"
 1732      00
 1733 000a 00070007 		.ascii	"\000\007\000\007\000"
 1733      00
 1734 000f 147F147F 		.ascii	"\024\177\024\177\024"
 1734      14
 1735 0014 242A7F2A 		.ascii	"$*\177*\022"
 1735      12
 1736 0019 23130864 		.ascii	"#\023\010db"
 1736      62
 1737 001e 36495522 		.ascii	"6IU\"P"
 1737      50
 1738 0023 00050300 		.ascii	"\000\005\003\000\000"
 1738      00
 1739 0028 001C2241 		.ascii	"\000\034\"A\000"
 1739      00
 1740 002d 0041221C 		.ascii	"\000A\"\034\000"
 1740      00
 1741 0032 082A1C2A 		.ascii	"\010*\034*\010"
 1741      08
 1742 0037 08083E08 		.ascii	"\010\010>\010\010"
 1742      08
 1743 003c 00503000 		.ascii	"\000P0\000\000"
 1743      00
 1744 0041 08080808 		.ascii	"\010\010\010\010\010"
 1744      08
 1745 0046 00606000 		.ascii	"\000``\000\000"
 1745      00
 1746 004b 20100804 		.ascii	" \020\010\004\002"
 1746      02
 1747 0050 3E514945 		.ascii	">QIE>"
 1747      3E
 1748 0055 00427F40 		.ascii	"\000B\177@\000"
ARM GAS  C:\Users\Xuleo\AppData\Local\Temp\cc6qX2tw.s 			page 41


 1748      00
 1749 005a 42615149 		.ascii	"BaQIF"
 1749      46
 1750 005f 2141454B 		.ascii	"!AEK1"
 1750      31
 1751 0064 1814127F 		.ascii	"\030\024\022\177\020"
 1751      10
 1752 0069 27454545 		.ascii	"'EEE9"
 1752      39
 1753 006e 3C4A4949 		.ascii	"<JII0"
 1753      30
 1754 0073 01710905 		.ascii	"\001q\011\005\003"
 1754      03
 1755 0078 36494949 		.ascii	"6III6"
 1755      36
 1756 007d 06494929 		.ascii	"\006II)\036"
 1756      1E
 1757 0082 00363600 		.ascii	"\00066\000\000"
 1757      00
 1758 0087 00563600 		.ascii	"\000V6\000\000"
 1758      00
 1759 008c 00081422 		.ascii	"\000\010\024\"A"
 1759      41
 1760 0091 14141414 		.ascii	"\024\024\024\024\024"
 1760      14
 1761 0096 41221408 		.ascii	"A\"\024\010\000"
 1761      00
 1762 009b 02015109 		.ascii	"\002\001Q\011\006"
 1762      06
 1763 00a0 32497941 		.ascii	"2IyA>"
 1763      3E
 1764 00a5 7E111111 		.ascii	"~\021\021\021~"
 1764      7E
 1765 00aa 7F494949 		.ascii	"\177III6"
 1765      36
 1766 00af 3E414141 		.ascii	">AAA\""
 1766      22
 1767 00b4 7F414122 		.ascii	"\177AA\"\034"
 1767      1C
 1768 00b9 7F494949 		.ascii	"\177IIIA"
 1768      41
 1769 00be 7F090901 		.ascii	"\177\011\011\001\001"
 1769      01
 1770 00c3 3E414151 		.ascii	">AAQ2"
 1770      32
 1771 00c8 7F080808 		.ascii	"\177\010\010\010\177"
 1771      7F
 1772 00cd 00417F41 		.ascii	"\000A\177A\000"
 1772      00
 1773 00d2 2040413F 		.ascii	" @A?\001"
 1773      01
 1774 00d7 7F081422 		.ascii	"\177\010\024\"A"
 1774      41
 1775 00dc 7F404040 		.ascii	"\177@@@@"
 1775      40
 1776 00e1 7F020402 		.ascii	"\177\002\004\002\177"
 1776      7F
ARM GAS  C:\Users\Xuleo\AppData\Local\Temp\cc6qX2tw.s 			page 42


 1777 00e6 7F040810 		.ascii	"\177\004\010\020\177"
 1777      7F
 1778 00eb 3E414141 		.ascii	">AAA>"
 1778      3E
 1779 00f0 7F090909 		.ascii	"\177\011\011\011\006"
 1779      06
 1780 00f5 3E415121 		.ascii	">AQ!^"
 1780      5E
 1781 00fa 7F091929 		.ascii	"\177\011\031)F"
 1781      46
 1782 00ff 46494949 		.ascii	"FIII1"
 1782      31
 1783 0104 01017F01 		.ascii	"\001\001\177\001\001"
 1783      01
 1784 0109 3F404040 		.ascii	"?@@@?"
 1784      3F
 1785 010e 1F204020 		.ascii	"\037 @ \037"
 1785      1F
 1786 0113 7F201820 		.ascii	"\177 \030 \177"
 1786      7F
 1787 0118 63140814 		.ascii	"c\024\010\024c"
 1787      63
 1788 011d 03047804 		.ascii	"\003\004x\004\003"
 1788      03
 1789 0122 61514945 		.ascii	"aQIEC"
 1789      43
 1790 0127 00007F41 		.ascii	"\000\000\177AA"
 1790      41
 1791 012c 02040810 		.ascii	"\002\004\010\020 "
 1791      20
 1792 0131 41417F00 		.ascii	"AA\177\000\000"
 1792      00
 1793 0136 04020102 		.ascii	"\004\002\001\002\004"
 1793      04
 1794 013b 40404040 		.ascii	"@@@@@"
 1794      40
 1795 0140 00010204 		.ascii	"\000\001\002\004\000"
 1795      00
 1796 0145 20545454 		.ascii	" TTTx"
 1796      78
 1797 014a 7F484444 		.ascii	"\177HDD8"
 1797      38
 1798 014f 38444444 		.ascii	"8DDD "
 1798      20
 1799 0154 38444448 		.ascii	"8DDH\177"
 1799      7F
 1800 0159 38545454 		.ascii	"8TTT\030"
 1800      18
 1801 015e 087E0901 		.ascii	"\010~\011\001\002"
 1801      02
 1802 0163 08145454 		.ascii	"\010\024TT<"
 1802      3C
 1803 0168 7F080404 		.ascii	"\177\010\004\004x"
 1803      78
 1804 016d 00447D40 		.ascii	"\000D}@\000"
 1804      00
 1805 0172 2040443D 		.ascii	" @D=\000"
ARM GAS  C:\Users\Xuleo\AppData\Local\Temp\cc6qX2tw.s 			page 43


 1805      00
 1806 0177 007F1028 		.ascii	"\000\177\020(D"
 1806      44
 1807 017c 00417F40 		.ascii	"\000A\177@\000"
 1807      00
 1808 0181 7C041804 		.ascii	"|\004\030\004x"
 1808      78
 1809 0186 7C080404 		.ascii	"|\010\004\004x"
 1809      78
 1810 018b 38444444 		.ascii	"8DDD8"
 1810      38
 1811 0190 7C141414 		.ascii	"|\024\024\024\010"
 1811      08
 1812 0195 08141418 		.ascii	"\010\024\024\030|"
 1812      7C
 1813 019a 7C080404 		.ascii	"|\010\004\004\010"
 1813      08
 1814 019f 48545454 		.ascii	"HTTT "
 1814      20
 1815 01a4 043F4440 		.ascii	"\004?D@ "
 1815      20
 1816 01a9 3C404020 		.ascii	"<@@ |"
 1816      7C
 1817 01ae 1C204020 		.ascii	"\034 @ \034"
 1817      1C
 1818 01b3 3C403040 		.ascii	"<@0@<"
 1818      3C
 1819 01b8 44281028 		.ascii	"D(\020(D"
 1819      44
 1820 01bd 0C505050 		.ascii	"\014PPP<"
 1820      3C
 1821 01c2 4464544C 		.ascii	"DdTLD"
 1821      44
 1822 01c7 00083641 		.ascii	"\000\0106A\000"
 1822      00
 1823 01cc 00007F00 		.ascii	"\000\000\177\000\000"
 1823      00
 1824 01d1 00413608 		.ascii	"\000A6\010\000"
 1824      00
 1825 01d6 08082A1C 		.ascii	"\010\010*\034\010"
 1825      08
 1826              		.global	plot_buffer
 1827              		.section	.bss.plot_buffer,"aw",%nobits
 1828              		.align	2
 1831              	plot_buffer:
 1832 0000 00000000 		.space	77440
 1832      00000000 
 1832      00000000 
 1832      00000000 
 1832      00000000 
 1833              		.global	lcd_config
 1834              		.section	.data.lcd_config,"aw"
 1835              		.align	2
 1838              	lcd_config:
 1839 0000 00000000 		.word	hspi3
 1840 0004 00080242 		.word	1107429376
 1841 0008 2000     		.short	32
ARM GAS  C:\Users\Xuleo\AppData\Local\Temp\cc6qX2tw.s 			page 44


 1842 000a 0000     		.space	2
 1843 000c 00100242 		.word	1107431424
 1844 0010 8000     		.short	128
 1845 0012 0000     		.space	2
 1846 0014 00040242 		.word	1107428352
 1847 0018 0100     		.short	1
 1848 001a 0000     		.space	2
 1849              		.text
 1850              	.Letext0:
 1851              		.file 2 "C:/thirdpartyLibs/arm-gnu-toolchain-15.2/arm-none-eabi/include/machine/_default_types.h"
 1852              		.file 3 "C:/thirdpartyLibs/arm-gnu-toolchain-15.2/arm-none-eabi/include/sys/_stdint.h"
 1853              		.file 4 "Drivers/CMSIS/Device/ST/STM32H5xx/Include/stm32h523xx.h"
 1854              		.file 5 "Drivers/STM32H5xx_HAL_Driver/Inc/stm32h5xx_hal_def.h"
 1855              		.file 6 "Drivers/STM32H5xx_HAL_Driver/Inc/stm32h5xx_hal_gpio.h"
 1856              		.file 7 "Drivers/STM32H5xx_HAL_Driver/Inc/stm32h5xx_hal_dma.h"
 1857              		.file 8 "Drivers/STM32H5xx_HAL_Driver/Inc/stm32h5xx_hal_dma_ex.h"
 1858              		.file 9 "Drivers/STM32H5xx_HAL_Driver/Inc/stm32h5xx_hal_spi.h"
 1859              		.file 10 "Core/Inc/spi.h"
 1860              		.file 11 "Application/Inc/ILI9225.h"
 1861              		.file 12 "Drivers/STM32H5xx_HAL_Driver/Inc/stm32h5xx_hal.h"
ARM GAS  C:\Users\Xuleo\AppData\Local\Temp\cc6qX2tw.s 			page 45

