ARM GAS  C:\Users\Xuleo\AppData\Local\Temp\cc36HbNt.s 			page 1


   1              		.cpu cortex-m3
   2              		.arch armv7-m
   3              		.fpu softvfp
   4              		.eabi_attribute 20, 1
   5              		.eabi_attribute 21, 1
   6              		.eabi_attribute 23, 3
   7              		.eabi_attribute 24, 1
   8              		.eabi_attribute 25, 1
   9              		.eabi_attribute 26, 1
  10              		.eabi_attribute 30, 1
  11              		.eabi_attribute 34, 1
  12              		.eabi_attribute 18, 4
  13              		.file	"ILI9341.c"
  14              		.text
  15              	.Ltext0:
  16              		.cfi_sections	.debug_frame
  17              		.file 1 "./Application/Src/ILI9341.c"
  18              		.section	.text.lcd_cmd,"ax",%progbits
  19              		.align	1
  20              		.syntax unified
  21              		.thumb
  22              		.thumb_func
  24              	lcd_cmd:
  25              	.LVL0:
  26              	.LFB65:
   1:./Application/Src/ILI9341.c **** #include "gpio.h"
   2:./Application/Src/ILI9341.c **** #include "spi.h"
   3:./Application/Src/ILI9341.c **** #include "ILI9341.h"
   4:./Application/Src/ILI9341.c **** #include <string.h>
   5:./Application/Src/ILI9341.c **** 
   6:./Application/Src/ILI9341.c **** // forward declaration
   7:./Application/Src/ILI9341.c **** void LcdFillScreen(uint16_t color);
   8:./Application/Src/ILI9341.c **** 
   9:./Application/Src/ILI9341.c **** // 5x7 font for ASCII 32-126
  10:./Application/Src/ILI9341.c **** static const uint8_t font5x7[][5] = {
  11:./Application/Src/ILI9341.c ****     {0x00,0x00,0x00,0x00,0x00}, // space
  12:./Application/Src/ILI9341.c ****     {0x00,0x00,0x5F,0x00,0x00}, // !
  13:./Application/Src/ILI9341.c ****     {0x00,0x07,0x00,0x07,0x00}, // "
  14:./Application/Src/ILI9341.c ****     {0x14,0x7F,0x14,0x7F,0x14}, // #
  15:./Application/Src/ILI9341.c ****     {0x24,0x2A,0x7F,0x2A,0x12}, // $
  16:./Application/Src/ILI9341.c ****     {0x23,0x13,0x08,0x64,0x62}, // %
  17:./Application/Src/ILI9341.c ****     {0x36,0x49,0x55,0x22,0x50}, // &
  18:./Application/Src/ILI9341.c ****     {0x00,0x05,0x03,0x00,0x00}, // '
  19:./Application/Src/ILI9341.c ****     {0x00,0x1C,0x22,0x41,0x00}, // (
  20:./Application/Src/ILI9341.c ****     {0x00,0x41,0x22,0x1C,0x00}, // )
  21:./Application/Src/ILI9341.c ****     {0x08,0x2A,0x1C,0x2A,0x08}, // *
  22:./Application/Src/ILI9341.c ****     {0x08,0x08,0x3E,0x08,0x08}, // +
  23:./Application/Src/ILI9341.c ****     {0x00,0x50,0x30,0x00,0x00}, // ,
  24:./Application/Src/ILI9341.c ****     {0x08,0x08,0x08,0x08,0x08}, // -
  25:./Application/Src/ILI9341.c ****     {0x00,0x60,0x60,0x00,0x00}, // .
  26:./Application/Src/ILI9341.c ****     {0x20,0x10,0x08,0x04,0x02}, // /
  27:./Application/Src/ILI9341.c ****     {0x3E,0x51,0x49,0x45,0x3E}, // 0
  28:./Application/Src/ILI9341.c ****     {0x00,0x42,0x7F,0x40,0x00}, // 1
  29:./Application/Src/ILI9341.c ****     {0x42,0x61,0x51,0x49,0x46}, // 2
  30:./Application/Src/ILI9341.c ****     {0x21,0x41,0x45,0x4B,0x31}, // 3
  31:./Application/Src/ILI9341.c ****     {0x18,0x14,0x12,0x7F,0x10}, // 4
  32:./Application/Src/ILI9341.c ****     {0x27,0x45,0x45,0x45,0x39}, // 5
ARM GAS  C:\Users\Xuleo\AppData\Local\Temp\cc36HbNt.s 			page 2


  33:./Application/Src/ILI9341.c ****     {0x3C,0x4A,0x49,0x49,0x30}, // 6
  34:./Application/Src/ILI9341.c ****     {0x01,0x71,0x09,0x05,0x03}, // 7
  35:./Application/Src/ILI9341.c ****     {0x36,0x49,0x49,0x49,0x36}, // 8
  36:./Application/Src/ILI9341.c ****     {0x06,0x49,0x49,0x29,0x1E}, // 9
  37:./Application/Src/ILI9341.c ****     {0x00,0x36,0x36,0x00,0x00}, // :
  38:./Application/Src/ILI9341.c ****     {0x00,0x56,0x36,0x00,0x00}, // ;
  39:./Application/Src/ILI9341.c ****     {0x00,0x08,0x14,0x22,0x41}, // <
  40:./Application/Src/ILI9341.c ****     {0x14,0x14,0x14,0x14,0x14}, // =
  41:./Application/Src/ILI9341.c ****     {0x41,0x22,0x14,0x08,0x00}, // >
  42:./Application/Src/ILI9341.c ****     {0x02,0x01,0x51,0x09,0x06}, // ?
  43:./Application/Src/ILI9341.c ****     {0x32,0x49,0x79,0x41,0x3E}, // @
  44:./Application/Src/ILI9341.c ****     {0x7E,0x11,0x11,0x11,0x7E}, // A
  45:./Application/Src/ILI9341.c ****     {0x7F,0x49,0x49,0x49,0x36}, // B
  46:./Application/Src/ILI9341.c ****     {0x3E,0x41,0x41,0x41,0x22}, // C
  47:./Application/Src/ILI9341.c ****     {0x7F,0x41,0x41,0x22,0x1C}, // D
  48:./Application/Src/ILI9341.c ****     {0x7F,0x49,0x49,0x49,0x41}, // E
  49:./Application/Src/ILI9341.c ****     {0x7F,0x09,0x09,0x01,0x01}, // F
  50:./Application/Src/ILI9341.c ****     {0x3E,0x41,0x41,0x51,0x32}, // G
  51:./Application/Src/ILI9341.c ****     {0x7F,0x08,0x08,0x08,0x7F}, // H
  52:./Application/Src/ILI9341.c ****     {0x00,0x41,0x7F,0x41,0x00}, // I
  53:./Application/Src/ILI9341.c ****     {0x20,0x40,0x41,0x3F,0x01}, // J
  54:./Application/Src/ILI9341.c ****     {0x7F,0x08,0x14,0x22,0x41}, // K
  55:./Application/Src/ILI9341.c ****     {0x7F,0x40,0x40,0x40,0x40}, // L
  56:./Application/Src/ILI9341.c ****     {0x7F,0x02,0x04,0x02,0x7F}, // M
  57:./Application/Src/ILI9341.c ****     {0x7F,0x04,0x08,0x10,0x7F}, // N
  58:./Application/Src/ILI9341.c ****     {0x3E,0x41,0x41,0x41,0x3E}, // O
  59:./Application/Src/ILI9341.c ****     {0x7F,0x09,0x09,0x09,0x06}, // P
  60:./Application/Src/ILI9341.c ****     {0x3E,0x41,0x51,0x21,0x5E}, // Q
  61:./Application/Src/ILI9341.c ****     {0x7F,0x09,0x19,0x29,0x46}, // R
  62:./Application/Src/ILI9341.c ****     {0x46,0x49,0x49,0x49,0x31}, // S
  63:./Application/Src/ILI9341.c ****     {0x01,0x01,0x7F,0x01,0x01}, // T
  64:./Application/Src/ILI9341.c ****     {0x3F,0x40,0x40,0x40,0x3F}, // U
  65:./Application/Src/ILI9341.c ****     {0x1F,0x20,0x40,0x20,0x1F}, // V
  66:./Application/Src/ILI9341.c ****     {0x7F,0x20,0x18,0x20,0x7F}, // W
  67:./Application/Src/ILI9341.c ****     {0x63,0x14,0x08,0x14,0x63}, // X
  68:./Application/Src/ILI9341.c ****     {0x03,0x04,0x78,0x04,0x03}, // Y
  69:./Application/Src/ILI9341.c ****     {0x61,0x51,0x49,0x45,0x43}, // Z
  70:./Application/Src/ILI9341.c ****     {0x00,0x00,0x7F,0x41,0x41}, // [
  71:./Application/Src/ILI9341.c ****     {0x02,0x04,0x08,0x10,0x20}, // backslash
  72:./Application/Src/ILI9341.c ****     {0x41,0x41,0x7F,0x00,0x00}, // ]
  73:./Application/Src/ILI9341.c ****     {0x04,0x02,0x01,0x02,0x04}, // ^
  74:./Application/Src/ILI9341.c ****     {0x40,0x40,0x40,0x40,0x40}, // _
  75:./Application/Src/ILI9341.c ****     {0x00,0x01,0x02,0x04,0x00}, // `
  76:./Application/Src/ILI9341.c ****     {0x20,0x54,0x54,0x54,0x78}, // a
  77:./Application/Src/ILI9341.c ****     {0x7F,0x48,0x44,0x44,0x38}, // b
  78:./Application/Src/ILI9341.c ****     {0x38,0x44,0x44,0x44,0x20}, // c
  79:./Application/Src/ILI9341.c ****     {0x38,0x44,0x44,0x48,0x7F}, // d
  80:./Application/Src/ILI9341.c ****     {0x38,0x54,0x54,0x54,0x18}, // e
  81:./Application/Src/ILI9341.c ****     {0x08,0x7E,0x09,0x01,0x02}, // f
  82:./Application/Src/ILI9341.c ****     {0x08,0x14,0x54,0x54,0x3C}, // g
  83:./Application/Src/ILI9341.c ****     {0x7F,0x08,0x04,0x04,0x78}, // h
  84:./Application/Src/ILI9341.c ****     {0x00,0x44,0x7D,0x40,0x00}, // i
  85:./Application/Src/ILI9341.c ****     {0x20,0x40,0x44,0x3D,0x00}, // j
  86:./Application/Src/ILI9341.c ****     {0x00,0x7F,0x10,0x28,0x44}, // k
  87:./Application/Src/ILI9341.c ****     {0x00,0x41,0x7F,0x40,0x00}, // l
  88:./Application/Src/ILI9341.c ****     {0x7C,0x04,0x18,0x04,0x78}, // m
  89:./Application/Src/ILI9341.c ****     {0x7C,0x08,0x04,0x04,0x78}, // n
ARM GAS  C:\Users\Xuleo\AppData\Local\Temp\cc36HbNt.s 			page 3


  90:./Application/Src/ILI9341.c ****     {0x38,0x44,0x44,0x44,0x38}, // o
  91:./Application/Src/ILI9341.c ****     {0x7C,0x14,0x14,0x14,0x08}, // p
  92:./Application/Src/ILI9341.c ****     {0x08,0x14,0x14,0x18,0x7C}, // q
  93:./Application/Src/ILI9341.c ****     {0x7C,0x08,0x04,0x04,0x08}, // r
  94:./Application/Src/ILI9341.c ****     {0x48,0x54,0x54,0x54,0x20}, // s
  95:./Application/Src/ILI9341.c ****     {0x04,0x3F,0x44,0x40,0x20}, // t
  96:./Application/Src/ILI9341.c ****     {0x3C,0x40,0x40,0x20,0x7C}, // u
  97:./Application/Src/ILI9341.c ****     {0x1C,0x20,0x40,0x20,0x1C}, // v
  98:./Application/Src/ILI9341.c ****     {0x3C,0x40,0x30,0x40,0x3C}, // w
  99:./Application/Src/ILI9341.c ****     {0x44,0x28,0x10,0x28,0x44}, // x
 100:./Application/Src/ILI9341.c ****     {0x0C,0x50,0x50,0x50,0x3C}, // y
 101:./Application/Src/ILI9341.c ****     {0x44,0x64,0x54,0x4C,0x44}, // z
 102:./Application/Src/ILI9341.c ****     {0x00,0x08,0x36,0x41,0x00}, // {
 103:./Application/Src/ILI9341.c ****     {0x00,0x00,0x7F,0x00,0x00}, // |
 104:./Application/Src/ILI9341.c ****     {0x00,0x41,0x36,0x08,0x00}, // }
 105:./Application/Src/ILI9341.c ****     {0x08,0x08,0x2A,0x1C,0x08}, // ~
 106:./Application/Src/ILI9341.c **** };
 107:./Application/Src/ILI9341.c **** 
 108:./Application/Src/ILI9341.c **** // Low-level SPI helpers - keep CS low during multi-byte sequences
 109:./Application/Src/ILI9341.c **** static void lcd_cmd(uint8_t cmd){
  27              		.loc 1 109 33 view -0
  28              		.cfi_startproc
  29              		@ args = 0, pretend = 0, frame = 8
  30              		@ frame_needed = 0, uses_anonymous_args = 0
  31              		.loc 1 109 33 is_stmt 0 view .LVU1
  32 0000 00B5     		push	{lr}
  33              	.LCFI0:
  34              		.cfi_def_cfa_offset 4
  35              		.cfi_offset 14, -4
  36 0002 83B0     		sub	sp, sp, #12
  37              	.LCFI1:
  38              		.cfi_def_cfa_offset 16
  39 0004 8DF80700 		strb	r0, [sp, #7]
 110:./Application/Src/ILI9341.c ****     CMD_MODE();
  40              		.loc 1 110 5 is_stmt 1 view .LVU2
  41 0008 0022     		movs	r2, #0
  42 000a 4FF48051 		mov	r1, #4096
  43 000e 0648     		ldr	r0, .L3
  44              	.LVL1:
  45              		.loc 1 110 5 is_stmt 0 view .LVU3
  46 0010 FFF7FEFF 		bl	HAL_GPIO_WritePin
  47              	.LVL2:
 111:./Application/Src/ILI9341.c ****     HAL_SPI_Transmit(&hspi1, &cmd, 1, 10);
  48              		.loc 1 111 5 is_stmt 1 view .LVU4
  49 0014 0A23     		movs	r3, #10
  50 0016 0122     		movs	r2, #1
  51 0018 0DF10701 		add	r1, sp, #7
  52 001c 0348     		ldr	r0, .L3+4
  53 001e FFF7FEFF 		bl	HAL_SPI_Transmit
  54              	.LVL3:
 112:./Application/Src/ILI9341.c **** }
  55              		.loc 1 112 1 is_stmt 0 view .LVU5
  56 0022 03B0     		add	sp, sp, #12
  57              	.LCFI2:
  58              		.cfi_def_cfa_offset 4
  59              		@ sp needed
  60 0024 00BD     		pop	{pc}
ARM GAS  C:\Users\Xuleo\AppData\Local\Temp\cc36HbNt.s 			page 4


  61              	.L4:
  62 0026 00BF     		.align	2
  63              	.L3:
  64 0028 00080140 		.word	1073809408
  65 002c 00000000 		.word	hspi1
  66              		.cfi_endproc
  67              	.LFE65:
  69              		.section	.text.lcd_data,"ax",%progbits
  70              		.align	1
  71              		.syntax unified
  72              		.thumb
  73              		.thumb_func
  75              	lcd_data:
  76              	.LVL4:
  77              	.LFB66:
 113:./Application/Src/ILI9341.c **** 
 114:./Application/Src/ILI9341.c **** static void lcd_data(uint8_t data){
  78              		.loc 1 114 35 is_stmt 1 view -0
  79              		.cfi_startproc
  80              		@ args = 0, pretend = 0, frame = 8
  81              		@ frame_needed = 0, uses_anonymous_args = 0
  82              		.loc 1 114 35 is_stmt 0 view .LVU7
  83 0000 00B5     		push	{lr}
  84              	.LCFI3:
  85              		.cfi_def_cfa_offset 4
  86              		.cfi_offset 14, -4
  87 0002 83B0     		sub	sp, sp, #12
  88              	.LCFI4:
  89              		.cfi_def_cfa_offset 16
  90 0004 8DF80700 		strb	r0, [sp, #7]
 115:./Application/Src/ILI9341.c ****     DATA_MODE();
  91              		.loc 1 115 5 is_stmt 1 view .LVU8
  92 0008 0122     		movs	r2, #1
  93 000a 4FF48051 		mov	r1, #4096
  94 000e 0648     		ldr	r0, .L7
  95              	.LVL5:
  96              		.loc 1 115 5 is_stmt 0 view .LVU9
  97 0010 FFF7FEFF 		bl	HAL_GPIO_WritePin
  98              	.LVL6:
 116:./Application/Src/ILI9341.c ****     HAL_SPI_Transmit(&hspi1, &data, 1, 10);
  99              		.loc 1 116 5 is_stmt 1 view .LVU10
 100 0014 0A23     		movs	r3, #10
 101 0016 0122     		movs	r2, #1
 102 0018 0DF10701 		add	r1, sp, #7
 103 001c 0348     		ldr	r0, .L7+4
 104 001e FFF7FEFF 		bl	HAL_SPI_Transmit
 105              	.LVL7:
 117:./Application/Src/ILI9341.c **** }
 106              		.loc 1 117 1 is_stmt 0 view .LVU11
 107 0022 03B0     		add	sp, sp, #12
 108              	.LCFI5:
 109              		.cfi_def_cfa_offset 4
 110              		@ sp needed
 111 0024 00BD     		pop	{pc}
 112              	.L8:
 113 0026 00BF     		.align	2
 114              	.L7:
ARM GAS  C:\Users\Xuleo\AppData\Local\Temp\cc36HbNt.s 			page 5


 115 0028 00080140 		.word	1073809408
 116 002c 00000000 		.word	hspi1
 117              		.cfi_endproc
 118              	.LFE66:
 120              		.section	.text.lcd_data_multi,"ax",%progbits
 121              		.align	1
 122              		.syntax unified
 123              		.thumb
 124              		.thumb_func
 126              	lcd_data_multi:
 127              	.LVL8:
 128              	.LFB67:
 118:./Application/Src/ILI9341.c **** 
 119:./Application/Src/ILI9341.c **** static void lcd_data_multi(uint8_t *data, uint16_t len){
 129              		.loc 1 119 56 is_stmt 1 view -0
 130              		.cfi_startproc
 131              		@ args = 0, pretend = 0, frame = 0
 132              		@ frame_needed = 0, uses_anonymous_args = 0
 133              		.loc 1 119 56 is_stmt 0 view .LVU13
 134 0000 38B5     		push	{r3, r4, r5, lr}
 135              	.LCFI6:
 136              		.cfi_def_cfa_offset 16
 137              		.cfi_offset 3, -16
 138              		.cfi_offset 4, -12
 139              		.cfi_offset 5, -8
 140              		.cfi_offset 14, -4
 141 0002 0546     		mov	r5, r0
 142 0004 0C46     		mov	r4, r1
 120:./Application/Src/ILI9341.c ****     DATA_MODE();
 143              		.loc 1 120 5 is_stmt 1 view .LVU14
 144 0006 0122     		movs	r2, #1
 145 0008 4FF48051 		mov	r1, #4096
 146              	.LVL9:
 147              		.loc 1 120 5 is_stmt 0 view .LVU15
 148 000c 0448     		ldr	r0, .L11
 149              	.LVL10:
 150              		.loc 1 120 5 view .LVU16
 151 000e FFF7FEFF 		bl	HAL_GPIO_WritePin
 152              	.LVL11:
 121:./Application/Src/ILI9341.c ****     HAL_SPI_Transmit(&hspi1, data, len, 100);
 153              		.loc 1 121 5 is_stmt 1 view .LVU17
 154 0012 6423     		movs	r3, #100
 155 0014 2246     		mov	r2, r4
 156 0016 2946     		mov	r1, r5
 157 0018 0248     		ldr	r0, .L11+4
 158 001a FFF7FEFF 		bl	HAL_SPI_Transmit
 159              	.LVL12:
 122:./Application/Src/ILI9341.c **** }
 160              		.loc 1 122 1 is_stmt 0 view .LVU18
 161 001e 38BD     		pop	{r3, r4, r5, pc}
 162              	.LVL13:
 163              	.L12:
 164              		.loc 1 122 1 view .LVU19
 165              		.align	2
 166              	.L11:
 167 0020 00080140 		.word	1073809408
 168 0024 00000000 		.word	hspi1
ARM GAS  C:\Users\Xuleo\AppData\Local\Temp\cc36HbNt.s 			page 6


 169              		.cfi_endproc
 170              	.LFE67:
 172              		.section	.text.LcdWriteCmd,"ax",%progbits
 173              		.align	1
 174              		.global	LcdWriteCmd
 175              		.syntax unified
 176              		.thumb
 177              		.thumb_func
 179              	LcdWriteCmd:
 180              	.LVL14:
 181              	.LFB68:
 123:./Application/Src/ILI9341.c **** 
 124:./Application/Src/ILI9341.c **** void LcdWriteCmd(uint8_t cmd){
 182              		.loc 1 124 30 is_stmt 1 view -0
 183              		.cfi_startproc
 184              		@ args = 0, pretend = 0, frame = 0
 185              		@ frame_needed = 0, uses_anonymous_args = 0
 186              		.loc 1 124 30 is_stmt 0 view .LVU21
 187 0000 38B5     		push	{r3, r4, r5, lr}
 188              	.LCFI7:
 189              		.cfi_def_cfa_offset 16
 190              		.cfi_offset 3, -16
 191              		.cfi_offset 4, -12
 192              		.cfi_offset 5, -8
 193              		.cfi_offset 14, -4
 194 0002 0546     		mov	r5, r0
 125:./Application/Src/ILI9341.c ****     SELECT_LCD();
 195              		.loc 1 125 5 is_stmt 1 view .LVU22
 196 0004 084C     		ldr	r4, .L15
 197 0006 0022     		movs	r2, #0
 198 0008 4FF40061 		mov	r1, #2048
 199 000c 2046     		mov	r0, r4
 200              	.LVL15:
 201              		.loc 1 125 5 is_stmt 0 view .LVU23
 202 000e FFF7FEFF 		bl	HAL_GPIO_WritePin
 203              	.LVL16:
 126:./Application/Src/ILI9341.c ****     lcd_cmd(cmd);
 204              		.loc 1 126 5 is_stmt 1 view .LVU24
 205 0012 2846     		mov	r0, r5
 206 0014 FFF7FEFF 		bl	lcd_cmd
 207              	.LVL17:
 127:./Application/Src/ILI9341.c ****     UNSELECT_LCD();
 208              		.loc 1 127 5 view .LVU25
 209 0018 0122     		movs	r2, #1
 210 001a 4FF40061 		mov	r1, #2048
 211 001e 2046     		mov	r0, r4
 212 0020 FFF7FEFF 		bl	HAL_GPIO_WritePin
 213              	.LVL18:
 128:./Application/Src/ILI9341.c **** }
 214              		.loc 1 128 1 is_stmt 0 view .LVU26
 215 0024 38BD     		pop	{r3, r4, r5, pc}
 216              	.LVL19:
 217              	.L16:
 218              		.loc 1 128 1 view .LVU27
 219 0026 00BF     		.align	2
 220              	.L15:
 221 0028 00080140 		.word	1073809408
ARM GAS  C:\Users\Xuleo\AppData\Local\Temp\cc36HbNt.s 			page 7


 222              		.cfi_endproc
 223              	.LFE68:
 225              		.section	.text.LcdWriteData,"ax",%progbits
 226              		.align	1
 227              		.global	LcdWriteData
 228              		.syntax unified
 229              		.thumb
 230              		.thumb_func
 232              	LcdWriteData:
 233              	.LVL20:
 234              	.LFB69:
 129:./Application/Src/ILI9341.c **** 
 130:./Application/Src/ILI9341.c **** void LcdWriteData(uint8_t data){
 235              		.loc 1 130 32 is_stmt 1 view -0
 236              		.cfi_startproc
 237              		@ args = 0, pretend = 0, frame = 0
 238              		@ frame_needed = 0, uses_anonymous_args = 0
 239              		.loc 1 130 32 is_stmt 0 view .LVU29
 240 0000 38B5     		push	{r3, r4, r5, lr}
 241              	.LCFI8:
 242              		.cfi_def_cfa_offset 16
 243              		.cfi_offset 3, -16
 244              		.cfi_offset 4, -12
 245              		.cfi_offset 5, -8
 246              		.cfi_offset 14, -4
 247 0002 0546     		mov	r5, r0
 131:./Application/Src/ILI9341.c ****     SELECT_LCD();
 248              		.loc 1 131 5 is_stmt 1 view .LVU30
 249 0004 084C     		ldr	r4, .L19
 250 0006 0022     		movs	r2, #0
 251 0008 4FF40061 		mov	r1, #2048
 252 000c 2046     		mov	r0, r4
 253              	.LVL21:
 254              		.loc 1 131 5 is_stmt 0 view .LVU31
 255 000e FFF7FEFF 		bl	HAL_GPIO_WritePin
 256              	.LVL22:
 132:./Application/Src/ILI9341.c ****     lcd_data(data);
 257              		.loc 1 132 5 is_stmt 1 view .LVU32
 258 0012 2846     		mov	r0, r5
 259 0014 FFF7FEFF 		bl	lcd_data
 260              	.LVL23:
 133:./Application/Src/ILI9341.c ****     UNSELECT_LCD();
 261              		.loc 1 133 5 view .LVU33
 262 0018 0122     		movs	r2, #1
 263 001a 4FF40061 		mov	r1, #2048
 264 001e 2046     		mov	r0, r4
 265 0020 FFF7FEFF 		bl	HAL_GPIO_WritePin
 266              	.LVL24:
 134:./Application/Src/ILI9341.c **** }
 267              		.loc 1 134 1 is_stmt 0 view .LVU34
 268 0024 38BD     		pop	{r3, r4, r5, pc}
 269              	.LVL25:
 270              	.L20:
 271              		.loc 1 134 1 view .LVU35
 272 0026 00BF     		.align	2
 273              	.L19:
 274 0028 00080140 		.word	1073809408
ARM GAS  C:\Users\Xuleo\AppData\Local\Temp\cc36HbNt.s 			page 8


 275              		.cfi_endproc
 276              	.LFE69:
 278              		.section	.text.LcdSetWindow,"ax",%progbits
 279              		.align	1
 280              		.global	LcdSetWindow
 281              		.syntax unified
 282              		.thumb
 283              		.thumb_func
 285              	LcdSetWindow:
 286              	.LVL26:
 287              	.LFB71:
 135:./Application/Src/ILI9341.c **** 
 136:./Application/Src/ILI9341.c **** void LcdInit(void){
 137:./Application/Src/ILI9341.c ****     // hardware reset sequence (active low)
 138:./Application/Src/ILI9341.c ****     LCD_RST_HIGH();
 139:./Application/Src/ILI9341.c ****     HAL_Delay(5);
 140:./Application/Src/ILI9341.c ****     LCD_RST_LOW();
 141:./Application/Src/ILI9341.c ****     HAL_Delay(20);
 142:./Application/Src/ILI9341.c ****     LCD_RST_HIGH();
 143:./Application/Src/ILI9341.c ****     HAL_Delay(150);
 144:./Application/Src/ILI9341.c **** 
 145:./Application/Src/ILI9341.c ****     SELECT_LCD();
 146:./Application/Src/ILI9341.c **** 
 147:./Application/Src/ILI9341.c ****     // software reset
 148:./Application/Src/ILI9341.c ****     lcd_cmd(0x01);
 149:./Application/Src/ILI9341.c ****     UNSELECT_LCD();
 150:./Application/Src/ILI9341.c ****     HAL_Delay(150);
 151:./Application/Src/ILI9341.c ****     SELECT_LCD();
 152:./Application/Src/ILI9341.c **** 
 153:./Application/Src/ILI9341.c ****     // display off
 154:./Application/Src/ILI9341.c ****     lcd_cmd(0x28);
 155:./Application/Src/ILI9341.c **** 
 156:./Application/Src/ILI9341.c ****     // power control 1
 157:./Application/Src/ILI9341.c ****     lcd_cmd(0xC0);
 158:./Application/Src/ILI9341.c ****     lcd_data(0x23);
 159:./Application/Src/ILI9341.c **** 
 160:./Application/Src/ILI9341.c ****     // power control 2
 161:./Application/Src/ILI9341.c ****     lcd_cmd(0xC1);
 162:./Application/Src/ILI9341.c ****     lcd_data(0x10);
 163:./Application/Src/ILI9341.c **** 
 164:./Application/Src/ILI9341.c ****     // VCOM control 1
 165:./Application/Src/ILI9341.c ****     lcd_cmd(0xC5);
 166:./Application/Src/ILI9341.c ****     lcd_data(0x3E);
 167:./Application/Src/ILI9341.c ****     lcd_data(0x28);
 168:./Application/Src/ILI9341.c **** 
 169:./Application/Src/ILI9341.c ****     // VCOM control 2
 170:./Application/Src/ILI9341.c ****     lcd_cmd(0xC7);
 171:./Application/Src/ILI9341.c ****     lcd_data(0x86);
 172:./Application/Src/ILI9341.c **** 
 173:./Application/Src/ILI9341.c ****     // memory access control - 0x08 for portrait, BGR
 174:./Application/Src/ILI9341.c ****     lcd_cmd(0x36);
 175:./Application/Src/ILI9341.c ****     lcd_data(0x08);
 176:./Application/Src/ILI9341.c **** 
 177:./Application/Src/ILI9341.c ****     // pixel format 16-bit
 178:./Application/Src/ILI9341.c ****     lcd_cmd(0x3A);
 179:./Application/Src/ILI9341.c ****     lcd_data(0x55);
 180:./Application/Src/ILI9341.c **** 
ARM GAS  C:\Users\Xuleo\AppData\Local\Temp\cc36HbNt.s 			page 9


 181:./Application/Src/ILI9341.c ****     // frame rate control
 182:./Application/Src/ILI9341.c ****     lcd_cmd(0xB1);
 183:./Application/Src/ILI9341.c ****     lcd_data(0x00);
 184:./Application/Src/ILI9341.c ****     lcd_data(0x18);
 185:./Application/Src/ILI9341.c **** 
 186:./Application/Src/ILI9341.c ****     // display function control
 187:./Application/Src/ILI9341.c ****     lcd_cmd(0xB6);
 188:./Application/Src/ILI9341.c ****     lcd_data(0x08);
 189:./Application/Src/ILI9341.c ****     lcd_data(0x82);
 190:./Application/Src/ILI9341.c ****     lcd_data(0x27);
 191:./Application/Src/ILI9341.c **** 
 192:./Application/Src/ILI9341.c ****     // sleep out
 193:./Application/Src/ILI9341.c ****     lcd_cmd(0x11);
 194:./Application/Src/ILI9341.c ****     UNSELECT_LCD();
 195:./Application/Src/ILI9341.c ****     HAL_Delay(120);
 196:./Application/Src/ILI9341.c **** 
 197:./Application/Src/ILI9341.c ****     SELECT_LCD();
 198:./Application/Src/ILI9341.c ****     // display on
 199:./Application/Src/ILI9341.c ****     lcd_cmd(0x29);
 200:./Application/Src/ILI9341.c ****     UNSELECT_LCD();
 201:./Application/Src/ILI9341.c ****     HAL_Delay(50);
 202:./Application/Src/ILI9341.c **** 
 203:./Application/Src/ILI9341.c ****     // clear screen to black
 204:./Application/Src/ILI9341.c ****     LcdFillScreen(COLOR_BLACK);
 205:./Application/Src/ILI9341.c **** }
 206:./Application/Src/ILI9341.c **** 
 207:./Application/Src/ILI9341.c **** void LcdSetWindow(uint16_t x0, uint16_t y0, uint16_t x1, uint16_t y1){
 288              		.loc 1 207 70 is_stmt 1 view -0
 289              		.cfi_startproc
 290              		@ args = 0, pretend = 0, frame = 8
 291              		@ frame_needed = 0, uses_anonymous_args = 0
 292              		.loc 1 207 70 is_stmt 0 view .LVU37
 293 0000 F0B5     		push	{r4, r5, r6, r7, lr}
 294              	.LCFI9:
 295              		.cfi_def_cfa_offset 20
 296              		.cfi_offset 4, -20
 297              		.cfi_offset 5, -16
 298              		.cfi_offset 6, -12
 299              		.cfi_offset 7, -8
 300              		.cfi_offset 14, -4
 301 0002 83B0     		sub	sp, sp, #12
 302              	.LCFI10:
 303              		.cfi_def_cfa_offset 32
 304 0004 0746     		mov	r7, r0
 305 0006 0D46     		mov	r5, r1
 306 0008 1646     		mov	r6, r2
 307 000a 1C46     		mov	r4, r3
 208:./Application/Src/ILI9341.c ****     SELECT_LCD();
 308              		.loc 1 208 5 is_stmt 1 view .LVU38
 309 000c 0022     		movs	r2, #0
 310              	.LVL27:
 311              		.loc 1 208 5 is_stmt 0 view .LVU39
 312 000e 4FF40061 		mov	r1, #2048
 313              	.LVL28:
 314              		.loc 1 208 5 view .LVU40
 315 0012 1548     		ldr	r0, .L23
 316              	.LVL29:
ARM GAS  C:\Users\Xuleo\AppData\Local\Temp\cc36HbNt.s 			page 10


 317              		.loc 1 208 5 view .LVU41
 318 0014 FFF7FEFF 		bl	HAL_GPIO_WritePin
 319              	.LVL30:
 209:./Application/Src/ILI9341.c **** 
 210:./Application/Src/ILI9341.c ****     // column address set
 211:./Application/Src/ILI9341.c ****     lcd_cmd(0x2A);
 320              		.loc 1 211 5 is_stmt 1 view .LVU42
 321 0018 2A20     		movs	r0, #42
 322 001a FFF7FEFF 		bl	lcd_cmd
 323              	.LVL31:
 212:./Application/Src/ILI9341.c ****     uint8_t colData[4] = {x0 >> 8, x0 & 0xFF, x1 >> 8, x1 & 0xFF};
 324              		.loc 1 212 5 view .LVU43
 325              		.loc 1 212 13 is_stmt 0 view .LVU44
 326 001e 3B0A     		lsrs	r3, r7, #8
 327 0020 8DF80430 		strb	r3, [sp, #4]
 328 0024 8DF80570 		strb	r7, [sp, #5]
 329 0028 330A     		lsrs	r3, r6, #8
 330 002a 8DF80630 		strb	r3, [sp, #6]
 331 002e 8DF80760 		strb	r6, [sp, #7]
 213:./Application/Src/ILI9341.c ****     lcd_data_multi(colData, 4);
 332              		.loc 1 213 5 is_stmt 1 view .LVU45
 333 0032 0421     		movs	r1, #4
 334 0034 0DEB0100 		add	r0, sp, r1
 335 0038 FFF7FEFF 		bl	lcd_data_multi
 336              	.LVL32:
 214:./Application/Src/ILI9341.c **** 
 215:./Application/Src/ILI9341.c ****     // row address set
 216:./Application/Src/ILI9341.c ****     lcd_cmd(0x2B);
 337              		.loc 1 216 5 view .LVU46
 338 003c 2B20     		movs	r0, #43
 339 003e FFF7FEFF 		bl	lcd_cmd
 340              	.LVL33:
 217:./Application/Src/ILI9341.c ****     uint8_t rowData[4] = {y0 >> 8, y0 & 0xFF, y1 >> 8, y1 & 0xFF};
 341              		.loc 1 217 5 view .LVU47
 342              		.loc 1 217 13 is_stmt 0 view .LVU48
 343 0042 2B0A     		lsrs	r3, r5, #8
 344 0044 8DF80030 		strb	r3, [sp]
 345 0048 8DF80150 		strb	r5, [sp, #1]
 346 004c 230A     		lsrs	r3, r4, #8
 347 004e 8DF80230 		strb	r3, [sp, #2]
 348 0052 8DF80340 		strb	r4, [sp, #3]
 218:./Application/Src/ILI9341.c ****     lcd_data_multi(rowData, 4);
 349              		.loc 1 218 5 is_stmt 1 view .LVU49
 350 0056 0421     		movs	r1, #4
 351 0058 6846     		mov	r0, sp
 352 005a FFF7FEFF 		bl	lcd_data_multi
 353              	.LVL34:
 219:./Application/Src/ILI9341.c **** 
 220:./Application/Src/ILI9341.c ****     // memory write command
 221:./Application/Src/ILI9341.c ****     lcd_cmd(0x2C);
 354              		.loc 1 221 5 view .LVU50
 355 005e 2C20     		movs	r0, #44
 356 0060 FFF7FEFF 		bl	lcd_cmd
 357              	.LVL35:
 222:./Application/Src/ILI9341.c ****     // NOTE: CS stays LOW, caller sends pixel data then calls UNSELECT_LCD()
 223:./Application/Src/ILI9341.c **** }
 358              		.loc 1 223 1 is_stmt 0 view .LVU51
ARM GAS  C:\Users\Xuleo\AppData\Local\Temp\cc36HbNt.s 			page 11


 359 0064 03B0     		add	sp, sp, #12
 360              	.LCFI11:
 361              		.cfi_def_cfa_offset 20
 362              		@ sp needed
 363 0066 F0BD     		pop	{r4, r5, r6, r7, pc}
 364              	.LVL36:
 365              	.L24:
 366              		.loc 1 223 1 view .LVU52
 367              		.align	2
 368              	.L23:
 369 0068 00080140 		.word	1073809408
 370              		.cfi_endproc
 371              	.LFE71:
 373              		.section	.text.LcdFillScreen,"ax",%progbits
 374              		.align	1
 375              		.global	LcdFillScreen
 376              		.syntax unified
 377              		.thumb
 378              		.thumb_func
 380              	LcdFillScreen:
 381              	.LVL37:
 382              	.LFB72:
 224:./Application/Src/ILI9341.c **** 
 225:./Application/Src/ILI9341.c **** void LcdFillScreen(uint16_t color){
 383              		.loc 1 225 35 is_stmt 1 view -0
 384              		.cfi_startproc
 385              		@ args = 0, pretend = 0, frame = 8
 386              		@ frame_needed = 0, uses_anonymous_args = 0
 387              		.loc 1 225 35 is_stmt 0 view .LVU54
 388 0000 10B5     		push	{r4, lr}
 389              	.LCFI12:
 390              		.cfi_def_cfa_offset 8
 391              		.cfi_offset 4, -8
 392              		.cfi_offset 14, -4
 393 0002 82B0     		sub	sp, sp, #8
 394              	.LCFI13:
 395              		.cfi_def_cfa_offset 16
 396 0004 0446     		mov	r4, r0
 226:./Application/Src/ILI9341.c ****     LcdSetWindow(0, 0, LCD_WIDTH - 1, LCD_HEIGHT - 1);
 397              		.loc 1 226 5 is_stmt 1 view .LVU55
 398 0006 40F2F313 		movw	r3, #499
 399 000a EF22     		movs	r2, #239
 400 000c 0021     		movs	r1, #0
 401 000e 0846     		mov	r0, r1
 402              	.LVL38:
 403              		.loc 1 226 5 is_stmt 0 view .LVU56
 404 0010 FFF7FEFF 		bl	LcdSetWindow
 405              	.LVL39:
 227:./Application/Src/ILI9341.c ****     // CS is already LOW from LcdSetWindow
 228:./Application/Src/ILI9341.c **** 
 229:./Application/Src/ILI9341.c ****     uint8_t data[2] = {color >> 8, color & 0xFF};
 406              		.loc 1 229 5 is_stmt 1 view .LVU57
 407              		.loc 1 229 13 is_stmt 0 view .LVU58
 408 0014 230A     		lsrs	r3, r4, #8
 409 0016 8DF80430 		strb	r3, [sp, #4]
 410 001a 8DF80540 		strb	r4, [sp, #5]
 230:./Application/Src/ILI9341.c **** 
ARM GAS  C:\Users\Xuleo\AppData\Local\Temp\cc36HbNt.s 			page 12


 231:./Application/Src/ILI9341.c ****     DATA_MODE();
 411              		.loc 1 231 5 is_stmt 1 view .LVU59
 412 001e 0122     		movs	r2, #1
 413 0020 4FF48051 		mov	r1, #4096
 414 0024 0B48     		ldr	r0, .L29
 415 0026 FFF7FEFF 		bl	HAL_GPIO_WritePin
 416              	.LVL40:
 232:./Application/Src/ILI9341.c ****     // send pixel by pixel 
 233:./Application/Src/ILI9341.c ****     for(uint32_t i = 0; i < (uint32_t)LCD_WIDTH * LCD_HEIGHT; i++){
 417              		.loc 1 233 5 view .LVU60
 418              	.LBB2:
 419              		.loc 1 233 9 view .LVU61
 420              		.loc 1 233 18 is_stmt 0 view .LVU62
 421 002a 0024     		movs	r4, #0
 422              	.LVL41:
 423              		.loc 1 233 5 view .LVU63
 424 002c 07E0     		b	.L26
 425              	.LVL42:
 426              	.L27:
 234:./Application/Src/ILI9341.c ****         HAL_SPI_Transmit(&hspi1, data, 2, HAL_MAX_DELAY);
 427              		.loc 1 234 9 is_stmt 1 view .LVU64
 428 002e 4FF0FF33 		mov	r3, #-1
 429 0032 0222     		movs	r2, #2
 430 0034 01A9     		add	r1, sp, #4
 431 0036 0848     		ldr	r0, .L29+4
 432 0038 FFF7FEFF 		bl	HAL_SPI_Transmit
 433              	.LVL43:
 233:./Application/Src/ILI9341.c ****         HAL_SPI_Transmit(&hspi1, data, 2, HAL_MAX_DELAY);
 434              		.loc 1 233 64 discriminator 3 view .LVU65
 435 003c 0134     		adds	r4, r4, #1
 436              	.LVL44:
 437              	.L26:
 233:./Application/Src/ILI9341.c ****         HAL_SPI_Transmit(&hspi1, data, 2, HAL_MAX_DELAY);
 438              		.loc 1 233 27 discriminator 1 view .LVU66
 439 003e 074B     		ldr	r3, .L29+8
 440 0040 9C42     		cmp	r4, r3
 441 0042 F4D9     		bls	.L27
 442              	.LBE2:
 235:./Application/Src/ILI9341.c ****     }
 236:./Application/Src/ILI9341.c ****     UNSELECT_LCD();
 443              		.loc 1 236 5 view .LVU67
 444 0044 0122     		movs	r2, #1
 445 0046 4FF40061 		mov	r1, #2048
 446 004a 0248     		ldr	r0, .L29
 447 004c FFF7FEFF 		bl	HAL_GPIO_WritePin
 448              	.LVL45:
 237:./Application/Src/ILI9341.c **** }
 449              		.loc 1 237 1 is_stmt 0 view .LVU68
 450 0050 02B0     		add	sp, sp, #8
 451              	.LCFI14:
 452              		.cfi_def_cfa_offset 8
 453              		@ sp needed
 454 0052 10BD     		pop	{r4, pc}
 455              	.LVL46:
 456              	.L30:
 457              		.loc 1 237 1 view .LVU69
 458              		.align	2
ARM GAS  C:\Users\Xuleo\AppData\Local\Temp\cc36HbNt.s 			page 13


 459              	.L29:
 460 0054 00080140 		.word	1073809408
 461 0058 00000000 		.word	hspi1
 462 005c BFD40100 		.word	119999
 463              		.cfi_endproc
 464              	.LFE72:
 466              		.section	.text.LcdInit,"ax",%progbits
 467              		.align	1
 468              		.global	LcdInit
 469              		.syntax unified
 470              		.thumb
 471              		.thumb_func
 473              	LcdInit:
 474              	.LFB70:
 136:./Application/Src/ILI9341.c ****     // hardware reset sequence (active low)
 475              		.loc 1 136 19 is_stmt 1 view -0
 476              		.cfi_startproc
 477              		@ args = 0, pretend = 0, frame = 0
 478              		@ frame_needed = 0, uses_anonymous_args = 0
 479 0000 10B5     		push	{r4, lr}
 480              	.LCFI15:
 481              		.cfi_def_cfa_offset 8
 482              		.cfi_offset 4, -8
 483              		.cfi_offset 14, -4
 138:./Application/Src/ILI9341.c ****     HAL_Delay(5);
 484              		.loc 1 138 5 view .LVU71
 485 0002 4A4C     		ldr	r4, .L33
 486 0004 0122     		movs	r2, #1
 487 0006 4FF40041 		mov	r1, #32768
 488 000a 2046     		mov	r0, r4
 489 000c FFF7FEFF 		bl	HAL_GPIO_WritePin
 490              	.LVL47:
 139:./Application/Src/ILI9341.c ****     LCD_RST_LOW();
 491              		.loc 1 139 5 view .LVU72
 492 0010 0520     		movs	r0, #5
 493 0012 FFF7FEFF 		bl	HAL_Delay
 494              	.LVL48:
 140:./Application/Src/ILI9341.c ****     HAL_Delay(20);
 495              		.loc 1 140 5 view .LVU73
 496 0016 0022     		movs	r2, #0
 497 0018 4FF40041 		mov	r1, #32768
 498 001c 2046     		mov	r0, r4
 499 001e FFF7FEFF 		bl	HAL_GPIO_WritePin
 500              	.LVL49:
 141:./Application/Src/ILI9341.c ****     LCD_RST_HIGH();
 501              		.loc 1 141 5 view .LVU74
 502 0022 1420     		movs	r0, #20
 503 0024 FFF7FEFF 		bl	HAL_Delay
 504              	.LVL50:
 142:./Application/Src/ILI9341.c ****     HAL_Delay(150);
 505              		.loc 1 142 5 view .LVU75
 506 0028 0122     		movs	r2, #1
 507 002a 4FF40041 		mov	r1, #32768
 508 002e 2046     		mov	r0, r4
 509 0030 FFF7FEFF 		bl	HAL_GPIO_WritePin
 510              	.LVL51:
 143:./Application/Src/ILI9341.c **** 
ARM GAS  C:\Users\Xuleo\AppData\Local\Temp\cc36HbNt.s 			page 14


 511              		.loc 1 143 5 view .LVU76
 512 0034 9620     		movs	r0, #150
 513 0036 FFF7FEFF 		bl	HAL_Delay
 514              	.LVL52:
 145:./Application/Src/ILI9341.c **** 
 515              		.loc 1 145 5 view .LVU77
 516 003a 0022     		movs	r2, #0
 517 003c 4FF40061 		mov	r1, #2048
 518 0040 2046     		mov	r0, r4
 519 0042 FFF7FEFF 		bl	HAL_GPIO_WritePin
 520              	.LVL53:
 148:./Application/Src/ILI9341.c ****     UNSELECT_LCD();
 521              		.loc 1 148 5 view .LVU78
 522 0046 0120     		movs	r0, #1
 523 0048 FFF7FEFF 		bl	lcd_cmd
 524              	.LVL54:
 149:./Application/Src/ILI9341.c ****     HAL_Delay(150);
 525              		.loc 1 149 5 view .LVU79
 526 004c 0122     		movs	r2, #1
 527 004e 4FF40061 		mov	r1, #2048
 528 0052 2046     		mov	r0, r4
 529 0054 FFF7FEFF 		bl	HAL_GPIO_WritePin
 530              	.LVL55:
 150:./Application/Src/ILI9341.c ****     SELECT_LCD();
 531              		.loc 1 150 5 view .LVU80
 532 0058 9620     		movs	r0, #150
 533 005a FFF7FEFF 		bl	HAL_Delay
 534              	.LVL56:
 151:./Application/Src/ILI9341.c **** 
 535              		.loc 1 151 5 view .LVU81
 536 005e 0022     		movs	r2, #0
 537 0060 4FF40061 		mov	r1, #2048
 538 0064 2046     		mov	r0, r4
 539 0066 FFF7FEFF 		bl	HAL_GPIO_WritePin
 540              	.LVL57:
 154:./Application/Src/ILI9341.c **** 
 541              		.loc 1 154 5 view .LVU82
 542 006a 2820     		movs	r0, #40
 543 006c FFF7FEFF 		bl	lcd_cmd
 544              	.LVL58:
 157:./Application/Src/ILI9341.c ****     lcd_data(0x23);
 545              		.loc 1 157 5 view .LVU83
 546 0070 C020     		movs	r0, #192
 547 0072 FFF7FEFF 		bl	lcd_cmd
 548              	.LVL59:
 158:./Application/Src/ILI9341.c **** 
 549              		.loc 1 158 5 view .LVU84
 550 0076 2320     		movs	r0, #35
 551 0078 FFF7FEFF 		bl	lcd_data
 552              	.LVL60:
 161:./Application/Src/ILI9341.c ****     lcd_data(0x10);
 553              		.loc 1 161 5 view .LVU85
 554 007c C120     		movs	r0, #193
 555 007e FFF7FEFF 		bl	lcd_cmd
 556              	.LVL61:
 162:./Application/Src/ILI9341.c **** 
 557              		.loc 1 162 5 view .LVU86
ARM GAS  C:\Users\Xuleo\AppData\Local\Temp\cc36HbNt.s 			page 15


 558 0082 1020     		movs	r0, #16
 559 0084 FFF7FEFF 		bl	lcd_data
 560              	.LVL62:
 165:./Application/Src/ILI9341.c ****     lcd_data(0x3E);
 561              		.loc 1 165 5 view .LVU87
 562 0088 C520     		movs	r0, #197
 563 008a FFF7FEFF 		bl	lcd_cmd
 564              	.LVL63:
 166:./Application/Src/ILI9341.c ****     lcd_data(0x28);
 565              		.loc 1 166 5 view .LVU88
 566 008e 3E20     		movs	r0, #62
 567 0090 FFF7FEFF 		bl	lcd_data
 568              	.LVL64:
 167:./Application/Src/ILI9341.c **** 
 569              		.loc 1 167 5 view .LVU89
 570 0094 2820     		movs	r0, #40
 571 0096 FFF7FEFF 		bl	lcd_data
 572              	.LVL65:
 170:./Application/Src/ILI9341.c ****     lcd_data(0x86);
 573              		.loc 1 170 5 view .LVU90
 574 009a C720     		movs	r0, #199
 575 009c FFF7FEFF 		bl	lcd_cmd
 576              	.LVL66:
 171:./Application/Src/ILI9341.c **** 
 577              		.loc 1 171 5 view .LVU91
 578 00a0 8620     		movs	r0, #134
 579 00a2 FFF7FEFF 		bl	lcd_data
 580              	.LVL67:
 174:./Application/Src/ILI9341.c ****     lcd_data(0x08);
 581              		.loc 1 174 5 view .LVU92
 582 00a6 3620     		movs	r0, #54
 583 00a8 FFF7FEFF 		bl	lcd_cmd
 584              	.LVL68:
 175:./Application/Src/ILI9341.c **** 
 585              		.loc 1 175 5 view .LVU93
 586 00ac 0820     		movs	r0, #8
 587 00ae FFF7FEFF 		bl	lcd_data
 588              	.LVL69:
 178:./Application/Src/ILI9341.c ****     lcd_data(0x55);
 589              		.loc 1 178 5 view .LVU94
 590 00b2 3A20     		movs	r0, #58
 591 00b4 FFF7FEFF 		bl	lcd_cmd
 592              	.LVL70:
 179:./Application/Src/ILI9341.c **** 
 593              		.loc 1 179 5 view .LVU95
 594 00b8 5520     		movs	r0, #85
 595 00ba FFF7FEFF 		bl	lcd_data
 596              	.LVL71:
 182:./Application/Src/ILI9341.c ****     lcd_data(0x00);
 597              		.loc 1 182 5 view .LVU96
 598 00be B120     		movs	r0, #177
 599 00c0 FFF7FEFF 		bl	lcd_cmd
 600              	.LVL72:
 183:./Application/Src/ILI9341.c ****     lcd_data(0x18);
 601              		.loc 1 183 5 view .LVU97
 602 00c4 0020     		movs	r0, #0
 603 00c6 FFF7FEFF 		bl	lcd_data
ARM GAS  C:\Users\Xuleo\AppData\Local\Temp\cc36HbNt.s 			page 16


 604              	.LVL73:
 184:./Application/Src/ILI9341.c **** 
 605              		.loc 1 184 5 view .LVU98
 606 00ca 1820     		movs	r0, #24
 607 00cc FFF7FEFF 		bl	lcd_data
 608              	.LVL74:
 187:./Application/Src/ILI9341.c ****     lcd_data(0x08);
 609              		.loc 1 187 5 view .LVU99
 610 00d0 B620     		movs	r0, #182
 611 00d2 FFF7FEFF 		bl	lcd_cmd
 612              	.LVL75:
 188:./Application/Src/ILI9341.c ****     lcd_data(0x82);
 613              		.loc 1 188 5 view .LVU100
 614 00d6 0820     		movs	r0, #8
 615 00d8 FFF7FEFF 		bl	lcd_data
 616              	.LVL76:
 189:./Application/Src/ILI9341.c ****     lcd_data(0x27);
 617              		.loc 1 189 5 view .LVU101
 618 00dc 8220     		movs	r0, #130
 619 00de FFF7FEFF 		bl	lcd_data
 620              	.LVL77:
 190:./Application/Src/ILI9341.c **** 
 621              		.loc 1 190 5 view .LVU102
 622 00e2 2720     		movs	r0, #39
 623 00e4 FFF7FEFF 		bl	lcd_data
 624              	.LVL78:
 193:./Application/Src/ILI9341.c ****     UNSELECT_LCD();
 625              		.loc 1 193 5 view .LVU103
 626 00e8 1120     		movs	r0, #17
 627 00ea FFF7FEFF 		bl	lcd_cmd
 628              	.LVL79:
 194:./Application/Src/ILI9341.c ****     HAL_Delay(120);
 629              		.loc 1 194 5 view .LVU104
 630 00ee 0122     		movs	r2, #1
 631 00f0 4FF40061 		mov	r1, #2048
 632 00f4 2046     		mov	r0, r4
 633 00f6 FFF7FEFF 		bl	HAL_GPIO_WritePin
 634              	.LVL80:
 195:./Application/Src/ILI9341.c **** 
 635              		.loc 1 195 5 view .LVU105
 636 00fa 7820     		movs	r0, #120
 637 00fc FFF7FEFF 		bl	HAL_Delay
 638              	.LVL81:
 197:./Application/Src/ILI9341.c ****     // display on
 639              		.loc 1 197 5 view .LVU106
 640 0100 0022     		movs	r2, #0
 641 0102 4FF40061 		mov	r1, #2048
 642 0106 2046     		mov	r0, r4
 643 0108 FFF7FEFF 		bl	HAL_GPIO_WritePin
 644              	.LVL82:
 199:./Application/Src/ILI9341.c ****     UNSELECT_LCD();
 645              		.loc 1 199 5 view .LVU107
 646 010c 2920     		movs	r0, #41
 647 010e FFF7FEFF 		bl	lcd_cmd
 648              	.LVL83:
 200:./Application/Src/ILI9341.c ****     HAL_Delay(50);
 649              		.loc 1 200 5 view .LVU108
ARM GAS  C:\Users\Xuleo\AppData\Local\Temp\cc36HbNt.s 			page 17


 650 0112 0122     		movs	r2, #1
 651 0114 4FF40061 		mov	r1, #2048
 652 0118 2046     		mov	r0, r4
 653 011a FFF7FEFF 		bl	HAL_GPIO_WritePin
 654              	.LVL84:
 201:./Application/Src/ILI9341.c **** 
 655              		.loc 1 201 5 view .LVU109
 656 011e 3220     		movs	r0, #50
 657 0120 FFF7FEFF 		bl	HAL_Delay
 658              	.LVL85:
 204:./Application/Src/ILI9341.c **** }
 659              		.loc 1 204 5 view .LVU110
 660 0124 0020     		movs	r0, #0
 661 0126 FFF7FEFF 		bl	LcdFillScreen
 662              	.LVL86:
 205:./Application/Src/ILI9341.c **** 
 663              		.loc 1 205 1 is_stmt 0 view .LVU111
 664 012a 10BD     		pop	{r4, pc}
 665              	.L34:
 666              		.align	2
 667              	.L33:
 668 012c 00080140 		.word	1073809408
 669              		.cfi_endproc
 670              	.LFE70:
 672              		.section	.text.LcdDrawPixel,"ax",%progbits
 673              		.align	1
 674              		.global	LcdDrawPixel
 675              		.syntax unified
 676              		.thumb
 677              		.thumb_func
 679              	LcdDrawPixel:
 680              	.LVL87:
 681              	.LFB73:
 238:./Application/Src/ILI9341.c **** 
 239:./Application/Src/ILI9341.c **** void LcdDrawPixel(uint16_t x, uint16_t y, uint16_t color){
 682              		.loc 1 239 58 is_stmt 1 view -0
 683              		.cfi_startproc
 684              		@ args = 0, pretend = 0, frame = 8
 685              		@ frame_needed = 0, uses_anonymous_args = 0
 240:./Application/Src/ILI9341.c ****     if(x >= LCD_WIDTH || y >= LCD_HEIGHT) return;
 686              		.loc 1 240 5 view .LVU113
 687              		.loc 1 240 7 is_stmt 0 view .LVU114
 688 0000 EF28     		cmp	r0, #239
 689 0002 1BD8     		bhi	.L40
 239:./Application/Src/ILI9341.c ****     if(x >= LCD_WIDTH || y >= LCD_HEIGHT) return;
 690              		.loc 1 239 58 view .LVU115
 691 0004 10B5     		push	{r4, lr}
 692              	.LCFI16:
 693              		.cfi_def_cfa_offset 8
 694              		.cfi_offset 4, -8
 695              		.cfi_offset 14, -4
 696 0006 82B0     		sub	sp, sp, #8
 697              	.LCFI17:
 698              		.cfi_def_cfa_offset 16
 699 0008 1446     		mov	r4, r2
 700              		.loc 1 240 23 discriminator 2 view .LVU116
 701 000a B1F5FA7F 		cmp	r1, #500
ARM GAS  C:\Users\Xuleo\AppData\Local\Temp\cc36HbNt.s 			page 18


 702 000e 01D3     		bcc	.L43
 703              	.LVL88:
 704              	.L35:
 241:./Application/Src/ILI9341.c **** 
 242:./Application/Src/ILI9341.c ****     LcdSetWindow(x, y, x, y);
 243:./Application/Src/ILI9341.c ****     // CS is LOW from LcdSetWindow
 244:./Application/Src/ILI9341.c ****     uint8_t data[2] = {color >> 8, color & 0xFF};
 245:./Application/Src/ILI9341.c ****     lcd_data_multi(data, 2);
 246:./Application/Src/ILI9341.c ****     UNSELECT_LCD();
 247:./Application/Src/ILI9341.c **** }
 705              		.loc 1 247 1 view .LVU117
 706 0010 02B0     		add	sp, sp, #8
 707              	.LCFI18:
 708              		.cfi_remember_state
 709              		.cfi_def_cfa_offset 8
 710              		@ sp needed
 711 0012 10BD     		pop	{r4, pc}
 712              	.LVL89:
 713              	.L43:
 714              	.LCFI19:
 715              		.cfi_restore_state
 242:./Application/Src/ILI9341.c ****     // CS is LOW from LcdSetWindow
 716              		.loc 1 242 5 is_stmt 1 view .LVU118
 717 0014 0B46     		mov	r3, r1
 718 0016 0246     		mov	r2, r0
 719              	.LVL90:
 242:./Application/Src/ILI9341.c ****     // CS is LOW from LcdSetWindow
 720              		.loc 1 242 5 is_stmt 0 view .LVU119
 721 0018 FFF7FEFF 		bl	LcdSetWindow
 722              	.LVL91:
 244:./Application/Src/ILI9341.c ****     lcd_data_multi(data, 2);
 723              		.loc 1 244 5 is_stmt 1 view .LVU120
 244:./Application/Src/ILI9341.c ****     lcd_data_multi(data, 2);
 724              		.loc 1 244 13 is_stmt 0 view .LVU121
 725 001c 230A     		lsrs	r3, r4, #8
 726 001e 8DF80430 		strb	r3, [sp, #4]
 727 0022 8DF80540 		strb	r4, [sp, #5]
 245:./Application/Src/ILI9341.c ****     UNSELECT_LCD();
 728              		.loc 1 245 5 is_stmt 1 view .LVU122
 729 0026 0221     		movs	r1, #2
 730 0028 01A8     		add	r0, sp, #4
 731 002a FFF7FEFF 		bl	lcd_data_multi
 732              	.LVL92:
 246:./Application/Src/ILI9341.c **** }
 733              		.loc 1 246 5 view .LVU123
 734 002e 0122     		movs	r2, #1
 735 0030 4FF40061 		mov	r1, #2048
 736 0034 0248     		ldr	r0, .L44
 737 0036 FFF7FEFF 		bl	HAL_GPIO_WritePin
 738              	.LVL93:
 739 003a E9E7     		b	.L35
 740              	.LVL94:
 741              	.L40:
 742              	.LCFI20:
 743              		.cfi_def_cfa_offset 0
 744              		.cfi_restore 4
 745              		.cfi_restore 14
ARM GAS  C:\Users\Xuleo\AppData\Local\Temp\cc36HbNt.s 			page 19


 246:./Application/Src/ILI9341.c **** }
 746              		.loc 1 246 5 is_stmt 0 view .LVU124
 747 003c 7047     		bx	lr
 748              	.L45:
 749 003e 00BF     		.align	2
 750              	.L44:
 751 0040 00080140 		.word	1073809408
 752              		.cfi_endproc
 753              	.LFE73:
 755              		.section	.text.LcdDrawChar,"ax",%progbits
 756              		.align	1
 757              		.global	LcdDrawChar
 758              		.syntax unified
 759              		.thumb
 760              		.thumb_func
 762              	LcdDrawChar:
 763              	.LVL95:
 764              	.LFB74:
 248:./Application/Src/ILI9341.c **** 
 249:./Application/Src/ILI9341.c **** void LcdDrawChar(uint16_t x, uint16_t y, char c, uint16_t color, uint16_t bg){
 765              		.loc 1 249 78 is_stmt 1 view -0
 766              		.cfi_startproc
 767              		@ args = 4, pretend = 0, frame = 8
 768              		@ frame_needed = 0, uses_anonymous_args = 0
 769              		.loc 1 249 78 is_stmt 0 view .LVU126
 770 0000 2DE9F047 		push	{r4, r5, r6, r7, r8, r9, r10, lr}
 771              	.LCFI21:
 772              		.cfi_def_cfa_offset 32
 773              		.cfi_offset 4, -32
 774              		.cfi_offset 5, -28
 775              		.cfi_offset 6, -24
 776              		.cfi_offset 7, -20
 777              		.cfi_offset 8, -16
 778              		.cfi_offset 9, -12
 779              		.cfi_offset 10, -8
 780              		.cfi_offset 14, -4
 781 0004 82B0     		sub	sp, sp, #8
 782              	.LCFI22:
 783              		.cfi_def_cfa_offset 40
 784 0006 9946     		mov	r9, r3
 785 0008 BDF82870 		ldrh	r7, [sp, #40]
 250:./Application/Src/ILI9341.c ****     if(c < 32 || c > 126) c = '?';
 786              		.loc 1 250 5 is_stmt 1 view .LVU127
 787              		.loc 1 250 15 is_stmt 0 view .LVU128
 788 000c A2F12003 		sub	r3, r2, #32
 789              	.LVL96:
 790              		.loc 1 250 15 view .LVU129
 791 0010 DBB2     		uxtb	r3, r3
 792              		.loc 1 250 7 view .LVU130
 793 0012 5E2B     		cmp	r3, #94
 794 0014 00D9     		bls	.L47
 795              		.loc 1 250 29 discriminator 1 view .LVU131
 796 0016 3F22     		movs	r2, #63
 797              	.LVL97:
 798              	.L47:
 251:./Application/Src/ILI9341.c **** 
 252:./Application/Src/ILI9341.c ****     const uint8_t *glyph = font5x7[c - 32];
ARM GAS  C:\Users\Xuleo\AppData\Local\Temp\cc36HbNt.s 			page 20


 799              		.loc 1 252 5 is_stmt 1 view .LVU132
 800              		.loc 1 252 38 is_stmt 0 view .LVU133
 801 0018 203A     		subs	r2, r2, #32
 802              	.LVL98:
 803              		.loc 1 252 20 view .LVU134
 804 001a 02EB8202 		add	r2, r2, r2, lsl #2
 805              	.LVL99:
 806              		.loc 1 252 20 view .LVU135
 807 001e 204E     		ldr	r6, .L58
 808 0020 1644     		add	r6, r6, r2
 809              	.LVL100:
 253:./Application/Src/ILI9341.c **** 
 254:./Application/Src/ILI9341.c ****     // draw character using a window for better performance
 255:./Application/Src/ILI9341.c ****     LcdSetWindow(x, y, x + 5, y + 6);
 810              		.loc 1 255 5 is_stmt 1 view .LVU136
 811 0022 8B1D     		adds	r3, r1, #6
 812 0024 421D     		adds	r2, r0, #5
 813 0026 9BB2     		uxth	r3, r3
 814 0028 92B2     		uxth	r2, r2
 815 002a FFF7FEFF 		bl	LcdSetWindow
 816              	.LVL101:
 256:./Application/Src/ILI9341.c ****     DATA_MODE();
 817              		.loc 1 256 5 view .LVU137
 818 002e 0122     		movs	r2, #1
 819 0030 4FF48051 		mov	r1, #4096
 820 0034 1B48     		ldr	r0, .L58+4
 821 0036 FFF7FEFF 		bl	HAL_GPIO_WritePin
 822              	.LVL102:
 257:./Application/Src/ILI9341.c **** 
 258:./Application/Src/ILI9341.c ****     uint8_t colorHi = color >> 8;
 823              		.loc 1 258 5 view .LVU138
 824              		.loc 1 258 13 is_stmt 0 view .LVU139
 825 003a 4FEA192A 		lsr	r10, r9, #8
 826              	.LVL103:
 259:./Application/Src/ILI9341.c ****     uint8_t colorLo = color & 0xFF;
 827              		.loc 1 259 5 is_stmt 1 view .LVU140
 828              		.loc 1 259 13 is_stmt 0 view .LVU141
 829 003e 5FFA89F9 		uxtb	r9, r9
 830              	.LVL104:
 260:./Application/Src/ILI9341.c ****     uint8_t bgHi = bg >> 8;
 831              		.loc 1 260 5 is_stmt 1 view .LVU142
 832              		.loc 1 260 13 is_stmt 0 view .LVU143
 833 0042 4FEA1728 		lsr	r8, r7, #8
 834              	.LVL105:
 261:./Application/Src/ILI9341.c ****     uint8_t bgLo = bg & 0xFF;
 835              		.loc 1 261 5 is_stmt 1 view .LVU144
 836              		.loc 1 261 13 is_stmt 0 view .LVU145
 837 0046 FFB2     		uxtb	r7, r7
 838              	.LVL106:
 262:./Application/Src/ILI9341.c **** 
 263:./Application/Src/ILI9341.c ****     // font is 5 cols x 7 rows, plus 1 col spacing = 6x7 total
 264:./Application/Src/ILI9341.c ****     for(uint8_t row = 0; row < 7; row++){
 839              		.loc 1 264 5 is_stmt 1 view .LVU146
 840              	.LBB3:
 841              		.loc 1 264 9 view .LVU147
 842              		.loc 1 264 17 is_stmt 0 view .LVU148
 843 0048 0025     		movs	r5, #0
ARM GAS  C:\Users\Xuleo\AppData\Local\Temp\cc36HbNt.s 			page 21


 844              		.loc 1 264 5 view .LVU149
 845 004a 1BE0     		b	.L48
 846              	.LVL107:
 847              	.L49:
 848              	.LBB4:
 849              	.LBB5:
 265:./Application/Src/ILI9341.c ****         for(uint8_t col = 0; col < 6; col++){
 266:./Application/Src/ILI9341.c ****             uint8_t pixel[2];
 267:./Application/Src/ILI9341.c ****             if(col < 5 && (glyph[col] & (1 << row))){ // c5 used for char spacing, according to cha
 268:./Application/Src/ILI9341.c ****                 pixel[0] = colorHi;
 269:./Application/Src/ILI9341.c ****                 pixel[1] = colorLo;
 270:./Application/Src/ILI9341.c ****             } else {
 271:./Application/Src/ILI9341.c ****                 pixel[0] = bgHi;
 850              		.loc 1 271 17 is_stmt 1 view .LVU150
 851              		.loc 1 271 26 is_stmt 0 view .LVU151
 852 004c 8DF80480 		strb	r8, [sp, #4]
 272:./Application/Src/ILI9341.c ****                 pixel[1] = bgLo;
 853              		.loc 1 272 17 is_stmt 1 view .LVU152
 854              		.loc 1 272 26 is_stmt 0 view .LVU153
 855 0050 8DF80570 		strb	r7, [sp, #5]
 856              	.L50:
 273:./Application/Src/ILI9341.c ****             }
 274:./Application/Src/ILI9341.c ****             HAL_SPI_Transmit(&hspi1, pixel, 2, 10);
 857              		.loc 1 274 13 is_stmt 1 view .LVU154
 858 0054 0A23     		movs	r3, #10
 859 0056 0222     		movs	r2, #2
 860 0058 01A9     		add	r1, sp, #4
 861 005a 1348     		ldr	r0, .L58+8
 862 005c FFF7FEFF 		bl	HAL_SPI_Transmit
 863              	.LVL108:
 864              	.LBE5:
 265:./Application/Src/ILI9341.c ****             uint8_t pixel[2];
 865              		.loc 1 265 42 discriminator 2 view .LVU155
 866 0060 0134     		adds	r4, r4, #1
 867              	.LVL109:
 265:./Application/Src/ILI9341.c ****             uint8_t pixel[2];
 868              		.loc 1 265 42 is_stmt 0 discriminator 2 view .LVU156
 869 0062 E4B2     		uxtb	r4, r4
 870              	.LVL110:
 871              	.L52:
 265:./Application/Src/ILI9341.c ****             uint8_t pixel[2];
 872              		.loc 1 265 34 is_stmt 1 discriminator 1 view .LVU157
 873 0064 052C     		cmp	r4, #5
 874 0066 0BD8     		bhi	.L56
 875              	.LBB6:
 266:./Application/Src/ILI9341.c ****             if(col < 5 && (glyph[col] & (1 << row))){ // c5 used for char spacing, according to cha
 876              		.loc 1 266 13 view .LVU158
 267:./Application/Src/ILI9341.c ****                 pixel[0] = colorHi;
 877              		.loc 1 267 13 view .LVU159
 267:./Application/Src/ILI9341.c ****                 pixel[0] = colorHi;
 878              		.loc 1 267 15 is_stmt 0 view .LVU160
 879 0068 042C     		cmp	r4, #4
 880 006a EFD8     		bhi	.L49
 267:./Application/Src/ILI9341.c ****                 pixel[0] = colorHi;
 881              		.loc 1 267 33 discriminator 1 view .LVU161
 882 006c 325D     		ldrb	r2, [r6, r4]	@ zero_extendqisi2
 267:./Application/Src/ILI9341.c ****                 pixel[0] = colorHi;
ARM GAS  C:\Users\Xuleo\AppData\Local\Temp\cc36HbNt.s 			page 22


 883              		.loc 1 267 24 discriminator 1 view .LVU162
 884 006e 2A41     		asrs	r2, r2, r5
 885 0070 12F0010F 		tst	r2, #1
 886 0074 EAD0     		beq	.L49
 268:./Application/Src/ILI9341.c ****                 pixel[1] = colorLo;
 887              		.loc 1 268 17 is_stmt 1 view .LVU163
 268:./Application/Src/ILI9341.c ****                 pixel[1] = colorLo;
 888              		.loc 1 268 26 is_stmt 0 view .LVU164
 889 0076 8DF804A0 		strb	r10, [sp, #4]
 269:./Application/Src/ILI9341.c ****             } else {
 890              		.loc 1 269 17 is_stmt 1 view .LVU165
 269:./Application/Src/ILI9341.c ****             } else {
 891              		.loc 1 269 26 is_stmt 0 view .LVU166
 892 007a 8DF80590 		strb	r9, [sp, #5]
 893 007e E9E7     		b	.L50
 894              	.L56:
 269:./Application/Src/ILI9341.c ****             } else {
 895              		.loc 1 269 26 view .LVU167
 896              	.LBE6:
 897              	.LBE4:
 264:./Application/Src/ILI9341.c ****         for(uint8_t col = 0; col < 6; col++){
 898              		.loc 1 264 38 is_stmt 1 discriminator 2 view .LVU168
 899 0080 0135     		adds	r5, r5, #1
 900              	.LVL111:
 264:./Application/Src/ILI9341.c ****         for(uint8_t col = 0; col < 6; col++){
 901              		.loc 1 264 38 is_stmt 0 discriminator 2 view .LVU169
 902 0082 EDB2     		uxtb	r5, r5
 903              	.LVL112:
 904              	.L48:
 264:./Application/Src/ILI9341.c ****         for(uint8_t col = 0; col < 6; col++){
 905              		.loc 1 264 30 is_stmt 1 discriminator 1 view .LVU170
 906 0084 062D     		cmp	r5, #6
 907 0086 01D8     		bhi	.L57
 908              	.LBB7:
 265:./Application/Src/ILI9341.c ****             uint8_t pixel[2];
 909              		.loc 1 265 21 is_stmt 0 view .LVU171
 910 0088 0024     		movs	r4, #0
 911 008a EBE7     		b	.L52
 912              	.L57:
 913              	.LBE7:
 914              	.LBE3:
 275:./Application/Src/ILI9341.c ****         }
 276:./Application/Src/ILI9341.c ****     }
 277:./Application/Src/ILI9341.c ****     UNSELECT_LCD();
 915              		.loc 1 277 5 is_stmt 1 view .LVU172
 916 008c 0122     		movs	r2, #1
 917 008e 4FF40061 		mov	r1, #2048
 918 0092 0448     		ldr	r0, .L58+4
 919 0094 FFF7FEFF 		bl	HAL_GPIO_WritePin
 920              	.LVL113:
 278:./Application/Src/ILI9341.c **** }
 921              		.loc 1 278 1 is_stmt 0 view .LVU173
 922 0098 02B0     		add	sp, sp, #8
 923              	.LCFI23:
 924              		.cfi_def_cfa_offset 32
 925              		@ sp needed
 926 009a BDE8F087 		pop	{r4, r5, r6, r7, r8, r9, r10, pc}
ARM GAS  C:\Users\Xuleo\AppData\Local\Temp\cc36HbNt.s 			page 23


 927              	.LVL114:
 928              	.L59:
 929              		.loc 1 278 1 view .LVU174
 930 009e 00BF     		.align	2
 931              	.L58:
 932 00a0 00000000 		.word	font5x7
 933 00a4 00080140 		.word	1073809408
 934 00a8 00000000 		.word	hspi1
 935              		.cfi_endproc
 936              	.LFE74:
 938              		.section	.text.LcdDrawString,"ax",%progbits
 939              		.align	1
 940              		.global	LcdDrawString
 941              		.syntax unified
 942              		.thumb
 943              		.thumb_func
 945              	LcdDrawString:
 946              	.LVL115:
 947              	.LFB75:
 279:./Application/Src/ILI9341.c **** 
 280:./Application/Src/ILI9341.c **** void LcdDrawString(uint16_t x, uint16_t y, const char *str, uint16_t color, uint16_t bg){
 948              		.loc 1 280 89 is_stmt 1 view -0
 949              		.cfi_startproc
 950              		@ args = 4, pretend = 0, frame = 0
 951              		@ frame_needed = 0, uses_anonymous_args = 0
 952              		.loc 1 280 89 is_stmt 0 view .LVU176
 953 0000 2DE9F041 		push	{r4, r5, r6, r7, r8, lr}
 954              	.LCFI24:
 955              		.cfi_def_cfa_offset 24
 956              		.cfi_offset 4, -24
 957              		.cfi_offset 5, -20
 958              		.cfi_offset 6, -16
 959              		.cfi_offset 7, -12
 960              		.cfi_offset 8, -8
 961              		.cfi_offset 14, -4
 962 0004 82B0     		sub	sp, sp, #8
 963              	.LCFI25:
 964              		.cfi_def_cfa_offset 32
 965 0006 0446     		mov	r4, r0
 966 0008 0D46     		mov	r5, r1
 967 000a 1646     		mov	r6, r2
 968 000c 1F46     		mov	r7, r3
 969 000e BDF82080 		ldrh	r8, [sp, #32]
 281:./Application/Src/ILI9341.c ****     while(*str){
 970              		.loc 1 281 5 is_stmt 1 view .LVU177
 971              		.loc 1 281 10 is_stmt 0 view .LVU178
 972 0012 0CE0     		b	.L61
 973              	.LVL116:
 974              	.L62:
 282:./Application/Src/ILI9341.c ****         if(x + 6 > LCD_WIDTH){
 283:./Application/Src/ILI9341.c ****             x = 0;
 284:./Application/Src/ILI9341.c ****             y += 8;
 285:./Application/Src/ILI9341.c ****         }
 286:./Application/Src/ILI9341.c ****         if(y + 7 > LCD_HEIGHT) return;
 975              		.loc 1 286 9 is_stmt 1 view .LVU179
 976              		.loc 1 286 11 is_stmt 0 view .LVU180
 977 0014 B5F5F77F 		cmp	r5, #494
ARM GAS  C:\Users\Xuleo\AppData\Local\Temp\cc36HbNt.s 			page 24


 978 0018 11D2     		bcs	.L60
 287:./Application/Src/ILI9341.c **** 
 288:./Application/Src/ILI9341.c ****         LcdDrawChar(x, y, *str, color, bg);
 979              		.loc 1 288 9 is_stmt 1 view .LVU181
 980 001a CDF80080 		str	r8, [sp]
 981 001e 3B46     		mov	r3, r7
 982 0020 2946     		mov	r1, r5
 983 0022 2046     		mov	r0, r4
 984 0024 FFF7FEFF 		bl	LcdDrawChar
 985              	.LVL117:
 289:./Application/Src/ILI9341.c ****         x += 6;  // 5 pixels + 1 spacing
 986              		.loc 1 289 9 view .LVU182
 987              		.loc 1 289 11 is_stmt 0 view .LVU183
 988 0028 0634     		adds	r4, r4, #6
 989              	.LVL118:
 990              		.loc 1 289 11 view .LVU184
 991 002a A4B2     		uxth	r4, r4
 992              	.LVL119:
 290:./Application/Src/ILI9341.c ****         str++;
 993              		.loc 1 290 9 is_stmt 1 view .LVU185
 994              		.loc 1 290 12 is_stmt 0 view .LVU186
 995 002c 0136     		adds	r6, r6, #1
 996              	.LVL120:
 997              	.L61:
 281:./Application/Src/ILI9341.c ****         if(x + 6 > LCD_WIDTH){
 998              		.loc 1 281 11 is_stmt 1 view .LVU187
 999 002e 3278     		ldrb	r2, [r6]	@ zero_extendqisi2
 1000 0030 2AB1     		cbz	r2, .L60
 282:./Application/Src/ILI9341.c ****             x = 0;
 1001              		.loc 1 282 9 view .LVU188
 282:./Application/Src/ILI9341.c ****             x = 0;
 1002              		.loc 1 282 11 is_stmt 0 view .LVU189
 1003 0032 EA2C     		cmp	r4, #234
 1004 0034 EED9     		bls	.L62
 283:./Application/Src/ILI9341.c ****             y += 8;
 1005              		.loc 1 283 13 is_stmt 1 view .LVU190
 1006              	.LVL121:
 284:./Application/Src/ILI9341.c ****         }
 1007              		.loc 1 284 13 view .LVU191
 284:./Application/Src/ILI9341.c ****         }
 1008              		.loc 1 284 15 is_stmt 0 view .LVU192
 1009 0036 0835     		adds	r5, r5, #8
 1010              	.LVL122:
 284:./Application/Src/ILI9341.c ****         }
 1011              		.loc 1 284 15 view .LVU193
 1012 0038 ADB2     		uxth	r5, r5
 1013              	.LVL123:
 283:./Application/Src/ILI9341.c ****             y += 8;
 1014              		.loc 1 283 15 view .LVU194
 1015 003a 0024     		movs	r4, #0
 1016 003c EAE7     		b	.L62
 1017              	.LVL124:
 1018              	.L60:
 291:./Application/Src/ILI9341.c ****     }
 292:./Application/Src/ILI9341.c **** }
 1019              		.loc 1 292 1 view .LVU195
 1020 003e 02B0     		add	sp, sp, #8
ARM GAS  C:\Users\Xuleo\AppData\Local\Temp\cc36HbNt.s 			page 25


 1021              	.LCFI26:
 1022              		.cfi_def_cfa_offset 24
 1023              		@ sp needed
 1024 0040 BDE8F081 		pop	{r4, r5, r6, r7, r8, pc}
 1025              		.loc 1 292 1 view .LVU196
 1026              		.cfi_endproc
 1027              	.LFE75:
 1029              		.section	.text.LcdSetCursor,"ax",%progbits
 1030              		.align	1
 1031              		.global	LcdSetCursor
 1032              		.syntax unified
 1033              		.thumb
 1034              		.thumb_func
 1036              	LcdSetCursor:
 1037              	.LVL125:
 1038              	.LFB76:
 293:./Application/Src/ILI9341.c **** 
 294:./Application/Src/ILI9341.c **** // cursor position
 295:./Application/Src/ILI9341.c **** static uint16_t cursor_x = 0;
 296:./Application/Src/ILI9341.c **** static uint16_t cursor_y = 0;
 297:./Application/Src/ILI9341.c **** 
 298:./Application/Src/ILI9341.c **** void LcdSetCursor(uint16_t x, uint16_t y){
 1039              		.loc 1 298 42 is_stmt 1 view -0
 1040              		.cfi_startproc
 1041              		@ args = 0, pretend = 0, frame = 0
 1042              		@ frame_needed = 0, uses_anonymous_args = 0
 1043              		@ link register save eliminated.
 299:./Application/Src/ILI9341.c ****     cursor_x = x;
 1044              		.loc 1 299 5 view .LVU198
 1045              		.loc 1 299 14 is_stmt 0 view .LVU199
 1046 0000 024B     		ldr	r3, .L67
 1047 0002 1880     		strh	r0, [r3]	@ movhi
 300:./Application/Src/ILI9341.c ****     cursor_y = y;
 1048              		.loc 1 300 5 is_stmt 1 view .LVU200
 1049              		.loc 1 300 14 is_stmt 0 view .LVU201
 1050 0004 024B     		ldr	r3, .L67+4
 1051 0006 1980     		strh	r1, [r3]	@ movhi
 301:./Application/Src/ILI9341.c **** }
 1052              		.loc 1 301 1 view .LVU202
 1053 0008 7047     		bx	lr
 1054              	.L68:
 1055 000a 00BF     		.align	2
 1056              	.L67:
 1057 000c 00000000 		.word	cursor_x
 1058 0010 00000000 		.word	cursor_y
 1059              		.cfi_endproc
 1060              	.LFE76:
 1062              		.section	.text.LcdPrint,"ax",%progbits
 1063              		.align	1
 1064              		.global	LcdPrint
 1065              		.syntax unified
 1066              		.thumb
 1067              		.thumb_func
 1069              	LcdPrint:
 1070              	.LVL126:
 1071              	.LFB77:
 302:./Application/Src/ILI9341.c **** 
ARM GAS  C:\Users\Xuleo\AppData\Local\Temp\cc36HbNt.s 			page 26


 303:./Application/Src/ILI9341.c **** void LcdPrint(const char *str, uint16_t color, uint16_t bg){
 1072              		.loc 1 303 60 is_stmt 1 view -0
 1073              		.cfi_startproc
 1074              		@ args = 0, pretend = 0, frame = 0
 1075              		@ frame_needed = 0, uses_anonymous_args = 0
 1076              		.loc 1 303 60 is_stmt 0 view .LVU204
 1077 0000 F0B5     		push	{r4, r5, r6, r7, lr}
 1078              	.LCFI27:
 1079              		.cfi_def_cfa_offset 20
 1080              		.cfi_offset 4, -20
 1081              		.cfi_offset 5, -16
 1082              		.cfi_offset 6, -12
 1083              		.cfi_offset 7, -8
 1084              		.cfi_offset 14, -4
 1085 0002 83B0     		sub	sp, sp, #12
 1086              	.LCFI28:
 1087              		.cfi_def_cfa_offset 32
 1088 0004 0546     		mov	r5, r0
 1089 0006 0F46     		mov	r7, r1
 1090 0008 1646     		mov	r6, r2
 304:./Application/Src/ILI9341.c ****     while(*str){
 1091              		.loc 1 304 5 is_stmt 1 view .LVU205
 1092              		.loc 1 304 10 is_stmt 0 view .LVU206
 1093 000a 0EE0     		b	.L70
 1094              	.LVL127:
 1095              	.L72:
 305:./Application/Src/ILI9341.c ****         if(cursor_x + 6 > LCD_WIDTH){
 306:./Application/Src/ILI9341.c ****             cursor_x = 0;
 307:./Application/Src/ILI9341.c ****             cursor_y += 8;
 308:./Application/Src/ILI9341.c ****         }
 309:./Application/Src/ILI9341.c ****         if(cursor_y + 7 > LCD_HEIGHT){
 310:./Application/Src/ILI9341.c ****             cursor_y = 0;  // wrap to top
 311:./Application/Src/ILI9341.c ****         }
 312:./Application/Src/ILI9341.c ****         LcdDrawChar(cursor_x, cursor_y, *str, color, bg);
 1096              		.loc 1 312 9 is_stmt 1 view .LVU207
 1097 000c 134C     		ldr	r4, .L76
 1098 000e 0096     		str	r6, [sp]
 1099 0010 3B46     		mov	r3, r7
 1100 0012 1348     		ldr	r0, .L76+4
 1101 0014 0188     		ldrh	r1, [r0]
 1102 0016 2088     		ldrh	r0, [r4]
 1103 0018 FFF7FEFF 		bl	LcdDrawChar
 1104              	.LVL128:
 313:./Application/Src/ILI9341.c ****         cursor_x += 6;
 1105              		.loc 1 313 9 view .LVU208
 1106              		.loc 1 313 18 is_stmt 0 view .LVU209
 1107 001c B4F800C0 		ldrh	ip, [r4]
 1108 0020 0CF1060C 		add	ip, ip, #6
 1109 0024 A4F800C0 		strh	ip, [r4]	@ movhi
 314:./Application/Src/ILI9341.c ****         str++;
 1110              		.loc 1 314 9 is_stmt 1 view .LVU210
 1111              		.loc 1 314 12 is_stmt 0 view .LVU211
 1112 0028 0135     		adds	r5, r5, #1
 1113              	.LVL129:
 1114              	.L70:
 304:./Application/Src/ILI9341.c ****         if(cursor_x + 6 > LCD_WIDTH){
 1115              		.loc 1 304 11 is_stmt 1 view .LVU212
ARM GAS  C:\Users\Xuleo\AppData\Local\Temp\cc36HbNt.s 			page 27


 1116 002a 2A78     		ldrb	r2, [r5]	@ zero_extendqisi2
 1117 002c 9AB1     		cbz	r2, .L75
 305:./Application/Src/ILI9341.c ****             cursor_x = 0;
 1118              		.loc 1 305 9 view .LVU213
 305:./Application/Src/ILI9341.c ****             cursor_x = 0;
 1119              		.loc 1 305 25 is_stmt 0 view .LVU214
 1120 002e 0B4B     		ldr	r3, .L76
 1121 0030 1B88     		ldrh	r3, [r3]
 305:./Application/Src/ILI9341.c ****             cursor_x = 0;
 1122              		.loc 1 305 11 view .LVU215
 1123 0032 EA2B     		cmp	r3, #234
 1124 0034 06D9     		bls	.L71
 306:./Application/Src/ILI9341.c ****             cursor_y += 8;
 1125              		.loc 1 306 13 is_stmt 1 view .LVU216
 306:./Application/Src/ILI9341.c ****             cursor_y += 8;
 1126              		.loc 1 306 22 is_stmt 0 view .LVU217
 1127 0036 094B     		ldr	r3, .L76
 1128 0038 0021     		movs	r1, #0
 1129 003a 1980     		strh	r1, [r3]	@ movhi
 307:./Application/Src/ILI9341.c ****         }
 1130              		.loc 1 307 13 is_stmt 1 view .LVU218
 307:./Application/Src/ILI9341.c ****         }
 1131              		.loc 1 307 22 is_stmt 0 view .LVU219
 1132 003c 0849     		ldr	r1, .L76+4
 1133 003e 0B88     		ldrh	r3, [r1]
 1134 0040 0833     		adds	r3, r3, #8
 1135 0042 0B80     		strh	r3, [r1]	@ movhi
 1136              	.L71:
 309:./Application/Src/ILI9341.c ****             cursor_y = 0;  // wrap to top
 1137              		.loc 1 309 9 is_stmt 1 view .LVU220
 309:./Application/Src/ILI9341.c ****             cursor_y = 0;  // wrap to top
 1138              		.loc 1 309 25 is_stmt 0 view .LVU221
 1139 0044 064B     		ldr	r3, .L76+4
 1140 0046 1B88     		ldrh	r3, [r3]
 309:./Application/Src/ILI9341.c ****             cursor_y = 0;  // wrap to top
 1141              		.loc 1 309 11 view .LVU222
 1142 0048 B3F5F77F 		cmp	r3, #494
 1143 004c DED3     		bcc	.L72
 310:./Application/Src/ILI9341.c ****         }
 1144              		.loc 1 310 13 is_stmt 1 view .LVU223
 310:./Application/Src/ILI9341.c ****         }
 1145              		.loc 1 310 22 is_stmt 0 view .LVU224
 1146 004e 044B     		ldr	r3, .L76+4
 1147 0050 0021     		movs	r1, #0
 1148 0052 1980     		strh	r1, [r3]	@ movhi
 1149 0054 DAE7     		b	.L72
 1150              	.L75:
 315:./Application/Src/ILI9341.c ****     }
 316:./Application/Src/ILI9341.c **** }
 1151              		.loc 1 316 1 view .LVU225
 1152 0056 03B0     		add	sp, sp, #12
 1153              	.LCFI29:
 1154              		.cfi_def_cfa_offset 20
 1155              		@ sp needed
 1156 0058 F0BD     		pop	{r4, r5, r6, r7, pc}
 1157              	.LVL130:
 1158              	.L77:
ARM GAS  C:\Users\Xuleo\AppData\Local\Temp\cc36HbNt.s 			page 28


 1159              		.loc 1 316 1 view .LVU226
 1160 005a 00BF     		.align	2
 1161              	.L76:
 1162 005c 00000000 		.word	cursor_x
 1163 0060 00000000 		.word	cursor_y
 1164              		.cfi_endproc
 1165              	.LFE77:
 1167              		.section	.bss.cursor_y,"aw",%nobits
 1168              		.align	1
 1171              	cursor_y:
 1172 0000 0000     		.space	2
 1173              		.section	.bss.cursor_x,"aw",%nobits
 1174              		.align	1
 1177              	cursor_x:
 1178 0000 0000     		.space	2
 1179              		.section	.rodata.font5x7,"a"
 1180              		.align	2
 1183              	font5x7:
 1184 0000 00000000 		.ascii	"\000\000\000\000\000"
 1184      00
 1185 0005 00005F00 		.ascii	"\000\000_\000\000"
 1185      00
 1186 000a 00070007 		.ascii	"\000\007\000\007\000"
 1186      00
 1187 000f 147F147F 		.ascii	"\024\177\024\177\024"
 1187      14
 1188 0014 242A7F2A 		.ascii	"$*\177*\022"
 1188      12
 1189 0019 23130864 		.ascii	"#\023\010db"
 1189      62
 1190 001e 36495522 		.ascii	"6IU\"P"
 1190      50
 1191 0023 00050300 		.ascii	"\000\005\003\000\000"
 1191      00
 1192 0028 001C2241 		.ascii	"\000\034\"A\000"
 1192      00
 1193 002d 0041221C 		.ascii	"\000A\"\034\000"
 1193      00
 1194 0032 082A1C2A 		.ascii	"\010*\034*\010"
 1194      08
 1195 0037 08083E08 		.ascii	"\010\010>\010\010"
 1195      08
 1196 003c 00503000 		.ascii	"\000P0\000\000"
 1196      00
 1197 0041 08080808 		.ascii	"\010\010\010\010\010"
 1197      08
 1198 0046 00606000 		.ascii	"\000``\000\000"
 1198      00
 1199 004b 20100804 		.ascii	" \020\010\004\002"
 1199      02
 1200 0050 3E514945 		.ascii	">QIE>"
 1200      3E
 1201 0055 00427F40 		.ascii	"\000B\177@\000"
 1201      00
 1202 005a 42615149 		.ascii	"BaQIF"
 1202      46
 1203 005f 2141454B 		.ascii	"!AEK1"
ARM GAS  C:\Users\Xuleo\AppData\Local\Temp\cc36HbNt.s 			page 29


 1203      31
 1204 0064 1814127F 		.ascii	"\030\024\022\177\020"
 1204      10
 1205 0069 27454545 		.ascii	"'EEE9"
 1205      39
 1206 006e 3C4A4949 		.ascii	"<JII0"
 1206      30
 1207 0073 01710905 		.ascii	"\001q\011\005\003"
 1207      03
 1208 0078 36494949 		.ascii	"6III6"
 1208      36
 1209 007d 06494929 		.ascii	"\006II)\036"
 1209      1E
 1210 0082 00363600 		.ascii	"\00066\000\000"
 1210      00
 1211 0087 00563600 		.ascii	"\000V6\000\000"
 1211      00
 1212 008c 00081422 		.ascii	"\000\010\024\"A"
 1212      41
 1213 0091 14141414 		.ascii	"\024\024\024\024\024"
 1213      14
 1214 0096 41221408 		.ascii	"A\"\024\010\000"
 1214      00
 1215 009b 02015109 		.ascii	"\002\001Q\011\006"
 1215      06
 1216 00a0 32497941 		.ascii	"2IyA>"
 1216      3E
 1217 00a5 7E111111 		.ascii	"~\021\021\021~"
 1217      7E
 1218 00aa 7F494949 		.ascii	"\177III6"
 1218      36
 1219 00af 3E414141 		.ascii	">AAA\""
 1219      22
 1220 00b4 7F414122 		.ascii	"\177AA\"\034"
 1220      1C
 1221 00b9 7F494949 		.ascii	"\177IIIA"
 1221      41
 1222 00be 7F090901 		.ascii	"\177\011\011\001\001"
 1222      01
 1223 00c3 3E414151 		.ascii	">AAQ2"
 1223      32
 1224 00c8 7F080808 		.ascii	"\177\010\010\010\177"
 1224      7F
 1225 00cd 00417F41 		.ascii	"\000A\177A\000"
 1225      00
 1226 00d2 2040413F 		.ascii	" @A?\001"
 1226      01
 1227 00d7 7F081422 		.ascii	"\177\010\024\"A"
 1227      41
 1228 00dc 7F404040 		.ascii	"\177@@@@"
 1228      40
 1229 00e1 7F020402 		.ascii	"\177\002\004\002\177"
 1229      7F
 1230 00e6 7F040810 		.ascii	"\177\004\010\020\177"
 1230      7F
 1231 00eb 3E414141 		.ascii	">AAA>"
 1231      3E
ARM GAS  C:\Users\Xuleo\AppData\Local\Temp\cc36HbNt.s 			page 30


 1232 00f0 7F090909 		.ascii	"\177\011\011\011\006"
 1232      06
 1233 00f5 3E415121 		.ascii	">AQ!^"
 1233      5E
 1234 00fa 7F091929 		.ascii	"\177\011\031)F"
 1234      46
 1235 00ff 46494949 		.ascii	"FIII1"
 1235      31
 1236 0104 01017F01 		.ascii	"\001\001\177\001\001"
 1236      01
 1237 0109 3F404040 		.ascii	"?@@@?"
 1237      3F
 1238 010e 1F204020 		.ascii	"\037 @ \037"
 1238      1F
 1239 0113 7F201820 		.ascii	"\177 \030 \177"
 1239      7F
 1240 0118 63140814 		.ascii	"c\024\010\024c"
 1240      63
 1241 011d 03047804 		.ascii	"\003\004x\004\003"
 1241      03
 1242 0122 61514945 		.ascii	"aQIEC"
 1242      43
 1243 0127 00007F41 		.ascii	"\000\000\177AA"
 1243      41
 1244 012c 02040810 		.ascii	"\002\004\010\020 "
 1244      20
 1245 0131 41417F00 		.ascii	"AA\177\000\000"
 1245      00
 1246 0136 04020102 		.ascii	"\004\002\001\002\004"
 1246      04
 1247 013b 40404040 		.ascii	"@@@@@"
 1247      40
 1248 0140 00010204 		.ascii	"\000\001\002\004\000"
 1248      00
 1249 0145 20545454 		.ascii	" TTTx"
 1249      78
 1250 014a 7F484444 		.ascii	"\177HDD8"
 1250      38
 1251 014f 38444444 		.ascii	"8DDD "
 1251      20
 1252 0154 38444448 		.ascii	"8DDH\177"
 1252      7F
 1253 0159 38545454 		.ascii	"8TTT\030"
 1253      18
 1254 015e 087E0901 		.ascii	"\010~\011\001\002"
 1254      02
 1255 0163 08145454 		.ascii	"\010\024TT<"
 1255      3C
 1256 0168 7F080404 		.ascii	"\177\010\004\004x"
 1256      78
 1257 016d 00447D40 		.ascii	"\000D}@\000"
 1257      00
 1258 0172 2040443D 		.ascii	" @D=\000"
 1258      00
 1259 0177 007F1028 		.ascii	"\000\177\020(D"
 1259      44
 1260 017c 00417F40 		.ascii	"\000A\177@\000"
ARM GAS  C:\Users\Xuleo\AppData\Local\Temp\cc36HbNt.s 			page 31


 1260      00
 1261 0181 7C041804 		.ascii	"|\004\030\004x"
 1261      78
 1262 0186 7C080404 		.ascii	"|\010\004\004x"
 1262      78
 1263 018b 38444444 		.ascii	"8DDD8"
 1263      38
 1264 0190 7C141414 		.ascii	"|\024\024\024\010"
 1264      08
 1265 0195 08141418 		.ascii	"\010\024\024\030|"
 1265      7C
 1266 019a 7C080404 		.ascii	"|\010\004\004\010"
 1266      08
 1267 019f 48545454 		.ascii	"HTTT "
 1267      20
 1268 01a4 043F4440 		.ascii	"\004?D@ "
 1268      20
 1269 01a9 3C404020 		.ascii	"<@@ |"
 1269      7C
 1270 01ae 1C204020 		.ascii	"\034 @ \034"
 1270      1C
 1271 01b3 3C403040 		.ascii	"<@0@<"
 1271      3C
 1272 01b8 44281028 		.ascii	"D(\020(D"
 1272      44
 1273 01bd 0C505050 		.ascii	"\014PPP<"
 1273      3C
 1274 01c2 4464544C 		.ascii	"DdTLD"
 1274      44
 1275 01c7 00083641 		.ascii	"\000\0106A\000"
 1275      00
 1276 01cc 00007F00 		.ascii	"\000\000\177\000\000"
 1276      00
 1277 01d1 00413608 		.ascii	"\000A6\010\000"
 1277      00
 1278 01d6 08082A1C 		.ascii	"\010\010*\034\010"
 1278      08
 1279              		.text
 1280              	.Letext0:
 1281              		.file 2 "C:/thirdpartyLibs/arm-gnu-toolchain-15.2/arm-none-eabi/include/machine/_default_types.h"
 1282              		.file 3 "C:/thirdpartyLibs/arm-gnu-toolchain-15.2/arm-none-eabi/include/sys/_stdint.h"
 1283              		.file 4 "Drivers/CMSIS/Device/ST/STM32F1xx/Include/stm32f103xb.h"
 1284              		.file 5 "Drivers/STM32F1xx_HAL_Driver/Inc/stm32f1xx_hal_def.h"
 1285              		.file 6 "Drivers/STM32F1xx_HAL_Driver/Inc/stm32f1xx_hal_gpio.h"
 1286              		.file 7 "Drivers/STM32F1xx_HAL_Driver/Inc/stm32f1xx_hal_dma.h"
 1287              		.file 8 "Drivers/STM32F1xx_HAL_Driver/Inc/stm32f1xx_hal_spi.h"
 1288              		.file 9 "Drivers/STM32F1xx_HAL_Driver/Inc/stm32f1xx_hal.h"
 1289              		.file 10 "Core/Inc/spi.h"
ARM GAS  C:\Users\Xuleo\AppData\Local\Temp\cc36HbNt.s 			page 32

