ARM GAS  C:\Users\Xuleo\AppData\Local\Temp\ccgjlH0g.s 			page 1


   1              		.cpu cortex-m3
   2              		.arch armv7-m
   3              		.fpu softvfp
   4              		.eabi_attribute 20, 1
   5              		.eabi_attribute 21, 1
   6              		.eabi_attribute 23, 3
   7              		.eabi_attribute 24, 1
   8              		.eabi_attribute 25, 1
   9              		.eabi_attribute 26, 1
  10              		.eabi_attribute 30, 1
  11              		.eabi_attribute 34, 1
  12              		.eabi_attribute 18, 4
  13              		.file	"main.c"
  14              		.text
  15              	.Ltext0:
  16              		.cfi_sections	.debug_frame
  17              		.file 1 "Core/Src/main.c"
  18              		.section	.text.HAL_UART_RxCpltCallback,"ax",%progbits
  19              		.align	1
  20              		.global	HAL_UART_RxCpltCallback
  21              		.syntax unified
  22              		.thumb
  23              		.thumb_func
  25              	HAL_UART_RxCpltCallback:
  26              	.LVL0:
  27              	.LFB70:
   1:Core/Src/main.c **** /* USER CODE BEGIN Header */
   2:Core/Src/main.c **** /**
   3:Core/Src/main.c ****   ******************************************************************************
   4:Core/Src/main.c ****   * @file           : main.c
   5:Core/Src/main.c ****   * @brief          : Main program body
   6:Core/Src/main.c ****   ******************************************************************************
   7:Core/Src/main.c ****   * @attention
   8:Core/Src/main.c ****   *
   9:Core/Src/main.c ****   * Copyright (c) 2026 STMicroelectronics.
  10:Core/Src/main.c ****   * All rights reserved.
  11:Core/Src/main.c ****   *
  12:Core/Src/main.c ****   * This software is licensed under terms that can be found in the LICENSE file
  13:Core/Src/main.c ****   * in the root directory of this software component.
  14:Core/Src/main.c ****   * If no LICENSE file comes with this software, it is provided AS-IS.
  15:Core/Src/main.c ****   *
  16:Core/Src/main.c ****   ******************************************************************************
  17:Core/Src/main.c ****   */
  18:Core/Src/main.c **** /* USER CODE END Header */
  19:Core/Src/main.c **** /* Includes ------------------------------------------------------------------*/
  20:Core/Src/main.c **** #include "main.h"
  21:Core/Src/main.c **** #include "dma.h"
  22:Core/Src/main.c **** #include "i2c.h"
  23:Core/Src/main.c **** #include "tim.h"
  24:Core/Src/main.c **** #include "usart.h"
  25:Core/Src/main.c **** #include "gpio.h"
  26:Core/Src/main.c **** 
  27:Core/Src/main.c **** /* Private includes ----------------------------------------------------------*/
  28:Core/Src/main.c **** /* USER CODE BEGIN Includes */
  29:Core/Src/main.c **** #include <application.h>
  30:Core/Src/main.c **** #include <stdio.h>
  31:Core/Src/main.c **** /* USER CODE END Includes */
ARM GAS  C:\Users\Xuleo\AppData\Local\Temp\ccgjlH0g.s 			page 2


  32:Core/Src/main.c **** 
  33:Core/Src/main.c **** /* Private typedef -----------------------------------------------------------*/
  34:Core/Src/main.c **** /* USER CODE BEGIN PTD */
  35:Core/Src/main.c **** 
  36:Core/Src/main.c **** /* USER CODE END PTD */
  37:Core/Src/main.c **** 
  38:Core/Src/main.c **** /* Private define ------------------------------------------------------------*/
  39:Core/Src/main.c **** /* USER CODE BEGIN PD */
  40:Core/Src/main.c **** 
  41:Core/Src/main.c **** /* USER CODE END PD */
  42:Core/Src/main.c **** 
  43:Core/Src/main.c **** /* Private macro -------------------------------------------------------------*/
  44:Core/Src/main.c **** /* USER CODE BEGIN PM */
  45:Core/Src/main.c **** 
  46:Core/Src/main.c **** /* USER CODE END PM */
  47:Core/Src/main.c **** 
  48:Core/Src/main.c **** /* Private variables ---------------------------------------------------------*/
  49:Core/Src/main.c **** 
  50:Core/Src/main.c **** /* USER CODE BEGIN PV */
  51:Core/Src/main.c **** int pwmNum = 200;
  52:Core/Src/main.c **** /* USER CODE END PV */
  53:Core/Src/main.c **** 
  54:Core/Src/main.c **** /* Private function prototypes -----------------------------------------------*/
  55:Core/Src/main.c **** void SystemClock_Config(void);
  56:Core/Src/main.c **** /* USER CODE BEGIN PFP */
  57:Core/Src/main.c **** 
  58:Core/Src/main.c **** /* USER CODE END PFP */
  59:Core/Src/main.c **** 
  60:Core/Src/main.c **** /* Private user code ---------------------------------------------------------*/
  61:Core/Src/main.c **** /* USER CODE BEGIN 0 */
  62:Core/Src/main.c **** 
  63:Core/Src/main.c **** /* USER CODE END 0 */
  64:Core/Src/main.c **** 
  65:Core/Src/main.c **** /**
  66:Core/Src/main.c ****   * @brief  The application entry point.
  67:Core/Src/main.c ****   * @retval int
  68:Core/Src/main.c ****   */
  69:Core/Src/main.c **** int main(void)
  70:Core/Src/main.c **** {
  71:Core/Src/main.c **** 
  72:Core/Src/main.c ****   /* USER CODE BEGIN 1 */
  73:Core/Src/main.c **** 
  74:Core/Src/main.c ****   /* USER CODE END 1 */
  75:Core/Src/main.c **** 
  76:Core/Src/main.c ****   /* MCU Configuration--------------------------------------------------------*/
  77:Core/Src/main.c **** 
  78:Core/Src/main.c ****   /* Reset of all peripherals, Initializes the Flash interface and the Systick. */
  79:Core/Src/main.c ****   HAL_Init();
  80:Core/Src/main.c **** 
  81:Core/Src/main.c ****   /* USER CODE BEGIN Init */
  82:Core/Src/main.c **** 
  83:Core/Src/main.c ****   /* USER CODE END Init */
  84:Core/Src/main.c **** 
  85:Core/Src/main.c ****   /* Configure the system clock */
  86:Core/Src/main.c ****   SystemClock_Config();
  87:Core/Src/main.c **** 
  88:Core/Src/main.c ****   /* USER CODE BEGIN SysInit */
ARM GAS  C:\Users\Xuleo\AppData\Local\Temp\ccgjlH0g.s 			page 3


  89:Core/Src/main.c **** 
  90:Core/Src/main.c ****   /* USER CODE END SysInit */
  91:Core/Src/main.c **** 
  92:Core/Src/main.c ****   /* Initialize all configured peripherals */
  93:Core/Src/main.c ****   MX_GPIO_Init();
  94:Core/Src/main.c ****   MX_DMA_Init();
  95:Core/Src/main.c ****   MX_USART1_UART_Init();
  96:Core/Src/main.c ****   MX_I2C1_Init();
  97:Core/Src/main.c ****   MX_I2C2_Init();
  98:Core/Src/main.c ****   MX_TIM3_Init();
  99:Core/Src/main.c ****   MX_TIM2_Init();
 100:Core/Src/main.c ****   MX_TIM1_Init();
 101:Core/Src/main.c ****   MX_USART2_UART_Init();
 102:Core/Src/main.c ****   /* USER CODE BEGIN 2 */
 103:Core/Src/main.c ****   OLED_Init();
 104:Core/Src/main.c ****   OLED_WriteString("Hello World!");
 105:Core/Src/main.c ****   OLED_SetCursor(0, 2);
 106:Core/Src/main.c ****   OLED_WriteString("OLED Ready :)");
 107:Core/Src/main.c **** 
 108:Core/Src/main.c ****   if (checkExist()){ // cannot detect -> light LED
 109:Core/Src/main.c ****     HAL_GPIO_WritePin(GPIOA, GPIO_PIN_6, RESET);
 110:Core/Src/main.c ****     OLED_SetCursor(0, 3);
 111:Core/Src/main.c ****     OLED_WriteString("Cannot find MPU 6050!");
 112:Core/Src/main.c ****   } else {
 113:Core/Src/main.c ****     OLED_SetCursor(0, 3);
 114:Core/Src/main.c ****     OLED_WriteString("MPU 6050 Detected!");
 115:Core/Src/main.c ****   }
 116:Core/Src/main.c ****   mpu6050Init();
 117:Core/Src/main.c ****   init();  // Initialize VOFA struct
 118:Core/Src/main.c ****   int16_t accBuffer[3];
 119:Core/Src/main.c ****   //char displayAccBuffer[32];
 120:Core/Src/main.c **** #ifdef HC05SETUP 
 121:Core/Src/main.c ****   if (setupBT()){
 122:Core/Src/main.c ****     OLED_SetCursor(0, 5);
 123:Core/Src/main.c ****     OLED_WriteString("HC-05 is configured!");
 124:Core/Src/main.c ****   } else {
 125:Core/Src/main.c ****     OLED_SetCursor(0, 5);
 126:Core/Src/main.c ****     OLED_WriteString("Unable to config HC-05!");
 127:Core/Src/main.c ****   }
 128:Core/Src/main.c **** #endif
 129:Core/Src/main.c **** 
 130:Core/Src/main.c ****   HC05_ReceiveInfo(rx_data);
 131:Core/Src/main.c ****   // start PWM: this PWM runs at 2000Hz, Calculation: 72MHz/(71+1)/(499+1) = 2000Hz
 132:Core/Src/main.c ****   HAL_TIM_PWM_Start(&htim3, TIM_CHANNEL_1); // TIM3_CH1 as displayed
 133:Core/Src/main.c ****   // set duty cycle
 134:Core/Src/main.c ****   __HAL_TIM_SET_COMPARE(&htim3, TIM_CHANNEL_1, 250); // 50% duty cycle, 250 by (499+1)/2=250
 135:Core/Src/main.c **** 
 136:Core/Src/main.c ****   readAcc(accBuffer);  // Initialize accData before starting interrupt
 137:Core/Src/main.c ****   HAL_TIM_Base_Start_IT(&htim2);  // Start TIM2 interrupt for controllerUpdate
 138:Core/Src/main.c ****   OLED_SetCursor(0, 6);
 139:Core/Src/main.c ****   OLED_WriteString("PWM ready!");
 140:Core/Src/main.c **** 
 141:Core/Src/main.c ****   /* USER CODE END 2 */
 142:Core/Src/main.c **** 
 143:Core/Src/main.c ****   /* Infinite loop */
 144:Core/Src/main.c ****   /* USER CODE BEGIN WHILE */
 145:Core/Src/main.c ****   while (1)
ARM GAS  C:\Users\Xuleo\AppData\Local\Temp\ccgjlH0g.s 			page 4


 146:Core/Src/main.c ****   {
 147:Core/Src/main.c ****     /* USER CODE END WHILE */
 148:Core/Src/main.c **** 
 149:Core/Src/main.c ****     /* USER CODE BEGIN 3 */
 150:Core/Src/main.c **** 
 151:Core/Src/main.c ****     //readAcc(accBuffer);
 152:Core/Src/main.c ****     //snprintf(displayAccBuffer, sizeof(displayAccBuffer), "X:%4.i,Y:%.3i,Z:%4.i", accBuffer[0], ac
 153:Core/Src/main.c ****     //OLED_SetCursor(0, 4);
 154:Core/Src/main.c ****     //OLED_WriteString(displayAccBuffer);
 155:Core/Src/main.c ****     // only process when complete message received
 156:Core/Src/main.c ****     if(rx_complete){
 157:Core/Src/main.c ****       // OLED_SetCursor(0, 5);
 158:Core/Src/main.c ****       // OLED_WriteString((char*)rx_data);  // cast to char*
 159:Core/Src/main.c ****       executeCommand(rx_data);
 160:Core/Src/main.c ****       rx_complete = 0;  // clear flag
 161:Core/Src/main.c ****       // echo back with \r\n for terminal
 162:Core/Src/main.c ****       HC05_SendInfo((uint8_t*)"Got it!\r\n");
 163:Core/Src/main.c ****     }
 164:Core/Src/main.c ****     HC05_SendInfo((uint8_t*)"Still Alive!\r\n");
 165:Core/Src/main.c **** 
 166:Core/Src/main.c ****     // dynamic pwm from 40%->100%, 40% -> 200, 100% -> 500
 167:Core/Src/main.c ****     if (pwmNum < 500) {
 168:Core/Src/main.c ****       pwmNum++;
 169:Core/Src/main.c ****     } else {
 170:Core/Src/main.c ****       pwmNum = 200;
 171:Core/Src/main.c ****     }
 172:Core/Src/main.c ****     __HAL_TIM_SET_COMPARE(&htim3, TIM_CHANNEL_1, pwmNum);
 173:Core/Src/main.c ****   }
 174:Core/Src/main.c ****   /* USER CODE END 3 */
 175:Core/Src/main.c **** }
 176:Core/Src/main.c **** 
 177:Core/Src/main.c **** /**
 178:Core/Src/main.c ****   * @brief System Clock Configuration
 179:Core/Src/main.c ****   * @retval None
 180:Core/Src/main.c ****   */
 181:Core/Src/main.c **** void SystemClock_Config(void)
 182:Core/Src/main.c **** {
 183:Core/Src/main.c ****   RCC_OscInitTypeDef RCC_OscInitStruct = {0};
 184:Core/Src/main.c ****   RCC_ClkInitTypeDef RCC_ClkInitStruct = {0};
 185:Core/Src/main.c **** 
 186:Core/Src/main.c ****   /** Initializes the RCC Oscillators according to the specified parameters
 187:Core/Src/main.c ****   * in the RCC_OscInitTypeDef structure.
 188:Core/Src/main.c ****   */
 189:Core/Src/main.c ****   RCC_OscInitStruct.OscillatorType = RCC_OSCILLATORTYPE_HSE;
 190:Core/Src/main.c ****   RCC_OscInitStruct.HSEState = RCC_HSE_ON;
 191:Core/Src/main.c ****   RCC_OscInitStruct.HSEPredivValue = RCC_HSE_PREDIV_DIV1;
 192:Core/Src/main.c ****   RCC_OscInitStruct.HSIState = RCC_HSI_ON;
 193:Core/Src/main.c ****   RCC_OscInitStruct.PLL.PLLState = RCC_PLL_ON;
 194:Core/Src/main.c ****   RCC_OscInitStruct.PLL.PLLSource = RCC_PLLSOURCE_HSE;
 195:Core/Src/main.c ****   RCC_OscInitStruct.PLL.PLLMUL = RCC_PLL_MUL9;
 196:Core/Src/main.c ****   if (HAL_RCC_OscConfig(&RCC_OscInitStruct) != HAL_OK)
 197:Core/Src/main.c ****   {
 198:Core/Src/main.c ****     Error_Handler();
 199:Core/Src/main.c ****   }
 200:Core/Src/main.c **** 
 201:Core/Src/main.c ****   /** Initializes the CPU, AHB and APB buses clocks
 202:Core/Src/main.c ****   */
ARM GAS  C:\Users\Xuleo\AppData\Local\Temp\ccgjlH0g.s 			page 5


 203:Core/Src/main.c ****   RCC_ClkInitStruct.ClockType = RCC_CLOCKTYPE_HCLK|RCC_CLOCKTYPE_SYSCLK
 204:Core/Src/main.c ****                               |RCC_CLOCKTYPE_PCLK1|RCC_CLOCKTYPE_PCLK2;
 205:Core/Src/main.c ****   RCC_ClkInitStruct.SYSCLKSource = RCC_SYSCLKSOURCE_PLLCLK;
 206:Core/Src/main.c ****   RCC_ClkInitStruct.AHBCLKDivider = RCC_SYSCLK_DIV1;
 207:Core/Src/main.c ****   RCC_ClkInitStruct.APB1CLKDivider = RCC_HCLK_DIV2;
 208:Core/Src/main.c ****   RCC_ClkInitStruct.APB2CLKDivider = RCC_HCLK_DIV1;
 209:Core/Src/main.c **** 
 210:Core/Src/main.c ****   if (HAL_RCC_ClockConfig(&RCC_ClkInitStruct, FLASH_LATENCY_2) != HAL_OK)
 211:Core/Src/main.c ****   {
 212:Core/Src/main.c ****     Error_Handler();
 213:Core/Src/main.c ****   }
 214:Core/Src/main.c **** }
 215:Core/Src/main.c **** 
 216:Core/Src/main.c **** /* USER CODE BEGIN 4 */
 217:Core/Src/main.c **** // auto call on receive uart is used, move everything in buffer
 218:Core/Src/main.c **** void HAL_UART_RxCpltCallback(UART_HandleTypeDef *huart){
  28              		.loc 1 218 56 view -0
  29              		.cfi_startproc
  30              		@ args = 0, pretend = 0, frame = 0
  31              		@ frame_needed = 0, uses_anonymous_args = 0
  32              		.loc 1 218 56 is_stmt 0 view .LVU1
  33 0000 08B5     		push	{r3, lr}
  34              	.LCFI0:
  35              		.cfi_def_cfa_offset 8
  36              		.cfi_offset 3, -8
  37              		.cfi_offset 14, -4
 219:Core/Src/main.c ****   static int rx_index = 0;
  38              		.loc 1 219 3 is_stmt 1 view .LVU2
 220:Core/Src/main.c **** 
 221:Core/Src/main.c ****   if(huart->Instance == USART1)
  39              		.loc 1 221 3 view .LVU3
  40              		.loc 1 221 11 is_stmt 0 view .LVU4
  41 0002 0268     		ldr	r2, [r0]
  42              		.loc 1 221 5 view .LVU5
  43 0004 0E4B     		ldr	r3, .L7
  44 0006 9A42     		cmp	r2, r3
  45 0008 00D0     		beq	.L6
  46              	.LVL1:
  47              	.L1:
 222:Core/Src/main.c ****   {
 223:Core/Src/main.c ****     rx_data[rx_index++] = rx_byte;
 224:Core/Src/main.c ****     if(rx_byte == '\n' || rx_index >= 99)
 225:Core/Src/main.c ****     {
 226:Core/Src/main.c ****       rx_data[rx_index] = '\0';
 227:Core/Src/main.c ****       rx_index = 0;
 228:Core/Src/main.c ****       rx_complete = 1;  // signal that message is ready
 229:Core/Src/main.c ****     }
 230:Core/Src/main.c ****     // must need re-enable since this function will be closed on done
 231:Core/Src/main.c ****     HAL_UART_Receive_IT(&huart1, &rx_byte, 1);
 232:Core/Src/main.c ****   }
 233:Core/Src/main.c **** }
  48              		.loc 1 233 1 view .LVU6
  49 000a 08BD     		pop	{r3, pc}
  50              	.LVL2:
  51              	.L6:
 223:Core/Src/main.c ****     if(rx_byte == '\n' || rx_index >= 99)
  52              		.loc 1 223 5 is_stmt 1 view .LVU7
ARM GAS  C:\Users\Xuleo\AppData\Local\Temp\ccgjlH0g.s 			page 6


 223:Core/Src/main.c ****     if(rx_byte == '\n' || rx_index >= 99)
  53              		.loc 1 223 21 is_stmt 0 view .LVU8
  54 000c 0D4A     		ldr	r2, .L7+4
  55 000e 1168     		ldr	r1, [r2]
  56 0010 4B1C     		adds	r3, r1, #1
  57 0012 1360     		str	r3, [r2]
 223:Core/Src/main.c ****     if(rx_byte == '\n' || rx_index >= 99)
  58              		.loc 1 223 25 view .LVU9
  59 0014 0C4A     		ldr	r2, .L7+8
  60 0016 1278     		ldrb	r2, [r2]	@ zero_extendqisi2
  61 0018 0C48     		ldr	r0, .L7+12
  62              	.LVL3:
 223:Core/Src/main.c ****     if(rx_byte == '\n' || rx_index >= 99)
  63              		.loc 1 223 25 view .LVU10
  64 001a 4254     		strb	r2, [r0, r1]
 224:Core/Src/main.c ****     {
  65              		.loc 1 224 5 is_stmt 1 view .LVU11
 224:Core/Src/main.c ****     {
  66              		.loc 1 224 7 is_stmt 0 view .LVU12
  67 001c 0A2A     		cmp	r2, #10
  68 001e 01D0     		beq	.L3
 224:Core/Src/main.c ****     {
  69              		.loc 1 224 24 discriminator 1 view .LVU13
  70 0020 622B     		cmp	r3, #98
  71 0022 07DD     		ble	.L4
  72              	.L3:
 226:Core/Src/main.c ****       rx_index = 0;
  73              		.loc 1 226 7 is_stmt 1 view .LVU14
 226:Core/Src/main.c ****       rx_index = 0;
  74              		.loc 1 226 25 is_stmt 0 view .LVU15
  75 0024 0022     		movs	r2, #0
  76 0026 0949     		ldr	r1, .L7+12
  77 0028 CA54     		strb	r2, [r1, r3]
 227:Core/Src/main.c ****       rx_complete = 1;  // signal that message is ready
  78              		.loc 1 227 7 is_stmt 1 view .LVU16
 227:Core/Src/main.c ****       rx_complete = 1;  // signal that message is ready
  79              		.loc 1 227 16 is_stmt 0 view .LVU17
  80 002a 064B     		ldr	r3, .L7+4
  81 002c 1A60     		str	r2, [r3]
 228:Core/Src/main.c ****     }
  82              		.loc 1 228 7 is_stmt 1 view .LVU18
 228:Core/Src/main.c ****     }
  83              		.loc 1 228 19 is_stmt 0 view .LVU19
  84 002e 084B     		ldr	r3, .L7+16
  85 0030 0122     		movs	r2, #1
  86 0032 1A70     		strb	r2, [r3]
  87              	.L4:
 231:Core/Src/main.c ****   }
  88              		.loc 1 231 5 is_stmt 1 view .LVU20
  89 0034 0122     		movs	r2, #1
  90 0036 0449     		ldr	r1, .L7+8
  91 0038 0648     		ldr	r0, .L7+20
  92 003a FFF7FEFF 		bl	HAL_UART_Receive_IT
  93              	.LVL4:
  94              		.loc 1 233 1 is_stmt 0 view .LVU21
  95 003e E4E7     		b	.L1
  96              	.L8:
ARM GAS  C:\Users\Xuleo\AppData\Local\Temp\ccgjlH0g.s 			page 7


  97              		.align	2
  98              	.L7:
  99 0040 00380140 		.word	1073821696
 100 0044 00000000 		.word	rx_index.0
 101 0048 00000000 		.word	rx_byte
 102 004c 00000000 		.word	rx_data
 103 0050 00000000 		.word	rx_complete
 104 0054 00000000 		.word	huart1
 105              		.cfi_endproc
 106              	.LFE70:
 108              		.section	.text.HAL_UART_TxCpltCallback,"ax",%progbits
 109              		.align	1
 110              		.global	HAL_UART_TxCpltCallback
 111              		.syntax unified
 112              		.thumb
 113              		.thumb_func
 115              	HAL_UART_TxCpltCallback:
 116              	.LVL5:
 117              	.LFB71:
 234:Core/Src/main.c **** 
 235:Core/Src/main.c **** // DMA TX complete callback - required for continuous DMA transmission
 236:Core/Src/main.c **** void HAL_UART_TxCpltCallback(UART_HandleTypeDef *huart){
 118              		.loc 1 236 56 is_stmt 1 view -0
 119              		.cfi_startproc
 120              		@ args = 0, pretend = 0, frame = 0
 121              		@ frame_needed = 0, uses_anonymous_args = 0
 122              		@ link register save eliminated.
 237:Core/Src/main.c ****   if(huart->Instance == USART2){
 123              		.loc 1 237 3 view .LVU23
 238:Core/Src/main.c ****     // DMA transfer complete - state automatically reset to READY by HAL
 239:Core/Src/main.c ****     // This callback confirms DMA is working
 240:Core/Src/main.c ****   }
 124              		.loc 1 240 3 view .LVU24
 241:Core/Src/main.c **** }
 125              		.loc 1 241 1 is_stmt 0 view .LVU25
 126 0000 7047     		bx	lr
 127              		.cfi_endproc
 128              	.LFE71:
 130              		.section	.text.Error_Handler,"ax",%progbits
 131              		.align	1
 132              		.global	Error_Handler
 133              		.syntax unified
 134              		.thumb
 135              		.thumb_func
 137              	Error_Handler:
 138              	.LFB72:
 242:Core/Src/main.c **** /* USER CODE END 4 */
 243:Core/Src/main.c **** 
 244:Core/Src/main.c **** /**
 245:Core/Src/main.c ****   * @brief  This function is executed in case of error occurrence.
 246:Core/Src/main.c ****   * @retval None
 247:Core/Src/main.c ****   */
 248:Core/Src/main.c **** void Error_Handler(void)
 249:Core/Src/main.c **** {
 139              		.loc 1 249 1 is_stmt 1 view -0
 140              		.cfi_startproc
 141              		@ Volatile: function does not return.
ARM GAS  C:\Users\Xuleo\AppData\Local\Temp\ccgjlH0g.s 			page 8


 142              		@ args = 0, pretend = 0, frame = 0
 143              		@ frame_needed = 0, uses_anonymous_args = 0
 144              		@ link register save eliminated.
 250:Core/Src/main.c ****   /* USER CODE BEGIN Error_Handler_Debug */
 251:Core/Src/main.c ****   /* User can add his own implementation to report the HAL error return state */
 252:Core/Src/main.c ****   __disable_irq();
 145              		.loc 1 252 3 view .LVU27
 146              	.LBB4:
 147              	.LBI4:
 148              		.file 2 "Drivers/CMSIS/Include/cmsis_gcc.h"
   1:Drivers/CMSIS/Include/cmsis_gcc.h **** /**************************************************************************//**
   2:Drivers/CMSIS/Include/cmsis_gcc.h ****  * @file     cmsis_gcc.h
   3:Drivers/CMSIS/Include/cmsis_gcc.h ****  * @brief    CMSIS compiler GCC header file
   4:Drivers/CMSIS/Include/cmsis_gcc.h ****  * @version  V5.0.4
   5:Drivers/CMSIS/Include/cmsis_gcc.h ****  * @date     09. April 2018
   6:Drivers/CMSIS/Include/cmsis_gcc.h ****  ******************************************************************************/
   7:Drivers/CMSIS/Include/cmsis_gcc.h **** /*
   8:Drivers/CMSIS/Include/cmsis_gcc.h ****  * Copyright (c) 2009-2018 Arm Limited. All rights reserved.
   9:Drivers/CMSIS/Include/cmsis_gcc.h ****  *
  10:Drivers/CMSIS/Include/cmsis_gcc.h ****  * SPDX-License-Identifier: Apache-2.0
  11:Drivers/CMSIS/Include/cmsis_gcc.h ****  *
  12:Drivers/CMSIS/Include/cmsis_gcc.h ****  * Licensed under the Apache License, Version 2.0 (the License); you may
  13:Drivers/CMSIS/Include/cmsis_gcc.h ****  * not use this file except in compliance with the License.
  14:Drivers/CMSIS/Include/cmsis_gcc.h ****  * You may obtain a copy of the License at
  15:Drivers/CMSIS/Include/cmsis_gcc.h ****  *
  16:Drivers/CMSIS/Include/cmsis_gcc.h ****  * www.apache.org/licenses/LICENSE-2.0
  17:Drivers/CMSIS/Include/cmsis_gcc.h ****  *
  18:Drivers/CMSIS/Include/cmsis_gcc.h ****  * Unless required by applicable law or agreed to in writing, software
  19:Drivers/CMSIS/Include/cmsis_gcc.h ****  * distributed under the License is distributed on an AS IS BASIS, WITHOUT
  20:Drivers/CMSIS/Include/cmsis_gcc.h ****  * WARRANTIES OR CONDITIONS OF ANY KIND, either express or implied.
  21:Drivers/CMSIS/Include/cmsis_gcc.h ****  * See the License for the specific language governing permissions and
  22:Drivers/CMSIS/Include/cmsis_gcc.h ****  * limitations under the License.
  23:Drivers/CMSIS/Include/cmsis_gcc.h ****  */
  24:Drivers/CMSIS/Include/cmsis_gcc.h **** 
  25:Drivers/CMSIS/Include/cmsis_gcc.h **** #ifndef __CMSIS_GCC_H
  26:Drivers/CMSIS/Include/cmsis_gcc.h **** #define __CMSIS_GCC_H
  27:Drivers/CMSIS/Include/cmsis_gcc.h **** 
  28:Drivers/CMSIS/Include/cmsis_gcc.h **** /* ignore some GCC warnings */
  29:Drivers/CMSIS/Include/cmsis_gcc.h **** #pragma GCC diagnostic push
  30:Drivers/CMSIS/Include/cmsis_gcc.h **** #pragma GCC diagnostic ignored "-Wsign-conversion"
  31:Drivers/CMSIS/Include/cmsis_gcc.h **** #pragma GCC diagnostic ignored "-Wconversion"
  32:Drivers/CMSIS/Include/cmsis_gcc.h **** #pragma GCC diagnostic ignored "-Wunused-parameter"
  33:Drivers/CMSIS/Include/cmsis_gcc.h **** 
  34:Drivers/CMSIS/Include/cmsis_gcc.h **** /* Fallback for __has_builtin */
  35:Drivers/CMSIS/Include/cmsis_gcc.h **** #ifndef __has_builtin
  36:Drivers/CMSIS/Include/cmsis_gcc.h ****   #define __has_builtin(x) (0)
  37:Drivers/CMSIS/Include/cmsis_gcc.h **** #endif
  38:Drivers/CMSIS/Include/cmsis_gcc.h **** 
  39:Drivers/CMSIS/Include/cmsis_gcc.h **** /* CMSIS compiler specific defines */
  40:Drivers/CMSIS/Include/cmsis_gcc.h **** #ifndef   __ASM
  41:Drivers/CMSIS/Include/cmsis_gcc.h ****   #define __ASM                                  __asm
  42:Drivers/CMSIS/Include/cmsis_gcc.h **** #endif
  43:Drivers/CMSIS/Include/cmsis_gcc.h **** #ifndef   __INLINE
  44:Drivers/CMSIS/Include/cmsis_gcc.h ****   #define __INLINE                               inline
  45:Drivers/CMSIS/Include/cmsis_gcc.h **** #endif
  46:Drivers/CMSIS/Include/cmsis_gcc.h **** #ifndef   __STATIC_INLINE
  47:Drivers/CMSIS/Include/cmsis_gcc.h ****   #define __STATIC_INLINE                        static inline
ARM GAS  C:\Users\Xuleo\AppData\Local\Temp\ccgjlH0g.s 			page 9


  48:Drivers/CMSIS/Include/cmsis_gcc.h **** #endif
  49:Drivers/CMSIS/Include/cmsis_gcc.h **** #ifndef   __STATIC_FORCEINLINE                 
  50:Drivers/CMSIS/Include/cmsis_gcc.h ****   #define __STATIC_FORCEINLINE                   __attribute__((always_inline)) static inline
  51:Drivers/CMSIS/Include/cmsis_gcc.h **** #endif                                           
  52:Drivers/CMSIS/Include/cmsis_gcc.h **** #ifndef   __NO_RETURN
  53:Drivers/CMSIS/Include/cmsis_gcc.h ****   #define __NO_RETURN                            __attribute__((__noreturn__))
  54:Drivers/CMSIS/Include/cmsis_gcc.h **** #endif
  55:Drivers/CMSIS/Include/cmsis_gcc.h **** #ifndef   __USED
  56:Drivers/CMSIS/Include/cmsis_gcc.h ****   #define __USED                                 __attribute__((used))
  57:Drivers/CMSIS/Include/cmsis_gcc.h **** #endif
  58:Drivers/CMSIS/Include/cmsis_gcc.h **** #ifndef   __WEAK
  59:Drivers/CMSIS/Include/cmsis_gcc.h ****   #define __WEAK                                 __attribute__((weak))
  60:Drivers/CMSIS/Include/cmsis_gcc.h **** #endif
  61:Drivers/CMSIS/Include/cmsis_gcc.h **** #ifndef   __PACKED
  62:Drivers/CMSIS/Include/cmsis_gcc.h ****   #define __PACKED                               __attribute__((packed, aligned(1)))
  63:Drivers/CMSIS/Include/cmsis_gcc.h **** #endif
  64:Drivers/CMSIS/Include/cmsis_gcc.h **** #ifndef   __PACKED_STRUCT
  65:Drivers/CMSIS/Include/cmsis_gcc.h ****   #define __PACKED_STRUCT                        struct __attribute__((packed, aligned(1)))
  66:Drivers/CMSIS/Include/cmsis_gcc.h **** #endif
  67:Drivers/CMSIS/Include/cmsis_gcc.h **** #ifndef   __PACKED_UNION
  68:Drivers/CMSIS/Include/cmsis_gcc.h ****   #define __PACKED_UNION                         union __attribute__((packed, aligned(1)))
  69:Drivers/CMSIS/Include/cmsis_gcc.h **** #endif
  70:Drivers/CMSIS/Include/cmsis_gcc.h **** #ifndef   __UNALIGNED_UINT32        /* deprecated */
  71:Drivers/CMSIS/Include/cmsis_gcc.h ****   #pragma GCC diagnostic push
  72:Drivers/CMSIS/Include/cmsis_gcc.h ****   #pragma GCC diagnostic ignored "-Wpacked"
  73:Drivers/CMSIS/Include/cmsis_gcc.h ****   #pragma GCC diagnostic ignored "-Wattributes"
  74:Drivers/CMSIS/Include/cmsis_gcc.h ****   struct __attribute__((packed)) T_UINT32 { uint32_t v; };
  75:Drivers/CMSIS/Include/cmsis_gcc.h ****   #pragma GCC diagnostic pop
  76:Drivers/CMSIS/Include/cmsis_gcc.h ****   #define __UNALIGNED_UINT32(x)                  (((struct T_UINT32 *)(x))->v)
  77:Drivers/CMSIS/Include/cmsis_gcc.h **** #endif
  78:Drivers/CMSIS/Include/cmsis_gcc.h **** #ifndef   __UNALIGNED_UINT16_WRITE
  79:Drivers/CMSIS/Include/cmsis_gcc.h ****   #pragma GCC diagnostic push
  80:Drivers/CMSIS/Include/cmsis_gcc.h ****   #pragma GCC diagnostic ignored "-Wpacked"
  81:Drivers/CMSIS/Include/cmsis_gcc.h ****   #pragma GCC diagnostic ignored "-Wattributes"
  82:Drivers/CMSIS/Include/cmsis_gcc.h ****   __PACKED_STRUCT T_UINT16_WRITE { uint16_t v; };
  83:Drivers/CMSIS/Include/cmsis_gcc.h ****   #pragma GCC diagnostic pop
  84:Drivers/CMSIS/Include/cmsis_gcc.h ****   #define __UNALIGNED_UINT16_WRITE(addr, val)    (void)((((struct T_UINT16_WRITE *)(void *)(addr))-
  85:Drivers/CMSIS/Include/cmsis_gcc.h **** #endif
  86:Drivers/CMSIS/Include/cmsis_gcc.h **** #ifndef   __UNALIGNED_UINT16_READ
  87:Drivers/CMSIS/Include/cmsis_gcc.h ****   #pragma GCC diagnostic push
  88:Drivers/CMSIS/Include/cmsis_gcc.h ****   #pragma GCC diagnostic ignored "-Wpacked"
  89:Drivers/CMSIS/Include/cmsis_gcc.h ****   #pragma GCC diagnostic ignored "-Wattributes"
  90:Drivers/CMSIS/Include/cmsis_gcc.h ****   __PACKED_STRUCT T_UINT16_READ { uint16_t v; };
  91:Drivers/CMSIS/Include/cmsis_gcc.h ****   #pragma GCC diagnostic pop
  92:Drivers/CMSIS/Include/cmsis_gcc.h ****   #define __UNALIGNED_UINT16_READ(addr)          (((const struct T_UINT16_READ *)(const void *)(add
  93:Drivers/CMSIS/Include/cmsis_gcc.h **** #endif
  94:Drivers/CMSIS/Include/cmsis_gcc.h **** #ifndef   __UNALIGNED_UINT32_WRITE
  95:Drivers/CMSIS/Include/cmsis_gcc.h ****   #pragma GCC diagnostic push
  96:Drivers/CMSIS/Include/cmsis_gcc.h ****   #pragma GCC diagnostic ignored "-Wpacked"
  97:Drivers/CMSIS/Include/cmsis_gcc.h ****   #pragma GCC diagnostic ignored "-Wattributes"
  98:Drivers/CMSIS/Include/cmsis_gcc.h ****   __PACKED_STRUCT T_UINT32_WRITE { uint32_t v; };
  99:Drivers/CMSIS/Include/cmsis_gcc.h ****   #pragma GCC diagnostic pop
 100:Drivers/CMSIS/Include/cmsis_gcc.h ****   #define __UNALIGNED_UINT32_WRITE(addr, val)    (void)((((struct T_UINT32_WRITE *)(void *)(addr))-
 101:Drivers/CMSIS/Include/cmsis_gcc.h **** #endif
 102:Drivers/CMSIS/Include/cmsis_gcc.h **** #ifndef   __UNALIGNED_UINT32_READ
 103:Drivers/CMSIS/Include/cmsis_gcc.h ****   #pragma GCC diagnostic push
 104:Drivers/CMSIS/Include/cmsis_gcc.h ****   #pragma GCC diagnostic ignored "-Wpacked"
ARM GAS  C:\Users\Xuleo\AppData\Local\Temp\ccgjlH0g.s 			page 10


 105:Drivers/CMSIS/Include/cmsis_gcc.h ****   #pragma GCC diagnostic ignored "-Wattributes"
 106:Drivers/CMSIS/Include/cmsis_gcc.h ****   __PACKED_STRUCT T_UINT32_READ { uint32_t v; };
 107:Drivers/CMSIS/Include/cmsis_gcc.h ****   #pragma GCC diagnostic pop
 108:Drivers/CMSIS/Include/cmsis_gcc.h ****   #define __UNALIGNED_UINT32_READ(addr)          (((const struct T_UINT32_READ *)(const void *)(add
 109:Drivers/CMSIS/Include/cmsis_gcc.h **** #endif
 110:Drivers/CMSIS/Include/cmsis_gcc.h **** #ifndef   __ALIGNED
 111:Drivers/CMSIS/Include/cmsis_gcc.h ****   #define __ALIGNED(x)                           __attribute__((aligned(x)))
 112:Drivers/CMSIS/Include/cmsis_gcc.h **** #endif
 113:Drivers/CMSIS/Include/cmsis_gcc.h **** #ifndef   __RESTRICT
 114:Drivers/CMSIS/Include/cmsis_gcc.h ****   #define __RESTRICT                             __restrict
 115:Drivers/CMSIS/Include/cmsis_gcc.h **** #endif
 116:Drivers/CMSIS/Include/cmsis_gcc.h **** 
 117:Drivers/CMSIS/Include/cmsis_gcc.h **** 
 118:Drivers/CMSIS/Include/cmsis_gcc.h **** /* ###########################  Core Function Access  ########################### */
 119:Drivers/CMSIS/Include/cmsis_gcc.h **** /** \ingroup  CMSIS_Core_FunctionInterface
 120:Drivers/CMSIS/Include/cmsis_gcc.h ****     \defgroup CMSIS_Core_RegAccFunctions CMSIS Core Register Access Functions
 121:Drivers/CMSIS/Include/cmsis_gcc.h ****   @{
 122:Drivers/CMSIS/Include/cmsis_gcc.h ****  */
 123:Drivers/CMSIS/Include/cmsis_gcc.h **** 
 124:Drivers/CMSIS/Include/cmsis_gcc.h **** /**
 125:Drivers/CMSIS/Include/cmsis_gcc.h ****   \brief   Enable IRQ Interrupts
 126:Drivers/CMSIS/Include/cmsis_gcc.h ****   \details Enables IRQ interrupts by clearing the I-bit in the CPSR.
 127:Drivers/CMSIS/Include/cmsis_gcc.h ****            Can only be executed in Privileged modes.
 128:Drivers/CMSIS/Include/cmsis_gcc.h ****  */
 129:Drivers/CMSIS/Include/cmsis_gcc.h **** __STATIC_FORCEINLINE void __enable_irq(void)
 130:Drivers/CMSIS/Include/cmsis_gcc.h **** {
 131:Drivers/CMSIS/Include/cmsis_gcc.h ****   __ASM volatile ("cpsie i" : : : "memory");
 132:Drivers/CMSIS/Include/cmsis_gcc.h **** }
 133:Drivers/CMSIS/Include/cmsis_gcc.h **** 
 134:Drivers/CMSIS/Include/cmsis_gcc.h **** 
 135:Drivers/CMSIS/Include/cmsis_gcc.h **** /**
 136:Drivers/CMSIS/Include/cmsis_gcc.h ****   \brief   Disable IRQ Interrupts
 137:Drivers/CMSIS/Include/cmsis_gcc.h ****   \details Disables IRQ interrupts by setting the I-bit in the CPSR.
 138:Drivers/CMSIS/Include/cmsis_gcc.h ****            Can only be executed in Privileged modes.
 139:Drivers/CMSIS/Include/cmsis_gcc.h ****  */
 140:Drivers/CMSIS/Include/cmsis_gcc.h **** __STATIC_FORCEINLINE void __disable_irq(void)
 149              		.loc 2 140 27 view .LVU28
 150              	.LBB5:
 141:Drivers/CMSIS/Include/cmsis_gcc.h **** {
 142:Drivers/CMSIS/Include/cmsis_gcc.h ****   __ASM volatile ("cpsid i" : : : "memory");
 151              		.loc 2 142 3 view .LVU29
 152              		.syntax unified
 153              	@ 142 "Drivers/CMSIS/Include/cmsis_gcc.h" 1
 154 0000 72B6     		cpsid i
 155              	@ 0 "" 2
 156              		.thumb
 157              		.syntax unified
 158              	.L11:
 159              	.LBE5:
 160              	.LBE4:
 253:Core/Src/main.c ****   while (1)
 161              		.loc 1 253 3 view .LVU30
 254:Core/Src/main.c ****   {
 255:Core/Src/main.c ****   }
 162              		.loc 1 255 3 view .LVU31
 253:Core/Src/main.c ****   while (1)
 163              		.loc 1 253 9 view .LVU32
ARM GAS  C:\Users\Xuleo\AppData\Local\Temp\ccgjlH0g.s 			page 11


 164 0002 FEE7     		b	.L11
 165              		.cfi_endproc
 166              	.LFE72:
 168              		.section	.text.SystemClock_Config,"ax",%progbits
 169              		.align	1
 170              		.global	SystemClock_Config
 171              		.syntax unified
 172              		.thumb
 173              		.thumb_func
 175              	SystemClock_Config:
 176              	.LFB69:
 182:Core/Src/main.c ****   RCC_OscInitTypeDef RCC_OscInitStruct = {0};
 177              		.loc 1 182 1 view -0
 178              		.cfi_startproc
 179              		@ args = 0, pretend = 0, frame = 64
 180              		@ frame_needed = 0, uses_anonymous_args = 0
 181 0000 00B5     		push	{lr}
 182              	.LCFI1:
 183              		.cfi_def_cfa_offset 4
 184              		.cfi_offset 14, -4
 185 0002 91B0     		sub	sp, sp, #68
 186              	.LCFI2:
 187              		.cfi_def_cfa_offset 72
 183:Core/Src/main.c ****   RCC_ClkInitTypeDef RCC_ClkInitStruct = {0};
 188              		.loc 1 183 3 view .LVU34
 183:Core/Src/main.c ****   RCC_ClkInitTypeDef RCC_ClkInitStruct = {0};
 189              		.loc 1 183 22 is_stmt 0 view .LVU35
 190 0004 2822     		movs	r2, #40
 191 0006 0021     		movs	r1, #0
 192 0008 06A8     		add	r0, sp, #24
 193 000a FFF7FEFF 		bl	memset
 194              	.LVL6:
 184:Core/Src/main.c **** 
 195              		.loc 1 184 3 is_stmt 1 view .LVU36
 184:Core/Src/main.c **** 
 196              		.loc 1 184 22 is_stmt 0 view .LVU37
 197 000e 0023     		movs	r3, #0
 198 0010 0193     		str	r3, [sp, #4]
 199 0012 0293     		str	r3, [sp, #8]
 200 0014 0393     		str	r3, [sp, #12]
 201 0016 0493     		str	r3, [sp, #16]
 202 0018 0593     		str	r3, [sp, #20]
 189:Core/Src/main.c ****   RCC_OscInitStruct.HSEState = RCC_HSE_ON;
 203              		.loc 1 189 3 is_stmt 1 view .LVU38
 189:Core/Src/main.c ****   RCC_OscInitStruct.HSEState = RCC_HSE_ON;
 204              		.loc 1 189 36 is_stmt 0 view .LVU39
 205 001a 0122     		movs	r2, #1
 206 001c 0692     		str	r2, [sp, #24]
 190:Core/Src/main.c ****   RCC_OscInitStruct.HSEPredivValue = RCC_HSE_PREDIV_DIV1;
 207              		.loc 1 190 3 is_stmt 1 view .LVU40
 190:Core/Src/main.c ****   RCC_OscInitStruct.HSEPredivValue = RCC_HSE_PREDIV_DIV1;
 208              		.loc 1 190 30 is_stmt 0 view .LVU41
 209 001e 4FF48033 		mov	r3, #65536
 210 0022 0793     		str	r3, [sp, #28]
 191:Core/Src/main.c ****   RCC_OscInitStruct.HSIState = RCC_HSI_ON;
 211              		.loc 1 191 3 is_stmt 1 view .LVU42
 192:Core/Src/main.c ****   RCC_OscInitStruct.PLL.PLLState = RCC_PLL_ON;
ARM GAS  C:\Users\Xuleo\AppData\Local\Temp\ccgjlH0g.s 			page 12


 212              		.loc 1 192 3 view .LVU43
 192:Core/Src/main.c ****   RCC_OscInitStruct.PLL.PLLState = RCC_PLL_ON;
 213              		.loc 1 192 30 is_stmt 0 view .LVU44
 214 0024 0A92     		str	r2, [sp, #40]
 193:Core/Src/main.c ****   RCC_OscInitStruct.PLL.PLLSource = RCC_PLLSOURCE_HSE;
 215              		.loc 1 193 3 is_stmt 1 view .LVU45
 193:Core/Src/main.c ****   RCC_OscInitStruct.PLL.PLLSource = RCC_PLLSOURCE_HSE;
 216              		.loc 1 193 34 is_stmt 0 view .LVU46
 217 0026 0222     		movs	r2, #2
 218 0028 0D92     		str	r2, [sp, #52]
 194:Core/Src/main.c ****   RCC_OscInitStruct.PLL.PLLMUL = RCC_PLL_MUL9;
 219              		.loc 1 194 3 is_stmt 1 view .LVU47
 194:Core/Src/main.c ****   RCC_OscInitStruct.PLL.PLLMUL = RCC_PLL_MUL9;
 220              		.loc 1 194 35 is_stmt 0 view .LVU48
 221 002a 0E93     		str	r3, [sp, #56]
 195:Core/Src/main.c ****   if (HAL_RCC_OscConfig(&RCC_OscInitStruct) != HAL_OK)
 222              		.loc 1 195 3 is_stmt 1 view .LVU49
 195:Core/Src/main.c ****   if (HAL_RCC_OscConfig(&RCC_OscInitStruct) != HAL_OK)
 223              		.loc 1 195 32 is_stmt 0 view .LVU50
 224 002c 4FF4E013 		mov	r3, #1835008
 225 0030 0F93     		str	r3, [sp, #60]
 196:Core/Src/main.c ****   {
 226              		.loc 1 196 3 is_stmt 1 view .LVU51
 196:Core/Src/main.c ****   {
 227              		.loc 1 196 7 is_stmt 0 view .LVU52
 228 0032 06A8     		add	r0, sp, #24
 229 0034 FFF7FEFF 		bl	HAL_RCC_OscConfig
 230              	.LVL7:
 196:Core/Src/main.c ****   {
 231              		.loc 1 196 6 discriminator 1 view .LVU53
 232 0038 80B9     		cbnz	r0, .L16
 203:Core/Src/main.c ****                               |RCC_CLOCKTYPE_PCLK1|RCC_CLOCKTYPE_PCLK2;
 233              		.loc 1 203 3 is_stmt 1 view .LVU54
 203:Core/Src/main.c ****                               |RCC_CLOCKTYPE_PCLK1|RCC_CLOCKTYPE_PCLK2;
 234              		.loc 1 203 31 is_stmt 0 view .LVU55
 235 003a 0F23     		movs	r3, #15
 236 003c 0193     		str	r3, [sp, #4]
 205:Core/Src/main.c ****   RCC_ClkInitStruct.AHBCLKDivider = RCC_SYSCLK_DIV1;
 237              		.loc 1 205 3 is_stmt 1 view .LVU56
 205:Core/Src/main.c ****   RCC_ClkInitStruct.AHBCLKDivider = RCC_SYSCLK_DIV1;
 238              		.loc 1 205 34 is_stmt 0 view .LVU57
 239 003e 0221     		movs	r1, #2
 240 0040 0291     		str	r1, [sp, #8]
 206:Core/Src/main.c ****   RCC_ClkInitStruct.APB1CLKDivider = RCC_HCLK_DIV2;
 241              		.loc 1 206 3 is_stmt 1 view .LVU58
 206:Core/Src/main.c ****   RCC_ClkInitStruct.APB1CLKDivider = RCC_HCLK_DIV2;
 242              		.loc 1 206 35 is_stmt 0 view .LVU59
 243 0042 0023     		movs	r3, #0
 244 0044 0393     		str	r3, [sp, #12]
 207:Core/Src/main.c ****   RCC_ClkInitStruct.APB2CLKDivider = RCC_HCLK_DIV1;
 245              		.loc 1 207 3 is_stmt 1 view .LVU60
 207:Core/Src/main.c ****   RCC_ClkInitStruct.APB2CLKDivider = RCC_HCLK_DIV1;
 246              		.loc 1 207 36 is_stmt 0 view .LVU61
 247 0046 4FF48062 		mov	r2, #1024
 248 004a 0492     		str	r2, [sp, #16]
 208:Core/Src/main.c **** 
 249              		.loc 1 208 3 is_stmt 1 view .LVU62
ARM GAS  C:\Users\Xuleo\AppData\Local\Temp\ccgjlH0g.s 			page 13


 208:Core/Src/main.c **** 
 250              		.loc 1 208 36 is_stmt 0 view .LVU63
 251 004c 0593     		str	r3, [sp, #20]
 210:Core/Src/main.c ****   {
 252              		.loc 1 210 3 is_stmt 1 view .LVU64
 210:Core/Src/main.c ****   {
 253              		.loc 1 210 7 is_stmt 0 view .LVU65
 254 004e 01A8     		add	r0, sp, #4
 255 0050 FFF7FEFF 		bl	HAL_RCC_ClockConfig
 256              	.LVL8:
 210:Core/Src/main.c ****   {
 257              		.loc 1 210 6 discriminator 1 view .LVU66
 258 0054 20B9     		cbnz	r0, .L17
 214:Core/Src/main.c **** 
 259              		.loc 1 214 1 view .LVU67
 260 0056 11B0     		add	sp, sp, #68
 261              	.LCFI3:
 262              		.cfi_remember_state
 263              		.cfi_def_cfa_offset 4
 264              		@ sp needed
 265 0058 5DF804FB 		ldr	pc, [sp], #4
 266              	.L16:
 267              	.LCFI4:
 268              		.cfi_restore_state
 198:Core/Src/main.c ****   }
 269              		.loc 1 198 5 is_stmt 1 view .LVU68
 270 005c FFF7FEFF 		bl	Error_Handler
 271              	.LVL9:
 272              	.L17:
 212:Core/Src/main.c ****   }
 273              		.loc 1 212 5 view .LVU69
 274 0060 FFF7FEFF 		bl	Error_Handler
 275              	.LVL10:
 276              		.cfi_endproc
 277              	.LFE69:
 279              		.section	.rodata.main.str1.4,"aMS",%progbits,1
 280              		.align	2
 281              	.LC0:
 282 0000 48656C6C 		.ascii	"Hello World!\000"
 282      6F20576F 
 282      726C6421 
 282      00
 283 000d 000000   		.align	2
 284              	.LC1:
 285 0010 4F4C4544 		.ascii	"OLED Ready :)\000"
 285      20526561 
 285      6479203A 
 285      2900
 286 001e 0000     		.align	2
 287              	.LC2:
 288 0020 43616E6E 		.ascii	"Cannot find MPU 6050!\000"
 288      6F742066 
 288      696E6420 
 288      4D505520 
 288      36303530 
 289 0036 0000     		.align	2
 290              	.LC3:
ARM GAS  C:\Users\Xuleo\AppData\Local\Temp\ccgjlH0g.s 			page 14


 291 0038 4D505520 		.ascii	"MPU 6050 Detected!\000"
 291      36303530 
 291      20446574 
 291      65637465 
 291      642100
 292 004b 00       		.align	2
 293              	.LC4:
 294 004c 50574D20 		.ascii	"PWM ready!\000"
 294      72656164 
 294      792100
 295 0057 00       		.align	2
 296              	.LC5:
 297 0058 476F7420 		.ascii	"Got it!\015\012\000"
 297      6974210D 
 297      0A00
 298 0062 0000     		.align	2
 299              	.LC6:
 300 0064 5374696C 		.ascii	"Still Alive!\015\012\000"
 300      6C20416C 
 300      69766521 
 300      0D0A00
 301              		.section	.text.main,"ax",%progbits
 302              		.align	1
 303              		.global	main
 304              		.syntax unified
 305              		.thumb
 306              		.thumb_func
 308              	main:
 309              	.LFB68:
  70:Core/Src/main.c **** 
 310              		.loc 1 70 1 view -0
 311              		.cfi_startproc
 312              		@ Volatile: function does not return.
 313              		@ args = 0, pretend = 0, frame = 8
 314              		@ frame_needed = 0, uses_anonymous_args = 0
 315 0000 00B5     		push	{lr}
 316              	.LCFI5:
 317              		.cfi_def_cfa_offset 4
 318              		.cfi_offset 14, -4
 319 0002 83B0     		sub	sp, sp, #12
 320              	.LCFI6:
 321              		.cfi_def_cfa_offset 16
  79:Core/Src/main.c **** 
 322              		.loc 1 79 3 view .LVU71
 323 0004 FFF7FEFF 		bl	HAL_Init
 324              	.LVL11:
  86:Core/Src/main.c **** 
 325              		.loc 1 86 3 view .LVU72
 326 0008 FFF7FEFF 		bl	SystemClock_Config
 327              	.LVL12:
  93:Core/Src/main.c ****   MX_DMA_Init();
 328              		.loc 1 93 3 view .LVU73
 329 000c FFF7FEFF 		bl	MX_GPIO_Init
 330              	.LVL13:
  94:Core/Src/main.c ****   MX_USART1_UART_Init();
 331              		.loc 1 94 3 view .LVU74
 332 0010 FFF7FEFF 		bl	MX_DMA_Init
ARM GAS  C:\Users\Xuleo\AppData\Local\Temp\ccgjlH0g.s 			page 15


 333              	.LVL14:
  95:Core/Src/main.c ****   MX_I2C1_Init();
 334              		.loc 1 95 3 view .LVU75
 335 0014 FFF7FEFF 		bl	MX_USART1_UART_Init
 336              	.LVL15:
  96:Core/Src/main.c ****   MX_I2C2_Init();
 337              		.loc 1 96 3 view .LVU76
 338 0018 FFF7FEFF 		bl	MX_I2C1_Init
 339              	.LVL16:
  97:Core/Src/main.c ****   MX_TIM3_Init();
 340              		.loc 1 97 3 view .LVU77
 341 001c FFF7FEFF 		bl	MX_I2C2_Init
 342              	.LVL17:
  98:Core/Src/main.c ****   MX_TIM2_Init();
 343              		.loc 1 98 3 view .LVU78
 344 0020 FFF7FEFF 		bl	MX_TIM3_Init
 345              	.LVL18:
  99:Core/Src/main.c ****   MX_TIM1_Init();
 346              		.loc 1 99 3 view .LVU79
 347 0024 FFF7FEFF 		bl	MX_TIM2_Init
 348              	.LVL19:
 100:Core/Src/main.c ****   MX_USART2_UART_Init();
 349              		.loc 1 100 3 view .LVU80
 350 0028 FFF7FEFF 		bl	MX_TIM1_Init
 351              	.LVL20:
 101:Core/Src/main.c ****   /* USER CODE BEGIN 2 */
 352              		.loc 1 101 3 view .LVU81
 353 002c FFF7FEFF 		bl	MX_USART2_UART_Init
 354              	.LVL21:
 103:Core/Src/main.c ****   OLED_WriteString("Hello World!");
 355              		.loc 1 103 3 view .LVU82
 356 0030 FFF7FEFF 		bl	OLED_Init
 357              	.LVL22:
 104:Core/Src/main.c ****   OLED_SetCursor(0, 2);
 358              		.loc 1 104 3 view .LVU83
 359 0034 2F48     		ldr	r0, .L28
 360 0036 FFF7FEFF 		bl	OLED_WriteString
 361              	.LVL23:
 105:Core/Src/main.c ****   OLED_WriteString("OLED Ready :)");
 362              		.loc 1 105 3 view .LVU84
 363 003a 0221     		movs	r1, #2
 364 003c 0020     		movs	r0, #0
 365 003e FFF7FEFF 		bl	OLED_SetCursor
 366              	.LVL24:
 106:Core/Src/main.c **** 
 367              		.loc 1 106 3 view .LVU85
 368 0042 2D48     		ldr	r0, .L28+4
 369 0044 FFF7FEFF 		bl	OLED_WriteString
 370              	.LVL25:
 108:Core/Src/main.c ****     HAL_GPIO_WritePin(GPIOA, GPIO_PIN_6, RESET);
 371              		.loc 1 108 3 view .LVU86
 108:Core/Src/main.c ****     HAL_GPIO_WritePin(GPIOA, GPIO_PIN_6, RESET);
 372              		.loc 1 108 7 is_stmt 0 view .LVU87
 373 0048 FFF7FEFF 		bl	checkExist
 374              	.LVL26:
 108:Core/Src/main.c ****     HAL_GPIO_WritePin(GPIOA, GPIO_PIN_6, RESET);
 375              		.loc 1 108 6 discriminator 1 view .LVU88
ARM GAS  C:\Users\Xuleo\AppData\Local\Temp\ccgjlH0g.s 			page 16


 376 004c 40B3     		cbz	r0, .L19
 109:Core/Src/main.c ****     OLED_SetCursor(0, 3);
 377              		.loc 1 109 5 is_stmt 1 view .LVU89
 378 004e 0022     		movs	r2, #0
 379 0050 4021     		movs	r1, #64
 380 0052 2A48     		ldr	r0, .L28+8
 381 0054 FFF7FEFF 		bl	HAL_GPIO_WritePin
 382              	.LVL27:
 110:Core/Src/main.c ****     OLED_WriteString("Cannot find MPU 6050!");
 383              		.loc 1 110 5 view .LVU90
 384 0058 0321     		movs	r1, #3
 385 005a 0020     		movs	r0, #0
 386 005c FFF7FEFF 		bl	OLED_SetCursor
 387              	.LVL28:
 111:Core/Src/main.c ****   } else {
 388              		.loc 1 111 5 view .LVU91
 389 0060 2748     		ldr	r0, .L28+12
 390 0062 FFF7FEFF 		bl	OLED_WriteString
 391              	.LVL29:
 392              	.L20:
 116:Core/Src/main.c ****   init();  // Initialize VOFA struct
 393              		.loc 1 116 3 view .LVU92
 394 0066 FFF7FEFF 		bl	mpu6050Init
 395              	.LVL30:
 117:Core/Src/main.c ****   int16_t accBuffer[3];
 396              		.loc 1 117 3 view .LVU93
 397 006a FFF7FEFF 		bl	init
 398              	.LVL31:
 118:Core/Src/main.c ****   //char displayAccBuffer[32];
 399              		.loc 1 118 3 view .LVU94
 130:Core/Src/main.c ****   // start PWM: this PWM runs at 2000Hz, Calculation: 72MHz/(71+1)/(499+1) = 2000Hz
 400              		.loc 1 130 3 view .LVU95
 401 006e 2548     		ldr	r0, .L28+16
 402 0070 FFF7FEFF 		bl	HC05_ReceiveInfo
 403              	.LVL32:
 132:Core/Src/main.c ****   // set duty cycle
 404              		.loc 1 132 3 view .LVU96
 405 0074 244C     		ldr	r4, .L28+20
 406 0076 0021     		movs	r1, #0
 407 0078 2046     		mov	r0, r4
 408 007a FFF7FEFF 		bl	HAL_TIM_PWM_Start
 409              	.LVL33:
 134:Core/Src/main.c **** 
 410              		.loc 1 134 3 view .LVU97
 411 007e 2368     		ldr	r3, [r4]
 412 0080 FA22     		movs	r2, #250
 413 0082 5A63     		str	r2, [r3, #52]
 136:Core/Src/main.c ****   HAL_TIM_Base_Start_IT(&htim2);  // Start TIM2 interrupt for controllerUpdate
 414              		.loc 1 136 3 view .LVU98
 415 0084 6846     		mov	r0, sp
 416 0086 FFF7FEFF 		bl	readAcc
 417              	.LVL34:
 137:Core/Src/main.c ****   OLED_SetCursor(0, 6);
 418              		.loc 1 137 3 view .LVU99
 419 008a 2048     		ldr	r0, .L28+24
 420 008c FFF7FEFF 		bl	HAL_TIM_Base_Start_IT
 421              	.LVL35:
ARM GAS  C:\Users\Xuleo\AppData\Local\Temp\ccgjlH0g.s 			page 17


 138:Core/Src/main.c ****   OLED_WriteString("PWM ready!");
 422              		.loc 1 138 3 view .LVU100
 423 0090 0621     		movs	r1, #6
 424 0092 0020     		movs	r0, #0
 425 0094 FFF7FEFF 		bl	OLED_SetCursor
 426              	.LVL36:
 139:Core/Src/main.c **** 
 427              		.loc 1 139 3 view .LVU101
 428 0098 1D48     		ldr	r0, .L28+28
 429 009a FFF7FEFF 		bl	OLED_WriteString
 430              	.LVL37:
 431 009e 19E0     		b	.L24
 432              	.L19:
 113:Core/Src/main.c ****     OLED_WriteString("MPU 6050 Detected!");
 433              		.loc 1 113 5 view .LVU102
 434 00a0 0321     		movs	r1, #3
 435 00a2 0020     		movs	r0, #0
 436 00a4 FFF7FEFF 		bl	OLED_SetCursor
 437              	.LVL38:
 114:Core/Src/main.c ****   }
 438              		.loc 1 114 5 view .LVU103
 439 00a8 1A48     		ldr	r0, .L28+32
 440 00aa FFF7FEFF 		bl	OLED_WriteString
 441              	.LVL39:
 442 00ae DAE7     		b	.L20
 443              	.L26:
 159:Core/Src/main.c ****       rx_complete = 0;  // clear flag
 444              		.loc 1 159 7 view .LVU104
 445 00b0 1448     		ldr	r0, .L28+16
 446 00b2 FFF7FEFF 		bl	executeCommand
 447              	.LVL40:
 160:Core/Src/main.c ****       // echo back with \r\n for terminal
 448              		.loc 1 160 7 view .LVU105
 160:Core/Src/main.c ****       // echo back with \r\n for terminal
 449              		.loc 1 160 19 is_stmt 0 view .LVU106
 450 00b6 184B     		ldr	r3, .L28+36
 451 00b8 0022     		movs	r2, #0
 452 00ba 1A70     		strb	r2, [r3]
 162:Core/Src/main.c ****     }
 453              		.loc 1 162 7 is_stmt 1 view .LVU107
 454 00bc 1748     		ldr	r0, .L28+40
 455 00be FFF7FEFF 		bl	HC05_SendInfo
 456              	.LVL41:
 457 00c2 0BE0     		b	.L21
 458              	.L27:
 168:Core/Src/main.c ****     } else {
 459              		.loc 1 168 7 view .LVU108
 168:Core/Src/main.c ****     } else {
 460              		.loc 1 168 13 is_stmt 0 view .LVU109
 461 00c4 0133     		adds	r3, r3, #1
 462 00c6 164A     		ldr	r2, .L28+44
 463 00c8 1360     		str	r3, [r2]
 464              	.L23:
 172:Core/Src/main.c ****   }
 465              		.loc 1 172 5 is_stmt 1 view .LVU110
 466 00ca 0F4B     		ldr	r3, .L28+20
 467 00cc 1B68     		ldr	r3, [r3]
ARM GAS  C:\Users\Xuleo\AppData\Local\Temp\ccgjlH0g.s 			page 18


 468 00ce 144A     		ldr	r2, .L28+44
 469 00d0 1268     		ldr	r2, [r2]
 470 00d2 5A63     		str	r2, [r3, #52]
 145:Core/Src/main.c ****   {
 471              		.loc 1 145 9 view .LVU111
 472              	.L24:
 145:Core/Src/main.c ****   {
 473              		.loc 1 145 3 view .LVU112
 156:Core/Src/main.c ****       // OLED_SetCursor(0, 5);
 474              		.loc 1 156 5 view .LVU113
 156:Core/Src/main.c ****       // OLED_SetCursor(0, 5);
 475              		.loc 1 156 8 is_stmt 0 view .LVU114
 476 00d4 104B     		ldr	r3, .L28+36
 477 00d6 1B78     		ldrb	r3, [r3]	@ zero_extendqisi2
 156:Core/Src/main.c ****       // OLED_SetCursor(0, 5);
 478              		.loc 1 156 7 view .LVU115
 479 00d8 002B     		cmp	r3, #0
 480 00da E9D1     		bne	.L26
 481              	.L21:
 164:Core/Src/main.c **** 
 482              		.loc 1 164 5 is_stmt 1 view .LVU116
 483 00dc 1148     		ldr	r0, .L28+48
 484 00de FFF7FEFF 		bl	HC05_SendInfo
 485              	.LVL42:
 167:Core/Src/main.c ****       pwmNum++;
 486              		.loc 1 167 5 view .LVU117
 167:Core/Src/main.c ****       pwmNum++;
 487              		.loc 1 167 16 is_stmt 0 view .LVU118
 488 00e2 0F4B     		ldr	r3, .L28+44
 489 00e4 1B68     		ldr	r3, [r3]
 167:Core/Src/main.c ****       pwmNum++;
 490              		.loc 1 167 8 view .LVU119
 491 00e6 B3F5FA7F 		cmp	r3, #500
 492 00ea EBDB     		blt	.L27
 170:Core/Src/main.c ****     }
 493              		.loc 1 170 7 is_stmt 1 view .LVU120
 170:Core/Src/main.c ****     }
 494              		.loc 1 170 14 is_stmt 0 view .LVU121
 495 00ec 0C4B     		ldr	r3, .L28+44
 496 00ee C822     		movs	r2, #200
 497 00f0 1A60     		str	r2, [r3]
 498 00f2 EAE7     		b	.L23
 499              	.L29:
 500              		.align	2
 501              	.L28:
 502 00f4 00000000 		.word	.LC0
 503 00f8 10000000 		.word	.LC1
 504 00fc 00080140 		.word	1073809408
 505 0100 20000000 		.word	.LC2
 506 0104 00000000 		.word	rx_data
 507 0108 00000000 		.word	htim3
 508 010c 00000000 		.word	htim2
 509 0110 4C000000 		.word	.LC4
 510 0114 38000000 		.word	.LC3
 511 0118 00000000 		.word	rx_complete
 512 011c 58000000 		.word	.LC5
 513 0120 00000000 		.word	pwmNum
ARM GAS  C:\Users\Xuleo\AppData\Local\Temp\ccgjlH0g.s 			page 19


 514 0124 64000000 		.word	.LC6
 515              		.cfi_endproc
 516              	.LFE68:
 518              		.section	.bss.rx_index.0,"aw",%nobits
 519              		.align	2
 522              	rx_index.0:
 523 0000 00000000 		.space	4
 524              		.global	pwmNum
 525              		.section	.data.pwmNum,"aw"
 526              		.align	2
 529              	pwmNum:
 530 0000 C8000000 		.word	200
 531              		.text
 532              	.Letext0:
 533              		.file 3 "C:\\ST\\STM32CubeCLT_1.19.0\\GNU-tools-for-STM32\\bin/../lib/gcc/arm-none-eabi/13.3.1/../
 534              		.file 4 "C:\\ST\\STM32CubeCLT_1.19.0\\GNU-tools-for-STM32\\bin/../lib/gcc/arm-none-eabi/13.3.1/../
 535              		.file 5 "Drivers/CMSIS/Device/ST/STM32F1xx/Include/stm32f103xb.h"
 536              		.file 6 "Drivers/CMSIS/Device/ST/STM32F1xx/Include/stm32f1xx.h"
 537              		.file 7 "Drivers/STM32F1xx_HAL_Driver/Inc/stm32f1xx_hal_def.h"
 538              		.file 8 "Drivers/STM32F1xx_HAL_Driver/Inc/stm32f1xx_hal_rcc.h"
 539              		.file 9 "Drivers/STM32F1xx_HAL_Driver/Inc/stm32f1xx_hal_rcc_ex.h"
 540              		.file 10 "Drivers/STM32F1xx_HAL_Driver/Inc/stm32f1xx_hal_gpio.h"
 541              		.file 11 "Drivers/STM32F1xx_HAL_Driver/Inc/stm32f1xx_hal_dma.h"
 542              		.file 12 "Drivers/STM32F1xx_HAL_Driver/Inc/stm32f1xx_hal_tim.h"
 543              		.file 13 "Drivers/STM32F1xx_HAL_Driver/Inc/stm32f1xx_hal_uart.h"
 544              		.file 14 "Core/Inc/tim.h"
 545              		.file 15 "Core/Inc/usart.h"
 546              		.file 16 "Application/Inc/hc05bt.h"
 547              		.file 17 "Application/Inc/command.h"
 548              		.file 18 "Application/Inc/mpu6050sensor.h"
 549              		.file 19 "Application/Inc/application.h"
 550              		.file 20 "Application/Inc/oled1315.h"
 551              		.file 21 "Core/Inc/i2c.h"
 552              		.file 22 "Core/Inc/dma.h"
 553              		.file 23 "Core/Inc/gpio.h"
 554              		.file 24 "Drivers/STM32F1xx_HAL_Driver/Inc/stm32f1xx_hal.h"
 555              		.file 25 "<built-in>"
ARM GAS  C:\Users\Xuleo\AppData\Local\Temp\ccgjlH0g.s 			page 20


DEFINED SYMBOLS
                            *ABS*:00000000 main.c
C:\Users\Xuleo\AppData\Local\Temp\ccgjlH0g.s:19     .text.HAL_UART_RxCpltCallback:00000000 $t
C:\Users\Xuleo\AppData\Local\Temp\ccgjlH0g.s:25     .text.HAL_UART_RxCpltCallback:00000000 HAL_UART_RxCpltCallback
C:\Users\Xuleo\AppData\Local\Temp\ccgjlH0g.s:99     .text.HAL_UART_RxCpltCallback:00000040 $d
C:\Users\Xuleo\AppData\Local\Temp\ccgjlH0g.s:522    .bss.rx_index.0:00000000 rx_index.0
C:\Users\Xuleo\AppData\Local\Temp\ccgjlH0g.s:109    .text.HAL_UART_TxCpltCallback:00000000 $t
C:\Users\Xuleo\AppData\Local\Temp\ccgjlH0g.s:115    .text.HAL_UART_TxCpltCallback:00000000 HAL_UART_TxCpltCallback
C:\Users\Xuleo\AppData\Local\Temp\ccgjlH0g.s:131    .text.Error_Handler:00000000 $t
C:\Users\Xuleo\AppData\Local\Temp\ccgjlH0g.s:137    .text.Error_Handler:00000000 Error_Handler
C:\Users\Xuleo\AppData\Local\Temp\ccgjlH0g.s:169    .text.SystemClock_Config:00000000 $t
C:\Users\Xuleo\AppData\Local\Temp\ccgjlH0g.s:175    .text.SystemClock_Config:00000000 SystemClock_Config
C:\Users\Xuleo\AppData\Local\Temp\ccgjlH0g.s:280    .rodata.main.str1.4:00000000 $d
C:\Users\Xuleo\AppData\Local\Temp\ccgjlH0g.s:302    .text.main:00000000 $t
C:\Users\Xuleo\AppData\Local\Temp\ccgjlH0g.s:308    .text.main:00000000 main
C:\Users\Xuleo\AppData\Local\Temp\ccgjlH0g.s:502    .text.main:000000f4 $d
C:\Users\Xuleo\AppData\Local\Temp\ccgjlH0g.s:529    .data.pwmNum:00000000 pwmNum
C:\Users\Xuleo\AppData\Local\Temp\ccgjlH0g.s:519    .bss.rx_index.0:00000000 $d
C:\Users\Xuleo\AppData\Local\Temp\ccgjlH0g.s:526    .data.pwmNum:00000000 $d

UNDEFINED SYMBOLS
HAL_UART_Receive_IT
rx_byte
rx_data
rx_complete
huart1
memset
HAL_RCC_OscConfig
HAL_RCC_ClockConfig
HAL_Init
MX_GPIO_Init
MX_DMA_Init
MX_USART1_UART_Init
MX_I2C1_Init
MX_I2C2_Init
MX_TIM3_Init
MX_TIM2_Init
MX_TIM1_Init
MX_USART2_UART_Init
OLED_Init
OLED_WriteString
OLED_SetCursor
checkExist
HAL_GPIO_WritePin
mpu6050Init
init
HC05_ReceiveInfo
HAL_TIM_PWM_Start
readAcc
HAL_TIM_Base_Start_IT
executeCommand
HC05_SendInfo
htim3
htim2
