ARM GAS  C:\Users\Xuleo\AppData\Local\Temp\ccM92Jmi.s 			page 1


   1              		.cpu cortex-m3
   2              		.arch armv7-m
   3              		.fpu softvfp
   4              		.eabi_attribute 20, 1
   5              		.eabi_attribute 21, 1
   6              		.eabi_attribute 23, 3
   7              		.eabi_attribute 24, 1
   8              		.eabi_attribute 25, 1
   9              		.eabi_attribute 26, 1
  10              		.eabi_attribute 30, 1
  11              		.eabi_attribute 34, 1
  12              		.eabi_attribute 18, 4
  13              		.file	"main.c"
  14              		.text
  15              	.Ltext0:
  16              		.cfi_sections	.debug_frame
  17              		.file 1 "Core/Src/main.c"
  18              		.section	.text.HAL_UART_RxCpltCallback,"ax",%progbits
  19              		.align	1
  20              		.global	HAL_UART_RxCpltCallback
  21              		.syntax unified
  22              		.thumb
  23              		.thumb_func
  25              	HAL_UART_RxCpltCallback:
  26              	.LVL0:
  27              	.LFB70:
   1:Core/Src/main.c **** /* USER CODE BEGIN Header */
   2:Core/Src/main.c **** /**
   3:Core/Src/main.c ****   ******************************************************************************
   4:Core/Src/main.c ****   * @file           : main.c
   5:Core/Src/main.c ****   * @brief          : Main program body
   6:Core/Src/main.c ****   ******************************************************************************
   7:Core/Src/main.c ****   * @attention
   8:Core/Src/main.c ****   *
   9:Core/Src/main.c ****   * Copyright (c) 2026 STMicroelectronics.
  10:Core/Src/main.c ****   * All rights reserved.
  11:Core/Src/main.c ****   *
  12:Core/Src/main.c ****   * This software is licensed under terms that can be found in the LICENSE file
  13:Core/Src/main.c ****   * in the root directory of this software component.
  14:Core/Src/main.c ****   * If no LICENSE file comes with this software, it is provided AS-IS.
  15:Core/Src/main.c ****   *
  16:Core/Src/main.c ****   ******************************************************************************
  17:Core/Src/main.c ****   */
  18:Core/Src/main.c **** /* USER CODE END Header */
  19:Core/Src/main.c **** /* Includes ------------------------------------------------------------------*/
  20:Core/Src/main.c **** #include "main.h"
  21:Core/Src/main.c **** #include "dma.h"
  22:Core/Src/main.c **** #include "i2c.h"
  23:Core/Src/main.c **** #include "spi.h"
  24:Core/Src/main.c **** #include "tim.h"
  25:Core/Src/main.c **** #include "usart.h"
  26:Core/Src/main.c **** #include "gpio.h"
  27:Core/Src/main.c **** 
  28:Core/Src/main.c **** /* Private includes ----------------------------------------------------------*/
  29:Core/Src/main.c **** /* USER CODE BEGIN Includes */
  30:Core/Src/main.c **** #include <application.h>
  31:Core/Src/main.c **** #include <file_transfer.h>
ARM GAS  C:\Users\Xuleo\AppData\Local\Temp\ccM92Jmi.s 			page 2


  32:Core/Src/main.c **** #include <stdio.h>
  33:Core/Src/main.c **** /* USER CODE END Includes */
  34:Core/Src/main.c **** 
  35:Core/Src/main.c **** /* Private typedef -----------------------------------------------------------*/
  36:Core/Src/main.c **** /* USER CODE BEGIN PTD */
  37:Core/Src/main.c **** 
  38:Core/Src/main.c **** /* USER CODE END PTD */
  39:Core/Src/main.c **** 
  40:Core/Src/main.c **** /* Private define ------------------------------------------------------------*/
  41:Core/Src/main.c **** /* USER CODE BEGIN PD */
  42:Core/Src/main.c **** 
  43:Core/Src/main.c **** /* USER CODE END PD */
  44:Core/Src/main.c **** 
  45:Core/Src/main.c **** /* Private macro -------------------------------------------------------------*/
  46:Core/Src/main.c **** /* USER CODE BEGIN PM */
  47:Core/Src/main.c **** 
  48:Core/Src/main.c **** /* USER CODE END PM */
  49:Core/Src/main.c **** 
  50:Core/Src/main.c **** /* Private variables ---------------------------------------------------------*/
  51:Core/Src/main.c **** 
  52:Core/Src/main.c **** /* USER CODE BEGIN PV */
  53:Core/Src/main.c **** int pwmNum = 200;
  54:Core/Src/main.c **** uint8_t hexSDRead[20] = {0};
  55:Core/Src/main.c **** FIL file;
  56:Core/Src/main.c **** uint8_t FileBuffer[512];
  57:Core/Src/main.c **** UINT BytesRead;
  58:Core/Src/main.c **** /* USER CODE END PV */
  59:Core/Src/main.c **** 
  60:Core/Src/main.c **** /* Private function prototypes -----------------------------------------------*/
  61:Core/Src/main.c **** void SystemClock_Config(void);
  62:Core/Src/main.c **** /* USER CODE BEGIN PFP */
  63:Core/Src/main.c **** 
  64:Core/Src/main.c **** /* USER CODE END PFP */
  65:Core/Src/main.c **** 
  66:Core/Src/main.c **** /* Private user code ---------------------------------------------------------*/
  67:Core/Src/main.c **** /* USER CODE BEGIN 0 */
  68:Core/Src/main.c **** 
  69:Core/Src/main.c **** /* USER CODE END 0 */
  70:Core/Src/main.c **** 
  71:Core/Src/main.c **** /**
  72:Core/Src/main.c ****   * @brief  The application entry point.
  73:Core/Src/main.c ****   * @retval int
  74:Core/Src/main.c ****   */
  75:Core/Src/main.c **** int main(void)
  76:Core/Src/main.c **** {
  77:Core/Src/main.c **** 
  78:Core/Src/main.c ****   /* USER CODE BEGIN 1 */
  79:Core/Src/main.c **** 
  80:Core/Src/main.c ****   /* USER CODE END 1 */
  81:Core/Src/main.c **** 
  82:Core/Src/main.c ****   /* MCU Configuration--------------------------------------------------------*/
  83:Core/Src/main.c **** 
  84:Core/Src/main.c ****   /* Reset of all peripherals, Initializes the Flash interface and the Systick. */
  85:Core/Src/main.c ****   HAL_Init();
  86:Core/Src/main.c **** 
  87:Core/Src/main.c ****   /* USER CODE BEGIN Init */
  88:Core/Src/main.c **** 
ARM GAS  C:\Users\Xuleo\AppData\Local\Temp\ccM92Jmi.s 			page 3


  89:Core/Src/main.c ****   /* USER CODE END Init */
  90:Core/Src/main.c **** 
  91:Core/Src/main.c ****   /* Configure the system clock */
  92:Core/Src/main.c ****   SystemClock_Config();
  93:Core/Src/main.c **** 
  94:Core/Src/main.c ****   /* USER CODE BEGIN SysInit */
  95:Core/Src/main.c **** 
  96:Core/Src/main.c ****   /* USER CODE END SysInit */
  97:Core/Src/main.c **** 
  98:Core/Src/main.c ****   /* Initialize all configured peripherals */
  99:Core/Src/main.c ****   MX_GPIO_Init();
 100:Core/Src/main.c ****   MX_DMA_Init();
 101:Core/Src/main.c ****   MX_USART1_UART_Init();
 102:Core/Src/main.c ****   MX_I2C1_Init();
 103:Core/Src/main.c ****   MX_TIM3_Init();
 104:Core/Src/main.c ****   MX_TIM2_Init();
 105:Core/Src/main.c ****   MX_USART2_UART_Init();
 106:Core/Src/main.c ****   MX_TIM4_Init();
 107:Core/Src/main.c ****   MX_SPI2_Init();
 108:Core/Src/main.c ****   /* USER CODE BEGIN 2 */
 109:Core/Src/main.c **** #ifdef USINGOLED
 110:Core/Src/main.c ****   OLED_Init();
 111:Core/Src/main.c ****   OLED_WriteString("ELEC-391");
 112:Core/Src/main.c **** #endif
 113:Core/Src/main.c **** 
 114:Core/Src/main.c **** #ifdef USINGMPU6050
 115:Core/Src/main.c ****   if (checkExist()){ // cannot detect -> light LED
 116:Core/Src/main.c ****     HAL_GPIO_WritePin(GPIOA, GPIO_PIN_6, RESET);
 117:Core/Src/main.c ****     OLED_SetCursor(0, 3);
 118:Core/Src/main.c ****     OLED_WriteString("Cannot find MPU 6050!");
 119:Core/Src/main.c ****   } else {
 120:Core/Src/main.c ****     OLED_SetCursor(0, 3);
 121:Core/Src/main.c ****     OLED_WriteString("MPU 6050 Detected!");
 122:Core/Src/main.c ****   }
 123:Core/Src/main.c ****   mpu6050Init();
 124:Core/Src/main.c ****   int16_t accBuffer[3];
 125:Core/Src/main.c ****   readAcc(accBuffer);
 126:Core/Src/main.c **** #endif 
 127:Core/Src/main.c **** 
 128:Core/Src/main.c ****   init();  // Initialize VOFA struct
 129:Core/Src/main.c ****   //char displayAccBuffer[32];
 130:Core/Src/main.c **** #ifdef HC05SETUP 
 131:Core/Src/main.c ****   if (setupBT()){
 132:Core/Src/main.c ****     OLED_SetCursor(0, 5);
 133:Core/Src/main.c ****     OLED_WriteString("HC-05 is configured!");
 134:Core/Src/main.c ****   } else {
 135:Core/Src/main.c ****     OLED_SetCursor(0, 5);
 136:Core/Src/main.c ****     OLED_WriteString("Unable to config HC-05!");
 137:Core/Src/main.c ****   }
 138:Core/Src/main.c **** #endif
 139:Core/Src/main.c **** 
 140:Core/Src/main.c ****   HC05_ReceiveInfo(rx_data);
 141:Core/Src/main.c ****   FT_Init();  // Initialize file transfer module
 142:Core/Src/main.c ****   // start PWM: this PWM runs at 2000Hz, Calculation: 72MHz/(71+1)/(499+1) = 2000Hz
 143:Core/Src/main.c ****   HAL_TIM_PWM_Start(&htim3, TIM_CHANNEL_1); // TIM3_CH1 as displayed
 144:Core/Src/main.c ****   // set duty cycle
 145:Core/Src/main.c ****   __HAL_TIM_SET_COMPARE(&htim3, TIM_CHANNEL_1, 250); // 50% duty cycle, 250 by (499+1)/2=250
ARM GAS  C:\Users\Xuleo\AppData\Local\Temp\ccM92Jmi.s 			page 4


 146:Core/Src/main.c **** 
 147:Core/Src/main.c ****     // Initialize accData before starting interrupt
 148:Core/Src/main.c ****   HAL_TIM_Base_Start_IT(&htim4);  // Start TIM4 interrupt for controllerUpdate
 149:Core/Src/main.c ****   // OLED_SetCursor(0, 6);
 150:Core/Src/main.c ****   // OLED_WriteString("PWM ready!");
 151:Core/Src/main.c ****   // Initialize SD card with FatFs
 152:Core/Src/main.c ****   FRESULT sdResult = FR_NOT_READY;
 153:Core/Src/main.c ****   OLED_SetCursor(0, 2);
 154:Core/Src/main.c **** 
 155:Core/Src/main.c ****   // Try init multiple times (5 times)
 156:Core/Src/main.c ****   for (int i = 0; i < 5; i++) {
 157:Core/Src/main.c ****     sdResult = SD_Init();
 158:Core/Src/main.c ****     if (sdResult == FR_OK) {
 159:Core/Src/main.c ****       OLED_WriteString("SD Card OK!");
 160:Core/Src/main.c ****       break;
 161:Core/Src/main.c ****     }
 162:Core/Src/main.c ****     HAL_Delay(100);
 163:Core/Src/main.c ****   }
 164:Core/Src/main.c **** 
 165:Core/Src/main.c ****   if (sdResult != FR_OK) {
 166:Core/Src/main.c ****     snprintf((char*)hexSDRead, sizeof(hexSDRead), "SD err %d", sdResult);
 167:Core/Src/main.c ****     OLED_WriteString((char*)hexSDRead);
 168:Core/Src/main.c ****   } else {
 169:Core/Src/main.c ****     // List MIDI files and display
 170:Core/Src/main.c ****     OLED_SetCursor(0, 3);
 171:Core/Src/main.c ****     int numSongs = SD_ListMidiFiles();
 172:Core/Src/main.c ****     snprintf((char*)hexSDRead, sizeof(hexSDRead), "Found %d songs", numSongs);
 173:Core/Src/main.c ****     OLED_WriteString((char*)hexSDRead);
 174:Core/Src/main.c ****     SD_DisplaySongList(0, 0);
 175:Core/Src/main.c ****   }
 176:Core/Src/main.c ****   
 177:Core/Src/main.c ****   OLED_SetCursor(0, 1);
 178:Core/Src/main.c ****   OLED_WriteString("System Ready");
 179:Core/Src/main.c **** 
 180:Core/Src/main.c ****   if (SD_OpenFile(&file, "test1.mid", FA_READ) == FR_OK){
 181:Core/Src/main.c ****     SD_ReadFile(&file, FileBuffer, sizeof(FileBuffer), &BytesRead);
 182:Core/Src/main.c ****     SD_CloseFile(&file);
 183:Core/Src/main.c ****   }
 184:Core/Src/main.c ****   HC05_SendBytes(FileBuffer, BytesRead);
 185:Core/Src/main.c ****   OLED_SetCursor(0, 1);
 186:Core/Src/main.c ****   OLED_WriteString("Send bytes!   ");
 187:Core/Src/main.c **** 
 188:Core/Src/main.c ****   /* USER CODE END 2 */
 189:Core/Src/main.c **** 
 190:Core/Src/main.c ****   /* Infinite loop */
 191:Core/Src/main.c ****   /* USER CODE BEGIN WHILE */
 192:Core/Src/main.c ****   while (1)
 193:Core/Src/main.c ****   {
 194:Core/Src/main.c ****     /* USER CODE END WHILE */
 195:Core/Src/main.c **** 
 196:Core/Src/main.c ****     /* USER CODE BEGIN 3 */
 197:Core/Src/main.c ****     // Process file transfer binary packets
 198:Core/Src/main.c ****     if (rx_binary_complete) {
 199:Core/Src/main.c ****       // Copy packet data BEFORE resetting - prevents race condition with interrupt
 200:Core/Src/main.c ****       uint8_t packet_copy[80];
 201:Core/Src/main.c ****       uint16_t packet_len = rx_binary_index;
 202:Core/Src/main.c ****       memcpy(packet_copy, rx_binary_buffer, packet_len);
ARM GAS  C:\Users\Xuleo\AppData\Local\Temp\ccM92Jmi.s 			page 5


 203:Core/Src/main.c **** 
 204:Core/Src/main.c ****       // Reset BEFORE processing so interrupt can receive next packet
 205:Core/Src/main.c ****       rx_binary_complete = 0;
 206:Core/Src/main.c ****       rx_binary_index = 0;
 207:Core/Src/main.c **** 
 208:Core/Src/main.c ****       // Now safely process the copy
 209:Core/Src/main.c ****       FT_ProcessPacket(packet_copy, packet_len);
 210:Core/Src/main.c ****     }
 211:Core/Src/main.c **** 
 212:Core/Src/main.c ****     // Check for file transfer timeout
 213:Core/Src/main.c ****     FT_TimeoutCheck();
 214:Core/Src/main.c **** 
 215:Core/Src/main.c ****     // only process when complete message received
 216:Core/Src/main.c ****   #ifdef USINGHC05
 217:Core/Src/main.c ****     if(rx_complete){
 218:Core/Src/main.c ****       // OLED_SetCursor(0, 5);
 219:Core/Src/main.c ****       // OLED_WriteString((char*)rx_data);  // cast to char*
 220:Core/Src/main.c ****       executeCommand(rx_data);
 221:Core/Src/main.c ****       rx_complete = 0;  // clear flag
 222:Core/Src/main.c ****       // echo back with \r\n for terminal
 223:Core/Src/main.c ****       HC05_SendInfo((uint8_t*)"Got it!\r\n");
 224:Core/Src/main.c ****     }
 225:Core/Src/main.c ****     // HC05_SendInfo((uint8_t*)"Still Alive!\r\n");  // Disabled during file transfer
 226:Core/Src/main.c ****   #endif
 227:Core/Src/main.c **** 
 228:Core/Src/main.c **** 
 229:Core/Src/main.c **** 
 230:Core/Src/main.c ****     // dynamic pwm from 40%->100%, 40% -> 200, 100% -> 500
 231:Core/Src/main.c ****     if (pwmNum < 500) {
 232:Core/Src/main.c ****       pwmNum++;
 233:Core/Src/main.c ****     } else {
 234:Core/Src/main.c ****       pwmNum = 200;
 235:Core/Src/main.c ****     }
 236:Core/Src/main.c ****     __HAL_TIM_SET_COMPARE(&htim3, TIM_CHANNEL_1, pwmNum);
 237:Core/Src/main.c ****   }
 238:Core/Src/main.c ****   /* USER CODE END 3 */
 239:Core/Src/main.c **** }
 240:Core/Src/main.c **** 
 241:Core/Src/main.c **** /**
 242:Core/Src/main.c ****   * @brief System Clock Configuration
 243:Core/Src/main.c ****   * @retval None
 244:Core/Src/main.c ****   */
 245:Core/Src/main.c **** void SystemClock_Config(void)
 246:Core/Src/main.c **** {
 247:Core/Src/main.c ****   RCC_OscInitTypeDef RCC_OscInitStruct = {0};
 248:Core/Src/main.c ****   RCC_ClkInitTypeDef RCC_ClkInitStruct = {0};
 249:Core/Src/main.c **** 
 250:Core/Src/main.c ****   /** Initializes the RCC Oscillators according to the specified parameters
 251:Core/Src/main.c ****   * in the RCC_OscInitTypeDef structure.
 252:Core/Src/main.c ****   */
 253:Core/Src/main.c ****   RCC_OscInitStruct.OscillatorType = RCC_OSCILLATORTYPE_HSE;
 254:Core/Src/main.c ****   RCC_OscInitStruct.HSEState = RCC_HSE_ON;
 255:Core/Src/main.c ****   RCC_OscInitStruct.HSEPredivValue = RCC_HSE_PREDIV_DIV1;
 256:Core/Src/main.c ****   RCC_OscInitStruct.HSIState = RCC_HSI_ON;
 257:Core/Src/main.c ****   RCC_OscInitStruct.PLL.PLLState = RCC_PLL_ON;
 258:Core/Src/main.c ****   RCC_OscInitStruct.PLL.PLLSource = RCC_PLLSOURCE_HSE;
 259:Core/Src/main.c ****   RCC_OscInitStruct.PLL.PLLMUL = RCC_PLL_MUL9;
ARM GAS  C:\Users\Xuleo\AppData\Local\Temp\ccM92Jmi.s 			page 6


 260:Core/Src/main.c ****   if (HAL_RCC_OscConfig(&RCC_OscInitStruct) != HAL_OK)
 261:Core/Src/main.c ****   {
 262:Core/Src/main.c ****     Error_Handler();
 263:Core/Src/main.c ****   }
 264:Core/Src/main.c **** 
 265:Core/Src/main.c ****   /** Initializes the CPU, AHB and APB buses clocks
 266:Core/Src/main.c ****   */
 267:Core/Src/main.c ****   RCC_ClkInitStruct.ClockType = RCC_CLOCKTYPE_HCLK|RCC_CLOCKTYPE_SYSCLK
 268:Core/Src/main.c ****                               |RCC_CLOCKTYPE_PCLK1|RCC_CLOCKTYPE_PCLK2;
 269:Core/Src/main.c ****   RCC_ClkInitStruct.SYSCLKSource = RCC_SYSCLKSOURCE_PLLCLK;
 270:Core/Src/main.c ****   RCC_ClkInitStruct.AHBCLKDivider = RCC_SYSCLK_DIV1;
 271:Core/Src/main.c ****   RCC_ClkInitStruct.APB1CLKDivider = RCC_HCLK_DIV2;
 272:Core/Src/main.c ****   RCC_ClkInitStruct.APB2CLKDivider = RCC_HCLK_DIV1;
 273:Core/Src/main.c **** 
 274:Core/Src/main.c ****   if (HAL_RCC_ClockConfig(&RCC_ClkInitStruct, FLASH_LATENCY_2) != HAL_OK)
 275:Core/Src/main.c ****   {
 276:Core/Src/main.c ****     Error_Handler();
 277:Core/Src/main.c ****   }
 278:Core/Src/main.c **** }
 279:Core/Src/main.c **** 
 280:Core/Src/main.c **** /* USER CODE BEGIN 4 */
 281:Core/Src/main.c **** /* Note: USART1 now uses DMA with IDLE line detection (HAL_UARTEx_RxEventCallback)
 282:Core/Src/main.c ****    This old callback is kept for compatibility but USART1 won't trigger it anymore */
 283:Core/Src/main.c **** void HAL_UART_RxCpltCallback(UART_HandleTypeDef *huart){
  28              		.loc 1 283 56 view -0
  29              		.cfi_startproc
  30              		@ args = 0, pretend = 0, frame = 0
  31              		@ frame_needed = 0, uses_anonymous_args = 0
  32              		@ link register save eliminated.
 284:Core/Src/main.c ****   (void)huart;  /* Unused - USART1 uses DMA now */
  33              		.loc 1 284 3 view .LVU1
 285:Core/Src/main.c **** }
  34              		.loc 1 285 1 is_stmt 0 view .LVU2
  35 0000 7047     		bx	lr
  36              		.cfi_endproc
  37              	.LFE70:
  39              		.section	.text.HAL_UART_TxCpltCallback,"ax",%progbits
  40              		.align	1
  41              		.global	HAL_UART_TxCpltCallback
  42              		.syntax unified
  43              		.thumb
  44              		.thumb_func
  46              	HAL_UART_TxCpltCallback:
  47              	.LVL1:
  48              	.LFB71:
 286:Core/Src/main.c **** 
 287:Core/Src/main.c **** // DMA TX complete callback - required for continuous DMA transmission
 288:Core/Src/main.c **** void HAL_UART_TxCpltCallback(UART_HandleTypeDef *huart){
  49              		.loc 1 288 56 is_stmt 1 view -0
  50              		.cfi_startproc
  51              		@ args = 0, pretend = 0, frame = 0
  52              		@ frame_needed = 0, uses_anonymous_args = 0
  53              		@ link register save eliminated.
 289:Core/Src/main.c ****   if(huart->Instance == USART2){
  54              		.loc 1 289 3 view .LVU4
 290:Core/Src/main.c ****     // DMA transfer complete - state automatically reset to READY by HAL
 291:Core/Src/main.c ****     // This callback confirms DMA is working
ARM GAS  C:\Users\Xuleo\AppData\Local\Temp\ccM92Jmi.s 			page 7


 292:Core/Src/main.c ****   }
  55              		.loc 1 292 3 view .LVU5
 293:Core/Src/main.c **** }
  56              		.loc 1 293 1 is_stmt 0 view .LVU6
  57 0000 7047     		bx	lr
  58              		.cfi_endproc
  59              	.LFE71:
  61              		.section	.text.HAL_UART_ErrorCallback,"ax",%progbits
  62              		.align	1
  63              		.global	HAL_UART_ErrorCallback
  64              		.syntax unified
  65              		.thumb
  66              		.thumb_func
  68              	HAL_UART_ErrorCallback:
  69              	.LVL2:
  70              	.LFB72:
 294:Core/Src/main.c **** 
 295:Core/Src/main.c **** // UART Error callback - critical for handling overrun errors on STM32F1
 296:Core/Src/main.c **** void HAL_UART_ErrorCallback(UART_HandleTypeDef *huart){
  71              		.loc 1 296 55 is_stmt 1 view -0
  72              		.cfi_startproc
  73              		@ args = 0, pretend = 0, frame = 16
  74              		@ frame_needed = 0, uses_anonymous_args = 0
 297:Core/Src/main.c ****   if(huart->Instance == USART1){
  75              		.loc 1 297 3 view .LVU8
  76              		.loc 1 297 11 is_stmt 0 view .LVU9
  77 0000 0368     		ldr	r3, [r0]
  78              		.loc 1 297 5 view .LVU10
  79 0002 114A     		ldr	r2, .L10
  80 0004 9342     		cmp	r3, r2
  81 0006 00D0     		beq	.L9
  82 0008 7047     		bx	lr
  83              	.L9:
 296:Core/Src/main.c ****   if(huart->Instance == USART1){
  84              		.loc 1 296 55 view .LVU11
  85 000a 00B5     		push	{lr}
  86              	.LCFI0:
  87              		.cfi_def_cfa_offset 4
  88              		.cfi_offset 14, -4
  89 000c 85B0     		sub	sp, sp, #20
  90              	.LCFI1:
  91              		.cfi_def_cfa_offset 24
 298:Core/Src/main.c ****     // Clear all error flags (ORE, NE, FE, PE)
 299:Core/Src/main.c ****     __HAL_UART_CLEAR_OREFLAG(huart);
  92              		.loc 1 299 5 is_stmt 1 view .LVU12
  93              	.LBB4:
  94              		.loc 1 299 5 view .LVU13
  95 000e 0022     		movs	r2, #0
  96 0010 0092     		str	r2, [sp]
  97              		.loc 1 299 5 view .LVU14
  98 0012 1968     		ldr	r1, [r3]
  99 0014 0091     		str	r1, [sp]
 100              		.loc 1 299 5 view .LVU15
 101 0016 5968     		ldr	r1, [r3, #4]
 102 0018 0091     		str	r1, [sp]
 103              		.loc 1 299 5 view .LVU16
 104 001a 0099     		ldr	r1, [sp]
ARM GAS  C:\Users\Xuleo\AppData\Local\Temp\ccM92Jmi.s 			page 8


 105              	.LBE4:
 106              		.loc 1 299 5 view .LVU17
 300:Core/Src/main.c ****     __HAL_UART_CLEAR_NEFLAG(huart);
 107              		.loc 1 300 5 view .LVU18
 108              	.LBB5:
 109              		.loc 1 300 5 view .LVU19
 110 001c 0192     		str	r2, [sp, #4]
 111              		.loc 1 300 5 view .LVU20
 112 001e 1968     		ldr	r1, [r3]
 113 0020 0191     		str	r1, [sp, #4]
 114              		.loc 1 300 5 view .LVU21
 115 0022 5968     		ldr	r1, [r3, #4]
 116 0024 0191     		str	r1, [sp, #4]
 117              		.loc 1 300 5 view .LVU22
 118 0026 0199     		ldr	r1, [sp, #4]
 119              	.LBE5:
 120              		.loc 1 300 5 view .LVU23
 301:Core/Src/main.c ****     __HAL_UART_CLEAR_FEFLAG(huart);
 121              		.loc 1 301 5 view .LVU24
 122              	.LBB6:
 123              		.loc 1 301 5 view .LVU25
 124 0028 0292     		str	r2, [sp, #8]
 125              		.loc 1 301 5 view .LVU26
 126 002a 1968     		ldr	r1, [r3]
 127 002c 0291     		str	r1, [sp, #8]
 128              		.loc 1 301 5 view .LVU27
 129 002e 5968     		ldr	r1, [r3, #4]
 130 0030 0291     		str	r1, [sp, #8]
 131              		.loc 1 301 5 view .LVU28
 132 0032 0299     		ldr	r1, [sp, #8]
 133              	.LBE6:
 134              		.loc 1 301 5 view .LVU29
 302:Core/Src/main.c ****     __HAL_UART_CLEAR_PEFLAG(huart);
 135              		.loc 1 302 5 view .LVU30
 136              	.LBB7:
 137              		.loc 1 302 5 view .LVU31
 138 0034 0392     		str	r2, [sp, #12]
 139              		.loc 1 302 5 view .LVU32
 140 0036 1A68     		ldr	r2, [r3]
 141 0038 0392     		str	r2, [sp, #12]
 142              		.loc 1 302 5 view .LVU33
 143 003a 5B68     		ldr	r3, [r3, #4]
 144 003c 0393     		str	r3, [sp, #12]
 145              		.loc 1 302 5 view .LVU34
 146 003e 039B     		ldr	r3, [sp, #12]
 147              	.LBE7:
 148              		.loc 1 302 5 view .LVU35
 303:Core/Src/main.c **** 
 304:Core/Src/main.c ****     // Restart DMA reception
 305:Core/Src/main.c ****     HC05_RestartDMA();
 149              		.loc 1 305 5 view .LVU36
 150 0040 FFF7FEFF 		bl	HC05_RestartDMA
 151              	.LVL3:
 306:Core/Src/main.c ****   }
 307:Core/Src/main.c **** }
 152              		.loc 1 307 1 is_stmt 0 view .LVU37
 153 0044 05B0     		add	sp, sp, #20
ARM GAS  C:\Users\Xuleo\AppData\Local\Temp\ccM92Jmi.s 			page 9


 154              	.LCFI2:
 155              		.cfi_def_cfa_offset 4
 156              		@ sp needed
 157 0046 00BD     		pop	{pc}
 158              	.L11:
 159              		.align	2
 160              	.L10:
 161 0048 00380140 		.word	1073821696
 162              		.cfi_endproc
 163              	.LFE72:
 165              		.section	.text.HAL_UARTEx_RxEventCallback,"ax",%progbits
 166              		.align	1
 167              		.global	HAL_UARTEx_RxEventCallback
 168              		.syntax unified
 169              		.thumb
 170              		.thumb_func
 172              	HAL_UARTEx_RxEventCallback:
 173              	.LVL4:
 174              	.LFB73:
 308:Core/Src/main.c **** 
 309:Core/Src/main.c **** // DMA RX callback - handles both USART1 (HC05) and USART2 (VOFA)
 310:Core/Src/main.c **** void HAL_UARTEx_RxEventCallback(UART_HandleTypeDef *huart, uint16_t Size)
 311:Core/Src/main.c **** {
 175              		.loc 1 311 1 is_stmt 1 view -0
 176              		.cfi_startproc
 177              		@ args = 0, pretend = 0, frame = 0
 178              		@ frame_needed = 0, uses_anonymous_args = 0
 179              		.loc 1 311 1 is_stmt 0 view .LVU39
 180 0000 10B5     		push	{r4, lr}
 181              	.LCFI3:
 182              		.cfi_def_cfa_offset 8
 183              		.cfi_offset 4, -8
 184              		.cfi_offset 14, -4
 312:Core/Src/main.c ****   if (huart->Instance == USART1) {
 185              		.loc 1 312 3 is_stmt 1 view .LVU40
 186              		.loc 1 312 12 is_stmt 0 view .LVU41
 187 0002 0368     		ldr	r3, [r0]
 188              		.loc 1 312 6 view .LVU42
 189 0004 364A     		ldr	r2, .L31
 190 0006 9342     		cmp	r3, r2
 191 0008 03D0     		beq	.L27
 313:Core/Src/main.c ****     /* HC05 Bluetooth - DMA reception with IDLE line detection */
 314:Core/Src/main.c ****     /* IMPORTANT: Process data BEFORE restarting DMA (single buffer) */
 315:Core/Src/main.c **** 
 316:Core/Src/main.c ****     if (Size > 0) {
 317:Core/Src/main.c ****       /* Check if it's a binary protocol packet */
 318:Core/Src/main.c ****       if (rx_dma_buffer[0] >= 0xF0 && rx_dma_buffer[0] <= 0xF3) {
 319:Core/Src/main.c ****         /* Binary packet - always copy (main loop copies before processing so safe) */
 320:Core/Src/main.c ****         uint16_t copy_len = (Size < sizeof(rx_binary_buffer)) ? Size : sizeof(rx_binary_buffer);
 321:Core/Src/main.c ****         memcpy(rx_binary_buffer, rx_dma_buffer, copy_len);
 322:Core/Src/main.c ****         rx_binary_index = copy_len;
 323:Core/Src/main.c ****         rx_binary_complete = 1;
 324:Core/Src/main.c ****       } else if (!rx_complete) {
 325:Core/Src/main.c ****         /* Text command - only copy if previous not pending (text can be lost) */
 326:Core/Src/main.c ****         uint16_t copy_len = (Size < sizeof(rx_data) - 1) ? Size : sizeof(rx_data) - 1;
 327:Core/Src/main.c ****         memcpy(rx_data, rx_dma_buffer, copy_len);
 328:Core/Src/main.c ****         rx_data[copy_len] = '\0';
ARM GAS  C:\Users\Xuleo\AppData\Local\Temp\ccM92Jmi.s 			page 10


 329:Core/Src/main.c ****         rx_complete = 1;
 330:Core/Src/main.c ****       }
 331:Core/Src/main.c ****     }
 332:Core/Src/main.c **** 
 333:Core/Src/main.c ****     /* Restart DMA AFTER processing - abort ensures clean state */
 334:Core/Src/main.c ****     HC05_RestartDMA();
 335:Core/Src/main.c ****   }
 336:Core/Src/main.c ****   else if (huart->Instance == USART2) {
 192              		.loc 1 336 8 is_stmt 1 view .LVU43
 193              		.loc 1 336 11 is_stmt 0 view .LVU44
 194 000a 364A     		ldr	r2, .L31+4
 195 000c 9342     		cmp	r3, r2
 196 000e 2CD0     		beq	.L28
 197              	.LVL5:
 198              	.L12:
 337:Core/Src/main.c ****     // parse vofa message and save pid data
 338:Core/Src/main.c ****     // first only handle if message >= 5 bytes
 339:Core/Src/main.c ****     if (Size >= 5) {
 340:Core/Src/main.c ****       uint8_t command = VOFA_SEND_BUFFER[0];
 341:Core/Src/main.c ****       float value; // the pid will be stored as float
 342:Core/Src/main.c **** 
 343:Core/Src/main.c ****       switch (command)
 344:Core/Src/main.c ****       {
 345:Core/Src/main.c ****       case CMD_SET_LEFT_P:
 346:Core/Src/main.c ****         memcpy(&value, &VOFA_SEND_BUFFER[1], sizeof(float)); // first copy to value 
 347:Core/Src/main.c ****         leftHandMotor.P=value;
 348:Core/Src/main.c ****         break;
 349:Core/Src/main.c **** 
 350:Core/Src/main.c ****       case CMD_SET_LEFT_I:
 351:Core/Src/main.c ****         memcpy(&value, &VOFA_SEND_BUFFER[1], sizeof(float));
 352:Core/Src/main.c ****         leftHandMotor.I = value;
 353:Core/Src/main.c ****         break;
 354:Core/Src/main.c **** 
 355:Core/Src/main.c ****       case CMD_SET_LEFT_D:
 356:Core/Src/main.c ****         memcpy(&value, &VOFA_SEND_BUFFER[1], sizeof(float));
 357:Core/Src/main.c ****         leftHandMotor.D = value;
 358:Core/Src/main.c ****         break;
 359:Core/Src/main.c **** 
 360:Core/Src/main.c ****       case CMD_SET_RIGHT_P:
 361:Core/Src/main.c ****         memcpy(&value, &VOFA_SEND_BUFFER[1], sizeof(float)); // first copy to value 
 362:Core/Src/main.c ****         rightHandMotor.P=value;
 363:Core/Src/main.c ****         break;
 364:Core/Src/main.c **** 
 365:Core/Src/main.c ****       case CMD_SET_RIGHT_I:
 366:Core/Src/main.c ****         memcpy(&value, &VOFA_SEND_BUFFER[1], sizeof(float));
 367:Core/Src/main.c ****         rightHandMotor.I = value;
 368:Core/Src/main.c ****         break;
 369:Core/Src/main.c **** 
 370:Core/Src/main.c ****       case CMD_SET_RIGHT_D:
 371:Core/Src/main.c ****         memcpy(&value, &VOFA_SEND_BUFFER[1], sizeof(float));
 372:Core/Src/main.c ****         rightHandMotor.D = value;
 373:Core/Src/main.c ****         break;
 374:Core/Src/main.c ****       
 375:Core/Src/main.c ****       default:
 376:Core/Src/main.c ****         break;
 377:Core/Src/main.c ****       }
 378:Core/Src/main.c ****     }
ARM GAS  C:\Users\Xuleo\AppData\Local\Temp\ccM92Jmi.s 			page 11


 379:Core/Src/main.c **** 
 380:Core/Src/main.c ****     // restart receive
 381:Core/Src/main.c ****     HAL_UARTEx_ReceiveToIdle_DMA(&huart2, VOFA_SEND_BUFFER, sizeof(VOFA_SEND_BUFFER));
 382:Core/Src/main.c ****   }
 383:Core/Src/main.c **** }
 199              		.loc 1 383 1 view .LVU45
 200 0010 10BD     		pop	{r4, pc}
 201              	.LVL6:
 202              	.L27:
 316:Core/Src/main.c ****       /* Check if it's a binary protocol packet */
 203              		.loc 1 316 5 is_stmt 1 view .LVU46
 316:Core/Src/main.c ****       /* Check if it's a binary protocol packet */
 204              		.loc 1 316 8 is_stmt 0 view .LVU47
 205 0012 41B1     		cbz	r1, .L14
 318:Core/Src/main.c ****         /* Binary packet - always copy (main loop copies before processing so safe) */
 206              		.loc 1 318 7 is_stmt 1 view .LVU48
 318:Core/Src/main.c ****         /* Binary packet - always copy (main loop copies before processing so safe) */
 207              		.loc 1 318 24 is_stmt 0 view .LVU49
 208 0014 344B     		ldr	r3, .L31+8
 209 0016 1B78     		ldrb	r3, [r3]	@ zero_extendqisi2
 318:Core/Src/main.c ****         /* Binary packet - always copy (main loop copies before processing so safe) */
 210              		.loc 1 318 36 view .LVU50
 211 0018 1033     		adds	r3, r3, #16
 212 001a DBB2     		uxtb	r3, r3
 318:Core/Src/main.c ****         /* Binary packet - always copy (main loop copies before processing so safe) */
 213              		.loc 1 318 10 view .LVU51
 214 001c 032B     		cmp	r3, #3
 215 001e 05D9     		bls	.L29
 324:Core/Src/main.c ****         /* Text command - only copy if previous not pending (text can be lost) */
 216              		.loc 1 324 14 is_stmt 1 view .LVU52
 324:Core/Src/main.c ****         /* Text command - only copy if previous not pending (text can be lost) */
 217              		.loc 1 324 18 is_stmt 0 view .LVU53
 218 0020 324B     		ldr	r3, .L31+12
 219 0022 1B78     		ldrb	r3, [r3]	@ zero_extendqisi2
 324:Core/Src/main.c ****         /* Text command - only copy if previous not pending (text can be lost) */
 220              		.loc 1 324 17 view .LVU54
 221 0024 8BB1     		cbz	r3, .L30
 222              	.LVL7:
 223              	.L14:
 334:Core/Src/main.c ****   }
 224              		.loc 1 334 5 is_stmt 1 view .LVU55
 225 0026 FFF7FEFF 		bl	HC05_RestartDMA
 226              	.LVL8:
 227 002a F1E7     		b	.L12
 228              	.LVL9:
 229              	.L29:
 230              	.LBB8:
 320:Core/Src/main.c ****         memcpy(rx_binary_buffer, rx_dma_buffer, copy_len);
 231              		.loc 1 320 9 view .LVU56
 320:Core/Src/main.c ****         memcpy(rx_binary_buffer, rx_dma_buffer, copy_len);
 232              		.loc 1 320 18 is_stmt 0 view .LVU57
 233 002c 5029     		cmp	r1, #80
 234 002e 28BF     		it	cs
 235 0030 5021     		movcs	r1, #80
 236              	.LVL10:
 320:Core/Src/main.c ****         memcpy(rx_binary_buffer, rx_dma_buffer, copy_len);
 237              		.loc 1 320 18 view .LVU58
ARM GAS  C:\Users\Xuleo\AppData\Local\Temp\ccM92Jmi.s 			page 12


 238 0032 0C46     		mov	r4, r1
 239              	.LVL11:
 321:Core/Src/main.c ****         rx_binary_index = copy_len;
 240              		.loc 1 321 9 is_stmt 1 view .LVU59
 241 0034 0A46     		mov	r2, r1
 242 0036 2C49     		ldr	r1, .L31+8
 243              	.LVL12:
 321:Core/Src/main.c ****         rx_binary_index = copy_len;
 244              		.loc 1 321 9 is_stmt 0 view .LVU60
 245 0038 2D48     		ldr	r0, .L31+16
 246              	.LVL13:
 321:Core/Src/main.c ****         rx_binary_index = copy_len;
 247              		.loc 1 321 9 view .LVU61
 248 003a FFF7FEFF 		bl	memcpy
 249              	.LVL14:
 322:Core/Src/main.c ****         rx_binary_complete = 1;
 250              		.loc 1 322 9 is_stmt 1 view .LVU62
 322:Core/Src/main.c ****         rx_binary_complete = 1;
 251              		.loc 1 322 25 is_stmt 0 view .LVU63
 252 003e 2D4B     		ldr	r3, .L31+20
 253 0040 1C80     		strh	r4, [r3]	@ movhi
 323:Core/Src/main.c ****       } else if (!rx_complete) {
 254              		.loc 1 323 9 is_stmt 1 view .LVU64
 323:Core/Src/main.c ****       } else if (!rx_complete) {
 255              		.loc 1 323 28 is_stmt 0 view .LVU65
 256 0042 2D4B     		ldr	r3, .L31+24
 257 0044 0122     		movs	r2, #1
 258 0046 1A70     		strb	r2, [r3]
 259              	.LBE8:
 260 0048 EDE7     		b	.L14
 261              	.LVL15:
 262              	.L30:
 263              	.LBB9:
 326:Core/Src/main.c ****         memcpy(rx_data, rx_dma_buffer, copy_len);
 264              		.loc 1 326 9 is_stmt 1 view .LVU66
 326:Core/Src/main.c ****         memcpy(rx_data, rx_dma_buffer, copy_len);
 265              		.loc 1 326 18 is_stmt 0 view .LVU67
 266 004a 6329     		cmp	r1, #99
 267 004c 28BF     		it	cs
 268 004e 6321     		movcs	r1, #99
 269              	.LVL16:
 326:Core/Src/main.c ****         memcpy(rx_data, rx_dma_buffer, copy_len);
 270              		.loc 1 326 18 view .LVU68
 271 0050 0C46     		mov	r4, r1
 272              	.LVL17:
 327:Core/Src/main.c ****         rx_data[copy_len] = '\0';
 273              		.loc 1 327 9 is_stmt 1 view .LVU69
 274 0052 0A46     		mov	r2, r1
 275 0054 2449     		ldr	r1, .L31+8
 276              	.LVL18:
 327:Core/Src/main.c ****         rx_data[copy_len] = '\0';
 277              		.loc 1 327 9 is_stmt 0 view .LVU70
 278 0056 2948     		ldr	r0, .L31+28
 279              	.LVL19:
 327:Core/Src/main.c ****         rx_data[copy_len] = '\0';
 280              		.loc 1 327 9 view .LVU71
 281 0058 FFF7FEFF 		bl	memcpy
ARM GAS  C:\Users\Xuleo\AppData\Local\Temp\ccM92Jmi.s 			page 13


 282              	.LVL20:
 328:Core/Src/main.c ****         rx_complete = 1;
 283              		.loc 1 328 9 is_stmt 1 view .LVU72
 328:Core/Src/main.c ****         rx_complete = 1;
 284              		.loc 1 328 27 is_stmt 0 view .LVU73
 285 005c 0023     		movs	r3, #0
 286 005e 274A     		ldr	r2, .L31+28
 287 0060 1355     		strb	r3, [r2, r4]
 329:Core/Src/main.c ****       }
 288              		.loc 1 329 9 is_stmt 1 view .LVU74
 329:Core/Src/main.c ****       }
 289              		.loc 1 329 21 is_stmt 0 view .LVU75
 290 0062 224B     		ldr	r3, .L31+12
 291 0064 0122     		movs	r2, #1
 292 0066 1A70     		strb	r2, [r3]
 293 0068 DDE7     		b	.L14
 294              	.LVL21:
 295              	.L28:
 329:Core/Src/main.c ****       }
 296              		.loc 1 329 21 view .LVU76
 297              	.LBE9:
 339:Core/Src/main.c ****       uint8_t command = VOFA_SEND_BUFFER[0];
 298              		.loc 1 339 5 is_stmt 1 view .LVU77
 339:Core/Src/main.c ****       uint8_t command = VOFA_SEND_BUFFER[0];
 299              		.loc 1 339 8 is_stmt 0 view .LVU78
 300 006a 0429     		cmp	r1, #4
 301 006c 0FD9     		bls	.L17
 302              	.LBB10:
 340:Core/Src/main.c ****       float value; // the pid will be stored as float
 303              		.loc 1 340 7 is_stmt 1 view .LVU79
 340:Core/Src/main.c ****       float value; // the pid will be stored as float
 304              		.loc 1 340 15 is_stmt 0 view .LVU80
 305 006e 244B     		ldr	r3, .L31+32
 306 0070 1B78     		ldrb	r3, [r3]	@ zero_extendqisi2
 307              	.LVL22:
 341:Core/Src/main.c **** 
 308              		.loc 1 341 7 is_stmt 1 view .LVU81
 343:Core/Src/main.c ****       {
 309              		.loc 1 343 7 view .LVU82
 310 0072 112B     		cmp	r3, #17
 311 0074 27D0     		beq	.L18
 312 0076 10D8     		bhi	.L19
 313 0078 022B     		cmp	r3, #2
 314 007a 18D0     		beq	.L20
 315 007c 032B     		cmp	r3, #3
 316 007e 1CD0     		beq	.L21
 317 0080 012B     		cmp	r3, #1
 318 0082 04D1     		bne	.L17
 346:Core/Src/main.c ****         leftHandMotor.P=value;
 319              		.loc 1 346 9 view .LVU83
 347:Core/Src/main.c ****         break;
 320              		.loc 1 347 9 view .LVU84
 347:Core/Src/main.c ****         break;
 321              		.loc 1 347 24 is_stmt 0 view .LVU85
 322 0084 1E4B     		ldr	r3, .L31+32
 323              	.LVL23:
 347:Core/Src/main.c ****         break;
ARM GAS  C:\Users\Xuleo\AppData\Local\Temp\ccM92Jmi.s 			page 14


 324              		.loc 1 347 24 view .LVU86
 325 0086 D3F80120 		ldr	r2, [r3, #1]	@ unaligned
 326 008a 1E4B     		ldr	r3, .L31+36
 327              	.LVL24:
 347:Core/Src/main.c ****         break;
 328              		.loc 1 347 24 view .LVU87
 329 008c 1A60     		str	r2, [r3]	@ float
 348:Core/Src/main.c **** 
 330              		.loc 1 348 9 is_stmt 1 view .LVU88
 331              	.LVL25:
 332              	.L17:
 348:Core/Src/main.c **** 
 333              		.loc 1 348 9 is_stmt 0 view .LVU89
 334              	.LBE10:
 381:Core/Src/main.c ****   }
 335              		.loc 1 381 5 is_stmt 1 view .LVU90
 336 008e 4022     		movs	r2, #64
 337 0090 1B49     		ldr	r1, .L31+32
 338              	.LVL26:
 381:Core/Src/main.c ****   }
 339              		.loc 1 381 5 is_stmt 0 view .LVU91
 340 0092 1D48     		ldr	r0, .L31+40
 341              	.LVL27:
 381:Core/Src/main.c ****   }
 342              		.loc 1 381 5 view .LVU92
 343 0094 FFF7FEFF 		bl	HAL_UARTEx_ReceiveToIdle_DMA
 344              	.LVL28:
 345              		.loc 1 383 1 view .LVU93
 346 0098 BAE7     		b	.L12
 347              	.LVL29:
 348              	.L19:
 349              	.LBB11:
 343:Core/Src/main.c ****       {
 350              		.loc 1 343 7 view .LVU94
 351 009a 122B     		cmp	r3, #18
 352 009c 19D0     		beq	.L24
 353 009e 132B     		cmp	r3, #19
 354 00a0 F5D1     		bne	.L17
 371:Core/Src/main.c ****         rightHandMotor.D = value;
 355              		.loc 1 371 9 is_stmt 1 view .LVU95
 372:Core/Src/main.c ****         break;
 356              		.loc 1 372 9 view .LVU96
 372:Core/Src/main.c ****         break;
 357              		.loc 1 372 26 is_stmt 0 view .LVU97
 358 00a2 174B     		ldr	r3, .L31+32
 359              	.LVL30:
 372:Core/Src/main.c ****         break;
 360              		.loc 1 372 26 view .LVU98
 361 00a4 D3F80120 		ldr	r2, [r3, #1]	@ unaligned
 362 00a8 184B     		ldr	r3, .L31+44
 363              	.LVL31:
 372:Core/Src/main.c ****         break;
 364              		.loc 1 372 26 view .LVU99
 365 00aa 9A60     		str	r2, [r3, #8]	@ float
 373:Core/Src/main.c ****       
 366              		.loc 1 373 9 is_stmt 1 view .LVU100
 367 00ac EFE7     		b	.L17
ARM GAS  C:\Users\Xuleo\AppData\Local\Temp\ccM92Jmi.s 			page 15


 368              	.LVL32:
 369              	.L20:
 351:Core/Src/main.c ****         leftHandMotor.I = value;
 370              		.loc 1 351 9 view .LVU101
 352:Core/Src/main.c ****         break;
 371              		.loc 1 352 9 view .LVU102
 352:Core/Src/main.c ****         break;
 372              		.loc 1 352 25 is_stmt 0 view .LVU103
 373 00ae 144B     		ldr	r3, .L31+32
 374              	.LVL33:
 352:Core/Src/main.c ****         break;
 375              		.loc 1 352 25 view .LVU104
 376 00b0 D3F80120 		ldr	r2, [r3, #1]	@ unaligned
 377 00b4 134B     		ldr	r3, .L31+36
 378              	.LVL34:
 352:Core/Src/main.c ****         break;
 379              		.loc 1 352 25 view .LVU105
 380 00b6 5A60     		str	r2, [r3, #4]	@ float
 353:Core/Src/main.c **** 
 381              		.loc 1 353 9 is_stmt 1 view .LVU106
 382 00b8 E9E7     		b	.L17
 383              	.LVL35:
 384              	.L21:
 356:Core/Src/main.c ****         leftHandMotor.D = value;
 385              		.loc 1 356 9 view .LVU107
 357:Core/Src/main.c ****         break;
 386              		.loc 1 357 9 view .LVU108
 357:Core/Src/main.c ****         break;
 387              		.loc 1 357 25 is_stmt 0 view .LVU109
 388 00ba 114B     		ldr	r3, .L31+32
 389              	.LVL36:
 357:Core/Src/main.c ****         break;
 390              		.loc 1 357 25 view .LVU110
 391 00bc D3F80120 		ldr	r2, [r3, #1]	@ unaligned
 392 00c0 104B     		ldr	r3, .L31+36
 393              	.LVL37:
 357:Core/Src/main.c ****         break;
 394              		.loc 1 357 25 view .LVU111
 395 00c2 9A60     		str	r2, [r3, #8]	@ float
 358:Core/Src/main.c **** 
 396              		.loc 1 358 9 is_stmt 1 view .LVU112
 397 00c4 E3E7     		b	.L17
 398              	.LVL38:
 399              	.L18:
 361:Core/Src/main.c ****         rightHandMotor.P=value;
 400              		.loc 1 361 9 view .LVU113
 362:Core/Src/main.c ****         break;
 401              		.loc 1 362 9 view .LVU114
 362:Core/Src/main.c ****         break;
 402              		.loc 1 362 25 is_stmt 0 view .LVU115
 403 00c6 0E4B     		ldr	r3, .L31+32
 404              	.LVL39:
 362:Core/Src/main.c ****         break;
 405              		.loc 1 362 25 view .LVU116
 406 00c8 D3F80120 		ldr	r2, [r3, #1]	@ unaligned
 407 00cc 0F4B     		ldr	r3, .L31+44
 408              	.LVL40:
ARM GAS  C:\Users\Xuleo\AppData\Local\Temp\ccM92Jmi.s 			page 16


 362:Core/Src/main.c ****         break;
 409              		.loc 1 362 25 view .LVU117
 410 00ce 1A60     		str	r2, [r3]	@ float
 363:Core/Src/main.c **** 
 411              		.loc 1 363 9 is_stmt 1 view .LVU118
 412 00d0 DDE7     		b	.L17
 413              	.LVL41:
 414              	.L24:
 366:Core/Src/main.c ****         rightHandMotor.I = value;
 415              		.loc 1 366 9 view .LVU119
 367:Core/Src/main.c ****         break;
 416              		.loc 1 367 9 view .LVU120
 367:Core/Src/main.c ****         break;
 417              		.loc 1 367 26 is_stmt 0 view .LVU121
 418 00d2 0B4B     		ldr	r3, .L31+32
 419              	.LVL42:
 367:Core/Src/main.c ****         break;
 420              		.loc 1 367 26 view .LVU122
 421 00d4 D3F80120 		ldr	r2, [r3, #1]	@ unaligned
 422 00d8 0C4B     		ldr	r3, .L31+44
 423              	.LVL43:
 367:Core/Src/main.c ****         break;
 424              		.loc 1 367 26 view .LVU123
 425 00da 5A60     		str	r2, [r3, #4]	@ float
 368:Core/Src/main.c **** 
 426              		.loc 1 368 9 is_stmt 1 view .LVU124
 427 00dc D7E7     		b	.L17
 428              	.L32:
 429 00de 00BF     		.align	2
 430              	.L31:
 431 00e0 00380140 		.word	1073821696
 432 00e4 00440040 		.word	1073759232
 433 00e8 00000000 		.word	rx_dma_buffer
 434 00ec 00000000 		.word	rx_complete
 435 00f0 00000000 		.word	rx_binary_buffer
 436 00f4 00000000 		.word	rx_binary_index
 437 00f8 00000000 		.word	rx_binary_complete
 438 00fc 00000000 		.word	rx_data
 439 0100 00000000 		.word	VOFA_SEND_BUFFER
 440 0104 00000000 		.word	leftHandMotor
 441 0108 00000000 		.word	huart2
 442 010c 00000000 		.word	rightHandMotor
 443              	.LBE11:
 444              		.cfi_endproc
 445              	.LFE73:
 447              		.section	.text.Error_Handler,"ax",%progbits
 448              		.align	1
 449              		.global	Error_Handler
 450              		.syntax unified
 451              		.thumb
 452              		.thumb_func
 454              	Error_Handler:
 455              	.LFB74:
 384:Core/Src/main.c **** /* USER CODE END 4 */
 385:Core/Src/main.c **** 
 386:Core/Src/main.c **** /**
 387:Core/Src/main.c ****   * @brief  This function is executed in case of error occurrence.
ARM GAS  C:\Users\Xuleo\AppData\Local\Temp\ccM92Jmi.s 			page 17


 388:Core/Src/main.c ****   * @retval None
 389:Core/Src/main.c ****   */
 390:Core/Src/main.c **** void Error_Handler(void)
 391:Core/Src/main.c **** {
 456              		.loc 1 391 1 view -0
 457              		.cfi_startproc
 458              		@ Volatile: function does not return.
 459              		@ args = 0, pretend = 0, frame = 0
 460              		@ frame_needed = 0, uses_anonymous_args = 0
 461              		@ link register save eliminated.
 392:Core/Src/main.c ****   /* USER CODE BEGIN Error_Handler_Debug */
 393:Core/Src/main.c ****   /* User can add his own implementation to report the HAL error return state */
 394:Core/Src/main.c ****   __disable_irq();
 462              		.loc 1 394 3 view .LVU126
 463              	.LBB12:
 464              	.LBI12:
 465              		.file 2 "Drivers/CMSIS/Include/cmsis_gcc.h"
   1:Drivers/CMSIS/Include/cmsis_gcc.h **** /**************************************************************************//**
   2:Drivers/CMSIS/Include/cmsis_gcc.h ****  * @file     cmsis_gcc.h
   3:Drivers/CMSIS/Include/cmsis_gcc.h ****  * @brief    CMSIS compiler GCC header file
   4:Drivers/CMSIS/Include/cmsis_gcc.h ****  * @version  V5.0.4
   5:Drivers/CMSIS/Include/cmsis_gcc.h ****  * @date     09. April 2018
   6:Drivers/CMSIS/Include/cmsis_gcc.h ****  ******************************************************************************/
   7:Drivers/CMSIS/Include/cmsis_gcc.h **** /*
   8:Drivers/CMSIS/Include/cmsis_gcc.h ****  * Copyright (c) 2009-2018 Arm Limited. All rights reserved.
   9:Drivers/CMSIS/Include/cmsis_gcc.h ****  *
  10:Drivers/CMSIS/Include/cmsis_gcc.h ****  * SPDX-License-Identifier: Apache-2.0
  11:Drivers/CMSIS/Include/cmsis_gcc.h ****  *
  12:Drivers/CMSIS/Include/cmsis_gcc.h ****  * Licensed under the Apache License, Version 2.0 (the License); you may
  13:Drivers/CMSIS/Include/cmsis_gcc.h ****  * not use this file except in compliance with the License.
  14:Drivers/CMSIS/Include/cmsis_gcc.h ****  * You may obtain a copy of the License at
  15:Drivers/CMSIS/Include/cmsis_gcc.h ****  *
  16:Drivers/CMSIS/Include/cmsis_gcc.h ****  * www.apache.org/licenses/LICENSE-2.0
  17:Drivers/CMSIS/Include/cmsis_gcc.h ****  *
  18:Drivers/CMSIS/Include/cmsis_gcc.h ****  * Unless required by applicable law or agreed to in writing, software
  19:Drivers/CMSIS/Include/cmsis_gcc.h ****  * distributed under the License is distributed on an AS IS BASIS, WITHOUT
  20:Drivers/CMSIS/Include/cmsis_gcc.h ****  * WARRANTIES OR CONDITIONS OF ANY KIND, either express or implied.
  21:Drivers/CMSIS/Include/cmsis_gcc.h ****  * See the License for the specific language governing permissions and
  22:Drivers/CMSIS/Include/cmsis_gcc.h ****  * limitations under the License.
  23:Drivers/CMSIS/Include/cmsis_gcc.h ****  */
  24:Drivers/CMSIS/Include/cmsis_gcc.h **** 
  25:Drivers/CMSIS/Include/cmsis_gcc.h **** #ifndef __CMSIS_GCC_H
  26:Drivers/CMSIS/Include/cmsis_gcc.h **** #define __CMSIS_GCC_H
  27:Drivers/CMSIS/Include/cmsis_gcc.h **** 
  28:Drivers/CMSIS/Include/cmsis_gcc.h **** /* ignore some GCC warnings */
  29:Drivers/CMSIS/Include/cmsis_gcc.h **** #pragma GCC diagnostic push
  30:Drivers/CMSIS/Include/cmsis_gcc.h **** #pragma GCC diagnostic ignored "-Wsign-conversion"
  31:Drivers/CMSIS/Include/cmsis_gcc.h **** #pragma GCC diagnostic ignored "-Wconversion"
  32:Drivers/CMSIS/Include/cmsis_gcc.h **** #pragma GCC diagnostic ignored "-Wunused-parameter"
  33:Drivers/CMSIS/Include/cmsis_gcc.h **** 
  34:Drivers/CMSIS/Include/cmsis_gcc.h **** /* Fallback for __has_builtin */
  35:Drivers/CMSIS/Include/cmsis_gcc.h **** #ifndef __has_builtin
  36:Drivers/CMSIS/Include/cmsis_gcc.h ****   #define __has_builtin(x) (0)
  37:Drivers/CMSIS/Include/cmsis_gcc.h **** #endif
  38:Drivers/CMSIS/Include/cmsis_gcc.h **** 
  39:Drivers/CMSIS/Include/cmsis_gcc.h **** /* CMSIS compiler specific defines */
  40:Drivers/CMSIS/Include/cmsis_gcc.h **** #ifndef   __ASM
ARM GAS  C:\Users\Xuleo\AppData\Local\Temp\ccM92Jmi.s 			page 18


  41:Drivers/CMSIS/Include/cmsis_gcc.h ****   #define __ASM                                  __asm
  42:Drivers/CMSIS/Include/cmsis_gcc.h **** #endif
  43:Drivers/CMSIS/Include/cmsis_gcc.h **** #ifndef   __INLINE
  44:Drivers/CMSIS/Include/cmsis_gcc.h ****   #define __INLINE                               inline
  45:Drivers/CMSIS/Include/cmsis_gcc.h **** #endif
  46:Drivers/CMSIS/Include/cmsis_gcc.h **** #ifndef   __STATIC_INLINE
  47:Drivers/CMSIS/Include/cmsis_gcc.h ****   #define __STATIC_INLINE                        static inline
  48:Drivers/CMSIS/Include/cmsis_gcc.h **** #endif
  49:Drivers/CMSIS/Include/cmsis_gcc.h **** #ifndef   __STATIC_FORCEINLINE                 
  50:Drivers/CMSIS/Include/cmsis_gcc.h ****   #define __STATIC_FORCEINLINE                   __attribute__((always_inline)) static inline
  51:Drivers/CMSIS/Include/cmsis_gcc.h **** #endif                                           
  52:Drivers/CMSIS/Include/cmsis_gcc.h **** #ifndef   __NO_RETURN
  53:Drivers/CMSIS/Include/cmsis_gcc.h ****   #define __NO_RETURN                            __attribute__((__noreturn__))
  54:Drivers/CMSIS/Include/cmsis_gcc.h **** #endif
  55:Drivers/CMSIS/Include/cmsis_gcc.h **** #ifndef   __USED
  56:Drivers/CMSIS/Include/cmsis_gcc.h ****   #define __USED                                 __attribute__((used))
  57:Drivers/CMSIS/Include/cmsis_gcc.h **** #endif
  58:Drivers/CMSIS/Include/cmsis_gcc.h **** #ifndef   __WEAK
  59:Drivers/CMSIS/Include/cmsis_gcc.h ****   #define __WEAK                                 __attribute__((weak))
  60:Drivers/CMSIS/Include/cmsis_gcc.h **** #endif
  61:Drivers/CMSIS/Include/cmsis_gcc.h **** #ifndef   __PACKED
  62:Drivers/CMSIS/Include/cmsis_gcc.h ****   #define __PACKED                               __attribute__((packed, aligned(1)))
  63:Drivers/CMSIS/Include/cmsis_gcc.h **** #endif
  64:Drivers/CMSIS/Include/cmsis_gcc.h **** #ifndef   __PACKED_STRUCT
  65:Drivers/CMSIS/Include/cmsis_gcc.h ****   #define __PACKED_STRUCT                        struct __attribute__((packed, aligned(1)))
  66:Drivers/CMSIS/Include/cmsis_gcc.h **** #endif
  67:Drivers/CMSIS/Include/cmsis_gcc.h **** #ifndef   __PACKED_UNION
  68:Drivers/CMSIS/Include/cmsis_gcc.h ****   #define __PACKED_UNION                         union __attribute__((packed, aligned(1)))
  69:Drivers/CMSIS/Include/cmsis_gcc.h **** #endif
  70:Drivers/CMSIS/Include/cmsis_gcc.h **** #ifndef   __UNALIGNED_UINT32        /* deprecated */
  71:Drivers/CMSIS/Include/cmsis_gcc.h ****   #pragma GCC diagnostic push
  72:Drivers/CMSIS/Include/cmsis_gcc.h ****   #pragma GCC diagnostic ignored "-Wpacked"
  73:Drivers/CMSIS/Include/cmsis_gcc.h ****   #pragma GCC diagnostic ignored "-Wattributes"
  74:Drivers/CMSIS/Include/cmsis_gcc.h ****   struct __attribute__((packed)) T_UINT32 { uint32_t v; };
  75:Drivers/CMSIS/Include/cmsis_gcc.h ****   #pragma GCC diagnostic pop
  76:Drivers/CMSIS/Include/cmsis_gcc.h ****   #define __UNALIGNED_UINT32(x)                  (((struct T_UINT32 *)(x))->v)
  77:Drivers/CMSIS/Include/cmsis_gcc.h **** #endif
  78:Drivers/CMSIS/Include/cmsis_gcc.h **** #ifndef   __UNALIGNED_UINT16_WRITE
  79:Drivers/CMSIS/Include/cmsis_gcc.h ****   #pragma GCC diagnostic push
  80:Drivers/CMSIS/Include/cmsis_gcc.h ****   #pragma GCC diagnostic ignored "-Wpacked"
  81:Drivers/CMSIS/Include/cmsis_gcc.h ****   #pragma GCC diagnostic ignored "-Wattributes"
  82:Drivers/CMSIS/Include/cmsis_gcc.h ****   __PACKED_STRUCT T_UINT16_WRITE { uint16_t v; };
  83:Drivers/CMSIS/Include/cmsis_gcc.h ****   #pragma GCC diagnostic pop
  84:Drivers/CMSIS/Include/cmsis_gcc.h ****   #define __UNALIGNED_UINT16_WRITE(addr, val)    (void)((((struct T_UINT16_WRITE *)(void *)(addr))-
  85:Drivers/CMSIS/Include/cmsis_gcc.h **** #endif
  86:Drivers/CMSIS/Include/cmsis_gcc.h **** #ifndef   __UNALIGNED_UINT16_READ
  87:Drivers/CMSIS/Include/cmsis_gcc.h ****   #pragma GCC diagnostic push
  88:Drivers/CMSIS/Include/cmsis_gcc.h ****   #pragma GCC diagnostic ignored "-Wpacked"
  89:Drivers/CMSIS/Include/cmsis_gcc.h ****   #pragma GCC diagnostic ignored "-Wattributes"
  90:Drivers/CMSIS/Include/cmsis_gcc.h ****   __PACKED_STRUCT T_UINT16_READ { uint16_t v; };
  91:Drivers/CMSIS/Include/cmsis_gcc.h ****   #pragma GCC diagnostic pop
  92:Drivers/CMSIS/Include/cmsis_gcc.h ****   #define __UNALIGNED_UINT16_READ(addr)          (((const struct T_UINT16_READ *)(const void *)(add
  93:Drivers/CMSIS/Include/cmsis_gcc.h **** #endif
  94:Drivers/CMSIS/Include/cmsis_gcc.h **** #ifndef   __UNALIGNED_UINT32_WRITE
  95:Drivers/CMSIS/Include/cmsis_gcc.h ****   #pragma GCC diagnostic push
  96:Drivers/CMSIS/Include/cmsis_gcc.h ****   #pragma GCC diagnostic ignored "-Wpacked"
  97:Drivers/CMSIS/Include/cmsis_gcc.h ****   #pragma GCC diagnostic ignored "-Wattributes"
ARM GAS  C:\Users\Xuleo\AppData\Local\Temp\ccM92Jmi.s 			page 19


  98:Drivers/CMSIS/Include/cmsis_gcc.h ****   __PACKED_STRUCT T_UINT32_WRITE { uint32_t v; };
  99:Drivers/CMSIS/Include/cmsis_gcc.h ****   #pragma GCC diagnostic pop
 100:Drivers/CMSIS/Include/cmsis_gcc.h ****   #define __UNALIGNED_UINT32_WRITE(addr, val)    (void)((((struct T_UINT32_WRITE *)(void *)(addr))-
 101:Drivers/CMSIS/Include/cmsis_gcc.h **** #endif
 102:Drivers/CMSIS/Include/cmsis_gcc.h **** #ifndef   __UNALIGNED_UINT32_READ
 103:Drivers/CMSIS/Include/cmsis_gcc.h ****   #pragma GCC diagnostic push
 104:Drivers/CMSIS/Include/cmsis_gcc.h ****   #pragma GCC diagnostic ignored "-Wpacked"
 105:Drivers/CMSIS/Include/cmsis_gcc.h ****   #pragma GCC diagnostic ignored "-Wattributes"
 106:Drivers/CMSIS/Include/cmsis_gcc.h ****   __PACKED_STRUCT T_UINT32_READ { uint32_t v; };
 107:Drivers/CMSIS/Include/cmsis_gcc.h ****   #pragma GCC diagnostic pop
 108:Drivers/CMSIS/Include/cmsis_gcc.h ****   #define __UNALIGNED_UINT32_READ(addr)          (((const struct T_UINT32_READ *)(const void *)(add
 109:Drivers/CMSIS/Include/cmsis_gcc.h **** #endif
 110:Drivers/CMSIS/Include/cmsis_gcc.h **** #ifndef   __ALIGNED
 111:Drivers/CMSIS/Include/cmsis_gcc.h ****   #define __ALIGNED(x)                           __attribute__((aligned(x)))
 112:Drivers/CMSIS/Include/cmsis_gcc.h **** #endif
 113:Drivers/CMSIS/Include/cmsis_gcc.h **** #ifndef   __RESTRICT
 114:Drivers/CMSIS/Include/cmsis_gcc.h ****   #define __RESTRICT                             __restrict
 115:Drivers/CMSIS/Include/cmsis_gcc.h **** #endif
 116:Drivers/CMSIS/Include/cmsis_gcc.h **** 
 117:Drivers/CMSIS/Include/cmsis_gcc.h **** 
 118:Drivers/CMSIS/Include/cmsis_gcc.h **** /* ###########################  Core Function Access  ########################### */
 119:Drivers/CMSIS/Include/cmsis_gcc.h **** /** \ingroup  CMSIS_Core_FunctionInterface
 120:Drivers/CMSIS/Include/cmsis_gcc.h ****     \defgroup CMSIS_Core_RegAccFunctions CMSIS Core Register Access Functions
 121:Drivers/CMSIS/Include/cmsis_gcc.h ****   @{
 122:Drivers/CMSIS/Include/cmsis_gcc.h ****  */
 123:Drivers/CMSIS/Include/cmsis_gcc.h **** 
 124:Drivers/CMSIS/Include/cmsis_gcc.h **** /**
 125:Drivers/CMSIS/Include/cmsis_gcc.h ****   \brief   Enable IRQ Interrupts
 126:Drivers/CMSIS/Include/cmsis_gcc.h ****   \details Enables IRQ interrupts by clearing the I-bit in the CPSR.
 127:Drivers/CMSIS/Include/cmsis_gcc.h ****            Can only be executed in Privileged modes.
 128:Drivers/CMSIS/Include/cmsis_gcc.h ****  */
 129:Drivers/CMSIS/Include/cmsis_gcc.h **** __STATIC_FORCEINLINE void __enable_irq(void)
 130:Drivers/CMSIS/Include/cmsis_gcc.h **** {
 131:Drivers/CMSIS/Include/cmsis_gcc.h ****   __ASM volatile ("cpsie i" : : : "memory");
 132:Drivers/CMSIS/Include/cmsis_gcc.h **** }
 133:Drivers/CMSIS/Include/cmsis_gcc.h **** 
 134:Drivers/CMSIS/Include/cmsis_gcc.h **** 
 135:Drivers/CMSIS/Include/cmsis_gcc.h **** /**
 136:Drivers/CMSIS/Include/cmsis_gcc.h ****   \brief   Disable IRQ Interrupts
 137:Drivers/CMSIS/Include/cmsis_gcc.h ****   \details Disables IRQ interrupts by setting the I-bit in the CPSR.
 138:Drivers/CMSIS/Include/cmsis_gcc.h ****            Can only be executed in Privileged modes.
 139:Drivers/CMSIS/Include/cmsis_gcc.h ****  */
 140:Drivers/CMSIS/Include/cmsis_gcc.h **** __STATIC_FORCEINLINE void __disable_irq(void)
 466              		.loc 2 140 27 view .LVU127
 467              	.LBB13:
 141:Drivers/CMSIS/Include/cmsis_gcc.h **** {
 142:Drivers/CMSIS/Include/cmsis_gcc.h ****   __ASM volatile ("cpsid i" : : : "memory");
 468              		.loc 2 142 3 view .LVU128
 469              		.syntax unified
 470              	@ 142 "Drivers/CMSIS/Include/cmsis_gcc.h" 1
 471 0000 72B6     		cpsid i
 472              	@ 0 "" 2
 473              		.thumb
 474              		.syntax unified
 475              	.L34:
 476              	.LBE13:
 477              	.LBE12:
ARM GAS  C:\Users\Xuleo\AppData\Local\Temp\ccM92Jmi.s 			page 20


 395:Core/Src/main.c ****   while (1)
 478              		.loc 1 395 3 view .LVU129
 396:Core/Src/main.c ****   {
 397:Core/Src/main.c ****   }
 479              		.loc 1 397 3 view .LVU130
 395:Core/Src/main.c ****   while (1)
 480              		.loc 1 395 9 view .LVU131
 481 0002 FEE7     		b	.L34
 482              		.cfi_endproc
 483              	.LFE74:
 485              		.section	.text.SystemClock_Config,"ax",%progbits
 486              		.align	1
 487              		.global	SystemClock_Config
 488              		.syntax unified
 489              		.thumb
 490              		.thumb_func
 492              	SystemClock_Config:
 493              	.LFB69:
 246:Core/Src/main.c ****   RCC_OscInitTypeDef RCC_OscInitStruct = {0};
 494              		.loc 1 246 1 view -0
 495              		.cfi_startproc
 496              		@ args = 0, pretend = 0, frame = 64
 497              		@ frame_needed = 0, uses_anonymous_args = 0
 498 0000 10B5     		push	{r4, lr}
 499              	.LCFI4:
 500              		.cfi_def_cfa_offset 8
 501              		.cfi_offset 4, -8
 502              		.cfi_offset 14, -4
 503 0002 90B0     		sub	sp, sp, #64
 504              	.LCFI5:
 505              		.cfi_def_cfa_offset 72
 247:Core/Src/main.c ****   RCC_ClkInitTypeDef RCC_ClkInitStruct = {0};
 506              		.loc 1 247 3 view .LVU133
 247:Core/Src/main.c ****   RCC_ClkInitTypeDef RCC_ClkInitStruct = {0};
 507              		.loc 1 247 22 is_stmt 0 view .LVU134
 508 0004 06AC     		add	r4, sp, #24
 509 0006 2822     		movs	r2, #40
 510 0008 0021     		movs	r1, #0
 511 000a 2046     		mov	r0, r4
 512 000c FFF7FEFF 		bl	memset
 513              	.LVL44:
 248:Core/Src/main.c **** 
 514              		.loc 1 248 3 is_stmt 1 view .LVU135
 248:Core/Src/main.c **** 
 515              		.loc 1 248 22 is_stmt 0 view .LVU136
 516 0010 0023     		movs	r3, #0
 517 0012 0193     		str	r3, [sp, #4]
 518 0014 0293     		str	r3, [sp, #8]
 519 0016 0393     		str	r3, [sp, #12]
 520 0018 0493     		str	r3, [sp, #16]
 521 001a 0593     		str	r3, [sp, #20]
 253:Core/Src/main.c ****   RCC_OscInitStruct.HSEState = RCC_HSE_ON;
 522              		.loc 1 253 3 is_stmt 1 view .LVU137
 253:Core/Src/main.c ****   RCC_OscInitStruct.HSEState = RCC_HSE_ON;
 523              		.loc 1 253 36 is_stmt 0 view .LVU138
 524 001c 0122     		movs	r2, #1
 525 001e 0692     		str	r2, [sp, #24]
ARM GAS  C:\Users\Xuleo\AppData\Local\Temp\ccM92Jmi.s 			page 21


 254:Core/Src/main.c ****   RCC_OscInitStruct.HSEPredivValue = RCC_HSE_PREDIV_DIV1;
 526              		.loc 1 254 3 is_stmt 1 view .LVU139
 254:Core/Src/main.c ****   RCC_OscInitStruct.HSEPredivValue = RCC_HSE_PREDIV_DIV1;
 527              		.loc 1 254 30 is_stmt 0 view .LVU140
 528 0020 4FF48033 		mov	r3, #65536
 529 0024 0793     		str	r3, [sp, #28]
 255:Core/Src/main.c ****   RCC_OscInitStruct.HSIState = RCC_HSI_ON;
 530              		.loc 1 255 3 is_stmt 1 view .LVU141
 256:Core/Src/main.c ****   RCC_OscInitStruct.PLL.PLLState = RCC_PLL_ON;
 531              		.loc 1 256 3 view .LVU142
 256:Core/Src/main.c ****   RCC_OscInitStruct.PLL.PLLState = RCC_PLL_ON;
 532              		.loc 1 256 30 is_stmt 0 view .LVU143
 533 0026 0A92     		str	r2, [sp, #40]
 257:Core/Src/main.c ****   RCC_OscInitStruct.PLL.PLLSource = RCC_PLLSOURCE_HSE;
 534              		.loc 1 257 3 is_stmt 1 view .LVU144
 257:Core/Src/main.c ****   RCC_OscInitStruct.PLL.PLLSource = RCC_PLLSOURCE_HSE;
 535              		.loc 1 257 34 is_stmt 0 view .LVU145
 536 0028 0222     		movs	r2, #2
 537 002a 0D92     		str	r2, [sp, #52]
 258:Core/Src/main.c ****   RCC_OscInitStruct.PLL.PLLMUL = RCC_PLL_MUL9;
 538              		.loc 1 258 3 is_stmt 1 view .LVU146
 258:Core/Src/main.c ****   RCC_OscInitStruct.PLL.PLLMUL = RCC_PLL_MUL9;
 539              		.loc 1 258 35 is_stmt 0 view .LVU147
 540 002c 0E93     		str	r3, [sp, #56]
 259:Core/Src/main.c ****   if (HAL_RCC_OscConfig(&RCC_OscInitStruct) != HAL_OK)
 541              		.loc 1 259 3 is_stmt 1 view .LVU148
 259:Core/Src/main.c ****   if (HAL_RCC_OscConfig(&RCC_OscInitStruct) != HAL_OK)
 542              		.loc 1 259 32 is_stmt 0 view .LVU149
 543 002e 4FF4E013 		mov	r3, #1835008
 544 0032 0F93     		str	r3, [sp, #60]
 260:Core/Src/main.c ****   {
 545              		.loc 1 260 3 is_stmt 1 view .LVU150
 260:Core/Src/main.c ****   {
 546              		.loc 1 260 7 is_stmt 0 view .LVU151
 547 0034 2046     		mov	r0, r4
 548 0036 FFF7FEFF 		bl	HAL_RCC_OscConfig
 549              	.LVL45:
 260:Core/Src/main.c ****   {
 550              		.loc 1 260 6 discriminator 1 view .LVU152
 551 003a 70B9     		cbnz	r0, .L39
 267:Core/Src/main.c ****                               |RCC_CLOCKTYPE_PCLK1|RCC_CLOCKTYPE_PCLK2;
 552              		.loc 1 267 3 is_stmt 1 view .LVU153
 267:Core/Src/main.c ****                               |RCC_CLOCKTYPE_PCLK1|RCC_CLOCKTYPE_PCLK2;
 553              		.loc 1 267 31 is_stmt 0 view .LVU154
 554 003c 0F23     		movs	r3, #15
 555 003e 0193     		str	r3, [sp, #4]
 269:Core/Src/main.c ****   RCC_ClkInitStruct.AHBCLKDivider = RCC_SYSCLK_DIV1;
 556              		.loc 1 269 3 is_stmt 1 view .LVU155
 269:Core/Src/main.c ****   RCC_ClkInitStruct.AHBCLKDivider = RCC_SYSCLK_DIV1;
 557              		.loc 1 269 34 is_stmt 0 view .LVU156
 558 0040 0221     		movs	r1, #2
 559 0042 0291     		str	r1, [sp, #8]
 270:Core/Src/main.c ****   RCC_ClkInitStruct.APB1CLKDivider = RCC_HCLK_DIV2;
 560              		.loc 1 270 3 is_stmt 1 view .LVU157
 270:Core/Src/main.c ****   RCC_ClkInitStruct.APB1CLKDivider = RCC_HCLK_DIV2;
 561              		.loc 1 270 35 is_stmt 0 view .LVU158
 562 0044 0390     		str	r0, [sp, #12]
ARM GAS  C:\Users\Xuleo\AppData\Local\Temp\ccM92Jmi.s 			page 22


 271:Core/Src/main.c ****   RCC_ClkInitStruct.APB2CLKDivider = RCC_HCLK_DIV1;
 563              		.loc 1 271 3 is_stmt 1 view .LVU159
 271:Core/Src/main.c ****   RCC_ClkInitStruct.APB2CLKDivider = RCC_HCLK_DIV1;
 564              		.loc 1 271 36 is_stmt 0 view .LVU160
 565 0046 4FF48062 		mov	r2, #1024
 566 004a 0492     		str	r2, [sp, #16]
 272:Core/Src/main.c **** 
 567              		.loc 1 272 3 is_stmt 1 view .LVU161
 272:Core/Src/main.c **** 
 568              		.loc 1 272 36 is_stmt 0 view .LVU162
 569 004c 0590     		str	r0, [sp, #20]
 274:Core/Src/main.c ****   {
 570              		.loc 1 274 3 is_stmt 1 view .LVU163
 274:Core/Src/main.c ****   {
 571              		.loc 1 274 7 is_stmt 0 view .LVU164
 572 004e 01A8     		add	r0, sp, #4
 573 0050 FFF7FEFF 		bl	HAL_RCC_ClockConfig
 574              	.LVL46:
 274:Core/Src/main.c ****   {
 575              		.loc 1 274 6 discriminator 1 view .LVU165
 576 0054 18B9     		cbnz	r0, .L40
 278:Core/Src/main.c **** 
 577              		.loc 1 278 1 view .LVU166
 578 0056 10B0     		add	sp, sp, #64
 579              	.LCFI6:
 580              		.cfi_remember_state
 581              		.cfi_def_cfa_offset 8
 582              		@ sp needed
 583 0058 10BD     		pop	{r4, pc}
 584              	.L39:
 585              	.LCFI7:
 586              		.cfi_restore_state
 262:Core/Src/main.c ****   }
 587              		.loc 1 262 5 is_stmt 1 view .LVU167
 588 005a FFF7FEFF 		bl	Error_Handler
 589              	.LVL47:
 590              	.L40:
 276:Core/Src/main.c ****   }
 591              		.loc 1 276 5 view .LVU168
 592 005e FFF7FEFF 		bl	Error_Handler
 593              	.LVL48:
 594              		.cfi_endproc
 595              	.LFE69:
 597              		.section	.rodata.main.str1.4,"aMS",%progbits,1
 598              		.align	2
 599              	.LC0:
 600 0000 454C4543 		.ascii	"ELEC-391\000"
 600      2D333931 
 600      00
 601 0009 000000   		.align	2
 602              	.LC1:
 603 000c 53442043 		.ascii	"SD Card OK!\000"
 603      61726420 
 603      4F4B2100 
 604              		.align	2
 605              	.LC2:
 606 0018 53442065 		.ascii	"SD err %d\000"
ARM GAS  C:\Users\Xuleo\AppData\Local\Temp\ccM92Jmi.s 			page 23


 606      72722025 
 606      6400
 607 0022 0000     		.align	2
 608              	.LC3:
 609 0024 466F756E 		.ascii	"Found %d songs\000"
 609      64202564 
 609      20736F6E 
 609      677300
 610 0033 00       		.align	2
 611              	.LC4:
 612 0034 53797374 		.ascii	"System Ready\000"
 612      656D2052 
 612      65616479 
 612      00
 613 0041 000000   		.align	2
 614              	.LC5:
 615 0044 74657374 		.ascii	"test1.mid\000"
 615      312E6D69 
 615      6400
 616 004e 0000     		.align	2
 617              	.LC6:
 618 0050 53656E64 		.ascii	"Send bytes!   \000"
 618      20627974 
 618      65732120 
 618      202000
 619 005f 00       		.align	2
 620              	.LC7:
 621 0060 476F7420 		.ascii	"Got it!\015\012\000"
 621      6974210D 
 621      0A00
 622              		.section	.text.main,"ax",%progbits
 623              		.align	1
 624              		.global	main
 625              		.syntax unified
 626              		.thumb
 627              		.thumb_func
 629              	main:
 630              	.LFB68:
  76:Core/Src/main.c **** 
 631              		.loc 1 76 1 view -0
 632              		.cfi_startproc
 633              		@ args = 0, pretend = 0, frame = 80
 634              		@ frame_needed = 0, uses_anonymous_args = 0
 635 0000 70B5     		push	{r4, r5, r6, lr}
 636              	.LCFI8:
 637              		.cfi_def_cfa_offset 16
 638              		.cfi_offset 4, -16
 639              		.cfi_offset 5, -12
 640              		.cfi_offset 6, -8
 641              		.cfi_offset 14, -4
 642 0002 94B0     		sub	sp, sp, #80
 643              	.LCFI9:
 644              		.cfi_def_cfa_offset 96
  85:Core/Src/main.c **** 
 645              		.loc 1 85 3 view .LVU170
 646 0004 FFF7FEFF 		bl	HAL_Init
 647              	.LVL49:
ARM GAS  C:\Users\Xuleo\AppData\Local\Temp\ccM92Jmi.s 			page 24


  92:Core/Src/main.c **** 
 648              		.loc 1 92 3 view .LVU171
 649 0008 FFF7FEFF 		bl	SystemClock_Config
 650              	.LVL50:
  99:Core/Src/main.c ****   MX_DMA_Init();
 651              		.loc 1 99 3 view .LVU172
 652 000c FFF7FEFF 		bl	MX_GPIO_Init
 653              	.LVL51:
 100:Core/Src/main.c ****   MX_USART1_UART_Init();
 654              		.loc 1 100 3 view .LVU173
 655 0010 FFF7FEFF 		bl	MX_DMA_Init
 656              	.LVL52:
 101:Core/Src/main.c ****   MX_I2C1_Init();
 657              		.loc 1 101 3 view .LVU174
 658 0014 FFF7FEFF 		bl	MX_USART1_UART_Init
 659              	.LVL53:
 102:Core/Src/main.c ****   MX_TIM3_Init();
 660              		.loc 1 102 3 view .LVU175
 661 0018 FFF7FEFF 		bl	MX_I2C1_Init
 662              	.LVL54:
 103:Core/Src/main.c ****   MX_TIM2_Init();
 663              		.loc 1 103 3 view .LVU176
 664 001c FFF7FEFF 		bl	MX_TIM3_Init
 665              	.LVL55:
 104:Core/Src/main.c ****   MX_USART2_UART_Init();
 666              		.loc 1 104 3 view .LVU177
 667 0020 FFF7FEFF 		bl	MX_TIM2_Init
 668              	.LVL56:
 105:Core/Src/main.c ****   MX_TIM4_Init();
 669              		.loc 1 105 3 view .LVU178
 670 0024 FFF7FEFF 		bl	MX_USART2_UART_Init
 671              	.LVL57:
 106:Core/Src/main.c ****   MX_SPI2_Init();
 672              		.loc 1 106 3 view .LVU179
 673 0028 FFF7FEFF 		bl	MX_TIM4_Init
 674              	.LVL58:
 107:Core/Src/main.c ****   /* USER CODE BEGIN 2 */
 675              		.loc 1 107 3 view .LVU180
 676 002c FFF7FEFF 		bl	MX_SPI2_Init
 677              	.LVL59:
 110:Core/Src/main.c ****   OLED_WriteString("ELEC-391");
 678              		.loc 1 110 3 view .LVU181
 679 0030 FFF7FEFF 		bl	OLED_Init
 680              	.LVL60:
 111:Core/Src/main.c **** #endif
 681              		.loc 1 111 3 view .LVU182
 682 0034 5248     		ldr	r0, .L59
 683 0036 FFF7FEFF 		bl	OLED_WriteString
 684              	.LVL61:
 128:Core/Src/main.c ****   //char displayAccBuffer[32];
 685              		.loc 1 128 3 view .LVU183
 686 003a FFF7FEFF 		bl	init
 687              	.LVL62:
 140:Core/Src/main.c ****   FT_Init();  // Initialize file transfer module
 688              		.loc 1 140 3 view .LVU184
 689 003e 5148     		ldr	r0, .L59+4
 690 0040 FFF7FEFF 		bl	HC05_ReceiveInfo
ARM GAS  C:\Users\Xuleo\AppData\Local\Temp\ccM92Jmi.s 			page 25


 691              	.LVL63:
 141:Core/Src/main.c ****   // start PWM: this PWM runs at 2000Hz, Calculation: 72MHz/(71+1)/(499+1) = 2000Hz
 692              		.loc 1 141 3 view .LVU185
 693 0044 FFF7FEFF 		bl	FT_Init
 694              	.LVL64:
 143:Core/Src/main.c ****   // set duty cycle
 695              		.loc 1 143 3 view .LVU186
 696 0048 4F4C     		ldr	r4, .L59+8
 697 004a 0021     		movs	r1, #0
 698 004c 2046     		mov	r0, r4
 699 004e FFF7FEFF 		bl	HAL_TIM_PWM_Start
 700              	.LVL65:
 145:Core/Src/main.c **** 
 701              		.loc 1 145 3 view .LVU187
 702 0052 2368     		ldr	r3, [r4]
 703 0054 FA22     		movs	r2, #250
 704 0056 5A63     		str	r2, [r3, #52]
 148:Core/Src/main.c ****   // OLED_SetCursor(0, 6);
 705              		.loc 1 148 3 view .LVU188
 706 0058 4C48     		ldr	r0, .L59+12
 707 005a FFF7FEFF 		bl	HAL_TIM_Base_Start_IT
 708              	.LVL66:
 152:Core/Src/main.c ****   OLED_SetCursor(0, 2);
 709              		.loc 1 152 3 view .LVU189
 153:Core/Src/main.c **** 
 710              		.loc 1 153 3 view .LVU190
 711 005e 0221     		movs	r1, #2
 712 0060 0020     		movs	r0, #0
 713 0062 FFF7FEFF 		bl	OLED_SetCursor
 714              	.LVL67:
 156:Core/Src/main.c ****     sdResult = SD_Init();
 715              		.loc 1 156 3 view .LVU191
 716              	.LBB14:
 156:Core/Src/main.c ****     sdResult = SD_Init();
 717              		.loc 1 156 8 view .LVU192
 156:Core/Src/main.c ****     sdResult = SD_Init();
 718              		.loc 1 156 12 is_stmt 0 view .LVU193
 719 0066 0024     		movs	r4, #0
 720              	.LBE14:
 152:Core/Src/main.c ****   OLED_SetCursor(0, 2);
 721              		.loc 1 152 11 view .LVU194
 722 0068 0325     		movs	r5, #3
 723              	.LVL68:
 724              	.L42:
 725              	.LBB15:
 156:Core/Src/main.c ****     sdResult = SD_Init();
 726              		.loc 1 156 21 is_stmt 1 discriminator 1 view .LVU195
 727 006a 042C     		cmp	r4, #4
 728 006c 0BDC     		bgt	.L44
 157:Core/Src/main.c ****     if (sdResult == FR_OK) {
 729              		.loc 1 157 5 view .LVU196
 157:Core/Src/main.c ****     if (sdResult == FR_OK) {
 730              		.loc 1 157 16 is_stmt 0 view .LVU197
 731 006e FFF7FEFF 		bl	SD_Init
 732              	.LVL69:
 158:Core/Src/main.c ****       OLED_WriteString("SD Card OK!");
 733              		.loc 1 158 5 is_stmt 1 view .LVU198
ARM GAS  C:\Users\Xuleo\AppData\Local\Temp\ccM92Jmi.s 			page 26


 158:Core/Src/main.c ****       OLED_WriteString("SD Card OK!");
 734              		.loc 1 158 8 is_stmt 0 view .LVU199
 735 0072 0546     		mov	r5, r0
 736 0074 20B1     		cbz	r0, .L55
 162:Core/Src/main.c ****   }
 737              		.loc 1 162 5 is_stmt 1 view .LVU200
 738 0076 6420     		movs	r0, #100
 739              	.LVL70:
 162:Core/Src/main.c ****   }
 740              		.loc 1 162 5 is_stmt 0 view .LVU201
 741 0078 FFF7FEFF 		bl	HAL_Delay
 742              	.LVL71:
 156:Core/Src/main.c ****     sdResult = SD_Init();
 743              		.loc 1 156 27 is_stmt 1 discriminator 2 view .LVU202
 744 007c 0134     		adds	r4, r4, #1
 745              	.LVL72:
 156:Core/Src/main.c ****     sdResult = SD_Init();
 746              		.loc 1 156 27 is_stmt 0 discriminator 2 view .LVU203
 747 007e F4E7     		b	.L42
 748              	.LVL73:
 749              	.L55:
 159:Core/Src/main.c ****       break;
 750              		.loc 1 159 7 is_stmt 1 view .LVU204
 751 0080 4348     		ldr	r0, .L59+16
 752              	.LVL74:
 159:Core/Src/main.c ****       break;
 753              		.loc 1 159 7 is_stmt 0 view .LVU205
 754 0082 FFF7FEFF 		bl	OLED_WriteString
 755              	.LVL75:
 160:Core/Src/main.c ****     }
 756              		.loc 1 160 7 is_stmt 1 view .LVU206
 757              	.L44:
 160:Core/Src/main.c ****     }
 758              		.loc 1 160 7 is_stmt 0 view .LVU207
 759              	.LBE15:
 165:Core/Src/main.c ****     snprintf((char*)hexSDRead, sizeof(hexSDRead), "SD err %d", sdResult);
 760              		.loc 1 165 3 is_stmt 1 view .LVU208
 165:Core/Src/main.c ****     snprintf((char*)hexSDRead, sizeof(hexSDRead), "SD err %d", sdResult);
 761              		.loc 1 165 6 is_stmt 0 view .LVU209
 762 0086 1DB3     		cbz	r5, .L46
 166:Core/Src/main.c ****     OLED_WriteString((char*)hexSDRead);
 763              		.loc 1 166 5 is_stmt 1 view .LVU210
 764 0088 424C     		ldr	r4, .L59+20
 765              	.LVL76:
 166:Core/Src/main.c ****     OLED_WriteString((char*)hexSDRead);
 766              		.loc 1 166 5 is_stmt 0 view .LVU211
 767 008a 2B46     		mov	r3, r5
 768 008c 424A     		ldr	r2, .L59+24
 769 008e 1421     		movs	r1, #20
 770 0090 2046     		mov	r0, r4
 771 0092 FFF7FEFF 		bl	snprintf
 772              	.LVL77:
 167:Core/Src/main.c ****   } else {
 773              		.loc 1 167 5 is_stmt 1 view .LVU212
 774 0096 2046     		mov	r0, r4
 775 0098 FFF7FEFF 		bl	OLED_WriteString
 776              	.LVL78:
ARM GAS  C:\Users\Xuleo\AppData\Local\Temp\ccM92Jmi.s 			page 27


 777              	.L47:
 177:Core/Src/main.c ****   OLED_WriteString("System Ready");
 778              		.loc 1 177 3 view .LVU213
 779 009c 0121     		movs	r1, #1
 780 009e 0020     		movs	r0, #0
 781 00a0 FFF7FEFF 		bl	OLED_SetCursor
 782              	.LVL79:
 178:Core/Src/main.c **** 
 783              		.loc 1 178 3 view .LVU214
 784 00a4 3D48     		ldr	r0, .L59+28
 785 00a6 FFF7FEFF 		bl	OLED_WriteString
 786              	.LVL80:
 180:Core/Src/main.c ****     SD_ReadFile(&file, FileBuffer, sizeof(FileBuffer), &BytesRead);
 787              		.loc 1 180 3 view .LVU215
 180:Core/Src/main.c ****     SD_ReadFile(&file, FileBuffer, sizeof(FileBuffer), &BytesRead);
 788              		.loc 1 180 7 is_stmt 0 view .LVU216
 789 00aa 0122     		movs	r2, #1
 790 00ac 3C49     		ldr	r1, .L59+32
 791 00ae 3D48     		ldr	r0, .L59+36
 792 00b0 FFF7FEFF 		bl	SD_OpenFile
 793              	.LVL81:
 180:Core/Src/main.c ****     SD_ReadFile(&file, FileBuffer, sizeof(FileBuffer), &BytesRead);
 794              		.loc 1 180 6 discriminator 1 view .LVU217
 795 00b4 08B3     		cbz	r0, .L56
 796              	.L48:
 184:Core/Src/main.c ****   OLED_SetCursor(0, 1);
 797              		.loc 1 184 3 is_stmt 1 view .LVU218
 798 00b6 3C4B     		ldr	r3, .L59+40
 799 00b8 1988     		ldrh	r1, [r3]
 800 00ba 3C48     		ldr	r0, .L59+44
 801 00bc FFF7FEFF 		bl	HC05_SendBytes
 802              	.LVL82:
 185:Core/Src/main.c ****   OLED_WriteString("Send bytes!   ");
 803              		.loc 1 185 3 view .LVU219
 804 00c0 0121     		movs	r1, #1
 805 00c2 0020     		movs	r0, #0
 806 00c4 FFF7FEFF 		bl	OLED_SetCursor
 807              	.LVL83:
 186:Core/Src/main.c **** 
 808              		.loc 1 186 3 view .LVU220
 809 00c8 3948     		ldr	r0, .L59+48
 810 00ca FFF7FEFF 		bl	OLED_WriteString
 811              	.LVL84:
 812 00ce 43E0     		b	.L53
 813              	.LVL85:
 814              	.L46:
 815              	.LBB16:
 170:Core/Src/main.c ****     int numSongs = SD_ListMidiFiles();
 816              		.loc 1 170 5 view .LVU221
 817 00d0 0321     		movs	r1, #3
 818 00d2 2846     		mov	r0, r5
 819 00d4 FFF7FEFF 		bl	OLED_SetCursor
 820              	.LVL86:
 171:Core/Src/main.c ****     snprintf((char*)hexSDRead, sizeof(hexSDRead), "Found %d songs", numSongs);
 821              		.loc 1 171 5 view .LVU222
 171:Core/Src/main.c ****     snprintf((char*)hexSDRead, sizeof(hexSDRead), "Found %d songs", numSongs);
 822              		.loc 1 171 20 is_stmt 0 view .LVU223
ARM GAS  C:\Users\Xuleo\AppData\Local\Temp\ccM92Jmi.s 			page 28


 823 00d8 FFF7FEFF 		bl	SD_ListMidiFiles
 824              	.LVL87:
 825 00dc 0346     		mov	r3, r0
 826              	.LVL88:
 172:Core/Src/main.c ****     OLED_WriteString((char*)hexSDRead);
 827              		.loc 1 172 5 is_stmt 1 view .LVU224
 828 00de 2D4C     		ldr	r4, .L59+20
 829              	.LVL89:
 172:Core/Src/main.c ****     OLED_WriteString((char*)hexSDRead);
 830              		.loc 1 172 5 is_stmt 0 view .LVU225
 831 00e0 344A     		ldr	r2, .L59+52
 832 00e2 1421     		movs	r1, #20
 833 00e4 2046     		mov	r0, r4
 834              	.LVL90:
 172:Core/Src/main.c ****     OLED_WriteString((char*)hexSDRead);
 835              		.loc 1 172 5 view .LVU226
 836 00e6 FFF7FEFF 		bl	snprintf
 837              	.LVL91:
 173:Core/Src/main.c ****     SD_DisplaySongList(0, 0);
 838              		.loc 1 173 5 is_stmt 1 view .LVU227
 839 00ea 2046     		mov	r0, r4
 840 00ec FFF7FEFF 		bl	OLED_WriteString
 841              	.LVL92:
 174:Core/Src/main.c ****   }
 842              		.loc 1 174 5 view .LVU228
 843 00f0 2946     		mov	r1, r5
 844 00f2 2846     		mov	r0, r5
 845 00f4 FFF7FEFF 		bl	SD_DisplaySongList
 846              	.LVL93:
 847 00f8 D0E7     		b	.L47
 848              	.LVL94:
 849              	.L56:
 174:Core/Src/main.c ****   }
 850              		.loc 1 174 5 is_stmt 0 view .LVU229
 851              	.LBE16:
 181:Core/Src/main.c ****     SD_CloseFile(&file);
 852              		.loc 1 181 5 is_stmt 1 view .LVU230
 853 00fa 2A4C     		ldr	r4, .L59+36
 854 00fc 2A4B     		ldr	r3, .L59+40
 855 00fe 4FF40072 		mov	r2, #512
 856 0102 2A49     		ldr	r1, .L59+44
 857 0104 2046     		mov	r0, r4
 858 0106 FFF7FEFF 		bl	SD_ReadFile
 859              	.LVL95:
 182:Core/Src/main.c ****   }
 860              		.loc 1 182 5 view .LVU231
 861 010a 2046     		mov	r0, r4
 862 010c FFF7FEFF 		bl	SD_CloseFile
 863              	.LVL96:
 864 0110 D1E7     		b	.L48
 865              	.L57:
 866              	.LBB17:
 200:Core/Src/main.c ****       uint16_t packet_len = rx_binary_index;
 867              		.loc 1 200 7 view .LVU232
 201:Core/Src/main.c ****       memcpy(packet_copy, rx_binary_buffer, packet_len);
 868              		.loc 1 201 7 view .LVU233
 201:Core/Src/main.c ****       memcpy(packet_copy, rx_binary_buffer, packet_len);
ARM GAS  C:\Users\Xuleo\AppData\Local\Temp\ccM92Jmi.s 			page 29


 869              		.loc 1 201 16 is_stmt 0 view .LVU234
 870 0112 294E     		ldr	r6, .L59+56
 871 0114 3488     		ldrh	r4, [r6]
 872 0116 A4B2     		uxth	r4, r4
 873              	.LVL97:
 202:Core/Src/main.c **** 
 874              		.loc 1 202 7 is_stmt 1 view .LVU235
 875 0118 2246     		mov	r2, r4
 876 011a 2849     		ldr	r1, .L59+60
 877 011c 6846     		mov	r0, sp
 878 011e FFF7FEFF 		bl	memcpy
 879              	.LVL98:
 205:Core/Src/main.c ****       rx_binary_index = 0;
 880              		.loc 1 205 7 view .LVU236
 205:Core/Src/main.c ****       rx_binary_index = 0;
 881              		.loc 1 205 26 is_stmt 0 view .LVU237
 882 0122 0023     		movs	r3, #0
 883 0124 264A     		ldr	r2, .L59+64
 884 0126 1370     		strb	r3, [r2]
 206:Core/Src/main.c **** 
 885              		.loc 1 206 7 is_stmt 1 view .LVU238
 206:Core/Src/main.c **** 
 886              		.loc 1 206 23 is_stmt 0 view .LVU239
 887 0128 3380     		strh	r3, [r6]	@ movhi
 209:Core/Src/main.c ****     }
 888              		.loc 1 209 7 is_stmt 1 view .LVU240
 889 012a 2146     		mov	r1, r4
 890 012c 6846     		mov	r0, sp
 891 012e FFF7FEFF 		bl	FT_ProcessPacket
 892              	.LVL99:
 893 0132 15E0     		b	.L49
 894              	.LVL100:
 895              	.L58:
 209:Core/Src/main.c ****     }
 896              		.loc 1 209 7 is_stmt 0 view .LVU241
 897              	.LBE17:
 220:Core/Src/main.c ****       rx_complete = 0;  // clear flag
 898              		.loc 1 220 7 is_stmt 1 view .LVU242
 899 0134 1348     		ldr	r0, .L59+4
 900 0136 FFF7FEFF 		bl	executeCommand
 901              	.LVL101:
 221:Core/Src/main.c ****       // echo back with \r\n for terminal
 902              		.loc 1 221 7 view .LVU243
 221:Core/Src/main.c ****       // echo back with \r\n for terminal
 903              		.loc 1 221 19 is_stmt 0 view .LVU244
 904 013a 224B     		ldr	r3, .L59+68
 905 013c 0022     		movs	r2, #0
 906 013e 1A70     		strb	r2, [r3]
 223:Core/Src/main.c ****     }
 907              		.loc 1 223 7 is_stmt 1 view .LVU245
 908 0140 2148     		ldr	r0, .L59+72
 909 0142 FFF7FEFF 		bl	HC05_SendInfo
 910              	.LVL102:
 911 0146 11E0     		b	.L50
 912              	.L51:
 234:Core/Src/main.c ****     }
 913              		.loc 1 234 7 view .LVU246
ARM GAS  C:\Users\Xuleo\AppData\Local\Temp\ccM92Jmi.s 			page 30


 234:Core/Src/main.c ****     }
 914              		.loc 1 234 14 is_stmt 0 view .LVU247
 915 0148 204B     		ldr	r3, .L59+76
 916 014a C822     		movs	r2, #200
 917 014c 1A60     		str	r2, [r3]
 918              	.L52:
 236:Core/Src/main.c ****   }
 919              		.loc 1 236 5 is_stmt 1 view .LVU248
 920 014e 0E4B     		ldr	r3, .L59+8
 921 0150 1B68     		ldr	r3, [r3]
 922 0152 1E4A     		ldr	r2, .L59+76
 923 0154 1268     		ldr	r2, [r2]
 924 0156 5A63     		str	r2, [r3, #52]
 192:Core/Src/main.c ****   {
 925              		.loc 1 192 9 view .LVU249
 926              	.L53:
 192:Core/Src/main.c ****   {
 927              		.loc 1 192 3 view .LVU250
 198:Core/Src/main.c ****       // Copy packet data BEFORE resetting - prevents race condition with interrupt
 928              		.loc 1 198 5 view .LVU251
 198:Core/Src/main.c ****       // Copy packet data BEFORE resetting - prevents race condition with interrupt
 929              		.loc 1 198 9 is_stmt 0 view .LVU252
 930 0158 194B     		ldr	r3, .L59+64
 931 015a 1B78     		ldrb	r3, [r3]	@ zero_extendqisi2
 198:Core/Src/main.c ****       // Copy packet data BEFORE resetting - prevents race condition with interrupt
 932              		.loc 1 198 8 view .LVU253
 933 015c 002B     		cmp	r3, #0
 934 015e D8D1     		bne	.L57
 935              	.L49:
 213:Core/Src/main.c **** 
 936              		.loc 1 213 5 is_stmt 1 view .LVU254
 937 0160 FFF7FEFF 		bl	FT_TimeoutCheck
 938              	.LVL103:
 217:Core/Src/main.c ****       // OLED_SetCursor(0, 5);
 939              		.loc 1 217 5 view .LVU255
 217:Core/Src/main.c ****       // OLED_SetCursor(0, 5);
 940              		.loc 1 217 8 is_stmt 0 view .LVU256
 941 0164 174B     		ldr	r3, .L59+68
 942 0166 1B78     		ldrb	r3, [r3]	@ zero_extendqisi2
 217:Core/Src/main.c ****       // OLED_SetCursor(0, 5);
 943              		.loc 1 217 7 view .LVU257
 944 0168 002B     		cmp	r3, #0
 945 016a E3D1     		bne	.L58
 946              	.L50:
 231:Core/Src/main.c ****       pwmNum++;
 947              		.loc 1 231 5 is_stmt 1 view .LVU258
 231:Core/Src/main.c ****       pwmNum++;
 948              		.loc 1 231 16 is_stmt 0 view .LVU259
 949 016c 174B     		ldr	r3, .L59+76
 950 016e 1B68     		ldr	r3, [r3]
 231:Core/Src/main.c ****       pwmNum++;
 951              		.loc 1 231 8 view .LVU260
 952 0170 B3F5FA7F 		cmp	r3, #500
 953 0174 E8DA     		bge	.L51
 232:Core/Src/main.c ****     } else {
 954              		.loc 1 232 7 is_stmt 1 view .LVU261
 232:Core/Src/main.c ****     } else {
ARM GAS  C:\Users\Xuleo\AppData\Local\Temp\ccM92Jmi.s 			page 31


 955              		.loc 1 232 13 is_stmt 0 view .LVU262
 956 0176 0133     		adds	r3, r3, #1
 957 0178 144A     		ldr	r2, .L59+76
 958 017a 1360     		str	r3, [r2]
 959 017c E7E7     		b	.L52
 960              	.L60:
 961 017e 00BF     		.align	2
 962              	.L59:
 963 0180 00000000 		.word	.LC0
 964 0184 00000000 		.word	rx_data
 965 0188 00000000 		.word	htim3
 966 018c 00000000 		.word	htim4
 967 0190 0C000000 		.word	.LC1
 968 0194 00000000 		.word	hexSDRead
 969 0198 18000000 		.word	.LC2
 970 019c 34000000 		.word	.LC4
 971 01a0 44000000 		.word	.LC5
 972 01a4 00000000 		.word	file
 973 01a8 00000000 		.word	BytesRead
 974 01ac 00000000 		.word	FileBuffer
 975 01b0 50000000 		.word	.LC6
 976 01b4 24000000 		.word	.LC3
 977 01b8 00000000 		.word	rx_binary_index
 978 01bc 00000000 		.word	rx_binary_buffer
 979 01c0 00000000 		.word	rx_binary_complete
 980 01c4 00000000 		.word	rx_complete
 981 01c8 60000000 		.word	.LC7
 982 01cc 00000000 		.word	pwmNum
 983              		.cfi_endproc
 984              	.LFE68:
 986              		.global	BytesRead
 987              		.section	.bss.BytesRead,"aw",%nobits
 988              		.align	2
 991              	BytesRead:
 992 0000 00000000 		.space	4
 993              		.global	FileBuffer
 994              		.section	.bss.FileBuffer,"aw",%nobits
 995              		.align	2
 998              	FileBuffer:
 999 0000 00000000 		.space	512
 999      00000000 
 999      00000000 
 999      00000000 
 999      00000000 
 1000              		.global	file
 1001              		.section	.bss.file,"aw",%nobits
 1002              		.align	2
 1005              	file:
 1006 0000 00000000 		.space	548
 1006      00000000 
 1006      00000000 
 1006      00000000 
 1006      00000000 
 1007              		.global	hexSDRead
 1008              		.section	.bss.hexSDRead,"aw",%nobits
 1009              		.align	2
 1012              	hexSDRead:
ARM GAS  C:\Users\Xuleo\AppData\Local\Temp\ccM92Jmi.s 			page 32


 1013 0000 00000000 		.space	20
 1013      00000000 
 1013      00000000 
 1013      00000000 
 1013      00000000 
 1014              		.global	pwmNum
 1015              		.section	.data.pwmNum,"aw"
 1016              		.align	2
 1019              	pwmNum:
 1020 0000 C8000000 		.word	200
 1021              		.text
 1022              	.Letext0:
 1023              		.file 3 "C:/thirdpartyLibs/arm-gnu-toolchain-15.2/arm-none-eabi/include/machine/_default_types.h"
 1024              		.file 4 "C:/thirdpartyLibs/arm-gnu-toolchain-15.2/arm-none-eabi/include/sys/_stdint.h"
 1025              		.file 5 "Drivers/CMSIS/Device/ST/STM32F1xx/Include/stm32f103xb.h"
 1026              		.file 6 "Drivers/STM32F1xx_HAL_Driver/Inc/stm32f1xx_hal_def.h"
 1027              		.file 7 "Drivers/STM32F1xx_HAL_Driver/Inc/stm32f1xx_hal_rcc.h"
 1028              		.file 8 "Drivers/STM32F1xx_HAL_Driver/Inc/stm32f1xx_hal_rcc_ex.h"
 1029              		.file 9 "Drivers/STM32F1xx_HAL_Driver/Inc/stm32f1xx_hal_dma.h"
 1030              		.file 10 "Drivers/STM32F1xx_HAL_Driver/Inc/stm32f1xx_hal_tim.h"
 1031              		.file 11 "Drivers/STM32F1xx_HAL_Driver/Inc/stm32f1xx_hal_uart.h"
 1032              		.file 12 "Core/Inc/tim.h"
 1033              		.file 13 "Core/Inc/usart.h"
 1034              		.file 14 "Application/Inc/utils.h"
 1035              		.file 15 "Application/Inc/hc05bt.h"
 1036              		.file 16 "Application/FatFs/integer.h"
 1037              		.file 17 "Application/FatFs/ff.h"
 1038              		.file 18 "Application/Inc/application.h"
 1039              		.file 19 "Application/Inc/file_transfer.h"
 1040              		.file 20 "Application/Inc/command.h"
 1041              		.file 21 "C:/thirdpartyLibs/arm-gnu-toolchain-15.2/arm-none-eabi/include/string.h"
 1042              		.file 22 "Application/Inc/sdcard.h"
 1043              		.file 23 "C:/thirdpartyLibs/arm-gnu-toolchain-15.2/arm-none-eabi/include/stdio.h"
 1044              		.file 24 "Drivers/STM32F1xx_HAL_Driver/Inc/stm32f1xx_hal.h"
 1045              		.file 25 "Application/Inc/oled1315.h"
 1046              		.file 26 "Core/Inc/spi.h"
 1047              		.file 27 "Core/Inc/i2c.h"
 1048              		.file 28 "Core/Inc/dma.h"
 1049              		.file 29 "Core/Inc/gpio.h"
 1050              		.file 30 "<built-in>"
ARM GAS  C:\Users\Xuleo\AppData\Local\Temp\ccM92Jmi.s 			page 33


DEFINED SYMBOLS
                            *ABS*:00000000 main.c
C:\Users\Xuleo\AppData\Local\Temp\ccM92Jmi.s:19     .text.HAL_UART_RxCpltCallback:00000000 $t
C:\Users\Xuleo\AppData\Local\Temp\ccM92Jmi.s:25     .text.HAL_UART_RxCpltCallback:00000000 HAL_UART_RxCpltCallback
C:\Users\Xuleo\AppData\Local\Temp\ccM92Jmi.s:40     .text.HAL_UART_TxCpltCallback:00000000 $t
C:\Users\Xuleo\AppData\Local\Temp\ccM92Jmi.s:46     .text.HAL_UART_TxCpltCallback:00000000 HAL_UART_TxCpltCallback
C:\Users\Xuleo\AppData\Local\Temp\ccM92Jmi.s:62     .text.HAL_UART_ErrorCallback:00000000 $t
C:\Users\Xuleo\AppData\Local\Temp\ccM92Jmi.s:68     .text.HAL_UART_ErrorCallback:00000000 HAL_UART_ErrorCallback
C:\Users\Xuleo\AppData\Local\Temp\ccM92Jmi.s:161    .text.HAL_UART_ErrorCallback:00000048 $d
C:\Users\Xuleo\AppData\Local\Temp\ccM92Jmi.s:166    .text.HAL_UARTEx_RxEventCallback:00000000 $t
C:\Users\Xuleo\AppData\Local\Temp\ccM92Jmi.s:172    .text.HAL_UARTEx_RxEventCallback:00000000 HAL_UARTEx_RxEventCallback
C:\Users\Xuleo\AppData\Local\Temp\ccM92Jmi.s:431    .text.HAL_UARTEx_RxEventCallback:000000e0 $d
C:\Users\Xuleo\AppData\Local\Temp\ccM92Jmi.s:448    .text.Error_Handler:00000000 $t
C:\Users\Xuleo\AppData\Local\Temp\ccM92Jmi.s:454    .text.Error_Handler:00000000 Error_Handler
C:\Users\Xuleo\AppData\Local\Temp\ccM92Jmi.s:486    .text.SystemClock_Config:00000000 $t
C:\Users\Xuleo\AppData\Local\Temp\ccM92Jmi.s:492    .text.SystemClock_Config:00000000 SystemClock_Config
C:\Users\Xuleo\AppData\Local\Temp\ccM92Jmi.s:598    .rodata.main.str1.4:00000000 $d
C:\Users\Xuleo\AppData\Local\Temp\ccM92Jmi.s:623    .text.main:00000000 $t
C:\Users\Xuleo\AppData\Local\Temp\ccM92Jmi.s:629    .text.main:00000000 main
C:\Users\Xuleo\AppData\Local\Temp\ccM92Jmi.s:963    .text.main:00000180 $d
C:\Users\Xuleo\AppData\Local\Temp\ccM92Jmi.s:1012   .bss.hexSDRead:00000000 hexSDRead
C:\Users\Xuleo\AppData\Local\Temp\ccM92Jmi.s:1005   .bss.file:00000000 file
C:\Users\Xuleo\AppData\Local\Temp\ccM92Jmi.s:991    .bss.BytesRead:00000000 BytesRead
C:\Users\Xuleo\AppData\Local\Temp\ccM92Jmi.s:998    .bss.FileBuffer:00000000 FileBuffer
C:\Users\Xuleo\AppData\Local\Temp\ccM92Jmi.s:1019   .data.pwmNum:00000000 pwmNum
C:\Users\Xuleo\AppData\Local\Temp\ccM92Jmi.s:988    .bss.BytesRead:00000000 $d
C:\Users\Xuleo\AppData\Local\Temp\ccM92Jmi.s:995    .bss.FileBuffer:00000000 $d
C:\Users\Xuleo\AppData\Local\Temp\ccM92Jmi.s:1002   .bss.file:00000000 $d
C:\Users\Xuleo\AppData\Local\Temp\ccM92Jmi.s:1009   .bss.hexSDRead:00000000 $d
C:\Users\Xuleo\AppData\Local\Temp\ccM92Jmi.s:1016   .data.pwmNum:00000000 $d

UNDEFINED SYMBOLS
HC05_RestartDMA
memcpy
HAL_UARTEx_ReceiveToIdle_DMA
rx_dma_buffer
rx_complete
rx_binary_buffer
rx_binary_index
rx_binary_complete
rx_data
VOFA_SEND_BUFFER
leftHandMotor
huart2
rightHandMotor
memset
HAL_RCC_OscConfig
HAL_RCC_ClockConfig
HAL_Init
MX_GPIO_Init
MX_DMA_Init
MX_USART1_UART_Init
MX_I2C1_Init
MX_TIM3_Init
MX_TIM2_Init
MX_USART2_UART_Init
MX_TIM4_Init
ARM GAS  C:\Users\Xuleo\AppData\Local\Temp\ccM92Jmi.s 			page 34


MX_SPI2_Init
OLED_Init
OLED_WriteString
init
HC05_ReceiveInfo
FT_Init
HAL_TIM_PWM_Start
HAL_TIM_Base_Start_IT
OLED_SetCursor
SD_Init
HAL_Delay
snprintf
SD_OpenFile
HC05_SendBytes
SD_ListMidiFiles
SD_DisplaySongList
SD_ReadFile
SD_CloseFile
FT_ProcessPacket
executeCommand
HC05_SendInfo
FT_TimeoutCheck
htim3
htim4
