ARM GAS  C:\Users\Xuleo\AppData\Local\Temp\ccjCXS4s.s 			page 1


   1              		.cpu cortex-m3
   2              		.arch armv7-m
   3              		.fpu softvfp
   4              		.eabi_attribute 20, 1
   5              		.eabi_attribute 21, 1
   6              		.eabi_attribute 23, 3
   7              		.eabi_attribute 24, 1
   8              		.eabi_attribute 25, 1
   9              		.eabi_attribute 26, 1
  10              		.eabi_attribute 30, 1
  11              		.eabi_attribute 34, 1
  12              		.eabi_attribute 18, 4
  13              		.file	"main.c"
  14              		.text
  15              	.Ltext0:
  16              		.cfi_sections	.debug_frame
  17              		.file 1 "Core/Src/main.c"
  18              		.section	.text.HAL_UART_RxCpltCallback,"ax",%progbits
  19              		.align	1
  20              		.global	HAL_UART_RxCpltCallback
  21              		.syntax unified
  22              		.thumb
  23              		.thumb_func
  25              	HAL_UART_RxCpltCallback:
  26              	.LVL0:
  27              	.LFB70:
   1:Core/Src/main.c **** /* USER CODE BEGIN Header */
   2:Core/Src/main.c **** /**
   3:Core/Src/main.c ****   ******************************************************************************
   4:Core/Src/main.c ****   * @file           : main.c
   5:Core/Src/main.c ****   * @brief          : Main program body
   6:Core/Src/main.c ****   ******************************************************************************
   7:Core/Src/main.c ****   * @attention
   8:Core/Src/main.c ****   *
   9:Core/Src/main.c ****   * Copyright (c) 2026 STMicroelectronics.
  10:Core/Src/main.c ****   * All rights reserved.
  11:Core/Src/main.c ****   *
  12:Core/Src/main.c ****   * This software is licensed under terms that can be found in the LICENSE file
  13:Core/Src/main.c ****   * in the root directory of this software component.
  14:Core/Src/main.c ****   * If no LICENSE file comes with this software, it is provided AS-IS.
  15:Core/Src/main.c ****   *
  16:Core/Src/main.c ****   ******************************************************************************
  17:Core/Src/main.c ****   */
  18:Core/Src/main.c **** /* USER CODE END Header */
  19:Core/Src/main.c **** /* Includes ------------------------------------------------------------------*/
  20:Core/Src/main.c **** #include "main.h"
  21:Core/Src/main.c **** #include "dma.h"
  22:Core/Src/main.c **** #include "i2c.h"
  23:Core/Src/main.c **** #include "tim.h"
  24:Core/Src/main.c **** #include "usart.h"
  25:Core/Src/main.c **** #include "gpio.h"
  26:Core/Src/main.c **** 
  27:Core/Src/main.c **** /* Private includes ----------------------------------------------------------*/
  28:Core/Src/main.c **** /* USER CODE BEGIN Includes */
  29:Core/Src/main.c **** #include <application.h>
  30:Core/Src/main.c **** #include <stdio.h>
  31:Core/Src/main.c **** /* USER CODE END Includes */
ARM GAS  C:\Users\Xuleo\AppData\Local\Temp\ccjCXS4s.s 			page 2


  32:Core/Src/main.c **** 
  33:Core/Src/main.c **** /* Private typedef -----------------------------------------------------------*/
  34:Core/Src/main.c **** /* USER CODE BEGIN PTD */
  35:Core/Src/main.c **** 
  36:Core/Src/main.c **** /* USER CODE END PTD */
  37:Core/Src/main.c **** 
  38:Core/Src/main.c **** /* Private define ------------------------------------------------------------*/
  39:Core/Src/main.c **** /* USER CODE BEGIN PD */
  40:Core/Src/main.c **** 
  41:Core/Src/main.c **** /* USER CODE END PD */
  42:Core/Src/main.c **** 
  43:Core/Src/main.c **** /* Private macro -------------------------------------------------------------*/
  44:Core/Src/main.c **** /* USER CODE BEGIN PM */
  45:Core/Src/main.c **** 
  46:Core/Src/main.c **** /* USER CODE END PM */
  47:Core/Src/main.c **** 
  48:Core/Src/main.c **** /* Private variables ---------------------------------------------------------*/
  49:Core/Src/main.c **** 
  50:Core/Src/main.c **** /* USER CODE BEGIN PV */
  51:Core/Src/main.c **** int pwmNum = 200;
  52:Core/Src/main.c **** /* USER CODE END PV */
  53:Core/Src/main.c **** 
  54:Core/Src/main.c **** /* Private function prototypes -----------------------------------------------*/
  55:Core/Src/main.c **** void SystemClock_Config(void);
  56:Core/Src/main.c **** /* USER CODE BEGIN PFP */
  57:Core/Src/main.c **** 
  58:Core/Src/main.c **** /* USER CODE END PFP */
  59:Core/Src/main.c **** 
  60:Core/Src/main.c **** /* Private user code ---------------------------------------------------------*/
  61:Core/Src/main.c **** /* USER CODE BEGIN 0 */
  62:Core/Src/main.c **** 
  63:Core/Src/main.c **** /* USER CODE END 0 */
  64:Core/Src/main.c **** 
  65:Core/Src/main.c **** /**
  66:Core/Src/main.c ****   * @brief  The application entry point.
  67:Core/Src/main.c ****   * @retval int
  68:Core/Src/main.c ****   */
  69:Core/Src/main.c **** int main(void)
  70:Core/Src/main.c **** {
  71:Core/Src/main.c **** 
  72:Core/Src/main.c ****   /* USER CODE BEGIN 1 */
  73:Core/Src/main.c **** 
  74:Core/Src/main.c ****   /* USER CODE END 1 */
  75:Core/Src/main.c **** 
  76:Core/Src/main.c ****   /* MCU Configuration--------------------------------------------------------*/
  77:Core/Src/main.c **** 
  78:Core/Src/main.c ****   /* Reset of all peripherals, Initializes the Flash interface and the Systick. */
  79:Core/Src/main.c ****   HAL_Init();
  80:Core/Src/main.c **** 
  81:Core/Src/main.c ****   /* USER CODE BEGIN Init */
  82:Core/Src/main.c **** 
  83:Core/Src/main.c ****   /* USER CODE END Init */
  84:Core/Src/main.c **** 
  85:Core/Src/main.c ****   /* Configure the system clock */
  86:Core/Src/main.c ****   SystemClock_Config();
  87:Core/Src/main.c **** 
  88:Core/Src/main.c ****   /* USER CODE BEGIN SysInit */
ARM GAS  C:\Users\Xuleo\AppData\Local\Temp\ccjCXS4s.s 			page 3


  89:Core/Src/main.c **** 
  90:Core/Src/main.c ****   /* USER CODE END SysInit */
  91:Core/Src/main.c **** 
  92:Core/Src/main.c ****   /* Initialize all configured peripherals */
  93:Core/Src/main.c ****   MX_GPIO_Init();
  94:Core/Src/main.c ****   MX_DMA_Init();
  95:Core/Src/main.c ****   MX_USART1_UART_Init();
  96:Core/Src/main.c ****   MX_I2C1_Init();
  97:Core/Src/main.c ****   MX_TIM3_Init();
  98:Core/Src/main.c ****   MX_TIM2_Init();
  99:Core/Src/main.c ****   MX_USART2_UART_Init();
 100:Core/Src/main.c ****   MX_USART3_UART_Init();
 101:Core/Src/main.c ****   MX_TIM4_Init();
 102:Core/Src/main.c ****   /* USER CODE BEGIN 2 */
 103:Core/Src/main.c **** #ifdef USINGOLED
 104:Core/Src/main.c ****   OLED_Init();
 105:Core/Src/main.c ****   OLED_WriteString("ELEC-391");
 106:Core/Src/main.c **** #endif
 107:Core/Src/main.c **** 
 108:Core/Src/main.c **** #ifdef USINGMPU6050
 109:Core/Src/main.c ****   if (checkExist()){ // cannot detect -> light LED
 110:Core/Src/main.c ****     HAL_GPIO_WritePin(GPIOA, GPIO_PIN_6, RESET);
 111:Core/Src/main.c ****     OLED_SetCursor(0, 3);
 112:Core/Src/main.c ****     OLED_WriteString("Cannot find MPU 6050!");
 113:Core/Src/main.c ****   } else {
 114:Core/Src/main.c ****     OLED_SetCursor(0, 3);
 115:Core/Src/main.c ****     OLED_WriteString("MPU 6050 Detected!");
 116:Core/Src/main.c ****   }
 117:Core/Src/main.c ****   mpu6050Init();
 118:Core/Src/main.c ****   int16_t accBuffer[3];
 119:Core/Src/main.c ****   readAcc(accBuffer);
 120:Core/Src/main.c **** #endif 
 121:Core/Src/main.c **** 
 122:Core/Src/main.c ****   init();  // Initialize VOFA struct
 123:Core/Src/main.c ****   //char displayAccBuffer[32];
 124:Core/Src/main.c **** #ifdef HC05SETUP 
 125:Core/Src/main.c ****   if (setupBT()){
 126:Core/Src/main.c ****     OLED_SetCursor(0, 5);
 127:Core/Src/main.c ****     OLED_WriteString("HC-05 is configured!");
 128:Core/Src/main.c ****   } else {
 129:Core/Src/main.c ****     OLED_SetCursor(0, 5);
 130:Core/Src/main.c ****     OLED_WriteString("Unable to config HC-05!");
 131:Core/Src/main.c ****   }
 132:Core/Src/main.c **** #endif
 133:Core/Src/main.c **** 
 134:Core/Src/main.c ****   HC05_ReceiveInfo(rx_data);
 135:Core/Src/main.c ****   // start PWM: this PWM runs at 2000Hz, Calculation: 72MHz/(71+1)/(499+1) = 2000Hz
 136:Core/Src/main.c ****   HAL_TIM_PWM_Start(&htim3, TIM_CHANNEL_1); // TIM3_CH1 as displayed
 137:Core/Src/main.c ****   // set duty cycle
 138:Core/Src/main.c ****   __HAL_TIM_SET_COMPARE(&htim3, TIM_CHANNEL_1, 250); // 50% duty cycle, 250 by (499+1)/2=250
 139:Core/Src/main.c **** 
 140:Core/Src/main.c ****     // Initialize accData before starting interrupt
 141:Core/Src/main.c ****   HAL_TIM_Base_Start_IT(&htim4);  // Start TIM2 interrupt for controllerUpdate
 142:Core/Src/main.c ****   // OLED_SetCursor(0, 6);
 143:Core/Src/main.c ****   // OLED_WriteString("PWM ready!");
 144:Core/Src/main.c **** 
 145:Core/Src/main.c ****   /* USER CODE END 2 */
ARM GAS  C:\Users\Xuleo\AppData\Local\Temp\ccjCXS4s.s 			page 4


 146:Core/Src/main.c **** 
 147:Core/Src/main.c ****   /* Infinite loop */
 148:Core/Src/main.c ****   /* USER CODE BEGIN WHILE */
 149:Core/Src/main.c ****   while (1)
 150:Core/Src/main.c ****   {
 151:Core/Src/main.c ****     /* USER CODE END WHILE */
 152:Core/Src/main.c **** 
 153:Core/Src/main.c ****     /* USER CODE BEGIN 3 */
 154:Core/Src/main.c ****     // only process when complete message received
 155:Core/Src/main.c ****   #ifdef USINGHC05
 156:Core/Src/main.c ****     if(rx_complete){
 157:Core/Src/main.c ****       // OLED_SetCursor(0, 5);
 158:Core/Src/main.c ****       // OLED_WriteString((char*)rx_data);  // cast to char*
 159:Core/Src/main.c ****       executeCommand(rx_data);
 160:Core/Src/main.c ****       rx_complete = 0;  // clear flag
 161:Core/Src/main.c ****       // echo back with \r\n for terminal
 162:Core/Src/main.c ****       HC05_SendInfo((uint8_t*)"Got it!\r\n");
 163:Core/Src/main.c ****     }
 164:Core/Src/main.c ****     HC05_SendInfo((uint8_t*)"Still Alive!\r\n");
 165:Core/Src/main.c ****   #endif
 166:Core/Src/main.c ****     // dynamic pwm from 40%->100%, 40% -> 200, 100% -> 500
 167:Core/Src/main.c ****     if (pwmNum < 500) {
 168:Core/Src/main.c ****       pwmNum++;
 169:Core/Src/main.c ****     } else {
 170:Core/Src/main.c ****       pwmNum = 200;
 171:Core/Src/main.c ****     }
 172:Core/Src/main.c ****     __HAL_TIM_SET_COMPARE(&htim3, TIM_CHANNEL_1, pwmNum);
 173:Core/Src/main.c ****   }
 174:Core/Src/main.c ****   /* USER CODE END 3 */
 175:Core/Src/main.c **** }
 176:Core/Src/main.c **** 
 177:Core/Src/main.c **** /**
 178:Core/Src/main.c ****   * @brief System Clock Configuration
 179:Core/Src/main.c ****   * @retval None
 180:Core/Src/main.c ****   */
 181:Core/Src/main.c **** void SystemClock_Config(void)
 182:Core/Src/main.c **** {
 183:Core/Src/main.c ****   RCC_OscInitTypeDef RCC_OscInitStruct = {0};
 184:Core/Src/main.c ****   RCC_ClkInitTypeDef RCC_ClkInitStruct = {0};
 185:Core/Src/main.c **** 
 186:Core/Src/main.c ****   /** Initializes the RCC Oscillators according to the specified parameters
 187:Core/Src/main.c ****   * in the RCC_OscInitTypeDef structure.
 188:Core/Src/main.c ****   */
 189:Core/Src/main.c ****   RCC_OscInitStruct.OscillatorType = RCC_OSCILLATORTYPE_HSE;
 190:Core/Src/main.c ****   RCC_OscInitStruct.HSEState = RCC_HSE_ON;
 191:Core/Src/main.c ****   RCC_OscInitStruct.HSEPredivValue = RCC_HSE_PREDIV_DIV1;
 192:Core/Src/main.c ****   RCC_OscInitStruct.HSIState = RCC_HSI_ON;
 193:Core/Src/main.c ****   RCC_OscInitStruct.PLL.PLLState = RCC_PLL_ON;
 194:Core/Src/main.c ****   RCC_OscInitStruct.PLL.PLLSource = RCC_PLLSOURCE_HSE;
 195:Core/Src/main.c ****   RCC_OscInitStruct.PLL.PLLMUL = RCC_PLL_MUL9;
 196:Core/Src/main.c ****   if (HAL_RCC_OscConfig(&RCC_OscInitStruct) != HAL_OK)
 197:Core/Src/main.c ****   {
 198:Core/Src/main.c ****     Error_Handler();
 199:Core/Src/main.c ****   }
 200:Core/Src/main.c **** 
 201:Core/Src/main.c ****   /** Initializes the CPU, AHB and APB buses clocks
 202:Core/Src/main.c ****   */
ARM GAS  C:\Users\Xuleo\AppData\Local\Temp\ccjCXS4s.s 			page 5


 203:Core/Src/main.c ****   RCC_ClkInitStruct.ClockType = RCC_CLOCKTYPE_HCLK|RCC_CLOCKTYPE_SYSCLK
 204:Core/Src/main.c ****                               |RCC_CLOCKTYPE_PCLK1|RCC_CLOCKTYPE_PCLK2;
 205:Core/Src/main.c ****   RCC_ClkInitStruct.SYSCLKSource = RCC_SYSCLKSOURCE_PLLCLK;
 206:Core/Src/main.c ****   RCC_ClkInitStruct.AHBCLKDivider = RCC_SYSCLK_DIV1;
 207:Core/Src/main.c ****   RCC_ClkInitStruct.APB1CLKDivider = RCC_HCLK_DIV2;
 208:Core/Src/main.c ****   RCC_ClkInitStruct.APB2CLKDivider = RCC_HCLK_DIV1;
 209:Core/Src/main.c **** 
 210:Core/Src/main.c ****   if (HAL_RCC_ClockConfig(&RCC_ClkInitStruct, FLASH_LATENCY_2) != HAL_OK)
 211:Core/Src/main.c ****   {
 212:Core/Src/main.c ****     Error_Handler();
 213:Core/Src/main.c ****   }
 214:Core/Src/main.c **** }
 215:Core/Src/main.c **** 
 216:Core/Src/main.c **** /* USER CODE BEGIN 4 */
 217:Core/Src/main.c **** // auto call on receive uart is used, move everything in buffer
 218:Core/Src/main.c **** void HAL_UART_RxCpltCallback(UART_HandleTypeDef *huart){
  28              		.loc 1 218 56 view -0
  29              		.cfi_startproc
  30              		@ args = 0, pretend = 0, frame = 0
  31              		@ frame_needed = 0, uses_anonymous_args = 0
  32              		.loc 1 218 56 is_stmt 0 view .LVU1
  33 0000 08B5     		push	{r3, lr}
  34              	.LCFI0:
  35              		.cfi_def_cfa_offset 8
  36              		.cfi_offset 3, -8
  37              		.cfi_offset 14, -4
 219:Core/Src/main.c ****   static int rx_index = 0;
  38              		.loc 1 219 3 is_stmt 1 view .LVU2
 220:Core/Src/main.c **** 
 221:Core/Src/main.c ****   if(huart->Instance == USART1)
  39              		.loc 1 221 3 view .LVU3
  40              		.loc 1 221 11 is_stmt 0 view .LVU4
  41 0002 0268     		ldr	r2, [r0]
  42              		.loc 1 221 5 view .LVU5
  43 0004 0E4B     		ldr	r3, .L7
  44 0006 9A42     		cmp	r2, r3
  45 0008 00D0     		beq	.L6
  46              	.LVL1:
  47              	.L1:
 222:Core/Src/main.c ****   {
 223:Core/Src/main.c ****     rx_data[rx_index++] = rx_byte;
 224:Core/Src/main.c ****     if(rx_byte == '\n' || rx_index >= 99)
 225:Core/Src/main.c ****     {
 226:Core/Src/main.c ****       rx_data[rx_index] = '\0';
 227:Core/Src/main.c ****       rx_index = 0;
 228:Core/Src/main.c ****       rx_complete = 1;  // signal that message is ready
 229:Core/Src/main.c ****     }
 230:Core/Src/main.c ****     // must need re-enable since this function will be closed on done
 231:Core/Src/main.c ****     HAL_UART_Receive_IT(&huart1, &rx_byte, 1);
 232:Core/Src/main.c ****   }
 233:Core/Src/main.c **** }
  48              		.loc 1 233 1 view .LVU6
  49 000a 08BD     		pop	{r3, pc}
  50              	.LVL2:
  51              	.L6:
 223:Core/Src/main.c ****     if(rx_byte == '\n' || rx_index >= 99)
  52              		.loc 1 223 5 is_stmt 1 view .LVU7
ARM GAS  C:\Users\Xuleo\AppData\Local\Temp\ccjCXS4s.s 			page 6


 223:Core/Src/main.c ****     if(rx_byte == '\n' || rx_index >= 99)
  53              		.loc 1 223 21 is_stmt 0 view .LVU8
  54 000c 0D4A     		ldr	r2, .L7+4
  55 000e 1168     		ldr	r1, [r2]
  56 0010 4B1C     		adds	r3, r1, #1
  57 0012 1360     		str	r3, [r2]
 223:Core/Src/main.c ****     if(rx_byte == '\n' || rx_index >= 99)
  58              		.loc 1 223 25 view .LVU9
  59 0014 0C4A     		ldr	r2, .L7+8
  60 0016 1278     		ldrb	r2, [r2]	@ zero_extendqisi2
  61 0018 0C48     		ldr	r0, .L7+12
  62              	.LVL3:
 223:Core/Src/main.c ****     if(rx_byte == '\n' || rx_index >= 99)
  63              		.loc 1 223 25 view .LVU10
  64 001a 4254     		strb	r2, [r0, r1]
 224:Core/Src/main.c ****     {
  65              		.loc 1 224 5 is_stmt 1 view .LVU11
 224:Core/Src/main.c ****     {
  66              		.loc 1 224 7 is_stmt 0 view .LVU12
  67 001c 0A2A     		cmp	r2, #10
  68 001e 01D0     		beq	.L3
 224:Core/Src/main.c ****     {
  69              		.loc 1 224 24 discriminator 1 view .LVU13
  70 0020 622B     		cmp	r3, #98
  71 0022 07DD     		ble	.L4
  72              	.L3:
 226:Core/Src/main.c ****       rx_index = 0;
  73              		.loc 1 226 7 is_stmt 1 view .LVU14
 226:Core/Src/main.c ****       rx_index = 0;
  74              		.loc 1 226 25 is_stmt 0 view .LVU15
  75 0024 0022     		movs	r2, #0
  76 0026 0949     		ldr	r1, .L7+12
  77 0028 CA54     		strb	r2, [r1, r3]
 227:Core/Src/main.c ****       rx_complete = 1;  // signal that message is ready
  78              		.loc 1 227 7 is_stmt 1 view .LVU16
 227:Core/Src/main.c ****       rx_complete = 1;  // signal that message is ready
  79              		.loc 1 227 16 is_stmt 0 view .LVU17
  80 002a 064B     		ldr	r3, .L7+4
  81 002c 1A60     		str	r2, [r3]
 228:Core/Src/main.c ****     }
  82              		.loc 1 228 7 is_stmt 1 view .LVU18
 228:Core/Src/main.c ****     }
  83              		.loc 1 228 19 is_stmt 0 view .LVU19
  84 002e 084B     		ldr	r3, .L7+16
  85 0030 0122     		movs	r2, #1
  86 0032 1A70     		strb	r2, [r3]
  87              	.L4:
 231:Core/Src/main.c ****   }
  88              		.loc 1 231 5 is_stmt 1 view .LVU20
  89 0034 0122     		movs	r2, #1
  90 0036 0449     		ldr	r1, .L7+8
  91 0038 0648     		ldr	r0, .L7+20
  92 003a FFF7FEFF 		bl	HAL_UART_Receive_IT
  93              	.LVL4:
  94              		.loc 1 233 1 is_stmt 0 view .LVU21
  95 003e E4E7     		b	.L1
  96              	.L8:
ARM GAS  C:\Users\Xuleo\AppData\Local\Temp\ccjCXS4s.s 			page 7


  97              		.align	2
  98              	.L7:
  99 0040 00380140 		.word	1073821696
 100 0044 00000000 		.word	rx_index.0
 101 0048 00000000 		.word	rx_byte
 102 004c 00000000 		.word	rx_data
 103 0050 00000000 		.word	rx_complete
 104 0054 00000000 		.word	huart1
 105              		.cfi_endproc
 106              	.LFE70:
 108              		.section	.text.HAL_UART_TxCpltCallback,"ax",%progbits
 109              		.align	1
 110              		.global	HAL_UART_TxCpltCallback
 111              		.syntax unified
 112              		.thumb
 113              		.thumb_func
 115              	HAL_UART_TxCpltCallback:
 116              	.LVL5:
 117              	.LFB71:
 234:Core/Src/main.c **** 
 235:Core/Src/main.c **** // DMA TX complete callback - required for continuous DMA transmission
 236:Core/Src/main.c **** void HAL_UART_TxCpltCallback(UART_HandleTypeDef *huart){
 118              		.loc 1 236 56 is_stmt 1 view -0
 119              		.cfi_startproc
 120              		@ args = 0, pretend = 0, frame = 0
 121              		@ frame_needed = 0, uses_anonymous_args = 0
 122              		@ link register save eliminated.
 237:Core/Src/main.c ****   if(huart->Instance == USART2){
 123              		.loc 1 237 3 view .LVU23
 238:Core/Src/main.c ****     // DMA transfer complete - state automatically reset to READY by HAL
 239:Core/Src/main.c ****     // This callback confirms DMA is working
 240:Core/Src/main.c ****   }
 124              		.loc 1 240 3 view .LVU24
 241:Core/Src/main.c **** }
 125              		.loc 1 241 1 is_stmt 0 view .LVU25
 126 0000 7047     		bx	lr
 127              		.cfi_endproc
 128              	.LFE71:
 130              		.section	.text.HAL_UARTEx_RxEventCallback,"ax",%progbits
 131              		.align	1
 132              		.global	HAL_UARTEx_RxEventCallback
 133              		.syntax unified
 134              		.thumb
 135              		.thumb_func
 137              	HAL_UARTEx_RxEventCallback:
 138              	.LVL6:
 139              	.LFB72:
 242:Core/Src/main.c **** 
 243:Core/Src/main.c **** // DMA RX callback
 244:Core/Src/main.c **** void HAL_UARTEx_RxEventCallback(UART_HandleTypeDef *huart, uint16_t Size)
 245:Core/Src/main.c **** {
 140              		.loc 1 245 1 is_stmt 1 view -0
 141              		.cfi_startproc
 142              		@ args = 0, pretend = 0, frame = 0
 143              		@ frame_needed = 0, uses_anonymous_args = 0
 144              		.loc 1 245 1 is_stmt 0 view .LVU27
 145 0000 08B5     		push	{r3, lr}
ARM GAS  C:\Users\Xuleo\AppData\Local\Temp\ccjCXS4s.s 			page 8


 146              	.LCFI1:
 147              		.cfi_def_cfa_offset 8
 148              		.cfi_offset 3, -8
 149              		.cfi_offset 14, -4
 246:Core/Src/main.c ****   if (huart->Instance == USART2) {
 150              		.loc 1 246 3 is_stmt 1 view .LVU28
 151              		.loc 1 246 12 is_stmt 0 view .LVU29
 152 0002 0268     		ldr	r2, [r0]
 153              		.loc 1 246 6 view .LVU30
 154 0004 1F4B     		ldr	r3, .L24
 155 0006 9A42     		cmp	r2, r3
 156 0008 00D0     		beq	.L23
 157              	.LVL7:
 158              	.L10:
 247:Core/Src/main.c ****     // parse vofa message and save pid data
 248:Core/Src/main.c ****     // first only handle if message >= 5 bytes
 249:Core/Src/main.c ****     if (Size >= 5) {
 250:Core/Src/main.c ****       uint8_t command = VOFA_SEND_BUFFER[0];
 251:Core/Src/main.c ****       float value; // the pid will be stored as float
 252:Core/Src/main.c **** 
 253:Core/Src/main.c ****       switch (command)
 254:Core/Src/main.c ****       {
 255:Core/Src/main.c ****       case CMD_SET_LEFT_P:
 256:Core/Src/main.c ****         memcpy(&value, &VOFA_SEND_BUFFER[1], sizeof(float)); // first copy to value 
 257:Core/Src/main.c ****         leftHandMotor.P=value;
 258:Core/Src/main.c ****         break;
 259:Core/Src/main.c **** 
 260:Core/Src/main.c ****       case CMD_SET_LEFT_I:
 261:Core/Src/main.c ****         memcpy(&value, &VOFA_SEND_BUFFER[1], sizeof(float));
 262:Core/Src/main.c ****         leftHandMotor.I = value;
 263:Core/Src/main.c ****         break;
 264:Core/Src/main.c **** 
 265:Core/Src/main.c ****       case CMD_SET_LEFT_D:
 266:Core/Src/main.c ****         memcpy(&value, &VOFA_SEND_BUFFER[1], sizeof(float));
 267:Core/Src/main.c ****         leftHandMotor.D = value;
 268:Core/Src/main.c ****         break;
 269:Core/Src/main.c **** 
 270:Core/Src/main.c ****       case CMD_SET_RIGHT_P:
 271:Core/Src/main.c ****         memcpy(&value, &VOFA_SEND_BUFFER[1], sizeof(float)); // first copy to value 
 272:Core/Src/main.c ****         rightHandMotor.P=value;
 273:Core/Src/main.c ****         break;
 274:Core/Src/main.c **** 
 275:Core/Src/main.c ****       case CMD_SET_RIGHT_I:
 276:Core/Src/main.c ****         memcpy(&value, &VOFA_SEND_BUFFER[1], sizeof(float));
 277:Core/Src/main.c ****         rightHandMotor.I = value;
 278:Core/Src/main.c ****         break;
 279:Core/Src/main.c **** 
 280:Core/Src/main.c ****       case CMD_SET_RIGHT_D:
 281:Core/Src/main.c ****         memcpy(&value, &VOFA_SEND_BUFFER[1], sizeof(float));
 282:Core/Src/main.c ****         rightHandMotor.D = value;
 283:Core/Src/main.c ****         break;
 284:Core/Src/main.c ****       
 285:Core/Src/main.c ****       default:
 286:Core/Src/main.c ****         break;
 287:Core/Src/main.c ****       }
 288:Core/Src/main.c ****     }
 289:Core/Src/main.c **** 
ARM GAS  C:\Users\Xuleo\AppData\Local\Temp\ccjCXS4s.s 			page 9


 290:Core/Src/main.c ****     // restart receive
 291:Core/Src/main.c ****     HAL_UARTEx_ReceiveToIdle_DMA(&huart2, VOFA_SEND_BUFFER, sizeof(VOFA_SEND_BUFFER));
 292:Core/Src/main.c ****   }
 293:Core/Src/main.c **** }
 159              		.loc 1 293 1 view .LVU31
 160 000a 08BD     		pop	{r3, pc}
 161              	.LVL8:
 162              	.L23:
 249:Core/Src/main.c ****       uint8_t command = VOFA_SEND_BUFFER[0];
 163              		.loc 1 249 5 is_stmt 1 view .LVU32
 249:Core/Src/main.c ****       uint8_t command = VOFA_SEND_BUFFER[0];
 164              		.loc 1 249 8 is_stmt 0 view .LVU33
 165 000c 0429     		cmp	r1, #4
 166 000e 15D9     		bls	.L12
 167              	.LBB4:
 250:Core/Src/main.c ****       float value; // the pid will be stored as float
 168              		.loc 1 250 7 is_stmt 1 view .LVU34
 250:Core/Src/main.c ****       float value; // the pid will be stored as float
 169              		.loc 1 250 15 is_stmt 0 view .LVU35
 170 0010 1D4B     		ldr	r3, .L24+4
 171 0012 1B78     		ldrb	r3, [r3]	@ zero_extendqisi2
 172              	.LVL9:
 251:Core/Src/main.c **** 
 173              		.loc 1 251 7 is_stmt 1 view .LVU36
 253:Core/Src/main.c ****       {
 174              		.loc 1 253 7 view .LVU37
 175 0014 013B     		subs	r3, r3, #1
 176 0016 122B     		cmp	r3, #18
 177 0018 10D8     		bhi	.L12
 178 001a DFE803F0 		tbb	[pc, r3]
 179              	.L15:
 180 001e 0A       		.byte	(.L20-.L15)/2
 181 001f 15       		.byte	(.L19-.L15)/2
 182 0020 1B       		.byte	(.L18-.L15)/2
 183 0021 0F       		.byte	(.L12-.L15)/2
 184 0022 0F       		.byte	(.L12-.L15)/2
 185 0023 0F       		.byte	(.L12-.L15)/2
 186 0024 0F       		.byte	(.L12-.L15)/2
 187 0025 0F       		.byte	(.L12-.L15)/2
 188 0026 0F       		.byte	(.L12-.L15)/2
 189 0027 0F       		.byte	(.L12-.L15)/2
 190 0028 0F       		.byte	(.L12-.L15)/2
 191 0029 0F       		.byte	(.L12-.L15)/2
 192 002a 0F       		.byte	(.L12-.L15)/2
 193 002b 0F       		.byte	(.L12-.L15)/2
 194 002c 0F       		.byte	(.L12-.L15)/2
 195 002d 0F       		.byte	(.L12-.L15)/2
 196 002e 21       		.byte	(.L17-.L15)/2
 197 002f 27       		.byte	(.L16-.L15)/2
 198 0030 2D       		.byte	(.L14-.L15)/2
 199 0031 00       		.p2align 1
 200              	.L20:
 256:Core/Src/main.c ****         leftHandMotor.P=value;
 201              		.loc 1 256 9 view .LVU38
 257:Core/Src/main.c ****         break;
 202              		.loc 1 257 9 view .LVU39
 257:Core/Src/main.c ****         break;
ARM GAS  C:\Users\Xuleo\AppData\Local\Temp\ccjCXS4s.s 			page 10


 203              		.loc 1 257 24 is_stmt 0 view .LVU40
 204 0032 154B     		ldr	r3, .L24+4
 205              	.LVL10:
 257:Core/Src/main.c ****         break;
 206              		.loc 1 257 24 view .LVU41
 207 0034 D3F80120 		ldr	r2, [r3, #1]	@ unaligned
 208 0038 144B     		ldr	r3, .L24+8
 209              	.LVL11:
 257:Core/Src/main.c ****         break;
 210              		.loc 1 257 24 view .LVU42
 211 003a 1A60     		str	r2, [r3]	@ float
 258:Core/Src/main.c **** 
 212              		.loc 1 258 9 is_stmt 1 view .LVU43
 213              	.LVL12:
 214              	.L12:
 258:Core/Src/main.c **** 
 215              		.loc 1 258 9 is_stmt 0 view .LVU44
 216              	.LBE4:
 291:Core/Src/main.c ****   }
 217              		.loc 1 291 5 is_stmt 1 view .LVU45
 218 003c 4022     		movs	r2, #64
 219 003e 1249     		ldr	r1, .L24+4
 220              	.LVL13:
 291:Core/Src/main.c ****   }
 221              		.loc 1 291 5 is_stmt 0 view .LVU46
 222 0040 1348     		ldr	r0, .L24+12
 223              	.LVL14:
 291:Core/Src/main.c ****   }
 224              		.loc 1 291 5 view .LVU47
 225 0042 FFF7FEFF 		bl	HAL_UARTEx_ReceiveToIdle_DMA
 226              	.LVL15:
 227              		.loc 1 293 1 view .LVU48
 228 0046 E0E7     		b	.L10
 229              	.LVL16:
 230              	.L19:
 231              	.LBB5:
 261:Core/Src/main.c ****         leftHandMotor.I = value;
 232              		.loc 1 261 9 is_stmt 1 view .LVU49
 262:Core/Src/main.c ****         break;
 233              		.loc 1 262 9 view .LVU50
 262:Core/Src/main.c ****         break;
 234              		.loc 1 262 25 is_stmt 0 view .LVU51
 235 0048 0F4B     		ldr	r3, .L24+4
 236              	.LVL17:
 262:Core/Src/main.c ****         break;
 237              		.loc 1 262 25 view .LVU52
 238 004a D3F80120 		ldr	r2, [r3, #1]	@ unaligned
 239 004e 0F4B     		ldr	r3, .L24+8
 240              	.LVL18:
 262:Core/Src/main.c ****         break;
 241              		.loc 1 262 25 view .LVU53
 242 0050 5A60     		str	r2, [r3, #4]	@ float
 263:Core/Src/main.c **** 
 243              		.loc 1 263 9 is_stmt 1 view .LVU54
 244 0052 F3E7     		b	.L12
 245              	.L18:
 266:Core/Src/main.c ****         leftHandMotor.D = value;
ARM GAS  C:\Users\Xuleo\AppData\Local\Temp\ccjCXS4s.s 			page 11


 246              		.loc 1 266 9 view .LVU55
 267:Core/Src/main.c ****         break;
 247              		.loc 1 267 9 view .LVU56
 267:Core/Src/main.c ****         break;
 248              		.loc 1 267 25 is_stmt 0 view .LVU57
 249 0054 0C4B     		ldr	r3, .L24+4
 250              	.LVL19:
 267:Core/Src/main.c ****         break;
 251              		.loc 1 267 25 view .LVU58
 252 0056 D3F80120 		ldr	r2, [r3, #1]	@ unaligned
 253 005a 0C4B     		ldr	r3, .L24+8
 254              	.LVL20:
 267:Core/Src/main.c ****         break;
 255              		.loc 1 267 25 view .LVU59
 256 005c 9A60     		str	r2, [r3, #8]	@ float
 268:Core/Src/main.c **** 
 257              		.loc 1 268 9 is_stmt 1 view .LVU60
 258 005e EDE7     		b	.L12
 259              	.L17:
 271:Core/Src/main.c ****         rightHandMotor.P=value;
 260              		.loc 1 271 9 view .LVU61
 272:Core/Src/main.c ****         break;
 261              		.loc 1 272 9 view .LVU62
 272:Core/Src/main.c ****         break;
 262              		.loc 1 272 25 is_stmt 0 view .LVU63
 263 0060 094B     		ldr	r3, .L24+4
 264              	.LVL21:
 272:Core/Src/main.c ****         break;
 265              		.loc 1 272 25 view .LVU64
 266 0062 D3F80120 		ldr	r2, [r3, #1]	@ unaligned
 267 0066 0B4B     		ldr	r3, .L24+16
 268              	.LVL22:
 272:Core/Src/main.c ****         break;
 269              		.loc 1 272 25 view .LVU65
 270 0068 1A60     		str	r2, [r3]	@ float
 273:Core/Src/main.c **** 
 271              		.loc 1 273 9 is_stmt 1 view .LVU66
 272 006a E7E7     		b	.L12
 273              	.L16:
 276:Core/Src/main.c ****         rightHandMotor.I = value;
 274              		.loc 1 276 9 view .LVU67
 277:Core/Src/main.c ****         break;
 275              		.loc 1 277 9 view .LVU68
 277:Core/Src/main.c ****         break;
 276              		.loc 1 277 26 is_stmt 0 view .LVU69
 277 006c 064B     		ldr	r3, .L24+4
 278              	.LVL23:
 277:Core/Src/main.c ****         break;
 279              		.loc 1 277 26 view .LVU70
 280 006e D3F80120 		ldr	r2, [r3, #1]	@ unaligned
 281 0072 084B     		ldr	r3, .L24+16
 282              	.LVL24:
 277:Core/Src/main.c ****         break;
 283              		.loc 1 277 26 view .LVU71
 284 0074 5A60     		str	r2, [r3, #4]	@ float
 278:Core/Src/main.c **** 
 285              		.loc 1 278 9 is_stmt 1 view .LVU72
ARM GAS  C:\Users\Xuleo\AppData\Local\Temp\ccjCXS4s.s 			page 12


 286 0076 E1E7     		b	.L12
 287              	.L14:
 281:Core/Src/main.c ****         rightHandMotor.D = value;
 288              		.loc 1 281 9 view .LVU73
 282:Core/Src/main.c ****         break;
 289              		.loc 1 282 9 view .LVU74
 282:Core/Src/main.c ****         break;
 290              		.loc 1 282 26 is_stmt 0 view .LVU75
 291 0078 034B     		ldr	r3, .L24+4
 292              	.LVL25:
 282:Core/Src/main.c ****         break;
 293              		.loc 1 282 26 view .LVU76
 294 007a D3F80120 		ldr	r2, [r3, #1]	@ unaligned
 295 007e 054B     		ldr	r3, .L24+16
 296              	.LVL26:
 282:Core/Src/main.c ****         break;
 297              		.loc 1 282 26 view .LVU77
 298 0080 9A60     		str	r2, [r3, #8]	@ float
 283:Core/Src/main.c ****       
 299              		.loc 1 283 9 is_stmt 1 view .LVU78
 300 0082 DBE7     		b	.L12
 301              	.L25:
 302              		.align	2
 303              	.L24:
 304 0084 00440040 		.word	1073759232
 305 0088 00000000 		.word	VOFA_SEND_BUFFER
 306 008c 00000000 		.word	leftHandMotor
 307 0090 00000000 		.word	huart2
 308 0094 00000000 		.word	rightHandMotor
 309              	.LBE5:
 310              		.cfi_endproc
 311              	.LFE72:
 313              		.section	.text.Error_Handler,"ax",%progbits
 314              		.align	1
 315              		.global	Error_Handler
 316              		.syntax unified
 317              		.thumb
 318              		.thumb_func
 320              	Error_Handler:
 321              	.LFB73:
 294:Core/Src/main.c **** /* USER CODE END 4 */
 295:Core/Src/main.c **** 
 296:Core/Src/main.c **** /**
 297:Core/Src/main.c ****   * @brief  This function is executed in case of error occurrence.
 298:Core/Src/main.c ****   * @retval None
 299:Core/Src/main.c ****   */
 300:Core/Src/main.c **** void Error_Handler(void)
 301:Core/Src/main.c **** {
 322              		.loc 1 301 1 view -0
 323              		.cfi_startproc
 324              		@ Volatile: function does not return.
 325              		@ args = 0, pretend = 0, frame = 0
 326              		@ frame_needed = 0, uses_anonymous_args = 0
 327              		@ link register save eliminated.
 302:Core/Src/main.c ****   /* USER CODE BEGIN Error_Handler_Debug */
 303:Core/Src/main.c ****   /* User can add his own implementation to report the HAL error return state */
 304:Core/Src/main.c ****   __disable_irq();
ARM GAS  C:\Users\Xuleo\AppData\Local\Temp\ccjCXS4s.s 			page 13


 328              		.loc 1 304 3 view .LVU80
 329              	.LBB6:
 330              	.LBI6:
 331              		.file 2 "Drivers/CMSIS/Include/cmsis_gcc.h"
   1:Drivers/CMSIS/Include/cmsis_gcc.h **** /**************************************************************************//**
   2:Drivers/CMSIS/Include/cmsis_gcc.h ****  * @file     cmsis_gcc.h
   3:Drivers/CMSIS/Include/cmsis_gcc.h ****  * @brief    CMSIS compiler GCC header file
   4:Drivers/CMSIS/Include/cmsis_gcc.h ****  * @version  V5.0.4
   5:Drivers/CMSIS/Include/cmsis_gcc.h ****  * @date     09. April 2018
   6:Drivers/CMSIS/Include/cmsis_gcc.h ****  ******************************************************************************/
   7:Drivers/CMSIS/Include/cmsis_gcc.h **** /*
   8:Drivers/CMSIS/Include/cmsis_gcc.h ****  * Copyright (c) 2009-2018 Arm Limited. All rights reserved.
   9:Drivers/CMSIS/Include/cmsis_gcc.h ****  *
  10:Drivers/CMSIS/Include/cmsis_gcc.h ****  * SPDX-License-Identifier: Apache-2.0
  11:Drivers/CMSIS/Include/cmsis_gcc.h ****  *
  12:Drivers/CMSIS/Include/cmsis_gcc.h ****  * Licensed under the Apache License, Version 2.0 (the License); you may
  13:Drivers/CMSIS/Include/cmsis_gcc.h ****  * not use this file except in compliance with the License.
  14:Drivers/CMSIS/Include/cmsis_gcc.h ****  * You may obtain a copy of the License at
  15:Drivers/CMSIS/Include/cmsis_gcc.h ****  *
  16:Drivers/CMSIS/Include/cmsis_gcc.h ****  * www.apache.org/licenses/LICENSE-2.0
  17:Drivers/CMSIS/Include/cmsis_gcc.h ****  *
  18:Drivers/CMSIS/Include/cmsis_gcc.h ****  * Unless required by applicable law or agreed to in writing, software
  19:Drivers/CMSIS/Include/cmsis_gcc.h ****  * distributed under the License is distributed on an AS IS BASIS, WITHOUT
  20:Drivers/CMSIS/Include/cmsis_gcc.h ****  * WARRANTIES OR CONDITIONS OF ANY KIND, either express or implied.
  21:Drivers/CMSIS/Include/cmsis_gcc.h ****  * See the License for the specific language governing permissions and
  22:Drivers/CMSIS/Include/cmsis_gcc.h ****  * limitations under the License.
  23:Drivers/CMSIS/Include/cmsis_gcc.h ****  */
  24:Drivers/CMSIS/Include/cmsis_gcc.h **** 
  25:Drivers/CMSIS/Include/cmsis_gcc.h **** #ifndef __CMSIS_GCC_H
  26:Drivers/CMSIS/Include/cmsis_gcc.h **** #define __CMSIS_GCC_H
  27:Drivers/CMSIS/Include/cmsis_gcc.h **** 
  28:Drivers/CMSIS/Include/cmsis_gcc.h **** /* ignore some GCC warnings */
  29:Drivers/CMSIS/Include/cmsis_gcc.h **** #pragma GCC diagnostic push
  30:Drivers/CMSIS/Include/cmsis_gcc.h **** #pragma GCC diagnostic ignored "-Wsign-conversion"
  31:Drivers/CMSIS/Include/cmsis_gcc.h **** #pragma GCC diagnostic ignored "-Wconversion"
  32:Drivers/CMSIS/Include/cmsis_gcc.h **** #pragma GCC diagnostic ignored "-Wunused-parameter"
  33:Drivers/CMSIS/Include/cmsis_gcc.h **** 
  34:Drivers/CMSIS/Include/cmsis_gcc.h **** /* Fallback for __has_builtin */
  35:Drivers/CMSIS/Include/cmsis_gcc.h **** #ifndef __has_builtin
  36:Drivers/CMSIS/Include/cmsis_gcc.h ****   #define __has_builtin(x) (0)
  37:Drivers/CMSIS/Include/cmsis_gcc.h **** #endif
  38:Drivers/CMSIS/Include/cmsis_gcc.h **** 
  39:Drivers/CMSIS/Include/cmsis_gcc.h **** /* CMSIS compiler specific defines */
  40:Drivers/CMSIS/Include/cmsis_gcc.h **** #ifndef   __ASM
  41:Drivers/CMSIS/Include/cmsis_gcc.h ****   #define __ASM                                  __asm
  42:Drivers/CMSIS/Include/cmsis_gcc.h **** #endif
  43:Drivers/CMSIS/Include/cmsis_gcc.h **** #ifndef   __INLINE
  44:Drivers/CMSIS/Include/cmsis_gcc.h ****   #define __INLINE                               inline
  45:Drivers/CMSIS/Include/cmsis_gcc.h **** #endif
  46:Drivers/CMSIS/Include/cmsis_gcc.h **** #ifndef   __STATIC_INLINE
  47:Drivers/CMSIS/Include/cmsis_gcc.h ****   #define __STATIC_INLINE                        static inline
  48:Drivers/CMSIS/Include/cmsis_gcc.h **** #endif
  49:Drivers/CMSIS/Include/cmsis_gcc.h **** #ifndef   __STATIC_FORCEINLINE                 
  50:Drivers/CMSIS/Include/cmsis_gcc.h ****   #define __STATIC_FORCEINLINE                   __attribute__((always_inline)) static inline
  51:Drivers/CMSIS/Include/cmsis_gcc.h **** #endif                                           
  52:Drivers/CMSIS/Include/cmsis_gcc.h **** #ifndef   __NO_RETURN
  53:Drivers/CMSIS/Include/cmsis_gcc.h ****   #define __NO_RETURN                            __attribute__((__noreturn__))
ARM GAS  C:\Users\Xuleo\AppData\Local\Temp\ccjCXS4s.s 			page 14


  54:Drivers/CMSIS/Include/cmsis_gcc.h **** #endif
  55:Drivers/CMSIS/Include/cmsis_gcc.h **** #ifndef   __USED
  56:Drivers/CMSIS/Include/cmsis_gcc.h ****   #define __USED                                 __attribute__((used))
  57:Drivers/CMSIS/Include/cmsis_gcc.h **** #endif
  58:Drivers/CMSIS/Include/cmsis_gcc.h **** #ifndef   __WEAK
  59:Drivers/CMSIS/Include/cmsis_gcc.h ****   #define __WEAK                                 __attribute__((weak))
  60:Drivers/CMSIS/Include/cmsis_gcc.h **** #endif
  61:Drivers/CMSIS/Include/cmsis_gcc.h **** #ifndef   __PACKED
  62:Drivers/CMSIS/Include/cmsis_gcc.h ****   #define __PACKED                               __attribute__((packed, aligned(1)))
  63:Drivers/CMSIS/Include/cmsis_gcc.h **** #endif
  64:Drivers/CMSIS/Include/cmsis_gcc.h **** #ifndef   __PACKED_STRUCT
  65:Drivers/CMSIS/Include/cmsis_gcc.h ****   #define __PACKED_STRUCT                        struct __attribute__((packed, aligned(1)))
  66:Drivers/CMSIS/Include/cmsis_gcc.h **** #endif
  67:Drivers/CMSIS/Include/cmsis_gcc.h **** #ifndef   __PACKED_UNION
  68:Drivers/CMSIS/Include/cmsis_gcc.h ****   #define __PACKED_UNION                         union __attribute__((packed, aligned(1)))
  69:Drivers/CMSIS/Include/cmsis_gcc.h **** #endif
  70:Drivers/CMSIS/Include/cmsis_gcc.h **** #ifndef   __UNALIGNED_UINT32        /* deprecated */
  71:Drivers/CMSIS/Include/cmsis_gcc.h ****   #pragma GCC diagnostic push
  72:Drivers/CMSIS/Include/cmsis_gcc.h ****   #pragma GCC diagnostic ignored "-Wpacked"
  73:Drivers/CMSIS/Include/cmsis_gcc.h ****   #pragma GCC diagnostic ignored "-Wattributes"
  74:Drivers/CMSIS/Include/cmsis_gcc.h ****   struct __attribute__((packed)) T_UINT32 { uint32_t v; };
  75:Drivers/CMSIS/Include/cmsis_gcc.h ****   #pragma GCC diagnostic pop
  76:Drivers/CMSIS/Include/cmsis_gcc.h ****   #define __UNALIGNED_UINT32(x)                  (((struct T_UINT32 *)(x))->v)
  77:Drivers/CMSIS/Include/cmsis_gcc.h **** #endif
  78:Drivers/CMSIS/Include/cmsis_gcc.h **** #ifndef   __UNALIGNED_UINT16_WRITE
  79:Drivers/CMSIS/Include/cmsis_gcc.h ****   #pragma GCC diagnostic push
  80:Drivers/CMSIS/Include/cmsis_gcc.h ****   #pragma GCC diagnostic ignored "-Wpacked"
  81:Drivers/CMSIS/Include/cmsis_gcc.h ****   #pragma GCC diagnostic ignored "-Wattributes"
  82:Drivers/CMSIS/Include/cmsis_gcc.h ****   __PACKED_STRUCT T_UINT16_WRITE { uint16_t v; };
  83:Drivers/CMSIS/Include/cmsis_gcc.h ****   #pragma GCC diagnostic pop
  84:Drivers/CMSIS/Include/cmsis_gcc.h ****   #define __UNALIGNED_UINT16_WRITE(addr, val)    (void)((((struct T_UINT16_WRITE *)(void *)(addr))-
  85:Drivers/CMSIS/Include/cmsis_gcc.h **** #endif
  86:Drivers/CMSIS/Include/cmsis_gcc.h **** #ifndef   __UNALIGNED_UINT16_READ
  87:Drivers/CMSIS/Include/cmsis_gcc.h ****   #pragma GCC diagnostic push
  88:Drivers/CMSIS/Include/cmsis_gcc.h ****   #pragma GCC diagnostic ignored "-Wpacked"
  89:Drivers/CMSIS/Include/cmsis_gcc.h ****   #pragma GCC diagnostic ignored "-Wattributes"
  90:Drivers/CMSIS/Include/cmsis_gcc.h ****   __PACKED_STRUCT T_UINT16_READ { uint16_t v; };
  91:Drivers/CMSIS/Include/cmsis_gcc.h ****   #pragma GCC diagnostic pop
  92:Drivers/CMSIS/Include/cmsis_gcc.h ****   #define __UNALIGNED_UINT16_READ(addr)          (((const struct T_UINT16_READ *)(const void *)(add
  93:Drivers/CMSIS/Include/cmsis_gcc.h **** #endif
  94:Drivers/CMSIS/Include/cmsis_gcc.h **** #ifndef   __UNALIGNED_UINT32_WRITE
  95:Drivers/CMSIS/Include/cmsis_gcc.h ****   #pragma GCC diagnostic push
  96:Drivers/CMSIS/Include/cmsis_gcc.h ****   #pragma GCC diagnostic ignored "-Wpacked"
  97:Drivers/CMSIS/Include/cmsis_gcc.h ****   #pragma GCC diagnostic ignored "-Wattributes"
  98:Drivers/CMSIS/Include/cmsis_gcc.h ****   __PACKED_STRUCT T_UINT32_WRITE { uint32_t v; };
  99:Drivers/CMSIS/Include/cmsis_gcc.h ****   #pragma GCC diagnostic pop
 100:Drivers/CMSIS/Include/cmsis_gcc.h ****   #define __UNALIGNED_UINT32_WRITE(addr, val)    (void)((((struct T_UINT32_WRITE *)(void *)(addr))-
 101:Drivers/CMSIS/Include/cmsis_gcc.h **** #endif
 102:Drivers/CMSIS/Include/cmsis_gcc.h **** #ifndef   __UNALIGNED_UINT32_READ
 103:Drivers/CMSIS/Include/cmsis_gcc.h ****   #pragma GCC diagnostic push
 104:Drivers/CMSIS/Include/cmsis_gcc.h ****   #pragma GCC diagnostic ignored "-Wpacked"
 105:Drivers/CMSIS/Include/cmsis_gcc.h ****   #pragma GCC diagnostic ignored "-Wattributes"
 106:Drivers/CMSIS/Include/cmsis_gcc.h ****   __PACKED_STRUCT T_UINT32_READ { uint32_t v; };
 107:Drivers/CMSIS/Include/cmsis_gcc.h ****   #pragma GCC diagnostic pop
 108:Drivers/CMSIS/Include/cmsis_gcc.h ****   #define __UNALIGNED_UINT32_READ(addr)          (((const struct T_UINT32_READ *)(const void *)(add
 109:Drivers/CMSIS/Include/cmsis_gcc.h **** #endif
 110:Drivers/CMSIS/Include/cmsis_gcc.h **** #ifndef   __ALIGNED
ARM GAS  C:\Users\Xuleo\AppData\Local\Temp\ccjCXS4s.s 			page 15


 111:Drivers/CMSIS/Include/cmsis_gcc.h ****   #define __ALIGNED(x)                           __attribute__((aligned(x)))
 112:Drivers/CMSIS/Include/cmsis_gcc.h **** #endif
 113:Drivers/CMSIS/Include/cmsis_gcc.h **** #ifndef   __RESTRICT
 114:Drivers/CMSIS/Include/cmsis_gcc.h ****   #define __RESTRICT                             __restrict
 115:Drivers/CMSIS/Include/cmsis_gcc.h **** #endif
 116:Drivers/CMSIS/Include/cmsis_gcc.h **** 
 117:Drivers/CMSIS/Include/cmsis_gcc.h **** 
 118:Drivers/CMSIS/Include/cmsis_gcc.h **** /* ###########################  Core Function Access  ########################### */
 119:Drivers/CMSIS/Include/cmsis_gcc.h **** /** \ingroup  CMSIS_Core_FunctionInterface
 120:Drivers/CMSIS/Include/cmsis_gcc.h ****     \defgroup CMSIS_Core_RegAccFunctions CMSIS Core Register Access Functions
 121:Drivers/CMSIS/Include/cmsis_gcc.h ****   @{
 122:Drivers/CMSIS/Include/cmsis_gcc.h ****  */
 123:Drivers/CMSIS/Include/cmsis_gcc.h **** 
 124:Drivers/CMSIS/Include/cmsis_gcc.h **** /**
 125:Drivers/CMSIS/Include/cmsis_gcc.h ****   \brief   Enable IRQ Interrupts
 126:Drivers/CMSIS/Include/cmsis_gcc.h ****   \details Enables IRQ interrupts by clearing the I-bit in the CPSR.
 127:Drivers/CMSIS/Include/cmsis_gcc.h ****            Can only be executed in Privileged modes.
 128:Drivers/CMSIS/Include/cmsis_gcc.h ****  */
 129:Drivers/CMSIS/Include/cmsis_gcc.h **** __STATIC_FORCEINLINE void __enable_irq(void)
 130:Drivers/CMSIS/Include/cmsis_gcc.h **** {
 131:Drivers/CMSIS/Include/cmsis_gcc.h ****   __ASM volatile ("cpsie i" : : : "memory");
 132:Drivers/CMSIS/Include/cmsis_gcc.h **** }
 133:Drivers/CMSIS/Include/cmsis_gcc.h **** 
 134:Drivers/CMSIS/Include/cmsis_gcc.h **** 
 135:Drivers/CMSIS/Include/cmsis_gcc.h **** /**
 136:Drivers/CMSIS/Include/cmsis_gcc.h ****   \brief   Disable IRQ Interrupts
 137:Drivers/CMSIS/Include/cmsis_gcc.h ****   \details Disables IRQ interrupts by setting the I-bit in the CPSR.
 138:Drivers/CMSIS/Include/cmsis_gcc.h ****            Can only be executed in Privileged modes.
 139:Drivers/CMSIS/Include/cmsis_gcc.h ****  */
 140:Drivers/CMSIS/Include/cmsis_gcc.h **** __STATIC_FORCEINLINE void __disable_irq(void)
 332              		.loc 2 140 27 view .LVU81
 333              	.LBB7:
 141:Drivers/CMSIS/Include/cmsis_gcc.h **** {
 142:Drivers/CMSIS/Include/cmsis_gcc.h ****   __ASM volatile ("cpsid i" : : : "memory");
 334              		.loc 2 142 3 view .LVU82
 335              		.syntax unified
 336              	@ 142 "Drivers/CMSIS/Include/cmsis_gcc.h" 1
 337 0000 72B6     		cpsid i
 338              	@ 0 "" 2
 339              		.thumb
 340              		.syntax unified
 341              	.L27:
 342              	.LBE7:
 343              	.LBE6:
 305:Core/Src/main.c ****   while (1)
 344              		.loc 1 305 3 view .LVU83
 306:Core/Src/main.c ****   {
 307:Core/Src/main.c ****   }
 345              		.loc 1 307 3 view .LVU84
 305:Core/Src/main.c ****   while (1)
 346              		.loc 1 305 9 view .LVU85
 347 0002 FEE7     		b	.L27
 348              		.cfi_endproc
 349              	.LFE73:
 351              		.section	.text.SystemClock_Config,"ax",%progbits
 352              		.align	1
 353              		.global	SystemClock_Config
ARM GAS  C:\Users\Xuleo\AppData\Local\Temp\ccjCXS4s.s 			page 16


 354              		.syntax unified
 355              		.thumb
 356              		.thumb_func
 358              	SystemClock_Config:
 359              	.LFB69:
 182:Core/Src/main.c ****   RCC_OscInitTypeDef RCC_OscInitStruct = {0};
 360              		.loc 1 182 1 view -0
 361              		.cfi_startproc
 362              		@ args = 0, pretend = 0, frame = 64
 363              		@ frame_needed = 0, uses_anonymous_args = 0
 364 0000 00B5     		push	{lr}
 365              	.LCFI2:
 366              		.cfi_def_cfa_offset 4
 367              		.cfi_offset 14, -4
 368 0002 91B0     		sub	sp, sp, #68
 369              	.LCFI3:
 370              		.cfi_def_cfa_offset 72
 183:Core/Src/main.c ****   RCC_ClkInitTypeDef RCC_ClkInitStruct = {0};
 371              		.loc 1 183 3 view .LVU87
 183:Core/Src/main.c ****   RCC_ClkInitTypeDef RCC_ClkInitStruct = {0};
 372              		.loc 1 183 22 is_stmt 0 view .LVU88
 373 0004 2822     		movs	r2, #40
 374 0006 0021     		movs	r1, #0
 375 0008 06A8     		add	r0, sp, #24
 376 000a FFF7FEFF 		bl	memset
 377              	.LVL27:
 184:Core/Src/main.c **** 
 378              		.loc 1 184 3 is_stmt 1 view .LVU89
 184:Core/Src/main.c **** 
 379              		.loc 1 184 22 is_stmt 0 view .LVU90
 380 000e 0023     		movs	r3, #0
 381 0010 0193     		str	r3, [sp, #4]
 382 0012 0293     		str	r3, [sp, #8]
 383 0014 0393     		str	r3, [sp, #12]
 384 0016 0493     		str	r3, [sp, #16]
 385 0018 0593     		str	r3, [sp, #20]
 189:Core/Src/main.c ****   RCC_OscInitStruct.HSEState = RCC_HSE_ON;
 386              		.loc 1 189 3 is_stmt 1 view .LVU91
 189:Core/Src/main.c ****   RCC_OscInitStruct.HSEState = RCC_HSE_ON;
 387              		.loc 1 189 36 is_stmt 0 view .LVU92
 388 001a 0122     		movs	r2, #1
 389 001c 0692     		str	r2, [sp, #24]
 190:Core/Src/main.c ****   RCC_OscInitStruct.HSEPredivValue = RCC_HSE_PREDIV_DIV1;
 390              		.loc 1 190 3 is_stmt 1 view .LVU93
 190:Core/Src/main.c ****   RCC_OscInitStruct.HSEPredivValue = RCC_HSE_PREDIV_DIV1;
 391              		.loc 1 190 30 is_stmt 0 view .LVU94
 392 001e 4FF48033 		mov	r3, #65536
 393 0022 0793     		str	r3, [sp, #28]
 191:Core/Src/main.c ****   RCC_OscInitStruct.HSIState = RCC_HSI_ON;
 394              		.loc 1 191 3 is_stmt 1 view .LVU95
 192:Core/Src/main.c ****   RCC_OscInitStruct.PLL.PLLState = RCC_PLL_ON;
 395              		.loc 1 192 3 view .LVU96
 192:Core/Src/main.c ****   RCC_OscInitStruct.PLL.PLLState = RCC_PLL_ON;
 396              		.loc 1 192 30 is_stmt 0 view .LVU97
 397 0024 0A92     		str	r2, [sp, #40]
 193:Core/Src/main.c ****   RCC_OscInitStruct.PLL.PLLSource = RCC_PLLSOURCE_HSE;
 398              		.loc 1 193 3 is_stmt 1 view .LVU98
ARM GAS  C:\Users\Xuleo\AppData\Local\Temp\ccjCXS4s.s 			page 17


 193:Core/Src/main.c ****   RCC_OscInitStruct.PLL.PLLSource = RCC_PLLSOURCE_HSE;
 399              		.loc 1 193 34 is_stmt 0 view .LVU99
 400 0026 0222     		movs	r2, #2
 401 0028 0D92     		str	r2, [sp, #52]
 194:Core/Src/main.c ****   RCC_OscInitStruct.PLL.PLLMUL = RCC_PLL_MUL9;
 402              		.loc 1 194 3 is_stmt 1 view .LVU100
 194:Core/Src/main.c ****   RCC_OscInitStruct.PLL.PLLMUL = RCC_PLL_MUL9;
 403              		.loc 1 194 35 is_stmt 0 view .LVU101
 404 002a 0E93     		str	r3, [sp, #56]
 195:Core/Src/main.c ****   if (HAL_RCC_OscConfig(&RCC_OscInitStruct) != HAL_OK)
 405              		.loc 1 195 3 is_stmt 1 view .LVU102
 195:Core/Src/main.c ****   if (HAL_RCC_OscConfig(&RCC_OscInitStruct) != HAL_OK)
 406              		.loc 1 195 32 is_stmt 0 view .LVU103
 407 002c 4FF4E013 		mov	r3, #1835008
 408 0030 0F93     		str	r3, [sp, #60]
 196:Core/Src/main.c ****   {
 409              		.loc 1 196 3 is_stmt 1 view .LVU104
 196:Core/Src/main.c ****   {
 410              		.loc 1 196 7 is_stmt 0 view .LVU105
 411 0032 06A8     		add	r0, sp, #24
 412 0034 FFF7FEFF 		bl	HAL_RCC_OscConfig
 413              	.LVL28:
 196:Core/Src/main.c ****   {
 414              		.loc 1 196 6 discriminator 1 view .LVU106
 415 0038 80B9     		cbnz	r0, .L32
 203:Core/Src/main.c ****                               |RCC_CLOCKTYPE_PCLK1|RCC_CLOCKTYPE_PCLK2;
 416              		.loc 1 203 3 is_stmt 1 view .LVU107
 203:Core/Src/main.c ****                               |RCC_CLOCKTYPE_PCLK1|RCC_CLOCKTYPE_PCLK2;
 417              		.loc 1 203 31 is_stmt 0 view .LVU108
 418 003a 0F23     		movs	r3, #15
 419 003c 0193     		str	r3, [sp, #4]
 205:Core/Src/main.c ****   RCC_ClkInitStruct.AHBCLKDivider = RCC_SYSCLK_DIV1;
 420              		.loc 1 205 3 is_stmt 1 view .LVU109
 205:Core/Src/main.c ****   RCC_ClkInitStruct.AHBCLKDivider = RCC_SYSCLK_DIV1;
 421              		.loc 1 205 34 is_stmt 0 view .LVU110
 422 003e 0221     		movs	r1, #2
 423 0040 0291     		str	r1, [sp, #8]
 206:Core/Src/main.c ****   RCC_ClkInitStruct.APB1CLKDivider = RCC_HCLK_DIV2;
 424              		.loc 1 206 3 is_stmt 1 view .LVU111
 206:Core/Src/main.c ****   RCC_ClkInitStruct.APB1CLKDivider = RCC_HCLK_DIV2;
 425              		.loc 1 206 35 is_stmt 0 view .LVU112
 426 0042 0023     		movs	r3, #0
 427 0044 0393     		str	r3, [sp, #12]
 207:Core/Src/main.c ****   RCC_ClkInitStruct.APB2CLKDivider = RCC_HCLK_DIV1;
 428              		.loc 1 207 3 is_stmt 1 view .LVU113
 207:Core/Src/main.c ****   RCC_ClkInitStruct.APB2CLKDivider = RCC_HCLK_DIV1;
 429              		.loc 1 207 36 is_stmt 0 view .LVU114
 430 0046 4FF48062 		mov	r2, #1024
 431 004a 0492     		str	r2, [sp, #16]
 208:Core/Src/main.c **** 
 432              		.loc 1 208 3 is_stmt 1 view .LVU115
 208:Core/Src/main.c **** 
 433              		.loc 1 208 36 is_stmt 0 view .LVU116
 434 004c 0593     		str	r3, [sp, #20]
 210:Core/Src/main.c ****   {
 435              		.loc 1 210 3 is_stmt 1 view .LVU117
 210:Core/Src/main.c ****   {
ARM GAS  C:\Users\Xuleo\AppData\Local\Temp\ccjCXS4s.s 			page 18


 436              		.loc 1 210 7 is_stmt 0 view .LVU118
 437 004e 01A8     		add	r0, sp, #4
 438 0050 FFF7FEFF 		bl	HAL_RCC_ClockConfig
 439              	.LVL29:
 210:Core/Src/main.c ****   {
 440              		.loc 1 210 6 discriminator 1 view .LVU119
 441 0054 20B9     		cbnz	r0, .L33
 214:Core/Src/main.c **** 
 442              		.loc 1 214 1 view .LVU120
 443 0056 11B0     		add	sp, sp, #68
 444              	.LCFI4:
 445              		.cfi_remember_state
 446              		.cfi_def_cfa_offset 4
 447              		@ sp needed
 448 0058 5DF804FB 		ldr	pc, [sp], #4
 449              	.L32:
 450              	.LCFI5:
 451              		.cfi_restore_state
 198:Core/Src/main.c ****   }
 452              		.loc 1 198 5 is_stmt 1 view .LVU121
 453 005c FFF7FEFF 		bl	Error_Handler
 454              	.LVL30:
 455              	.L33:
 212:Core/Src/main.c ****   }
 456              		.loc 1 212 5 view .LVU122
 457 0060 FFF7FEFF 		bl	Error_Handler
 458              	.LVL31:
 459              		.cfi_endproc
 460              	.LFE69:
 462              		.section	.rodata.main.str1.4,"aMS",%progbits,1
 463              		.align	2
 464              	.LC0:
 465 0000 454C4543 		.ascii	"ELEC-391\000"
 465      2D333931 
 465      00
 466 0009 000000   		.align	2
 467              	.LC1:
 468 000c 476F7420 		.ascii	"Got it!\015\012\000"
 468      6974210D 
 468      0A00
 469 0016 0000     		.align	2
 470              	.LC2:
 471 0018 5374696C 		.ascii	"Still Alive!\015\012\000"
 471      6C20416C 
 471      69766521 
 471      0D0A00
 472              		.section	.text.main,"ax",%progbits
 473              		.align	1
 474              		.global	main
 475              		.syntax unified
 476              		.thumb
 477              		.thumb_func
 479              	main:
 480              	.LFB68:
  70:Core/Src/main.c **** 
 481              		.loc 1 70 1 view -0
 482              		.cfi_startproc
ARM GAS  C:\Users\Xuleo\AppData\Local\Temp\ccjCXS4s.s 			page 19


 483              		@ Volatile: function does not return.
 484              		@ args = 0, pretend = 0, frame = 0
 485              		@ frame_needed = 0, uses_anonymous_args = 0
 486 0000 08B5     		push	{r3, lr}
 487              	.LCFI6:
 488              		.cfi_def_cfa_offset 8
 489              		.cfi_offset 3, -8
 490              		.cfi_offset 14, -4
  79:Core/Src/main.c **** 
 491              		.loc 1 79 3 view .LVU124
 492 0002 FFF7FEFF 		bl	HAL_Init
 493              	.LVL32:
  86:Core/Src/main.c **** 
 494              		.loc 1 86 3 view .LVU125
 495 0006 FFF7FEFF 		bl	SystemClock_Config
 496              	.LVL33:
  93:Core/Src/main.c ****   MX_DMA_Init();
 497              		.loc 1 93 3 view .LVU126
 498 000a FFF7FEFF 		bl	MX_GPIO_Init
 499              	.LVL34:
  94:Core/Src/main.c ****   MX_USART1_UART_Init();
 500              		.loc 1 94 3 view .LVU127
 501 000e FFF7FEFF 		bl	MX_DMA_Init
 502              	.LVL35:
  95:Core/Src/main.c ****   MX_I2C1_Init();
 503              		.loc 1 95 3 view .LVU128
 504 0012 FFF7FEFF 		bl	MX_USART1_UART_Init
 505              	.LVL36:
  96:Core/Src/main.c ****   MX_TIM3_Init();
 506              		.loc 1 96 3 view .LVU129
 507 0016 FFF7FEFF 		bl	MX_I2C1_Init
 508              	.LVL37:
  97:Core/Src/main.c ****   MX_TIM2_Init();
 509              		.loc 1 97 3 view .LVU130
 510 001a FFF7FEFF 		bl	MX_TIM3_Init
 511              	.LVL38:
  98:Core/Src/main.c ****   MX_USART2_UART_Init();
 512              		.loc 1 98 3 view .LVU131
 513 001e FFF7FEFF 		bl	MX_TIM2_Init
 514              	.LVL39:
  99:Core/Src/main.c ****   MX_USART3_UART_Init();
 515              		.loc 1 99 3 view .LVU132
 516 0022 FFF7FEFF 		bl	MX_USART2_UART_Init
 517              	.LVL40:
 100:Core/Src/main.c ****   MX_TIM4_Init();
 518              		.loc 1 100 3 view .LVU133
 519 0026 FFF7FEFF 		bl	MX_USART3_UART_Init
 520              	.LVL41:
 101:Core/Src/main.c ****   /* USER CODE BEGIN 2 */
 521              		.loc 1 101 3 view .LVU134
 522 002a FFF7FEFF 		bl	MX_TIM4_Init
 523              	.LVL42:
 104:Core/Src/main.c ****   OLED_WriteString("ELEC-391");
 524              		.loc 1 104 3 view .LVU135
 525 002e FFF7FEFF 		bl	OLED_Init
 526              	.LVL43:
 105:Core/Src/main.c **** #endif
ARM GAS  C:\Users\Xuleo\AppData\Local\Temp\ccjCXS4s.s 			page 20


 527              		.loc 1 105 3 view .LVU136
 528 0032 1B48     		ldr	r0, .L42
 529 0034 FFF7FEFF 		bl	OLED_WriteString
 530              	.LVL44:
 122:Core/Src/main.c ****   //char displayAccBuffer[32];
 531              		.loc 1 122 3 view .LVU137
 532 0038 FFF7FEFF 		bl	init
 533              	.LVL45:
 134:Core/Src/main.c ****   // start PWM: this PWM runs at 2000Hz, Calculation: 72MHz/(71+1)/(499+1) = 2000Hz
 534              		.loc 1 134 3 view .LVU138
 535 003c 1948     		ldr	r0, .L42+4
 536 003e FFF7FEFF 		bl	HC05_ReceiveInfo
 537              	.LVL46:
 136:Core/Src/main.c ****   // set duty cycle
 538              		.loc 1 136 3 view .LVU139
 539 0042 194C     		ldr	r4, .L42+8
 540 0044 0021     		movs	r1, #0
 541 0046 2046     		mov	r0, r4
 542 0048 FFF7FEFF 		bl	HAL_TIM_PWM_Start
 543              	.LVL47:
 138:Core/Src/main.c **** 
 544              		.loc 1 138 3 view .LVU140
 545 004c 2368     		ldr	r3, [r4]
 546 004e FA22     		movs	r2, #250
 547 0050 5A63     		str	r2, [r3, #52]
 141:Core/Src/main.c ****   // OLED_SetCursor(0, 6);
 548              		.loc 1 141 3 view .LVU141
 549 0052 1648     		ldr	r0, .L42+12
 550 0054 FFF7FEFF 		bl	HAL_TIM_Base_Start_IT
 551              	.LVL48:
 552 0058 11E0     		b	.L38
 553              	.L40:
 159:Core/Src/main.c ****       rx_complete = 0;  // clear flag
 554              		.loc 1 159 7 view .LVU142
 555 005a 1248     		ldr	r0, .L42+4
 556 005c FFF7FEFF 		bl	executeCommand
 557              	.LVL49:
 160:Core/Src/main.c ****       // echo back with \r\n for terminal
 558              		.loc 1 160 7 view .LVU143
 160:Core/Src/main.c ****       // echo back with \r\n for terminal
 559              		.loc 1 160 19 is_stmt 0 view .LVU144
 560 0060 134B     		ldr	r3, .L42+16
 561 0062 0022     		movs	r2, #0
 562 0064 1A70     		strb	r2, [r3]
 162:Core/Src/main.c ****     }
 563              		.loc 1 162 7 is_stmt 1 view .LVU145
 564 0066 1348     		ldr	r0, .L42+20
 565 0068 FFF7FEFF 		bl	HC05_SendInfo
 566              	.LVL50:
 567 006c 0BE0     		b	.L35
 568              	.L41:
 168:Core/Src/main.c ****     } else {
 569              		.loc 1 168 7 view .LVU146
 168:Core/Src/main.c ****     } else {
 570              		.loc 1 168 13 is_stmt 0 view .LVU147
 571 006e 0133     		adds	r3, r3, #1
 572 0070 114A     		ldr	r2, .L42+24
ARM GAS  C:\Users\Xuleo\AppData\Local\Temp\ccjCXS4s.s 			page 21


 573 0072 1360     		str	r3, [r2]
 574              	.L37:
 172:Core/Src/main.c ****   }
 575              		.loc 1 172 5 is_stmt 1 view .LVU148
 576 0074 0C4B     		ldr	r3, .L42+8
 577 0076 1B68     		ldr	r3, [r3]
 578 0078 0F4A     		ldr	r2, .L42+24
 579 007a 1268     		ldr	r2, [r2]
 580 007c 5A63     		str	r2, [r3, #52]
 149:Core/Src/main.c ****   {
 581              		.loc 1 149 9 view .LVU149
 582              	.L38:
 149:Core/Src/main.c ****   {
 583              		.loc 1 149 3 view .LVU150
 156:Core/Src/main.c ****       // OLED_SetCursor(0, 5);
 584              		.loc 1 156 5 view .LVU151
 156:Core/Src/main.c ****       // OLED_SetCursor(0, 5);
 585              		.loc 1 156 8 is_stmt 0 view .LVU152
 586 007e 0C4B     		ldr	r3, .L42+16
 587 0080 1B78     		ldrb	r3, [r3]	@ zero_extendqisi2
 156:Core/Src/main.c ****       // OLED_SetCursor(0, 5);
 588              		.loc 1 156 7 view .LVU153
 589 0082 002B     		cmp	r3, #0
 590 0084 E9D1     		bne	.L40
 591              	.L35:
 164:Core/Src/main.c ****   #endif
 592              		.loc 1 164 5 is_stmt 1 view .LVU154
 593 0086 0D48     		ldr	r0, .L42+28
 594 0088 FFF7FEFF 		bl	HC05_SendInfo
 595              	.LVL51:
 167:Core/Src/main.c ****       pwmNum++;
 596              		.loc 1 167 5 view .LVU155
 167:Core/Src/main.c ****       pwmNum++;
 597              		.loc 1 167 16 is_stmt 0 view .LVU156
 598 008c 0A4B     		ldr	r3, .L42+24
 599 008e 1B68     		ldr	r3, [r3]
 167:Core/Src/main.c ****       pwmNum++;
 600              		.loc 1 167 8 view .LVU157
 601 0090 B3F5FA7F 		cmp	r3, #500
 602 0094 EBDB     		blt	.L41
 170:Core/Src/main.c ****     }
 603              		.loc 1 170 7 is_stmt 1 view .LVU158
 170:Core/Src/main.c ****     }
 604              		.loc 1 170 14 is_stmt 0 view .LVU159
 605 0096 084B     		ldr	r3, .L42+24
 606 0098 C822     		movs	r2, #200
 607 009a 1A60     		str	r2, [r3]
 608 009c EAE7     		b	.L37
 609              	.L43:
 610 009e 00BF     		.align	2
 611              	.L42:
 612 00a0 00000000 		.word	.LC0
 613 00a4 00000000 		.word	rx_data
 614 00a8 00000000 		.word	htim3
 615 00ac 00000000 		.word	htim4
 616 00b0 00000000 		.word	rx_complete
 617 00b4 0C000000 		.word	.LC1
ARM GAS  C:\Users\Xuleo\AppData\Local\Temp\ccjCXS4s.s 			page 22


 618 00b8 00000000 		.word	pwmNum
 619 00bc 18000000 		.word	.LC2
 620              		.cfi_endproc
 621              	.LFE68:
 623              		.section	.bss.rx_index.0,"aw",%nobits
 624              		.align	2
 627              	rx_index.0:
 628 0000 00000000 		.space	4
 629              		.global	pwmNum
 630              		.section	.data.pwmNum,"aw"
 631              		.align	2
 634              	pwmNum:
 635 0000 C8000000 		.word	200
 636              		.text
 637              	.Letext0:
 638              		.file 3 "C:\\ST\\STM32CubeCLT_1.19.0\\GNU-tools-for-STM32\\bin/../lib/gcc/arm-none-eabi/13.3.1/../
 639              		.file 4 "C:\\ST\\STM32CubeCLT_1.19.0\\GNU-tools-for-STM32\\bin/../lib/gcc/arm-none-eabi/13.3.1/../
 640              		.file 5 "Drivers/CMSIS/Device/ST/STM32F1xx/Include/stm32f103xb.h"
 641              		.file 6 "Drivers/STM32F1xx_HAL_Driver/Inc/stm32f1xx_hal_def.h"
 642              		.file 7 "Drivers/STM32F1xx_HAL_Driver/Inc/stm32f1xx_hal_rcc.h"
 643              		.file 8 "Drivers/STM32F1xx_HAL_Driver/Inc/stm32f1xx_hal_rcc_ex.h"
 644              		.file 9 "Drivers/STM32F1xx_HAL_Driver/Inc/stm32f1xx_hal_dma.h"
 645              		.file 10 "Drivers/STM32F1xx_HAL_Driver/Inc/stm32f1xx_hal_tim.h"
 646              		.file 11 "Drivers/STM32F1xx_HAL_Driver/Inc/stm32f1xx_hal_uart.h"
 647              		.file 12 "Core/Inc/tim.h"
 648              		.file 13 "Core/Inc/usart.h"
 649              		.file 14 "Application/Inc/utils.h"
 650              		.file 15 "Application/Inc/hc05bt.h"
 651              		.file 16 "Application/Inc/application.h"
 652              		.file 17 "Application/Inc/command.h"
 653              		.file 18 "Application/Inc/oled1315.h"
 654              		.file 19 "Core/Inc/i2c.h"
 655              		.file 20 "Core/Inc/dma.h"
 656              		.file 21 "Core/Inc/gpio.h"
 657              		.file 22 "Drivers/STM32F1xx_HAL_Driver/Inc/stm32f1xx_hal.h"
 658              		.file 23 "<built-in>"
ARM GAS  C:\Users\Xuleo\AppData\Local\Temp\ccjCXS4s.s 			page 23


DEFINED SYMBOLS
                            *ABS*:00000000 main.c
C:\Users\Xuleo\AppData\Local\Temp\ccjCXS4s.s:19     .text.HAL_UART_RxCpltCallback:00000000 $t
C:\Users\Xuleo\AppData\Local\Temp\ccjCXS4s.s:25     .text.HAL_UART_RxCpltCallback:00000000 HAL_UART_RxCpltCallback
C:\Users\Xuleo\AppData\Local\Temp\ccjCXS4s.s:99     .text.HAL_UART_RxCpltCallback:00000040 $d
C:\Users\Xuleo\AppData\Local\Temp\ccjCXS4s.s:627    .bss.rx_index.0:00000000 rx_index.0
C:\Users\Xuleo\AppData\Local\Temp\ccjCXS4s.s:109    .text.HAL_UART_TxCpltCallback:00000000 $t
C:\Users\Xuleo\AppData\Local\Temp\ccjCXS4s.s:115    .text.HAL_UART_TxCpltCallback:00000000 HAL_UART_TxCpltCallback
C:\Users\Xuleo\AppData\Local\Temp\ccjCXS4s.s:131    .text.HAL_UARTEx_RxEventCallback:00000000 $t
C:\Users\Xuleo\AppData\Local\Temp\ccjCXS4s.s:137    .text.HAL_UARTEx_RxEventCallback:00000000 HAL_UARTEx_RxEventCallback
C:\Users\Xuleo\AppData\Local\Temp\ccjCXS4s.s:180    .text.HAL_UARTEx_RxEventCallback:0000001e $d
C:\Users\Xuleo\AppData\Local\Temp\ccjCXS4s.s:304    .text.HAL_UARTEx_RxEventCallback:00000084 $d
C:\Users\Xuleo\AppData\Local\Temp\ccjCXS4s.s:314    .text.Error_Handler:00000000 $t
C:\Users\Xuleo\AppData\Local\Temp\ccjCXS4s.s:320    .text.Error_Handler:00000000 Error_Handler
C:\Users\Xuleo\AppData\Local\Temp\ccjCXS4s.s:352    .text.SystemClock_Config:00000000 $t
C:\Users\Xuleo\AppData\Local\Temp\ccjCXS4s.s:358    .text.SystemClock_Config:00000000 SystemClock_Config
C:\Users\Xuleo\AppData\Local\Temp\ccjCXS4s.s:463    .rodata.main.str1.4:00000000 $d
C:\Users\Xuleo\AppData\Local\Temp\ccjCXS4s.s:473    .text.main:00000000 $t
C:\Users\Xuleo\AppData\Local\Temp\ccjCXS4s.s:479    .text.main:00000000 main
C:\Users\Xuleo\AppData\Local\Temp\ccjCXS4s.s:612    .text.main:000000a0 $d
C:\Users\Xuleo\AppData\Local\Temp\ccjCXS4s.s:634    .data.pwmNum:00000000 pwmNum
C:\Users\Xuleo\AppData\Local\Temp\ccjCXS4s.s:624    .bss.rx_index.0:00000000 $d
C:\Users\Xuleo\AppData\Local\Temp\ccjCXS4s.s:631    .data.pwmNum:00000000 $d
C:\Users\Xuleo\AppData\Local\Temp\ccjCXS4s.s:199    .text.HAL_UARTEx_RxEventCallback:00000031 $d
C:\Users\Xuleo\AppData\Local\Temp\ccjCXS4s.s:199    .text.HAL_UARTEx_RxEventCallback:00000032 $t

UNDEFINED SYMBOLS
HAL_UART_Receive_IT
rx_byte
rx_data
rx_complete
huart1
HAL_UARTEx_ReceiveToIdle_DMA
VOFA_SEND_BUFFER
leftHandMotor
huart2
rightHandMotor
memset
HAL_RCC_OscConfig
HAL_RCC_ClockConfig
HAL_Init
MX_GPIO_Init
MX_DMA_Init
MX_USART1_UART_Init
MX_I2C1_Init
MX_TIM3_Init
MX_TIM2_Init
MX_USART2_UART_Init
MX_USART3_UART_Init
MX_TIM4_Init
OLED_Init
OLED_WriteString
init
HC05_ReceiveInfo
HAL_TIM_PWM_Start
HAL_TIM_Base_Start_IT
executeCommand
ARM GAS  C:\Users\Xuleo\AppData\Local\Temp\ccjCXS4s.s 			page 24


HC05_SendInfo
htim3
htim4
