ARM GAS  C:\Users\Xuleo\AppData\Local\Temp\ccAeK8hd.s 			page 1


   1              		.cpu cortex-m33
   2              		.arch armv8-m.main
   3              		.fpu fpv4-sp-d16
   4              		.arch_extension dsp
   5              		.eabi_attribute 27, 1
   6              		.eabi_attribute 28, 1
   7              		.eabi_attribute 20, 1
   8              		.eabi_attribute 21, 1
   9              		.eabi_attribute 23, 3
  10              		.eabi_attribute 24, 1
  11              		.eabi_attribute 25, 1
  12              		.eabi_attribute 26, 1
  13              		.eabi_attribute 30, 1
  14              		.eabi_attribute 34, 1
  15              		.eabi_attribute 18, 4
  16              		.file	"menu.c"
  17              		.text
  18              	.Ltext0:
  19              		.cfi_sections	.debug_frame
  20              		.file 1 "./Application/Src/menu.c"
  21              		.section	.rodata.clear_menu_area.str1.4,"aMS",%progbits,1
  22              		.align	2
  23              	.LC6:
  24 0000 20202020 		.ascii	"                        \000"
  24      20202020 
  24      20202020 
  24      20202020 
  24      20202020 
  25              		.section	.text.clear_menu_area,"ax",%progbits
  26              		.align	1
  27              		.syntax unified
  28              		.thumb
  29              		.thumb_func
  31              	clear_menu_area:
  32              	.LFB160:
   1:./Application/Src/menu.c **** #include <menu.h>
   2:./Application/Src/menu.c **** #include <sdcard.h>
   3:./Application/Src/menu.c **** #include <file_transfer.h>
   4:./Application/Src/menu.c **** #include <string.h>
   5:./Application/Src/menu.c **** #include <stdio.h>
   6:./Application/Src/menu.c **** 
   7:./Application/Src/menu.c **** /* Menu state */
   8:./Application/Src/menu.c **** static MenuState_t menu_state = MENU_STATE_MAIN;
   9:./Application/Src/menu.c **** 
  10:./Application/Src/menu.c **** /* Navigation flags */
  11:./Application/Src/menu.c **** int menu_index = 0;
  12:./Application/Src/menu.c **** int menu_move_down = 0;
  13:./Application/Src/menu.c **** int menu_move_up = 0;
  14:./Application/Src/menu.c **** int menu_enter = 0;
  15:./Application/Src/menu.c **** int menu_back = 0;
  16:./Application/Src/menu.c **** 
  17:./Application/Src/menu.c **** /* Select-song page state */
  18:./Application/Src/menu.c **** int select_song_index = 0;
  19:./Application/Src/menu.c **** int select_scroll_offset = 0;
  20:./Application/Src/menu.c **** int active_song_index = -1;
  21:./Application/Src/menu.c **** 
  22:./Application/Src/menu.c **** /* Track if page needs full redraw */
ARM GAS  C:\Users\Xuleo\AppData\Local\Temp\ccAeK8hd.s 			page 2


  23:./Application/Src/menu.c **** static int page_dirty = 1;
  24:./Application/Src/menu.c **** 
  25:./Application/Src/menu.c **** /* ------------------------------------------------------------------ */
  26:./Application/Src/menu.c **** /*  Helpers                                                           */
  27:./Application/Src/menu.c **** /* ------------------------------------------------------------------ */
  28:./Application/Src/menu.c **** 
  29:./Application/Src/menu.c **** static void clear_menu_area(void)
  30:./Application/Src/menu.c **** {
  33              		.loc 1 30 1 view -0
  34              		.cfi_startproc
  35              		@ args = 0, pretend = 0, frame = 0
  36              		@ frame_needed = 0, uses_anonymous_args = 0
  37 0000 10B5     		push	{r4, lr}
  38              	.LCFI0:
  39              		.cfi_def_cfa_offset 8
  40              		.cfi_offset 4, -8
  41              		.cfi_offset 14, -4
  42 0002 82B0     		sub	sp, sp, #8
  43              	.LCFI1:
  44              		.cfi_def_cfa_offset 16
  31:./Application/Src/menu.c ****     /* Clear rows 1-9 (leave row 0 = title, rows 10+ = debug info) */
  32:./Application/Src/menu.c ****     for (int r = 1; r <= 9; r++)
  45              		.loc 1 32 5 view .LVU1
  46              	.LBB2:
  47              		.loc 1 32 10 view .LVU2
  48              	.LVL0:
  49              		.loc 1 32 14 is_stmt 0 view .LVU3
  50 0004 0124     		movs	r4, #1
  51              		.loc 1 32 5 view .LVU4
  52 0006 0AE0     		b	.L2
  53              	.LVL1:
  54              	.L3:
  33:./Application/Src/menu.c ****     {
  34:./Application/Src/menu.c ****         LCD_draw_string(&lcd_config, 0, r, "                        ", COLOR_BLACK, COLOR_WHITE);
  55              		.loc 1 34 9 is_stmt 1 view .LVU5
  56 0008 4FF6FF73 		movw	r3, #65535
  57 000c 0193     		str	r3, [sp, #4]
  58 000e 0021     		movs	r1, #0
  59 0010 0091     		str	r1, [sp]
  60 0012 054B     		ldr	r3, .L5
  61 0014 A2B2     		uxth	r2, r4
  62 0016 0548     		ldr	r0, .L5+4
  63 0018 FFF7FEFF 		bl	LCD_draw_string
  64              	.LVL2:
  32:./Application/Src/menu.c ****     {
  65              		.loc 1 32 30 discriminator 3 view .LVU6
  66 001c 0134     		adds	r4, r4, #1
  67              	.LVL3:
  68              	.L2:
  32:./Application/Src/menu.c ****     {
  69              		.loc 1 32 23 discriminator 1 view .LVU7
  70 001e 092C     		cmp	r4, #9
  71 0020 F2DD     		ble	.L3
  72              	.LBE2:
  35:./Application/Src/menu.c ****     }
  36:./Application/Src/menu.c **** }
  73              		.loc 1 36 1 is_stmt 0 view .LVU8
ARM GAS  C:\Users\Xuleo\AppData\Local\Temp\ccAeK8hd.s 			page 3


  74 0022 02B0     		add	sp, sp, #8
  75              	.LCFI2:
  76              		.cfi_def_cfa_offset 8
  77              		@ sp needed
  78 0024 10BD     		pop	{r4, pc}
  79              	.LVL4:
  80              	.L6:
  81              		.loc 1 36 1 view .LVU9
  82 0026 00BF     		.align	2
  83              	.L5:
  84 0028 00000000 		.word	.LC6
  85 002c 00000000 		.word	lcd_config
  86              		.cfi_endproc
  87              	.LFE160:
  89              		.section	.rodata.menu_draw_main.str1.4,"aMS",%progbits,1
  90              		.align	2
  91              	.LC7:
  92 0000 3E00     		.ascii	">\000"
  93 0002 0000     		.align	2
  94              	.LC8:
  95 0004 2000     		.ascii	" \000"
  96 0006 0000     		.align	2
  97              	.LC10:
  98 0008 25732025 		.ascii	"%s %s\000"
  98      7300
  99              		.section	.text.menu_draw_main,"ax",%progbits
 100              		.align	1
 101              		.global	menu_draw_main
 102              		.syntax unified
 103              		.thumb
 104              		.thumb_func
 106              	menu_draw_main:
 107              	.LFB161:
  37:./Application/Src/menu.c **** 
  38:./Application/Src/menu.c **** /* ------------------------------------------------------------------ */
  39:./Application/Src/menu.c **** /*  Main menu page                                                    */
  40:./Application/Src/menu.c **** /* ------------------------------------------------------------------ */
  41:./Application/Src/menu.c **** 
  42:./Application/Src/menu.c **** void menu_draw_main(void)
  43:./Application/Src/menu.c **** {
 108              		.loc 1 43 1 is_stmt 1 view -0
 109              		.cfi_startproc
 110              		@ args = 0, pretend = 0, frame = 48
 111              		@ frame_needed = 0, uses_anonymous_args = 0
 112 0000 30B5     		push	{r4, r5, lr}
 113              	.LCFI3:
 114              		.cfi_def_cfa_offset 12
 115              		.cfi_offset 4, -12
 116              		.cfi_offset 5, -8
 117              		.cfi_offset 14, -4
 118 0002 8FB0     		sub	sp, sp, #60
 119              	.LCFI4:
 120              		.cfi_def_cfa_offset 72
  44:./Application/Src/menu.c ****     const char *items[] = {
 121              		.loc 1 44 5 view .LVU11
 122              		.loc 1 44 17 is_stmt 0 view .LVU12
 123 0004 09AC     		add	r4, sp, #36
ARM GAS  C:\Users\Xuleo\AppData\Local\Temp\ccAeK8hd.s 			page 4


 124 0006 1C4D     		ldr	r5, .L17
 125 0008 0FCD     		ldmia	r5!, {r0, r1, r2, r3}
 126 000a 0FC4     		stmia	r4!, {r0, r1, r2, r3}
 127 000c 2B68     		ldr	r3, [r5]
 128 000e 2360     		str	r3, [r4]
  45:./Application/Src/menu.c ****         "1. Play Song",
  46:./Application/Src/menu.c ****         "2. Transmit Song(SD)",
  47:./Application/Src/menu.c ****         "3. Transmit Song(RAM)",
  48:./Application/Src/menu.c ****         "4. Select Song",
  49:./Application/Src/menu.c ****         "5. Homing"};
  50:./Application/Src/menu.c ****     char line[25];
 129              		.loc 1 50 5 is_stmt 1 view .LVU13
  51:./Application/Src/menu.c ****     for (int i = 0; i < 5; i++)
 130              		.loc 1 51 5 view .LVU14
 131              	.LBB3:
 132              		.loc 1 51 10 view .LVU15
 133              	.LVL5:
 134              		.loc 1 51 14 is_stmt 0 view .LVU16
 135 0010 0024     		movs	r4, #0
 136              		.loc 1 51 5 view .LVU17
 137 0012 18E0     		b	.L8
 138              	.LVL6:
 139              	.L16:
 140              	.LBB4:
  52:./Application/Src/menu.c ****     {
  53:./Application/Src/menu.c ****         snprintf(line, sizeof(line), "%s %s", (i == menu_index) ? ">" : " ", items[i]);
 141              		.loc 1 53 9 discriminator 1 view .LVU18
 142 0014 194B     		ldr	r3, .L17+4
 143 0016 1DE0     		b	.L9
 144              	.LVL7:
 145              	.L11:
  54:./Application/Src/menu.c ****         /* Pad to clear old text */
  55:./Application/Src/menu.c ****         int len = strlen(line);
  56:./Application/Src/menu.c ****         while (len < 23)
  57:./Application/Src/menu.c ****             line[len++] = ' ';
 146              		.loc 1 57 13 is_stmt 1 view .LVU19
 147              		.loc 1 57 25 is_stmt 0 view .LVU20
 148 0018 00F13803 		add	r3, r0, #56
 149 001c 6B44     		add	r3, sp, r3
 150 001e 2022     		movs	r2, #32
 151 0020 03F8302C 		strb	r2, [r3, #-48]
 152              		.loc 1 57 21 view .LVU21
 153 0024 0130     		adds	r0, r0, #1
 154              	.LVL8:
 155              	.L10:
  56:./Application/Src/menu.c ****             line[len++] = ' ';
 156              		.loc 1 56 20 is_stmt 1 view .LVU22
 157 0026 1628     		cmp	r0, #22
 158 0028 F6DD     		ble	.L11
  58:./Application/Src/menu.c ****         line[23] = '\0';
 159              		.loc 1 58 9 view .LVU23
 160              		.loc 1 58 18 is_stmt 0 view .LVU24
 161 002a 0021     		movs	r1, #0
 162 002c 8DF81F10 		strb	r1, [sp, #31]
  59:./Application/Src/menu.c ****         LCD_draw_string(&lcd_config, 0, 1 + i, line, COLOR_BLACK, COLOR_WHITE);
 163              		.loc 1 59 9 is_stmt 1 view .LVU25
 164 0030 621C     		adds	r2, r4, #1
ARM GAS  C:\Users\Xuleo\AppData\Local\Temp\ccAeK8hd.s 			page 5


 165 0032 4FF6FF73 		movw	r3, #65535
 166 0036 0193     		str	r3, [sp, #4]
 167 0038 0091     		str	r1, [sp]
 168 003a 02AB     		add	r3, sp, #8
 169 003c 92B2     		uxth	r2, r2
 170 003e 1048     		ldr	r0, .L17+8
 171              	.LVL9:
 172              		.loc 1 59 9 is_stmt 0 view .LVU26
 173 0040 FFF7FEFF 		bl	LCD_draw_string
 174              	.LVL10:
 175              	.LBE4:
  51:./Application/Src/menu.c ****     {
 176              		.loc 1 51 29 is_stmt 1 discriminator 2 view .LVU27
 177 0044 0134     		adds	r4, r4, #1
 178              	.LVL11:
 179              	.L8:
  51:./Application/Src/menu.c ****     {
 180              		.loc 1 51 23 discriminator 1 view .LVU28
 181 0046 042C     		cmp	r4, #4
 182 0048 14DC     		bgt	.L15
 183              	.LBB5:
  53:./Application/Src/menu.c ****         /* Pad to clear old text */
 184              		.loc 1 53 9 view .LVU29
  53:./Application/Src/menu.c ****         /* Pad to clear old text */
 185              		.loc 1 53 50 is_stmt 0 view .LVU30
 186 004a 0E4B     		ldr	r3, .L17+12
 187 004c 1B68     		ldr	r3, [r3]
  53:./Application/Src/menu.c ****         /* Pad to clear old text */
 188              		.loc 1 53 9 view .LVU31
 189 004e A342     		cmp	r3, r4
 190 0050 E0D0     		beq	.L16
  53:./Application/Src/menu.c ****         /* Pad to clear old text */
 191              		.loc 1 53 9 discriminator 2 view .LVU32
 192 0052 0D4B     		ldr	r3, .L17+16
 193              	.L9:
  53:./Application/Src/menu.c ****         /* Pad to clear old text */
 194              		.loc 1 53 9 discriminator 4 view .LVU33
 195 0054 02AD     		add	r5, sp, #8
 196 0056 0EAA     		add	r2, sp, #56
 197 0058 02EB8402 		add	r2, r2, r4, lsl #2
 198 005c 52F8142C 		ldr	r2, [r2, #-20]
 199 0060 0092     		str	r2, [sp]
 200 0062 0A4A     		ldr	r2, .L17+20
 201 0064 1921     		movs	r1, #25
 202 0066 2846     		mov	r0, r5
 203 0068 FFF7FEFF 		bl	snprintf
 204              	.LVL12:
  55:./Application/Src/menu.c ****         while (len < 23)
 205              		.loc 1 55 9 is_stmt 1 view .LVU34
  55:./Application/Src/menu.c ****         while (len < 23)
 206              		.loc 1 55 19 is_stmt 0 view .LVU35
 207 006c 2846     		mov	r0, r5
 208 006e FFF7FEFF 		bl	strlen
 209              	.LVL13:
  56:./Application/Src/menu.c ****             line[len++] = ' ';
 210              		.loc 1 56 9 is_stmt 1 view .LVU36
  56:./Application/Src/menu.c ****             line[len++] = ' ';
ARM GAS  C:\Users\Xuleo\AppData\Local\Temp\ccAeK8hd.s 			page 6


 211              		.loc 1 56 15 is_stmt 0 view .LVU37
 212 0072 D8E7     		b	.L10
 213              	.LVL14:
 214              	.L15:
  56:./Application/Src/menu.c ****             line[len++] = ' ';
 215              		.loc 1 56 15 view .LVU38
 216              	.LBE5:
 217              	.LBE3:
  60:./Application/Src/menu.c ****     }
  61:./Application/Src/menu.c **** }
 218              		.loc 1 61 1 view .LVU39
 219 0074 0FB0     		add	sp, sp, #60
 220              	.LCFI5:
 221              		.cfi_def_cfa_offset 12
 222              		@ sp needed
 223 0076 30BD     		pop	{r4, r5, pc}
 224              	.LVL15:
 225              	.L18:
 226              		.loc 1 61 1 view .LVU40
 227              		.align	2
 228              	.L17:
 229 0078 00000000 		.word	.LANCHOR0
 230 007c 00000000 		.word	.LC7
 231 0080 00000000 		.word	lcd_config
 232 0084 00000000 		.word	menu_index
 233 0088 04000000 		.word	.LC8
 234 008c 08000000 		.word	.LC10
 235              		.cfi_endproc
 236              	.LFE161:
 238              		.section	.rodata.menu_draw_transmit.str1.4,"aMS",%progbits,1
 239              		.align	2
 240              	.LC11:
 241 0000 5B547261 		.ascii	"[Transmit Song]         \000"
 241      6E736D69 
 241      7420536F 
 241      6E675D20 
 241      20202020 
 242 0019 000000   		.align	2
 243              	.LC12:
 244 001c 57616974 		.ascii	"Waiting for file...     \000"
 244      696E6720 
 244      666F7220 
 244      66696C65 
 244      2E2E2E20 
 245 0035 000000   		.align	2
 246              	.LC13:
 247 0038 53656E64 		.ascii	"Send :a to go back      \000"
 247      203A6120 
 247      746F2067 
 247      6F206261 
 247      636B2020 
 248 0051 000000   		.align	2
 249              	.LC14:
 250 0054 53746174 		.ascii	"Status: IDLE            \000"
 250      75733A20 
 250      49444C45 
 250      20202020 
ARM GAS  C:\Users\Xuleo\AppData\Local\Temp\ccAeK8hd.s 			page 7


 250      20202020 
 251 006d 000000   		.align	2
 252              	.LC15:
 253 0070 53746174 		.ascii	"Status: RX  %3d%%        \000"
 253      75733A20 
 253      52582020 
 253      25336425 
 253      25202020 
 254 008a 0000     		.align	2
 255              	.LC16:
 256 008c 53746174 		.ascii	"Status: COMPLETE!       \000"
 256      75733A20 
 256      434F4D50 
 256      4C455445 
 256      21202020 
 257 00a5 000000   		.align	2
 258              	.LC17:
 259 00a8 46696C65 		.ascii	"File saved to SD card.  \000"
 259      20736176 
 259      65642074 
 259      6F205344 
 259      20636172 
 260 00c1 000000   		.align	2
 261              	.LC18:
 262 00c4 53746174 		.ascii	"Status: ERROR           \000"
 262      75733A20 
 262      4552524F 
 262      52202020 
 262      20202020 
 263 00dd 000000   		.align	2
 264              	.LC19:
 265 00e0 5472616E 		.ascii	"Transfer failed.        \000"
 265      73666572 
 265      20666169 
 265      6C65642E 
 265      20202020 
 266              		.section	.text.menu_draw_transmit,"ax",%progbits
 267              		.align	1
 268              		.global	menu_draw_transmit
 269              		.syntax unified
 270              		.thumb
 271              		.thumb_func
 273              	menu_draw_transmit:
 274              	.LFB162:
  62:./Application/Src/menu.c **** 
  63:./Application/Src/menu.c **** /* ------------------------------------------------------------------ */
  64:./Application/Src/menu.c **** /*  Transmit Song (SD) page                                           */
  65:./Application/Src/menu.c **** /* ------------------------------------------------------------------ */
  66:./Application/Src/menu.c **** 
  67:./Application/Src/menu.c **** void menu_draw_transmit(void)
  68:./Application/Src/menu.c **** {
 275              		.loc 1 68 1 is_stmt 1 view -0
 276              		.cfi_startproc
 277              		@ args = 0, pretend = 0, frame = 56
 278              		@ frame_needed = 0, uses_anonymous_args = 0
 279 0000 30B5     		push	{r4, r5, lr}
 280              	.LCFI6:
ARM GAS  C:\Users\Xuleo\AppData\Local\Temp\ccAeK8hd.s 			page 8


 281              		.cfi_def_cfa_offset 12
 282              		.cfi_offset 4, -12
 283              		.cfi_offset 5, -8
 284              		.cfi_offset 14, -4
 285 0002 91B0     		sub	sp, sp, #68
 286              	.LCFI7:
 287              		.cfi_def_cfa_offset 80
  69:./Application/Src/menu.c ****     if (page_dirty)
 288              		.loc 1 69 5 view .LVU42
 289              		.loc 1 69 9 is_stmt 0 view .LVU43
 290 0004 504B     		ldr	r3, .L34
 291 0006 1B68     		ldr	r3, [r3]
 292              		.loc 1 69 8 view .LVU44
 293 0008 2BBB     		cbnz	r3, .L32
 294              	.L20:
  70:./Application/Src/menu.c ****     {
  71:./Application/Src/menu.c ****         clear_menu_area();
  72:./Application/Src/menu.c ****         LCD_draw_string(&lcd_config, 0, 1, "[Transmit Song]         ", COLOR_BLACK, COLOR_WHITE);
  73:./Application/Src/menu.c ****         LCD_draw_string(&lcd_config, 0, 2, "Waiting for file...     ", COLOR_BLACK, COLOR_WHITE);
  74:./Application/Src/menu.c ****         LCD_draw_string(&lcd_config, 0, 8, "Send :a to go back      ", COLOR_BLACK, COLOR_WHITE);
  75:./Application/Src/menu.c ****         page_dirty = 0;
  76:./Application/Src/menu.c ****     }
  77:./Application/Src/menu.c **** 
  78:./Application/Src/menu.c ****     /* Show live transfer status */
  79:./Application/Src/menu.c ****     FT_State_t ft = FT_GetState();
 295              		.loc 1 79 5 is_stmt 1 view .LVU45
 296              		.loc 1 79 21 is_stmt 0 view .LVU46
 297 000a FFF7FEFF 		bl	FT_GetState
 298              	.LVL16:
  80:./Application/Src/menu.c ****     char buf[25];
 299              		.loc 1 80 5 is_stmt 1 view .LVU47
  81:./Application/Src/menu.c **** 
  82:./Application/Src/menu.c ****     switch (ft)
 300              		.loc 1 82 5 view .LVU48
 301 000e 0228     		cmp	r0, #2
 302 0010 00F08680 		beq	.L21
 303 0014 3FD8     		bhi	.L22
 304 0016 0028     		cmp	r0, #0
 305 0018 53D0     		beq	.L23
 306 001a 0128     		cmp	r0, #1
 307 001c 64D1     		bne	.L19
 308              	.LBB6:
  83:./Application/Src/menu.c ****     {
  84:./Application/Src/menu.c ****     case FT_STATE_IDLE:
  85:./Application/Src/menu.c ****         LCD_draw_string(&lcd_config, 0, 3, "Status: IDLE            ", COLOR_BLACK, COLOR_WHITE);
  86:./Application/Src/menu.c ****         LCD_draw_string(&lcd_config, 0, 4, "                        ", COLOR_BLACK, COLOR_WHITE);
  87:./Application/Src/menu.c ****         break;
  88:./Application/Src/menu.c ****     case FT_STATE_RECEIVING:
  89:./Application/Src/menu.c ****     {
  90:./Application/Src/menu.c ****         uint8_t pct = FT_GetProgress();
 309              		.loc 1 90 9 view .LVU49
 310              		.loc 1 90 23 is_stmt 0 view .LVU50
 311 001e FFF7FEFF 		bl	FT_GetProgress
 312              	.LVL17:
 313              		.loc 1 90 23 view .LVU51
 314 0022 0546     		mov	r5, r0
 315              	.LVL18:
ARM GAS  C:\Users\Xuleo\AppData\Local\Temp\ccAeK8hd.s 			page 9


  91:./Application/Src/menu.c ****         snprintf(buf, sizeof(buf), "Status: RX  %3d%%        ", pct);
 316              		.loc 1 91 9 is_stmt 1 view .LVU52
 317 0024 09AC     		add	r4, sp, #36
 318 0026 0346     		mov	r3, r0
 319 0028 484A     		ldr	r2, .L34+4
 320 002a 1921     		movs	r1, #25
 321 002c 2046     		mov	r0, r4
 322              	.LVL19:
 323              		.loc 1 91 9 is_stmt 0 view .LVU53
 324 002e FFF7FEFF 		bl	snprintf
 325              	.LVL20:
  92:./Application/Src/menu.c ****         LCD_draw_string(&lcd_config, 0, 3, buf, COLOR_BLACK, COLOR_WHITE);
 326              		.loc 1 92 9 is_stmt 1 view .LVU54
 327 0032 4FF6FF73 		movw	r3, #65535
 328 0036 0193     		str	r3, [sp, #4]
 329 0038 0022     		movs	r2, #0
 330 003a 0092     		str	r2, [sp]
 331 003c 2346     		mov	r3, r4
 332 003e 0322     		movs	r2, #3
 333 0040 0021     		movs	r1, #0
 334 0042 4348     		ldr	r0, .L34+8
 335 0044 FFF7FEFF 		bl	LCD_draw_string
 336              	.LVL21:
  93:./Application/Src/menu.c **** 
  94:./Application/Src/menu.c ****         /* Simple progress bar */
  95:./Application/Src/menu.c ****         char bar[21];
 337              		.loc 1 95 9 view .LVU55
  96:./Application/Src/menu.c ****         int filled = pct / 5; /* 0-20 */
 338              		.loc 1 96 9 view .LVU56
 339              		.loc 1 96 26 is_stmt 0 view .LVU57
 340 0048 424B     		ldr	r3, .L34+12
 341 004a A3FB0530 		umull	r3, r0, r3, r5
 342 004e C0F38700 		ubfx	r0, r0, #2, #8
 343              	.LVL22:
  97:./Application/Src/menu.c ****         for (int i = 0; i < 20; i++)
 344              		.loc 1 97 9 is_stmt 1 view .LVU58
 345              	.LBB7:
 346              		.loc 1 97 14 view .LVU59
 347              		.loc 1 97 18 is_stmt 0 view .LVU60
 348 0052 0021     		movs	r1, #0
 349              		.loc 1 97 9 view .LVU61
 350 0054 51E0     		b	.L27
 351              	.LVL23:
 352              	.L32:
 353              		.loc 1 97 9 view .LVU62
 354              	.LBE7:
 355              	.LBE6:
  71:./Application/Src/menu.c ****         LCD_draw_string(&lcd_config, 0, 1, "[Transmit Song]         ", COLOR_BLACK, COLOR_WHITE);
 356              		.loc 1 71 9 is_stmt 1 view .LVU63
 357 0056 FFF7FEFF 		bl	clear_menu_area
 358              	.LVL24:
  72:./Application/Src/menu.c ****         LCD_draw_string(&lcd_config, 0, 2, "Waiting for file...     ", COLOR_BLACK, COLOR_WHITE);
 359              		.loc 1 72 9 view .LVU64
 360 005a 4FF6FF75 		movw	r5, #65535
 361 005e 0195     		str	r5, [sp, #4]
 362 0060 0024     		movs	r4, #0
 363 0062 0094     		str	r4, [sp]
ARM GAS  C:\Users\Xuleo\AppData\Local\Temp\ccAeK8hd.s 			page 10


 364 0064 3C4B     		ldr	r3, .L34+16
 365 0066 0122     		movs	r2, #1
 366 0068 2146     		mov	r1, r4
 367 006a 3948     		ldr	r0, .L34+8
 368 006c FFF7FEFF 		bl	LCD_draw_string
 369              	.LVL25:
  73:./Application/Src/menu.c ****         LCD_draw_string(&lcd_config, 0, 8, "Send :a to go back      ", COLOR_BLACK, COLOR_WHITE);
 370              		.loc 1 73 9 view .LVU65
 371 0070 0195     		str	r5, [sp, #4]
 372 0072 0094     		str	r4, [sp]
 373 0074 394B     		ldr	r3, .L34+20
 374 0076 0222     		movs	r2, #2
 375 0078 2146     		mov	r1, r4
 376 007a 3548     		ldr	r0, .L34+8
 377 007c FFF7FEFF 		bl	LCD_draw_string
 378              	.LVL26:
  74:./Application/Src/menu.c ****         page_dirty = 0;
 379              		.loc 1 74 9 view .LVU66
 380 0080 0195     		str	r5, [sp, #4]
 381 0082 0094     		str	r4, [sp]
 382 0084 364B     		ldr	r3, .L34+24
 383 0086 0822     		movs	r2, #8
 384 0088 2146     		mov	r1, r4
 385 008a 3148     		ldr	r0, .L34+8
 386 008c FFF7FEFF 		bl	LCD_draw_string
 387              	.LVL27:
  75:./Application/Src/menu.c ****     }
 388              		.loc 1 75 9 view .LVU67
  75:./Application/Src/menu.c ****     }
 389              		.loc 1 75 20 is_stmt 0 view .LVU68
 390 0090 2D4B     		ldr	r3, .L34
 391 0092 1C60     		str	r4, [r3]
 392 0094 B9E7     		b	.L20
 393              	.LVL28:
 394              	.L22:
  82:./Application/Src/menu.c ****     {
 395              		.loc 1 82 5 view .LVU69
 396 0096 0328     		cmp	r0, #3
 397 0098 26D1     		bne	.L19
  98:./Application/Src/menu.c ****             bar[i] = (i < filled) ? '#' : '-';
  99:./Application/Src/menu.c ****         bar[20] = '\0';
 100:./Application/Src/menu.c ****         LCD_draw_string(&lcd_config, 0, 4, bar, COLOR_BLACK, COLOR_WHITE);
 101:./Application/Src/menu.c ****         break;
 102:./Application/Src/menu.c ****     }
 103:./Application/Src/menu.c ****     case FT_STATE_COMPLETE:
 104:./Application/Src/menu.c ****         LCD_draw_string(&lcd_config, 0, 3, "Status: COMPLETE!       ", COLOR_BLACK, COLOR_WHITE);
 105:./Application/Src/menu.c ****         LCD_draw_string(&lcd_config, 0, 4, "File saved to SD card.  ", COLOR_BLACK, COLOR_WHITE);
 106:./Application/Src/menu.c ****         break;
 107:./Application/Src/menu.c ****     case FT_STATE_ERROR:
 108:./Application/Src/menu.c ****         LCD_draw_string(&lcd_config, 0, 3, "Status: ERROR           ", COLOR_BLACK, COLOR_WHITE);
 398              		.loc 1 108 9 is_stmt 1 view .LVU70
 399 009a 4FF6FF75 		movw	r5, #65535
 400 009e 0195     		str	r5, [sp, #4]
 401 00a0 0024     		movs	r4, #0
 402 00a2 0094     		str	r4, [sp]
 403 00a4 2F4B     		ldr	r3, .L34+28
 404 00a6 0322     		movs	r2, #3
ARM GAS  C:\Users\Xuleo\AppData\Local\Temp\ccAeK8hd.s 			page 11


 405 00a8 2146     		mov	r1, r4
 406 00aa 2948     		ldr	r0, .L34+8
 407              	.LVL29:
 408              		.loc 1 108 9 is_stmt 0 view .LVU71
 409 00ac FFF7FEFF 		bl	LCD_draw_string
 410              	.LVL30:
 109:./Application/Src/menu.c ****         LCD_draw_string(&lcd_config, 0, 4, "Transfer failed.        ", COLOR_BLACK, COLOR_WHITE);
 411              		.loc 1 109 9 is_stmt 1 view .LVU72
 412 00b0 0195     		str	r5, [sp, #4]
 413 00b2 0094     		str	r4, [sp]
 414 00b4 2C4B     		ldr	r3, .L34+32
 415 00b6 0422     		movs	r2, #4
 416 00b8 2146     		mov	r1, r4
 417 00ba 2548     		ldr	r0, .L34+8
 418 00bc FFF7FEFF 		bl	LCD_draw_string
 419              	.LVL31:
 110:./Application/Src/menu.c ****         break;
 420              		.loc 1 110 9 view .LVU73
 111:./Application/Src/menu.c ****     }
 112:./Application/Src/menu.c **** }
 421              		.loc 1 112 1 is_stmt 0 view .LVU74
 422 00c0 12E0     		b	.L19
 423              	.LVL32:
 424              	.L23:
  85:./Application/Src/menu.c ****         LCD_draw_string(&lcd_config, 0, 4, "                        ", COLOR_BLACK, COLOR_WHITE);
 425              		.loc 1 85 9 is_stmt 1 view .LVU75
 426 00c2 4FF6FF75 		movw	r5, #65535
 427 00c6 0195     		str	r5, [sp, #4]
 428 00c8 0446     		mov	r4, r0
 429 00ca 0090     		str	r0, [sp]
 430 00cc 274B     		ldr	r3, .L34+36
 431 00ce 0322     		movs	r2, #3
 432 00d0 0146     		mov	r1, r0
 433 00d2 1F48     		ldr	r0, .L34+8
 434              	.LVL33:
  85:./Application/Src/menu.c ****         LCD_draw_string(&lcd_config, 0, 4, "                        ", COLOR_BLACK, COLOR_WHITE);
 435              		.loc 1 85 9 is_stmt 0 view .LVU76
 436 00d4 FFF7FEFF 		bl	LCD_draw_string
 437              	.LVL34:
  86:./Application/Src/menu.c ****         break;
 438              		.loc 1 86 9 is_stmt 1 view .LVU77
 439 00d8 0195     		str	r5, [sp, #4]
 440 00da 0094     		str	r4, [sp]
 441 00dc 244B     		ldr	r3, .L34+40
 442 00de 0422     		movs	r2, #4
 443 00e0 2146     		mov	r1, r4
 444 00e2 1B48     		ldr	r0, .L34+8
 445 00e4 FFF7FEFF 		bl	LCD_draw_string
 446              	.LVL35:
  87:./Application/Src/menu.c ****     case FT_STATE_RECEIVING:
 447              		.loc 1 87 9 view .LVU78
 448              	.L19:
 449              		.loc 1 112 1 is_stmt 0 view .LVU79
 450 00e8 11B0     		add	sp, sp, #68
 451              	.LCFI8:
 452              		.cfi_remember_state
 453              		.cfi_def_cfa_offset 12
ARM GAS  C:\Users\Xuleo\AppData\Local\Temp\ccAeK8hd.s 			page 12


 454              		@ sp needed
 455 00ea 30BD     		pop	{r4, r5, pc}
 456              	.LVL36:
 457              	.L30:
 458              	.LCFI9:
 459              		.cfi_restore_state
 460              	.LBB9:
 461              	.LBB8:
  98:./Application/Src/menu.c ****         bar[20] = '\0';
 462              		.loc 1 98 20 discriminator 2 view .LVU80
 463 00ec 2D22     		movs	r2, #45
 464              	.L28:
  98:./Application/Src/menu.c ****         bar[20] = '\0';
 465              		.loc 1 98 20 discriminator 4 view .LVU81
 466 00ee 01F14003 		add	r3, r1, #64
 467 00f2 6B44     		add	r3, sp, r3
 468 00f4 03F8342C 		strb	r2, [r3, #-52]
  97:./Application/Src/menu.c ****             bar[i] = (i < filled) ? '#' : '-';
 469              		.loc 1 97 34 is_stmt 1 discriminator 2 view .LVU82
 470 00f8 0131     		adds	r1, r1, #1
 471              	.LVL37:
 472              	.L27:
  97:./Application/Src/menu.c ****             bar[i] = (i < filled) ? '#' : '-';
 473              		.loc 1 97 27 discriminator 1 view .LVU83
 474 00fa 1329     		cmp	r1, #19
 475 00fc 03DC     		bgt	.L33
  98:./Application/Src/menu.c ****         bar[20] = '\0';
 476              		.loc 1 98 13 view .LVU84
  98:./Application/Src/menu.c ****         bar[20] = '\0';
 477              		.loc 1 98 20 is_stmt 0 view .LVU85
 478 00fe 8142     		cmp	r1, r0
 479 0100 F4DA     		bge	.L30
  98:./Application/Src/menu.c ****         bar[20] = '\0';
 480              		.loc 1 98 20 discriminator 1 view .LVU86
 481 0102 2322     		movs	r2, #35
 482 0104 F3E7     		b	.L28
 483              	.L33:
  98:./Application/Src/menu.c ****         bar[20] = '\0';
 484              		.loc 1 98 20 discriminator 1 view .LVU87
 485              	.LBE8:
  99:./Application/Src/menu.c ****         LCD_draw_string(&lcd_config, 0, 4, bar, COLOR_BLACK, COLOR_WHITE);
 486              		.loc 1 99 9 is_stmt 1 view .LVU88
  99:./Application/Src/menu.c ****         LCD_draw_string(&lcd_config, 0, 4, bar, COLOR_BLACK, COLOR_WHITE);
 487              		.loc 1 99 17 is_stmt 0 view .LVU89
 488 0106 0021     		movs	r1, #0
 489              	.LVL38:
  99:./Application/Src/menu.c ****         LCD_draw_string(&lcd_config, 0, 4, bar, COLOR_BLACK, COLOR_WHITE);
 490              		.loc 1 99 17 view .LVU90
 491 0108 8DF82010 		strb	r1, [sp, #32]
 100:./Application/Src/menu.c ****         break;
 492              		.loc 1 100 9 is_stmt 1 view .LVU91
 493 010c 4FF6FF73 		movw	r3, #65535
 494 0110 0193     		str	r3, [sp, #4]
 495 0112 0091     		str	r1, [sp]
 496 0114 03AB     		add	r3, sp, #12
 497 0116 0422     		movs	r2, #4
 498 0118 0D48     		ldr	r0, .L34+8
ARM GAS  C:\Users\Xuleo\AppData\Local\Temp\ccAeK8hd.s 			page 13


 499              	.LVL39:
 100:./Application/Src/menu.c ****         break;
 500              		.loc 1 100 9 is_stmt 0 view .LVU92
 501 011a FFF7FEFF 		bl	LCD_draw_string
 502              	.LVL40:
 101:./Application/Src/menu.c ****     }
 503              		.loc 1 101 9 is_stmt 1 view .LVU93
 504 011e E3E7     		b	.L19
 505              	.LVL41:
 506              	.L21:
 101:./Application/Src/menu.c ****     }
 507              		.loc 1 101 9 is_stmt 0 view .LVU94
 508              	.LBE9:
 104:./Application/Src/menu.c ****         LCD_draw_string(&lcd_config, 0, 4, "File saved to SD card.  ", COLOR_BLACK, COLOR_WHITE);
 509              		.loc 1 104 9 is_stmt 1 view .LVU95
 510 0120 4FF6FF75 		movw	r5, #65535
 511 0124 0195     		str	r5, [sp, #4]
 512 0126 0024     		movs	r4, #0
 513 0128 0094     		str	r4, [sp]
 514 012a 124B     		ldr	r3, .L34+44
 515 012c 0322     		movs	r2, #3
 516 012e 2146     		mov	r1, r4
 517 0130 0748     		ldr	r0, .L34+8
 518              	.LVL42:
 104:./Application/Src/menu.c ****         LCD_draw_string(&lcd_config, 0, 4, "File saved to SD card.  ", COLOR_BLACK, COLOR_WHITE);
 519              		.loc 1 104 9 is_stmt 0 view .LVU96
 520 0132 FFF7FEFF 		bl	LCD_draw_string
 521              	.LVL43:
 105:./Application/Src/menu.c ****         break;
 522              		.loc 1 105 9 is_stmt 1 view .LVU97
 523 0136 0195     		str	r5, [sp, #4]
 524 0138 0094     		str	r4, [sp]
 525 013a 0F4B     		ldr	r3, .L34+48
 526 013c 0422     		movs	r2, #4
 527 013e 2146     		mov	r1, r4
 528 0140 0348     		ldr	r0, .L34+8
 529 0142 FFF7FEFF 		bl	LCD_draw_string
 530              	.LVL44:
 106:./Application/Src/menu.c ****     case FT_STATE_ERROR:
 531              		.loc 1 106 9 view .LVU98
 532 0146 CFE7     		b	.L19
 533              	.L35:
 534              		.align	2
 535              	.L34:
 536 0148 00000000 		.word	page_dirty
 537 014c 70000000 		.word	.LC15
 538 0150 00000000 		.word	lcd_config
 539 0154 CDCCCCCC 		.word	-858993459
 540 0158 00000000 		.word	.LC11
 541 015c 1C000000 		.word	.LC12
 542 0160 38000000 		.word	.LC13
 543 0164 C4000000 		.word	.LC18
 544 0168 E0000000 		.word	.LC19
 545 016c 54000000 		.word	.LC14
 546 0170 00000000 		.word	.LC6
 547 0174 8C000000 		.word	.LC16
 548 0178 A8000000 		.word	.LC17
ARM GAS  C:\Users\Xuleo\AppData\Local\Temp\ccAeK8hd.s 			page 14


 549              		.cfi_endproc
 550              	.LFE162:
 552              		.section	.rodata.menu_draw_transmit_ram.str1.4,"aMS",%progbits,1
 553              		.align	2
 554              	.LC20:
 555 0000 5B547261 		.ascii	"[Transmit to RAM]       \000"
 555      6E736D69 
 555      7420746F 
 555      2052414D 
 555      5D202020 
 556 0019 000000   		.align	2
 557              	.LC21:
 558 001c 57616974 		.ascii	"Waiting for start...    \000"
 558      696E6720 
 558      666F7220 
 558      73746172 
 558      742E2E2E 
 559 0035 000000   		.align	2
 560              	.LC22:
 561 0038 4D617820 		.ascii	"Max 365x14 floats       \000"
 561      33363578 
 561      31342066 
 561      6C6F6174 
 561      73202020 
 562 0051 000000   		.align	2
 563              	.LC23:
 564 0054 52583A20 		.ascii	"RX: %lu/%lu  %3d%%   \000"
 564      256C752F 
 564      256C7520 
 564      20253364 
 564      25252020 
 565 006a 0000     		.align	2
 566              	.LC24:
 567 006c 52656365 		.ascii	"Receiving data...       \000"
 567      6976696E 
 567      67206461 
 567      74612E2E 
 567      2E202020 
 568 0085 000000   		.align	2
 569              	.LC25:
 570 0088 476F7420 		.ascii	"Got %lu chords!     \000"
 570      256C7520 
 570      63686F72 
 570      64732120 
 570      20202020 
 571 009d 000000   		.align	2
 572              	.LC26:
 573 00a0 50617273 		.ascii	"Parsing song...         \000"
 573      696E6720 
 573      736F6E67 
 573      2E2E2E20 
 573      20202020 
 574 00b9 000000   		.align	2
 575              	.LC27:
 576 00bc 536F6E67 		.ascii	"Song loaded to RAM!     \000"
 576      206C6F61 
 576      64656420 
ARM GAS  C:\Users\Xuleo\AppData\Local\Temp\ccAeK8hd.s 			page 15


 576      746F2052 
 576      414D2120 
 577              		.section	.text.menu_draw_transmit_ram,"ax",%progbits
 578              		.align	1
 579              		.global	menu_draw_transmit_ram
 580              		.syntax unified
 581              		.thumb
 582              		.thumb_func
 584              	menu_draw_transmit_ram:
 585              	.LFB163:
 113:./Application/Src/menu.c **** 
 114:./Application/Src/menu.c **** /* ------------------------------------------------------------------ */
 115:./Application/Src/menu.c **** /*  Transmit Song (RAM) page                                          */
 116:./Application/Src/menu.c **** /* ------------------------------------------------------------------ */
 117:./Application/Src/menu.c **** 
 118:./Application/Src/menu.c **** void menu_draw_transmit_ram(void){
 586              		.loc 1 118 34 view -0
 587              		.cfi_startproc
 588              		@ args = 0, pretend = 0, frame = 32
 589              		@ frame_needed = 0, uses_anonymous_args = 0
 590 0000 70B5     		push	{r4, r5, r6, lr}
 591              	.LCFI10:
 592              		.cfi_def_cfa_offset 16
 593              		.cfi_offset 4, -16
 594              		.cfi_offset 5, -12
 595              		.cfi_offset 6, -8
 596              		.cfi_offset 14, -4
 597 0002 8AB0     		sub	sp, sp, #40
 598              	.LCFI11:
 599              		.cfi_def_cfa_offset 56
 119:./Application/Src/menu.c ****     char buf[32];
 600              		.loc 1 119 5 view .LVU100
 120:./Application/Src/menu.c **** 
 121:./Application/Src/menu.c ****     if (page_dirty){
 601              		.loc 1 121 5 view .LVU101
 602              		.loc 1 121 9 is_stmt 0 view .LVU102
 603 0004 494B     		ldr	r3, .L44
 604 0006 1B68     		ldr	r3, [r3]
 605              		.loc 1 121 8 view .LVU103
 606 0008 63B9     		cbnz	r3, .L41
 607              	.L37:
 122:./Application/Src/menu.c ****         clear_menu_area();
 123:./Application/Src/menu.c ****         LCD_draw_string(&lcd_config, 0, 1, "[Transmit to RAM]       ", COLOR_BLACK, COLOR_WHITE);
 124:./Application/Src/menu.c ****         LCD_draw_string(&lcd_config, 0, 2, "Waiting for start...    ", COLOR_BLACK, COLOR_WHITE);
 125:./Application/Src/menu.c ****         LCD_draw_string(&lcd_config, 0, 3, "Max 365x14 floats       ", COLOR_BLACK, COLOR_WHITE);
 126:./Application/Src/menu.c ****         LCD_draw_string(&lcd_config, 0, 8, "Send :a to go back      ", COLOR_BLACK, COLOR_WHITE);
 127:./Application/Src/menu.c ****         page_dirty = 0;
 128:./Application/Src/menu.c ****     }
 129:./Application/Src/menu.c **** 
 130:./Application/Src/menu.c ****     /* Show live accumulation status */
 131:./Application/Src/menu.c ****     if (ram_rx_started && !ram_rx_complete){
 608              		.loc 1 131 5 is_stmt 1 view .LVU104
 609              		.loc 1 131 9 is_stmt 0 view .LVU105
 610 000a 494B     		ldr	r3, .L44+4
 611 000c 1B68     		ldr	r3, [r3]
 612              		.loc 1 131 8 view .LVU106
 613 000e 1BB1     		cbz	r3, .L38
ARM GAS  C:\Users\Xuleo\AppData\Local\Temp\ccAeK8hd.s 			page 16


 614              		.loc 1 131 27 discriminator 1 view .LVU107
 615 0010 484B     		ldr	r3, .L44+8
 616 0012 1B68     		ldr	r3, [r3]
 617              		.loc 1 131 24 discriminator 1 view .LVU108
 618 0014 002B     		cmp	r3, #0
 619 0016 2DD0     		beq	.L42
 620              	.L38:
 132:./Application/Src/menu.c ****         uint32_t total = RAM_SONG_MAX_BYTES;
 133:./Application/Src/menu.c ****         uint8_t pct = (uint8_t)((ram_rx_offset * 100) / total);
 134:./Application/Src/menu.c ****         snprintf(buf, sizeof(buf), "RX: %lu/%lu  %3d%%   ",
 135:./Application/Src/menu.c ****                  (unsigned long)ram_rx_offset, (unsigned long)total, pct);
 136:./Application/Src/menu.c ****         LCD_draw_string(&lcd_config, 0, 4, buf, COLOR_BLACK, COLOR_WHITE);
 137:./Application/Src/menu.c ****         LCD_draw_string(&lcd_config, 0, 2, "Receiving data...       ", COLOR_BLACK, COLOR_WHITE);
 138:./Application/Src/menu.c ****     }
 139:./Application/Src/menu.c **** 
 140:./Application/Src/menu.c ****     if (ram_rx_complete){
 621              		.loc 1 140 5 is_stmt 1 view .LVU109
 622              		.loc 1 140 9 is_stmt 0 view .LVU110
 623 0018 464B     		ldr	r3, .L44+8
 624 001a 1B68     		ldr	r3, [r3]
 625              		.loc 1 140 8 view .LVU111
 626 001c 002B     		cmp	r3, #0
 627 001e 52D1     		bne	.L43
 628              	.L36:
 141:./Application/Src/menu.c ****         uint32_t num_floats = ram_rx_offset / 4;
 142:./Application/Src/menu.c ****         uint32_t num_chords = num_floats / 14;
 143:./Application/Src/menu.c ****         snprintf(buf, sizeof(buf), "Got %lu chords!     ", (unsigned long)num_chords);
 144:./Application/Src/menu.c ****         LCD_draw_string(&lcd_config, 0, 3, buf, COLOR_BLACK, COLOR_WHITE);
 145:./Application/Src/menu.c ****         LCD_draw_string(&lcd_config, 0, 4, "Parsing song...         ", COLOR_BLACK, COLOR_WHITE);
 146:./Application/Src/menu.c **** 
 147:./Application/Src/menu.c ****         /* Parse the flat float buffer into piano_song struct */
 148:./Application/Src/menu.c ****         parsing_song_buffer_to_struct(song_ram, piano_song);
 149:./Application/Src/menu.c **** 
 150:./Application/Src/menu.c ****         LCD_draw_string(&lcd_config, 0, 4, "Song loaded to RAM!     ", COLOR_BLACK, COLOR_WHITE);
 151:./Application/Src/menu.c **** 
 152:./Application/Src/menu.c ****         /* Reset state so we don't re-parse every loop */
 153:./Application/Src/menu.c ****         ram_rx_complete = 0;
 154:./Application/Src/menu.c ****         ram_rx_started = 0;
 155:./Application/Src/menu.c ****         ram_rx_offset = 0;
 156:./Application/Src/menu.c ****         redirect_to_ram = 0;
 157:./Application/Src/menu.c ****     }
 158:./Application/Src/menu.c **** }
 629              		.loc 1 158 1 view .LVU112
 630 0020 0AB0     		add	sp, sp, #40
 631              	.LCFI12:
 632              		.cfi_remember_state
 633              		.cfi_def_cfa_offset 16
 634              		@ sp needed
 635 0022 70BD     		pop	{r4, r5, r6, pc}
 636              	.L41:
 637              	.LCFI13:
 638              		.cfi_restore_state
 122:./Application/Src/menu.c ****         LCD_draw_string(&lcd_config, 0, 1, "[Transmit to RAM]       ", COLOR_BLACK, COLOR_WHITE);
 639              		.loc 1 122 9 is_stmt 1 view .LVU113
 640 0024 FFF7FEFF 		bl	clear_menu_area
 641              	.LVL45:
 123:./Application/Src/menu.c ****         LCD_draw_string(&lcd_config, 0, 2, "Waiting for start...    ", COLOR_BLACK, COLOR_WHITE);
ARM GAS  C:\Users\Xuleo\AppData\Local\Temp\ccAeK8hd.s 			page 17


 642              		.loc 1 123 9 view .LVU114
 643 0028 4FF6FF75 		movw	r5, #65535
 644 002c 0195     		str	r5, [sp, #4]
 645 002e 0024     		movs	r4, #0
 646 0030 0094     		str	r4, [sp]
 647 0032 414B     		ldr	r3, .L44+12
 648 0034 0122     		movs	r2, #1
 649 0036 2146     		mov	r1, r4
 650 0038 4048     		ldr	r0, .L44+16
 651 003a FFF7FEFF 		bl	LCD_draw_string
 652              	.LVL46:
 124:./Application/Src/menu.c ****         LCD_draw_string(&lcd_config, 0, 3, "Max 365x14 floats       ", COLOR_BLACK, COLOR_WHITE);
 653              		.loc 1 124 9 view .LVU115
 654 003e 0195     		str	r5, [sp, #4]
 655 0040 0094     		str	r4, [sp]
 656 0042 3F4B     		ldr	r3, .L44+20
 657 0044 0222     		movs	r2, #2
 658 0046 2146     		mov	r1, r4
 659 0048 3C48     		ldr	r0, .L44+16
 660 004a FFF7FEFF 		bl	LCD_draw_string
 661              	.LVL47:
 125:./Application/Src/menu.c ****         LCD_draw_string(&lcd_config, 0, 8, "Send :a to go back      ", COLOR_BLACK, COLOR_WHITE);
 662              		.loc 1 125 9 view .LVU116
 663 004e 0195     		str	r5, [sp, #4]
 664 0050 0094     		str	r4, [sp]
 665 0052 3C4B     		ldr	r3, .L44+24
 666 0054 0322     		movs	r2, #3
 667 0056 2146     		mov	r1, r4
 668 0058 3848     		ldr	r0, .L44+16
 669 005a FFF7FEFF 		bl	LCD_draw_string
 670              	.LVL48:
 126:./Application/Src/menu.c ****         page_dirty = 0;
 671              		.loc 1 126 9 view .LVU117
 672 005e 0195     		str	r5, [sp, #4]
 673 0060 0094     		str	r4, [sp]
 674 0062 394B     		ldr	r3, .L44+28
 675 0064 0822     		movs	r2, #8
 676 0066 2146     		mov	r1, r4
 677 0068 3448     		ldr	r0, .L44+16
 678 006a FFF7FEFF 		bl	LCD_draw_string
 679              	.LVL49:
 127:./Application/Src/menu.c ****     }
 680              		.loc 1 127 9 view .LVU118
 127:./Application/Src/menu.c ****     }
 681              		.loc 1 127 20 is_stmt 0 view .LVU119
 682 006e 2F4B     		ldr	r3, .L44
 683 0070 1C60     		str	r4, [r3]
 684 0072 CAE7     		b	.L37
 685              	.L42:
 686              	.LBB10:
 132:./Application/Src/menu.c ****         uint8_t pct = (uint8_t)((ram_rx_offset * 100) / total);
 687              		.loc 1 132 9 is_stmt 1 view .LVU120
 688              	.LVL50:
 133:./Application/Src/menu.c ****         snprintf(buf, sizeof(buf), "RX: %lu/%lu  %3d%%   ",
 689              		.loc 1 133 9 view .LVU121
 133:./Application/Src/menu.c ****         snprintf(buf, sizeof(buf), "RX: %lu/%lu  %3d%%   ",
 690              		.loc 1 133 48 is_stmt 0 view .LVU122
ARM GAS  C:\Users\Xuleo\AppData\Local\Temp\ccAeK8hd.s 			page 18


 691 0074 354B     		ldr	r3, .L44+32
 692 0076 1A68     		ldr	r2, [r3]
 693 0078 6421     		movs	r1, #100
 694 007a 01FB02F2 		mul	r2, r1, r2
 133:./Application/Src/menu.c ****         snprintf(buf, sizeof(buf), "RX: %lu/%lu  %3d%%   ",
 695              		.loc 1 133 55 view .LVU123
 696 007e D208     		lsrs	r2, r2, #3
 697 0080 3349     		ldr	r1, .L44+36
 698 0082 A1FB0212 		umull	r1, r2, r1, r2
 699              	.LVL51:
 134:./Application/Src/menu.c ****                  (unsigned long)ram_rx_offset, (unsigned long)total, pct);
 700              		.loc 1 134 9 is_stmt 1 view .LVU124
 701 0086 1B68     		ldr	r3, [r3]
 702 0088 C2F34722 		ubfx	r2, r2, #9, #8
 703              	.LVL52:
 134:./Application/Src/menu.c ****                  (unsigned long)ram_rx_offset, (unsigned long)total, pct);
 704              		.loc 1 134 9 is_stmt 0 view .LVU125
 705 008c 0192     		str	r2, [sp, #4]
 706 008e 44F6D872 		movw	r2, #20440
 707 0092 0092     		str	r2, [sp]
 708 0094 2F4A     		ldr	r2, .L44+40
 709 0096 2021     		movs	r1, #32
 710 0098 02A8     		add	r0, sp, #8
 711 009a FFF7FEFF 		bl	snprintf
 712              	.LVL53:
 136:./Application/Src/menu.c ****         LCD_draw_string(&lcd_config, 0, 2, "Receiving data...       ", COLOR_BLACK, COLOR_WHITE);
 713              		.loc 1 136 9 is_stmt 1 view .LVU126
 714 009e 4FF6FF75 		movw	r5, #65535
 715 00a2 0195     		str	r5, [sp, #4]
 716 00a4 0024     		movs	r4, #0
 717 00a6 0094     		str	r4, [sp]
 718 00a8 02AB     		add	r3, sp, #8
 719 00aa 0422     		movs	r2, #4
 720 00ac 2146     		mov	r1, r4
 721 00ae 2348     		ldr	r0, .L44+16
 722 00b0 FFF7FEFF 		bl	LCD_draw_string
 723              	.LVL54:
 137:./Application/Src/menu.c ****     }
 724              		.loc 1 137 9 view .LVU127
 725 00b4 0195     		str	r5, [sp, #4]
 726 00b6 0094     		str	r4, [sp]
 727 00b8 274B     		ldr	r3, .L44+44
 728 00ba 0222     		movs	r2, #2
 729 00bc 2146     		mov	r1, r4
 730 00be 1F48     		ldr	r0, .L44+16
 731 00c0 FFF7FEFF 		bl	LCD_draw_string
 732              	.LVL55:
 733 00c4 A8E7     		b	.L38
 734              	.LVL56:
 735              	.L43:
 137:./Application/Src/menu.c ****     }
 736              		.loc 1 137 9 is_stmt 0 view .LVU128
 737              	.LBE10:
 738              	.LBB11:
 141:./Application/Src/menu.c ****         uint32_t num_chords = num_floats / 14;
 739              		.loc 1 141 9 is_stmt 1 view .LVU129
 141:./Application/Src/menu.c ****         uint32_t num_chords = num_floats / 14;
ARM GAS  C:\Users\Xuleo\AppData\Local\Temp\ccAeK8hd.s 			page 19


 740              		.loc 1 141 45 is_stmt 0 view .LVU130
 741 00c6 214E     		ldr	r6, .L44+32
 742 00c8 3368     		ldr	r3, [r6]
 743              	.LVL57:
 142:./Application/Src/menu.c ****         snprintf(buf, sizeof(buf), "Got %lu chords!     ", (unsigned long)num_chords);
 744              		.loc 1 142 9 is_stmt 1 view .LVU131
 142:./Application/Src/menu.c ****         snprintf(buf, sizeof(buf), "Got %lu chords!     ", (unsigned long)num_chords);
 745              		.loc 1 142 18 is_stmt 0 view .LVU132
 746 00ca DB08     		lsrs	r3, r3, #3
 747              	.LVL58:
 142:./Application/Src/menu.c ****         snprintf(buf, sizeof(buf), "Got %lu chords!     ", (unsigned long)num_chords);
 748              		.loc 1 142 18 view .LVU133
 749 00cc 234A     		ldr	r2, .L44+48
 750 00ce A2FB0323 		umull	r2, r3, r2, r3
 751              	.LVL59:
 143:./Application/Src/menu.c ****         LCD_draw_string(&lcd_config, 0, 3, buf, COLOR_BLACK, COLOR_WHITE);
 752              		.loc 1 143 9 is_stmt 1 view .LVU134
 753 00d2 9B08     		lsrs	r3, r3, #2
 754              	.LVL60:
 143:./Application/Src/menu.c ****         LCD_draw_string(&lcd_config, 0, 3, buf, COLOR_BLACK, COLOR_WHITE);
 755              		.loc 1 143 9 is_stmt 0 view .LVU135
 756 00d4 224A     		ldr	r2, .L44+52
 757 00d6 2021     		movs	r1, #32
 758 00d8 02A8     		add	r0, sp, #8
 759 00da FFF7FEFF 		bl	snprintf
 760              	.LVL61:
 144:./Application/Src/menu.c ****         LCD_draw_string(&lcd_config, 0, 4, "Parsing song...         ", COLOR_BLACK, COLOR_WHITE);
 761              		.loc 1 144 9 is_stmt 1 view .LVU136
 762 00de 4FF6FF75 		movw	r5, #65535
 763 00e2 0195     		str	r5, [sp, #4]
 764 00e4 0024     		movs	r4, #0
 765 00e6 0094     		str	r4, [sp]
 766 00e8 02AB     		add	r3, sp, #8
 767 00ea 0322     		movs	r2, #3
 768 00ec 2146     		mov	r1, r4
 769 00ee 1348     		ldr	r0, .L44+16
 770 00f0 FFF7FEFF 		bl	LCD_draw_string
 771              	.LVL62:
 145:./Application/Src/menu.c **** 
 772              		.loc 1 145 9 view .LVU137
 773 00f4 0195     		str	r5, [sp, #4]
 774 00f6 0094     		str	r4, [sp]
 775 00f8 1A4B     		ldr	r3, .L44+56
 776 00fa 0422     		movs	r2, #4
 777 00fc 2146     		mov	r1, r4
 778 00fe 0F48     		ldr	r0, .L44+16
 779 0100 FFF7FEFF 		bl	LCD_draw_string
 780              	.LVL63:
 148:./Application/Src/menu.c **** 
 781              		.loc 1 148 9 view .LVU138
 782 0104 1849     		ldr	r1, .L44+60
 783 0106 1948     		ldr	r0, .L44+64
 784 0108 FFF7FEFF 		bl	parsing_song_buffer_to_struct
 785              	.LVL64:
 150:./Application/Src/menu.c **** 
 786              		.loc 1 150 9 view .LVU139
 787 010c 0195     		str	r5, [sp, #4]
ARM GAS  C:\Users\Xuleo\AppData\Local\Temp\ccAeK8hd.s 			page 20


 788 010e 0094     		str	r4, [sp]
 789 0110 174B     		ldr	r3, .L44+68
 790 0112 0422     		movs	r2, #4
 791 0114 2146     		mov	r1, r4
 792 0116 0948     		ldr	r0, .L44+16
 793 0118 FFF7FEFF 		bl	LCD_draw_string
 794              	.LVL65:
 153:./Application/Src/menu.c ****         ram_rx_started = 0;
 795              		.loc 1 153 9 view .LVU140
 153:./Application/Src/menu.c ****         ram_rx_started = 0;
 796              		.loc 1 153 25 is_stmt 0 view .LVU141
 797 011c 054B     		ldr	r3, .L44+8
 798 011e 1C60     		str	r4, [r3]
 154:./Application/Src/menu.c ****         ram_rx_offset = 0;
 799              		.loc 1 154 9 is_stmt 1 view .LVU142
 154:./Application/Src/menu.c ****         ram_rx_offset = 0;
 800              		.loc 1 154 24 is_stmt 0 view .LVU143
 801 0120 034B     		ldr	r3, .L44+4
 802 0122 1C60     		str	r4, [r3]
 155:./Application/Src/menu.c ****         redirect_to_ram = 0;
 803              		.loc 1 155 9 is_stmt 1 view .LVU144
 155:./Application/Src/menu.c ****         redirect_to_ram = 0;
 804              		.loc 1 155 23 is_stmt 0 view .LVU145
 805 0124 3460     		str	r4, [r6]
 156:./Application/Src/menu.c ****     }
 806              		.loc 1 156 9 is_stmt 1 view .LVU146
 156:./Application/Src/menu.c ****     }
 807              		.loc 1 156 25 is_stmt 0 view .LVU147
 808 0126 134B     		ldr	r3, .L44+72
 809 0128 1C60     		str	r4, [r3]
 810              	.LBE11:
 811              		.loc 1 158 1 view .LVU148
 812 012a 79E7     		b	.L36
 813              	.L45:
 814              		.align	2
 815              	.L44:
 816 012c 00000000 		.word	page_dirty
 817 0130 00000000 		.word	ram_rx_started
 818 0134 00000000 		.word	ram_rx_complete
 819 0138 00000000 		.word	.LC20
 820 013c 00000000 		.word	lcd_config
 821 0140 1C000000 		.word	.LC21
 822 0144 38000000 		.word	.LC22
 823 0148 38000000 		.word	.LC13
 824 014c 00000000 		.word	ram_rx_offset
 825 0150 A1D94C33 		.word	860674465
 826 0154 54000000 		.word	.LC23
 827 0158 6C000000 		.word	.LC24
 828 015c 93244992 		.word	-1840700269
 829 0160 88000000 		.word	.LC25
 830 0164 A0000000 		.word	.LC26
 831 0168 00000000 		.word	piano_song
 832 016c 00000000 		.word	song_ram
 833 0170 BC000000 		.word	.LC27
 834 0174 00000000 		.word	redirect_to_ram
 835              		.cfi_endproc
 836              	.LFE163:
ARM GAS  C:\Users\Xuleo\AppData\Local\Temp\ccAeK8hd.s 			page 21


 838              		.section	.rodata.menu_draw_select.str1.4,"aMS",%progbits,1
 839              		.align	2
 840              	.LC28:
 841 0000 5B53656C 		.ascii	"[Select] %d songs\000"
 841      6563745D 
 841      20256420 
 841      736F6E67 
 841      7300
 842 0012 0000     		.align	2
 843              	.LC29:
 844 0014 4E6F2073 		.ascii	"No songs on SD card.    \000"
 844      6F6E6773 
 844      206F6E20 
 844      53442063 
 844      6172642E 
 845 002d 000000   		.align	2
 846              	.LC30:
 847 0030 25632A25 		.ascii	"%c*%-12s %5luB\000"
 847      2D313273 
 847      2025356C 
 847      754200
 848 003f 00       		.align	2
 849              	.LC31:
 850 0040 25632025 		.ascii	"%c %-12s %5luB\000"
 850      2D313273 
 850      2025356C 
 850      754200
 851 004f 00       		.align	2
 852              	.LC32:
 853 0050 20205B25 		.ascii	"  [%d-%d of %d]\000"
 853      642D2564 
 853      206F6620 
 853      25645D00 
 854              		.align	2
 855              	.LC33:
 856 0060 3A642073 		.ascii	":d select  :a back      \000"
 856      656C6563 
 856      7420203A 
 856      61206261 
 856      636B2020 
 857              		.section	.text.menu_draw_select,"ax",%progbits
 858              		.align	1
 859              		.global	menu_draw_select
 860              		.syntax unified
 861              		.thumb
 862              		.thumb_func
 864              	menu_draw_select:
 865              	.LFB164:
 159:./Application/Src/menu.c **** 
 160:./Application/Src/menu.c **** /* ------------------------------------------------------------------ */
 161:./Application/Src/menu.c **** /*  Select Song page                                                  */
 162:./Application/Src/menu.c **** /* ------------------------------------------------------------------ */
 163:./Application/Src/menu.c **** 
 164:./Application/Src/menu.c **** void menu_draw_select(void)
 165:./Application/Src/menu.c **** {
 866              		.loc 1 165 1 is_stmt 1 view -0
 867              		.cfi_startproc
ARM GAS  C:\Users\Xuleo\AppData\Local\Temp\ccAeK8hd.s 			page 22


 868              		@ args = 0, pretend = 0, frame = 48
 869              		@ frame_needed = 0, uses_anonymous_args = 0
 870 0000 30B5     		push	{r4, r5, lr}
 871              	.LCFI14:
 872              		.cfi_def_cfa_offset 12
 873              		.cfi_offset 4, -12
 874              		.cfi_offset 5, -8
 875              		.cfi_offset 14, -4
 876 0002 8FB0     		sub	sp, sp, #60
 877              	.LCFI15:
 878              		.cfi_def_cfa_offset 72
 166:./Application/Src/menu.c ****     char line[48];
 879              		.loc 1 166 5 view .LVU150
 167:./Application/Src/menu.c **** 
 168:./Application/Src/menu.c ****     if (page_dirty)
 880              		.loc 1 168 5 view .LVU151
 881              		.loc 1 168 9 is_stmt 0 view .LVU152
 882 0004 6B4B     		ldr	r3, .L72
 883 0006 1B68     		ldr	r3, [r3]
 884              		.loc 1 168 8 view .LVU153
 885 0008 5BB9     		cbnz	r3, .L66
 886              	.L47:
 169:./Application/Src/menu.c ****     {
 170:./Application/Src/menu.c ****         clear_menu_area();
 171:./Application/Src/menu.c ****         /* Scan SD card for TXT files */
 172:./Application/Src/menu.c ****         SD_ListTxtFiles();
 173:./Application/Src/menu.c ****         select_song_index = 0;
 174:./Application/Src/menu.c ****         select_scroll_offset = 0;
 175:./Application/Src/menu.c ****         page_dirty = 0;
 176:./Application/Src/menu.c ****     }
 177:./Application/Src/menu.c **** 
 178:./Application/Src/menu.c ****     /* Header */
 179:./Application/Src/menu.c ****     snprintf(line, sizeof(line), "[Select] %d songs", (int)fileCount);
 887              		.loc 1 179 5 is_stmt 1 view .LVU154
 888 000a 02AC     		add	r4, sp, #8
 889 000c 6A4B     		ldr	r3, .L72+4
 890 000e 1B78     		ldrb	r3, [r3]	@ zero_extendqisi2
 891 0010 6A4A     		ldr	r2, .L72+8
 892 0012 3021     		movs	r1, #48
 893 0014 2046     		mov	r0, r4
 894 0016 FFF7FEFF 		bl	snprintf
 895              	.LVL66:
 180:./Application/Src/menu.c ****     /* Pad to 24 chars */
 181:./Application/Src/menu.c ****     int hlen = strlen(line);
 896              		.loc 1 181 5 view .LVU155
 897              		.loc 1 181 16 is_stmt 0 view .LVU156
 898 001a 2046     		mov	r0, r4
 899 001c FFF7FEFF 		bl	strlen
 900              	.LVL67:
 182:./Application/Src/menu.c ****     while (hlen < 24)
 901              		.loc 1 182 5 is_stmt 1 view .LVU157
 902              		.loc 1 182 11 is_stmt 0 view .LVU158
 903 0020 12E0     		b	.L48
 904              	.LVL68:
 905              	.L66:
 170:./Application/Src/menu.c ****         /* Scan SD card for TXT files */
 906              		.loc 1 170 9 is_stmt 1 view .LVU159
ARM GAS  C:\Users\Xuleo\AppData\Local\Temp\ccAeK8hd.s 			page 23


 907 0022 FFF7FEFF 		bl	clear_menu_area
 908              	.LVL69:
 172:./Application/Src/menu.c ****         select_song_index = 0;
 909              		.loc 1 172 9 view .LVU160
 910 0026 FFF7FEFF 		bl	SD_ListTxtFiles
 911              	.LVL70:
 173:./Application/Src/menu.c ****         select_scroll_offset = 0;
 912              		.loc 1 173 9 view .LVU161
 173:./Application/Src/menu.c ****         select_scroll_offset = 0;
 913              		.loc 1 173 27 is_stmt 0 view .LVU162
 914 002a 0023     		movs	r3, #0
 915 002c 644A     		ldr	r2, .L72+12
 916 002e 1360     		str	r3, [r2]
 174:./Application/Src/menu.c ****         page_dirty = 0;
 917              		.loc 1 174 9 is_stmt 1 view .LVU163
 174:./Application/Src/menu.c ****         page_dirty = 0;
 918              		.loc 1 174 30 is_stmt 0 view .LVU164
 919 0030 644A     		ldr	r2, .L72+16
 920 0032 1360     		str	r3, [r2]
 175:./Application/Src/menu.c ****     }
 921              		.loc 1 175 9 is_stmt 1 view .LVU165
 175:./Application/Src/menu.c ****     }
 922              		.loc 1 175 20 is_stmt 0 view .LVU166
 923 0034 5F4A     		ldr	r2, .L72
 924 0036 1360     		str	r3, [r2]
 925 0038 E7E7     		b	.L47
 926              	.LVL71:
 927              	.L49:
 183:./Application/Src/menu.c ****         line[hlen++] = ' ';
 928              		.loc 1 183 9 is_stmt 1 view .LVU167
 929              		.loc 1 183 22 is_stmt 0 view .LVU168
 930 003a 00F13803 		add	r3, r0, #56
 931 003e 6B44     		add	r3, sp, r3
 932 0040 2022     		movs	r2, #32
 933 0042 03F8302C 		strb	r2, [r3, #-48]
 934              		.loc 1 183 18 view .LVU169
 935 0046 0130     		adds	r0, r0, #1
 936              	.LVL72:
 937              	.L48:
 182:./Application/Src/menu.c ****         line[hlen++] = ' ';
 938              		.loc 1 182 17 is_stmt 1 view .LVU170
 939 0048 1728     		cmp	r0, #23
 940 004a F6DD     		ble	.L49
 184:./Application/Src/menu.c ****     line[24] = '\0';
 941              		.loc 1 184 5 view .LVU171
 942              		.loc 1 184 14 is_stmt 0 view .LVU172
 943 004c 0021     		movs	r1, #0
 944 004e 8DF82010 		strb	r1, [sp, #32]
 185:./Application/Src/menu.c ****     LCD_draw_string(&lcd_config, 0, 1, line, COLOR_BLACK, COLOR_WHITE);
 945              		.loc 1 185 5 is_stmt 1 view .LVU173
 946 0052 4FF6FF73 		movw	r3, #65535
 947 0056 0193     		str	r3, [sp, #4]
 948 0058 0091     		str	r1, [sp]
 949 005a 02AB     		add	r3, sp, #8
 950 005c 0122     		movs	r2, #1
 951 005e 5A48     		ldr	r0, .L72+20
 952              	.LVL73:
ARM GAS  C:\Users\Xuleo\AppData\Local\Temp\ccAeK8hd.s 			page 24


 953              		.loc 1 185 5 is_stmt 0 view .LVU174
 954 0060 FFF7FEFF 		bl	LCD_draw_string
 955              	.LVL74:
 186:./Application/Src/menu.c **** 
 187:./Application/Src/menu.c ****     if (fileCount == 0)
 956              		.loc 1 187 5 is_stmt 1 view .LVU175
 957              		.loc 1 187 19 is_stmt 0 view .LVU176
 958 0064 544B     		ldr	r3, .L72+4
 959 0066 1B78     		ldrb	r3, [r3]	@ zero_extendqisi2
 960              		.loc 1 187 8 view .LVU177
 961 0068 0BB1     		cbz	r3, .L67
 962              	.LBB12:
 188:./Application/Src/menu.c ****     {
 189:./Application/Src/menu.c ****         LCD_draw_string(&lcd_config, 0, 2, "No songs on SD card.    ", COLOR_BLACK, COLOR_WHITE);
 190:./Application/Src/menu.c ****         LCD_draw_string(&lcd_config, 0, 7, "Send :a to go back      ", COLOR_BLACK, COLOR_WHITE);
 191:./Application/Src/menu.c ****         return;
 192:./Application/Src/menu.c ****     }
 193:./Application/Src/menu.c **** 
 194:./Application/Src/menu.c ****     /* Show up to 5 files with scroll */
 195:./Application/Src/menu.c ****     for (int i = 0; i < 5; i++)
 963              		.loc 1 195 14 view .LVU178
 964 006a 0024     		movs	r4, #0
 965 006c 53E0     		b	.L50
 966              	.L67:
 967              	.LBE12:
 189:./Application/Src/menu.c ****         LCD_draw_string(&lcd_config, 0, 7, "Send :a to go back      ", COLOR_BLACK, COLOR_WHITE);
 968              		.loc 1 189 9 is_stmt 1 view .LVU179
 969 006e 4FF6FF75 		movw	r5, #65535
 970 0072 0195     		str	r5, [sp, #4]
 971 0074 1C46     		mov	r4, r3
 972 0076 0093     		str	r3, [sp]
 973 0078 544B     		ldr	r3, .L72+24
 974 007a 0222     		movs	r2, #2
 975 007c 2146     		mov	r1, r4
 976 007e 5248     		ldr	r0, .L72+20
 977 0080 FFF7FEFF 		bl	LCD_draw_string
 978              	.LVL75:
 190:./Application/Src/menu.c ****         return;
 979              		.loc 1 190 9 view .LVU180
 980 0084 0195     		str	r5, [sp, #4]
 981 0086 0094     		str	r4, [sp]
 982 0088 514B     		ldr	r3, .L72+28
 983 008a 0722     		movs	r2, #7
 984 008c 2146     		mov	r1, r4
 985 008e 4E48     		ldr	r0, .L72+20
 986 0090 FFF7FEFF 		bl	LCD_draw_string
 987              	.LVL76:
 191:./Application/Src/menu.c ****     }
 988              		.loc 1 191 9 view .LVU181
 989 0094 62E0     		b	.L46
 990              	.LVL77:
 991              	.L70:
 992              	.LBB16:
 993              	.LBB13:
 994              	.LBB14:
 196:./Application/Src/menu.c ****     {
 197:./Application/Src/menu.c ****         int fileIdx = select_scroll_offset + i;
ARM GAS  C:\Users\Xuleo\AppData\Local\Temp\ccAeK8hd.s 			page 25


 198:./Application/Src/menu.c ****         int row = 2 + i;
 199:./Application/Src/menu.c **** 
 200:./Application/Src/menu.c ****         if (fileIdx < fileCount)
 201:./Application/Src/menu.c ****         {
 202:./Application/Src/menu.c ****             char marker = ' ';
 995              		.loc 1 202 13 view .LVU182
 203:./Application/Src/menu.c ****             if (fileIdx == select_song_index)
 996              		.loc 1 203 13 view .LVU183
 997              		.loc 1 203 25 is_stmt 0 view .LVU184
 998 0096 4A4B     		ldr	r3, .L72+12
 999 0098 1B68     		ldr	r3, [r3]
 1000              		.loc 1 203 16 view .LVU185
 1001 009a 9342     		cmp	r3, r2
 1002 009c 15D0     		beq	.L64
 202:./Application/Src/menu.c ****             if (fileIdx == select_song_index)
 1003              		.loc 1 202 18 view .LVU186
 1004 009e 2023     		movs	r3, #32
 1005              	.L53:
 1006              	.LVL78:
 204:./Application/Src/menu.c ****                 marker = '>';
 205:./Application/Src/menu.c ****             /* Show active song indicator */
 206:./Application/Src/menu.c ****             if (fileIdx == active_song_index)
 1007              		.loc 1 206 13 is_stmt 1 view .LVU187
 1008              		.loc 1 206 25 is_stmt 0 view .LVU188
 1009 00a0 4C49     		ldr	r1, .L72+32
 1010 00a2 0968     		ldr	r1, [r1]
 1011              		.loc 1 206 16 view .LVU189
 1012 00a4 9142     		cmp	r1, r2
 1013 00a6 12D0     		beq	.L68
 207:./Application/Src/menu.c ****             {
 208:./Application/Src/menu.c ****                 snprintf(line, sizeof(line), "%c*%-12s %5luB", marker,
 209:./Application/Src/menu.c ****                          fileList[fileIdx].name, (unsigned long)fileList[fileIdx].size);
 210:./Application/Src/menu.c ****             }
 211:./Application/Src/menu.c ****             else
 212:./Application/Src/menu.c ****             {
 213:./Application/Src/menu.c ****                 snprintf(line, sizeof(line), "%c %-12s %5luB", marker,
 1014              		.loc 1 213 17 is_stmt 1 view .LVU190
 214:./Application/Src/menu.c ****                          fileList[fileIdx].name, (unsigned long)fileList[fileIdx].size);
 1015              		.loc 1 214 43 is_stmt 0 view .LVU191
 1016 00a8 02EB8200 		add	r0, r2, r2, lsl #2
 1017 00ac 4A49     		ldr	r1, .L72+36
 1018 00ae 01EB8000 		add	r0, r1, r0, lsl #2
 1019              		.loc 1 214 82 view .LVU192
 1020 00b2 0269     		ldr	r2, [r0, #16]
 1021              	.LVL79:
 213:./Application/Src/menu.c ****                          fileList[fileIdx].name, (unsigned long)fileList[fileIdx].size);
 1022              		.loc 1 213 17 view .LVU193
 1023 00b4 0192     		str	r2, [sp, #4]
 1024 00b6 0090     		str	r0, [sp]
 1025 00b8 484A     		ldr	r2, .L72+40
 1026 00ba 3021     		movs	r1, #48
 1027 00bc 02A8     		add	r0, sp, #8
 1028 00be FFF7FEFF 		bl	snprintf
 1029              	.LVL80:
 1030              	.L55:
 215:./Application/Src/menu.c ****             }
 216:./Application/Src/menu.c ****             /* Pad to clear */
ARM GAS  C:\Users\Xuleo\AppData\Local\Temp\ccAeK8hd.s 			page 26


 217:./Application/Src/menu.c ****             int len = strlen(line);
 1031              		.loc 1 217 13 is_stmt 1 view .LVU194
 1032              		.loc 1 217 23 is_stmt 0 view .LVU195
 1033 00c2 02A8     		add	r0, sp, #8
 1034 00c4 FFF7FEFF 		bl	strlen
 1035              	.LVL81:
 218:./Application/Src/menu.c ****             while (len < 23)
 1036              		.loc 1 218 13 is_stmt 1 view .LVU196
 1037              		.loc 1 218 19 is_stmt 0 view .LVU197
 1038 00c8 16E0     		b	.L56
 1039              	.LVL82:
 1040              	.L64:
 204:./Application/Src/menu.c ****             /* Show active song indicator */
 1041              		.loc 1 204 24 view .LVU198
 1042 00ca 3E23     		movs	r3, #62
 1043 00cc E8E7     		b	.L53
 1044              	.LVL83:
 1045              	.L68:
 208:./Application/Src/menu.c ****                          fileList[fileIdx].name, (unsigned long)fileList[fileIdx].size);
 1046              		.loc 1 208 17 is_stmt 1 view .LVU199
 209:./Application/Src/menu.c ****             }
 1047              		.loc 1 209 43 is_stmt 0 view .LVU200
 1048 00ce 02EB8200 		add	r0, r2, r2, lsl #2
 1049 00d2 4149     		ldr	r1, .L72+36
 1050 00d4 01EB8000 		add	r0, r1, r0, lsl #2
 209:./Application/Src/menu.c ****             }
 1051              		.loc 1 209 82 view .LVU201
 1052 00d8 0269     		ldr	r2, [r0, #16]
 1053              	.LVL84:
 208:./Application/Src/menu.c ****                          fileList[fileIdx].name, (unsigned long)fileList[fileIdx].size);
 1054              		.loc 1 208 17 view .LVU202
 1055 00da 0192     		str	r2, [sp, #4]
 1056 00dc 0090     		str	r0, [sp]
 1057 00de 404A     		ldr	r2, .L72+44
 1058 00e0 3021     		movs	r1, #48
 1059 00e2 02A8     		add	r0, sp, #8
 1060 00e4 FFF7FEFF 		bl	snprintf
 1061              	.LVL85:
 208:./Application/Src/menu.c ****                          fileList[fileIdx].name, (unsigned long)fileList[fileIdx].size);
 1062              		.loc 1 208 17 view .LVU203
 1063 00e8 EBE7     		b	.L55
 1064              	.LVL86:
 1065              	.L57:
 219:./Application/Src/menu.c ****                 line[len++] = ' ';
 1066              		.loc 1 219 17 is_stmt 1 view .LVU204
 1067              		.loc 1 219 29 is_stmt 0 view .LVU205
 1068 00ea 00F13803 		add	r3, r0, #56
 1069 00ee 6B44     		add	r3, sp, r3
 1070 00f0 2022     		movs	r2, #32
 1071 00f2 03F8302C 		strb	r2, [r3, #-48]
 1072              		.loc 1 219 25 view .LVU206
 1073 00f6 0130     		adds	r0, r0, #1
 1074              	.LVL87:
 1075              	.L56:
 218:./Application/Src/menu.c ****                 line[len++] = ' ';
 1076              		.loc 1 218 24 is_stmt 1 view .LVU207
 1077 00f8 1628     		cmp	r0, #22
ARM GAS  C:\Users\Xuleo\AppData\Local\Temp\ccAeK8hd.s 			page 27


 1078 00fa F6DD     		ble	.L57
 220:./Application/Src/menu.c ****             line[23] = '\0';
 1079              		.loc 1 220 13 view .LVU208
 1080              		.loc 1 220 22 is_stmt 0 view .LVU209
 1081 00fc 0021     		movs	r1, #0
 1082 00fe 8DF81F10 		strb	r1, [sp, #31]
 221:./Application/Src/menu.c ****             LCD_draw_string(&lcd_config, 0, row, line, COLOR_BLACK, COLOR_WHITE);
 1083              		.loc 1 221 13 is_stmt 1 view .LVU210
 1084 0102 4FF6FF73 		movw	r3, #65535
 1085 0106 0193     		str	r3, [sp, #4]
 1086 0108 0091     		str	r1, [sp]
 1087 010a 02AB     		add	r3, sp, #8
 1088 010c AAB2     		uxth	r2, r5
 1089 010e 2E48     		ldr	r0, .L72+20
 1090              	.LVL88:
 1091              		.loc 1 221 13 is_stmt 0 view .LVU211
 1092 0110 FFF7FEFF 		bl	LCD_draw_string
 1093              	.LVL89:
 1094              	.L58:
 1095              		.loc 1 221 13 view .LVU212
 1096              	.LBE14:
 1097              	.LBE13:
 195:./Application/Src/menu.c ****     {
 1098              		.loc 1 195 29 is_stmt 1 discriminator 2 view .LVU213
 1099 0114 0134     		adds	r4, r4, #1
 1100              	.LVL90:
 1101              	.L50:
 195:./Application/Src/menu.c ****     {
 1102              		.loc 1 195 23 discriminator 1 view .LVU214
 1103 0116 042C     		cmp	r4, #4
 1104 0118 12DC     		bgt	.L69
 1105              	.LBB15:
 197:./Application/Src/menu.c ****         int row = 2 + i;
 1106              		.loc 1 197 9 view .LVU215
 197:./Application/Src/menu.c ****         int row = 2 + i;
 1107              		.loc 1 197 44 is_stmt 0 view .LVU216
 1108 011a 2A4B     		ldr	r3, .L72+16
 1109 011c 1A68     		ldr	r2, [r3]
 197:./Application/Src/menu.c ****         int row = 2 + i;
 1110              		.loc 1 197 13 view .LVU217
 1111 011e 2244     		add	r2, r2, r4
 1112              	.LVL91:
 198:./Application/Src/menu.c **** 
 1113              		.loc 1 198 9 is_stmt 1 view .LVU218
 198:./Application/Src/menu.c **** 
 1114              		.loc 1 198 13 is_stmt 0 view .LVU219
 1115 0120 A51C     		adds	r5, r4, #2
 1116              	.LVL92:
 200:./Application/Src/menu.c ****         {
 1117              		.loc 1 200 9 is_stmt 1 view .LVU220
 200:./Application/Src/menu.c ****         {
 1118              		.loc 1 200 21 is_stmt 0 view .LVU221
 1119 0122 254B     		ldr	r3, .L72+4
 1120 0124 1B78     		ldrb	r3, [r3]	@ zero_extendqisi2
 200:./Application/Src/menu.c ****         {
 1121              		.loc 1 200 12 view .LVU222
 1122 0126 9342     		cmp	r3, r2
ARM GAS  C:\Users\Xuleo\AppData\Local\Temp\ccAeK8hd.s 			page 28


 1123 0128 B5DC     		bgt	.L70
 222:./Application/Src/menu.c ****         }
 223:./Application/Src/menu.c ****         else
 224:./Application/Src/menu.c ****         {
 225:./Application/Src/menu.c ****             LCD_draw_string(&lcd_config, 0, row, "                        ", COLOR_BLACK, COLOR_WHI
 1124              		.loc 1 225 13 is_stmt 1 view .LVU223
 1125 012a 4FF6FF73 		movw	r3, #65535
 1126 012e 0193     		str	r3, [sp, #4]
 1127 0130 0021     		movs	r1, #0
 1128 0132 0091     		str	r1, [sp]
 1129 0134 2B4B     		ldr	r3, .L72+48
 1130 0136 AAB2     		uxth	r2, r5
 1131              	.LVL93:
 1132              		.loc 1 225 13 is_stmt 0 view .LVU224
 1133 0138 2348     		ldr	r0, .L72+20
 1134 013a FFF7FEFF 		bl	LCD_draw_string
 1135              	.LVL94:
 1136              		.loc 1 225 13 view .LVU225
 1137 013e E9E7     		b	.L58
 1138              	.LVL95:
 1139              	.L69:
 1140              		.loc 1 225 13 view .LVU226
 1141              	.LBE15:
 1142              	.LBE16:
 226:./Application/Src/menu.c ****         }
 227:./Application/Src/menu.c ****     }
 228:./Application/Src/menu.c **** 
 229:./Application/Src/menu.c ****     /* Scroll indicator */
 230:./Application/Src/menu.c ****     if (fileCount > 5)
 1143              		.loc 1 230 5 is_stmt 1 view .LVU227
 1144              		.loc 1 230 19 is_stmt 0 view .LVU228
 1145 0140 1D4B     		ldr	r3, .L72+4
 1146 0142 1A78     		ldrb	r2, [r3]	@ zero_extendqisi2
 1147              		.loc 1 230 8 view .LVU229
 1148 0144 052A     		cmp	r2, #5
 1149 0146 0BD8     		bhi	.L71
 1150              	.LVL96:
 1151              	.L60:
 231:./Application/Src/menu.c ****     {
 232:./Application/Src/menu.c ****         int lo = select_scroll_offset + 1;
 233:./Application/Src/menu.c ****         int hi = (select_scroll_offset + 5 < fileCount) ? select_scroll_offset + 5 : fileCount;
 234:./Application/Src/menu.c ****         snprintf(line, sizeof(line), "  [%d-%d of %d]", lo, hi, (int)fileCount);
 235:./Application/Src/menu.c ****         int slen = strlen(line);
 236:./Application/Src/menu.c ****         while (slen < 24)
 237:./Application/Src/menu.c ****             line[slen++] = ' ';
 238:./Application/Src/menu.c ****         line[24] = '\0';
 239:./Application/Src/menu.c ****         LCD_draw_string(&lcd_config, 0, 7, line, COLOR_BLACK, COLOR_WHITE);
 240:./Application/Src/menu.c ****     }
 241:./Application/Src/menu.c **** 
 242:./Application/Src/menu.c ****     LCD_draw_string(&lcd_config, 0, 8, ":d select  :a back      ", COLOR_BLACK, COLOR_WHITE);
 1152              		.loc 1 242 5 is_stmt 1 view .LVU230
 1153 0148 4FF6FF73 		movw	r3, #65535
 1154 014c 0193     		str	r3, [sp, #4]
 1155 014e 0021     		movs	r1, #0
 1156 0150 0091     		str	r1, [sp]
 1157 0152 254B     		ldr	r3, .L72+52
 1158 0154 0822     		movs	r2, #8
ARM GAS  C:\Users\Xuleo\AppData\Local\Temp\ccAeK8hd.s 			page 29


 1159 0156 1C48     		ldr	r0, .L72+20
 1160 0158 FFF7FEFF 		bl	LCD_draw_string
 1161              	.LVL97:
 1162              	.L46:
 243:./Application/Src/menu.c **** }
 1163              		.loc 1 243 1 is_stmt 0 view .LVU231
 1164 015c 0FB0     		add	sp, sp, #60
 1165              	.LCFI16:
 1166              		.cfi_remember_state
 1167              		.cfi_def_cfa_offset 12
 1168              		@ sp needed
 1169 015e 30BD     		pop	{r4, r5, pc}
 1170              	.LVL98:
 1171              	.L71:
 1172              	.LCFI17:
 1173              		.cfi_restore_state
 1174              	.LBB17:
 232:./Application/Src/menu.c ****         int hi = (select_scroll_offset + 5 < fileCount) ? select_scroll_offset + 5 : fileCount;
 1175              		.loc 1 232 9 is_stmt 1 view .LVU232
 232:./Application/Src/menu.c ****         int hi = (select_scroll_offset + 5 < fileCount) ? select_scroll_offset + 5 : fileCount;
 1176              		.loc 1 232 39 is_stmt 0 view .LVU233
 1177 0160 184B     		ldr	r3, .L72+16
 1178 0162 1B68     		ldr	r3, [r3]
 1179              	.LVL99:
 233:./Application/Src/menu.c ****         snprintf(line, sizeof(line), "  [%d-%d of %d]", lo, hi, (int)fileCount);
 1180              		.loc 1 233 9 is_stmt 1 view .LVU234
 233:./Application/Src/menu.c ****         snprintf(line, sizeof(line), "  [%d-%d of %d]", lo, hi, (int)fileCount);
 1181              		.loc 1 233 40 is_stmt 0 view .LVU235
 1182 0164 591D     		adds	r1, r3, #5
 233:./Application/Src/menu.c ****         snprintf(line, sizeof(line), "  [%d-%d of %d]", lo, hi, (int)fileCount);
 1183              		.loc 1 233 13 view .LVU236
 1184 0166 9142     		cmp	r1, r2
 1185 0168 A8BF     		it	ge
 1186 016a 1146     		movge	r1, r2
 1187              	.LVL100:
 234:./Application/Src/menu.c ****         int slen = strlen(line);
 1188              		.loc 1 234 9 is_stmt 1 view .LVU237
 1189 016c 02AC     		add	r4, sp, #8
 1190              	.LVL101:
 234:./Application/Src/menu.c ****         int slen = strlen(line);
 1191              		.loc 1 234 9 is_stmt 0 view .LVU238
 1192 016e 0192     		str	r2, [sp, #4]
 1193 0170 0091     		str	r1, [sp]
 1194 0172 0133     		adds	r3, r3, #1
 1195              	.LVL102:
 234:./Application/Src/menu.c ****         int slen = strlen(line);
 1196              		.loc 1 234 9 view .LVU239
 1197 0174 1D4A     		ldr	r2, .L72+56
 1198 0176 3021     		movs	r1, #48
 1199              	.LVL103:
 234:./Application/Src/menu.c ****         int slen = strlen(line);
 1200              		.loc 1 234 9 view .LVU240
 1201 0178 2046     		mov	r0, r4
 1202 017a FFF7FEFF 		bl	snprintf
 1203              	.LVL104:
 235:./Application/Src/menu.c ****         while (slen < 24)
 1204              		.loc 1 235 9 is_stmt 1 view .LVU241
ARM GAS  C:\Users\Xuleo\AppData\Local\Temp\ccAeK8hd.s 			page 30


 235:./Application/Src/menu.c ****         while (slen < 24)
 1205              		.loc 1 235 20 is_stmt 0 view .LVU242
 1206 017e 2046     		mov	r0, r4
 1207 0180 FFF7FEFF 		bl	strlen
 1208              	.LVL105:
 236:./Application/Src/menu.c ****             line[slen++] = ' ';
 1209              		.loc 1 236 9 is_stmt 1 view .LVU243
 236:./Application/Src/menu.c ****             line[slen++] = ' ';
 1210              		.loc 1 236 15 is_stmt 0 view .LVU244
 1211 0184 06E0     		b	.L61
 1212              	.L62:
 237:./Application/Src/menu.c ****         line[24] = '\0';
 1213              		.loc 1 237 13 is_stmt 1 view .LVU245
 1214              	.LVL106:
 237:./Application/Src/menu.c ****         line[24] = '\0';
 1215              		.loc 1 237 26 is_stmt 0 view .LVU246
 1216 0186 00F13803 		add	r3, r0, #56
 1217 018a 6B44     		add	r3, sp, r3
 1218 018c 2022     		movs	r2, #32
 1219 018e 03F8302C 		strb	r2, [r3, #-48]
 237:./Application/Src/menu.c ****         line[24] = '\0';
 1220              		.loc 1 237 22 view .LVU247
 1221 0192 0130     		adds	r0, r0, #1
 1222              	.LVL107:
 1223              	.L61:
 236:./Application/Src/menu.c ****             line[slen++] = ' ';
 1224              		.loc 1 236 21 is_stmt 1 view .LVU248
 1225 0194 1728     		cmp	r0, #23
 1226 0196 F6DD     		ble	.L62
 238:./Application/Src/menu.c ****         LCD_draw_string(&lcd_config, 0, 7, line, COLOR_BLACK, COLOR_WHITE);
 1227              		.loc 1 238 9 view .LVU249
 238:./Application/Src/menu.c ****         LCD_draw_string(&lcd_config, 0, 7, line, COLOR_BLACK, COLOR_WHITE);
 1228              		.loc 1 238 18 is_stmt 0 view .LVU250
 1229 0198 0021     		movs	r1, #0
 1230 019a 8DF82010 		strb	r1, [sp, #32]
 239:./Application/Src/menu.c ****     }
 1231              		.loc 1 239 9 is_stmt 1 view .LVU251
 1232 019e 4FF6FF73 		movw	r3, #65535
 1233 01a2 0193     		str	r3, [sp, #4]
 1234 01a4 0091     		str	r1, [sp]
 1235 01a6 02AB     		add	r3, sp, #8
 1236 01a8 0722     		movs	r2, #7
 1237 01aa 0748     		ldr	r0, .L72+20
 1238              	.LVL108:
 239:./Application/Src/menu.c ****     }
 1239              		.loc 1 239 9 is_stmt 0 view .LVU252
 1240 01ac FFF7FEFF 		bl	LCD_draw_string
 1241              	.LVL109:
 1242 01b0 CAE7     		b	.L60
 1243              	.L73:
 1244 01b2 00BF     		.align	2
 1245              	.L72:
 1246 01b4 00000000 		.word	page_dirty
 1247 01b8 00000000 		.word	fileCount
 1248 01bc 00000000 		.word	.LC28
 1249 01c0 00000000 		.word	select_song_index
 1250 01c4 00000000 		.word	select_scroll_offset
ARM GAS  C:\Users\Xuleo\AppData\Local\Temp\ccAeK8hd.s 			page 31


 1251 01c8 00000000 		.word	lcd_config
 1252 01cc 14000000 		.word	.LC29
 1253 01d0 38000000 		.word	.LC13
 1254 01d4 00000000 		.word	active_song_index
 1255 01d8 00000000 		.word	fileList
 1256 01dc 40000000 		.word	.LC31
 1257 01e0 30000000 		.word	.LC30
 1258 01e4 00000000 		.word	.LC6
 1259 01e8 60000000 		.word	.LC33
 1260 01ec 50000000 		.word	.LC32
 1261              	.LBE17:
 1262              		.cfi_endproc
 1263              	.LFE164:
 1265              		.section	.text.menu_get_state,"ax",%progbits
 1266              		.align	1
 1267              		.global	menu_get_state
 1268              		.syntax unified
 1269              		.thumb
 1270              		.thumb_func
 1272              	menu_get_state:
 1273              	.LFB165:
 244:./Application/Src/menu.c **** 
 245:./Application/Src/menu.c **** /* ------------------------------------------------------------------ */
 246:./Application/Src/menu.c **** /*  Public API                                                        */
 247:./Application/Src/menu.c **** /* ------------------------------------------------------------------ */
 248:./Application/Src/menu.c **** 
 249:./Application/Src/menu.c **** MenuState_t menu_get_state(void)
 250:./Application/Src/menu.c **** {
 1274              		.loc 1 250 1 is_stmt 1 view -0
 1275              		.cfi_startproc
 1276              		@ args = 0, pretend = 0, frame = 0
 1277              		@ frame_needed = 0, uses_anonymous_args = 0
 1278              		@ link register save eliminated.
 251:./Application/Src/menu.c ****     return menu_state;
 1279              		.loc 1 251 5 view .LVU254
 252:./Application/Src/menu.c **** }
 1280              		.loc 1 252 1 is_stmt 0 view .LVU255
 1281 0000 014B     		ldr	r3, .L75
 1282 0002 1878     		ldrb	r0, [r3]	@ zero_extendqisi2
 1283 0004 7047     		bx	lr
 1284              	.L76:
 1285 0006 00BF     		.align	2
 1286              	.L75:
 1287 0008 00000000 		.word	menu_state
 1288              		.cfi_endproc
 1289              	.LFE165:
 1291              		.section	.rodata.menu_init.str1.4,"aMS",%progbits,1
 1292              		.align	2
 1293              	.LC34:
 1294 0000 454C4543 		.ascii	"ELEC391 Piano Bot       \000"
 1294      33393120 
 1294      5069616E 
 1294      6F20426F 
 1294      74202020 
 1295              		.section	.text.menu_init,"ax",%progbits
 1296              		.align	1
 1297              		.global	menu_init
ARM GAS  C:\Users\Xuleo\AppData\Local\Temp\ccAeK8hd.s 			page 32


 1298              		.syntax unified
 1299              		.thumb
 1300              		.thumb_func
 1302              	menu_init:
 1303              	.LFB166:
 253:./Application/Src/menu.c **** 
 254:./Application/Src/menu.c **** void menu_init(void)
 255:./Application/Src/menu.c **** {
 1304              		.loc 1 255 1 is_stmt 1 view -0
 1305              		.cfi_startproc
 1306              		@ args = 0, pretend = 0, frame = 0
 1307              		@ frame_needed = 0, uses_anonymous_args = 0
 1308 0000 10B5     		push	{r4, lr}
 1309              	.LCFI18:
 1310              		.cfi_def_cfa_offset 8
 1311              		.cfi_offset 4, -8
 1312              		.cfi_offset 14, -4
 1313 0002 82B0     		sub	sp, sp, #8
 1314              	.LCFI19:
 1315              		.cfi_def_cfa_offset 16
 256:./Application/Src/menu.c ****     LCD_draw_string(&lcd_config, 0, 0, "ELEC391 Piano Bot       ", COLOR_BLACK, COLOR_WHITE);
 1316              		.loc 1 256 5 view .LVU257
 1317 0004 4FF6FF73 		movw	r3, #65535
 1318 0008 0193     		str	r3, [sp, #4]
 1319 000a 0024     		movs	r4, #0
 1320 000c 0094     		str	r4, [sp]
 1321 000e 084B     		ldr	r3, .L79
 1322 0010 2246     		mov	r2, r4
 1323 0012 2146     		mov	r1, r4
 1324 0014 0748     		ldr	r0, .L79+4
 1325 0016 FFF7FEFF 		bl	LCD_draw_string
 1326              	.LVL110:
 257:./Application/Src/menu.c ****     menu_state = MENU_STATE_MAIN;
 1327              		.loc 1 257 5 view .LVU258
 1328              		.loc 1 257 16 is_stmt 0 view .LVU259
 1329 001a 074B     		ldr	r3, .L79+8
 1330 001c 1C70     		strb	r4, [r3]
 258:./Application/Src/menu.c ****     menu_index = 0;
 1331              		.loc 1 258 5 is_stmt 1 view .LVU260
 1332              		.loc 1 258 16 is_stmt 0 view .LVU261
 1333 001e 074B     		ldr	r3, .L79+12
 1334 0020 1C60     		str	r4, [r3]
 259:./Application/Src/menu.c ****     page_dirty = 1;
 1335              		.loc 1 259 5 is_stmt 1 view .LVU262
 1336              		.loc 1 259 16 is_stmt 0 view .LVU263
 1337 0022 074B     		ldr	r3, .L79+16
 1338 0024 0122     		movs	r2, #1
 1339 0026 1A60     		str	r2, [r3]
 260:./Application/Src/menu.c ****     menu_draw_main();
 1340              		.loc 1 260 5 is_stmt 1 view .LVU264
 1341 0028 FFF7FEFF 		bl	menu_draw_main
 1342              	.LVL111:
 261:./Application/Src/menu.c **** }
 1343              		.loc 1 261 1 is_stmt 0 view .LVU265
 1344 002c 02B0     		add	sp, sp, #8
 1345              	.LCFI20:
 1346              		.cfi_def_cfa_offset 8
ARM GAS  C:\Users\Xuleo\AppData\Local\Temp\ccAeK8hd.s 			page 33


 1347              		@ sp needed
 1348 002e 10BD     		pop	{r4, pc}
 1349              	.L80:
 1350              		.align	2
 1351              	.L79:
 1352 0030 00000000 		.word	.LC34
 1353 0034 00000000 		.word	lcd_config
 1354 0038 00000000 		.word	menu_state
 1355 003c 00000000 		.word	menu_index
 1356 0040 00000000 		.word	page_dirty
 1357              		.cfi_endproc
 1358              	.LFE166:
 1360              		.section	.rodata.menu_update.str1.4,"aMS",%progbits,1
 1361              		.align	2
 1362              	.LC35:
 1363 0000 506C6179 		.ascii	"Playing song...         \000"
 1363      696E6720 
 1363      736F6E67 
 1363      2E2E2E20 
 1363      20202020 
 1364 0019 000000   		.align	2
 1365              	.LC36:
 1366 001c 4E6F2073 		.ascii	"No song selected!       \000"
 1366      6F6E6720 
 1366      73656C65 
 1366      63746564 
 1366      21202020 
 1367 0035 000000   		.align	2
 1368              	.LC37:
 1369 0038 486F6D69 		.ascii	"Homing...               \000"
 1369      6E672E2E 
 1369      2E202020 
 1369      20202020 
 1369      20202020 
 1370 0051 000000   		.align	2
 1371              	.LC38:
 1372 0054 486F6D69 		.ascii	"Homing done!            \000"
 1372      6E672064 
 1372      6F6E6521 
 1372      20202020 
 1372      20202020 
 1373 006d 000000   		.align	2
 1374              	.LC39:
 1375 0070 53656C65 		.ascii	"Selected: %-12s  \000"
 1375      63746564 
 1375      3A20252D 
 1375      31327320 
 1375      2000
 1376              		.section	.text.menu_update,"ax",%progbits
 1377              		.align	1
 1378              		.global	menu_update
 1379              		.syntax unified
 1380              		.thumb
 1381              		.thumb_func
 1383              	menu_update:
 1384              	.LFB167:
 262:./Application/Src/menu.c **** 
ARM GAS  C:\Users\Xuleo\AppData\Local\Temp\ccAeK8hd.s 			page 34


 263:./Application/Src/menu.c **** void menu_update(void)
 264:./Application/Src/menu.c **** {
 1385              		.loc 1 264 1 is_stmt 1 view -0
 1386              		.cfi_startproc
 1387              		@ args = 0, pretend = 0, frame = 32
 1388              		@ frame_needed = 0, uses_anonymous_args = 0
 1389 0000 30B5     		push	{r4, r5, lr}
 1390              	.LCFI21:
 1391              		.cfi_def_cfa_offset 12
 1392              		.cfi_offset 4, -12
 1393              		.cfi_offset 5, -8
 1394              		.cfi_offset 14, -4
 1395 0002 8BB0     		sub	sp, sp, #44
 1396              	.LCFI22:
 1397              		.cfi_def_cfa_offset 56
 265:./Application/Src/menu.c **** 
 266:./Application/Src/menu.c ****     /* ---- Handle BACK in any sub-page ---- */
 267:./Application/Src/menu.c ****     if (menu_back)
 1398              		.loc 1 267 5 view .LVU267
 1399              		.loc 1 267 9 is_stmt 0 view .LVU268
 1400 0004 8B4B     		ldr	r3, .L123
 1401 0006 1B68     		ldr	r3, [r3]
 1402              		.loc 1 267 8 view .LVU269
 1403 0008 2BB1     		cbz	r3, .L82
 268:./Application/Src/menu.c ****     {
 269:./Application/Src/menu.c ****         menu_back = 0;
 1404              		.loc 1 269 9 is_stmt 1 view .LVU270
 1405              		.loc 1 269 19 is_stmt 0 view .LVU271
 1406 000a 8A4B     		ldr	r3, .L123
 1407 000c 0022     		movs	r2, #0
 1408 000e 1A60     		str	r2, [r3]
 270:./Application/Src/menu.c ****         if (menu_state != MENU_STATE_MAIN)
 1409              		.loc 1 270 9 is_stmt 1 view .LVU272
 1410              		.loc 1 270 24 is_stmt 0 view .LVU273
 1411 0010 894B     		ldr	r3, .L123+4
 1412 0012 1B78     		ldrb	r3, [r3]	@ zero_extendqisi2
 1413              		.loc 1 270 12 view .LVU274
 1414 0014 ABB9     		cbnz	r3, .L114
 1415              	.L82:
 271:./Application/Src/menu.c ****         {
 272:./Application/Src/menu.c ****             /* If a transfer is in progress, abort it before leaving */
 273:./Application/Src/menu.c ****             if (menu_state == MENU_STATE_TRANSMIT && FT_GetState() == FT_STATE_RECEIVING)
 274:./Application/Src/menu.c ****             {
 275:./Application/Src/menu.c ****                 FT_Abort();
 276:./Application/Src/menu.c ****             }
 277:./Application/Src/menu.c ****             if (menu_state == MENU_STATE_TRANSMIT_RAM)
 278:./Application/Src/menu.c ****             {
 279:./Application/Src/menu.c ****                 ram_rx_started = 0;
 280:./Application/Src/menu.c ****                 ram_rx_complete = 0;
 281:./Application/Src/menu.c ****                 ram_rx_offset = 0;
 282:./Application/Src/menu.c ****                 redirect_to_ram = 0;
 283:./Application/Src/menu.c ****             }
 284:./Application/Src/menu.c ****             menu_state = MENU_STATE_MAIN;
 285:./Application/Src/menu.c ****             menu_index = 0;
 286:./Application/Src/menu.c ****             page_dirty = 1;
 287:./Application/Src/menu.c ****             clear_menu_area();
 288:./Application/Src/menu.c ****             menu_draw_main();
ARM GAS  C:\Users\Xuleo\AppData\Local\Temp\ccAeK8hd.s 			page 35


 289:./Application/Src/menu.c ****             /* Consume stale nav flags */
 290:./Application/Src/menu.c ****             menu_move_down = 0;
 291:./Application/Src/menu.c ****             menu_move_up = 0;
 292:./Application/Src/menu.c ****             menu_enter = 0;
 293:./Application/Src/menu.c ****             return;
 294:./Application/Src/menu.c ****         }
 295:./Application/Src/menu.c ****     }
 296:./Application/Src/menu.c **** 
 297:./Application/Src/menu.c ****     /* ---- State-specific update ---- */
 298:./Application/Src/menu.c ****     switch (menu_state)
 1416              		.loc 1 298 5 is_stmt 1 view .LVU275
 1417 0016 884B     		ldr	r3, .L123+4
 1418 0018 1B78     		ldrb	r3, [r3]	@ zero_extendqisi2
 1419 001a 022B     		cmp	r3, #2
 1420 001c 00F03981 		beq	.L86
 1421 0020 3BD8     		bhi	.L87
 1422 0022 002B     		cmp	r3, #0
 1423 0024 00F08B80 		beq	.L88
 1424 0028 012B     		cmp	r3, #1
 1425 002a 03D1     		bne	.L90
 299:./Application/Src/menu.c ****     {
 300:./Application/Src/menu.c **** 
 301:./Application/Src/menu.c ****     /* ===== MAIN MENU ===== */
 302:./Application/Src/menu.c ****     case MENU_STATE_MAIN:
 303:./Application/Src/menu.c ****         /* Navigation */
 304:./Application/Src/menu.c ****         if (menu_move_down)
 305:./Application/Src/menu.c ****         {
 306:./Application/Src/menu.c ****             menu_index++;
 307:./Application/Src/menu.c ****             if (menu_index > 4)
 308:./Application/Src/menu.c ****                 menu_index = 0;
 309:./Application/Src/menu.c ****         }
 310:./Application/Src/menu.c ****         if (menu_move_up)
 311:./Application/Src/menu.c ****         {
 312:./Application/Src/menu.c ****             menu_index--;
 313:./Application/Src/menu.c ****             if (menu_index < 0)
 314:./Application/Src/menu.c ****                 menu_index = 4;
 315:./Application/Src/menu.c ****         }
 316:./Application/Src/menu.c **** 
 317:./Application/Src/menu.c ****         /* Enter */
 318:./Application/Src/menu.c ****         if (menu_enter)
 319:./Application/Src/menu.c ****         {
 320:./Application/Src/menu.c ****             menu_enter = 0;
 321:./Application/Src/menu.c ****             switch (menu_index)
 322:./Application/Src/menu.c ****             {
 323:./Application/Src/menu.c ****                 case 0: /* Play Song */
 324:./Application/Src/menu.c ****                     /* Only play if a song is selected */
 325:./Application/Src/menu.c ****                     if (active_song_index >= 0 && active_song_index < fileCount)
 326:./Application/Src/menu.c ****                     {
 327:./Application/Src/menu.c ****                         LCD_draw_string(&lcd_config, 0, 9, "Playing song...         ", COLOR_BLACK,
 328:./Application/Src/menu.c ****                         /* TODO: hook into traversal_song with the selected file */
 329:./Application/Src/menu.c ****                     }
 330:./Application/Src/menu.c ****                     else
 331:./Application/Src/menu.c ****                     {
 332:./Application/Src/menu.c ****                         LCD_draw_string(&lcd_config, 0, 9, "No song selected!       ", COLOR_BLACK,
 333:./Application/Src/menu.c ****                     }
 334:./Application/Src/menu.c ****                     break;
 335:./Application/Src/menu.c ****                 case 1: /* Transmit Song to SD card */
ARM GAS  C:\Users\Xuleo\AppData\Local\Temp\ccAeK8hd.s 			page 36


 336:./Application/Src/menu.c ****                     menu_state = MENU_STATE_TRANSMIT;
 337:./Application/Src/menu.c ****                     page_dirty = 1;
 338:./Application/Src/menu.c ****                     FT_Init(); /* Reset transfer state */
 339:./Application/Src/menu.c ****                     break;
 340:./Application/Src/menu.c ****                 case 2: /* Transmit Song to RAM */
 341:./Application/Src/menu.c ****                     menu_state = MENU_STATE_TRANSMIT_RAM;
 342:./Application/Src/menu.c ****                     page_dirty = 1;
 343:./Application/Src/menu.c ****                     redirect_to_ram = 1;
 344:./Application/Src/menu.c ****                     ram_rx_started = 0;
 345:./Application/Src/menu.c ****                     ram_rx_complete = 0;
 346:./Application/Src/menu.c ****                     ram_rx_offset = 0;
 347:./Application/Src/menu.c ****                     break;
 348:./Application/Src/menu.c ****                 case 3: /* Select Song */
 349:./Application/Src/menu.c ****                     menu_state = MENU_STATE_SELECT;
 350:./Application/Src/menu.c ****                     page_dirty = 1;
 351:./Application/Src/menu.c ****                     break;
 352:./Application/Src/menu.c ****                 case 4: /* Homing */
 353:./Application/Src/menu.c ****                     LCD_draw_string(&lcd_config, 0, 9, "Homing...               ", COLOR_BLACK, COL
 354:./Application/Src/menu.c ****                     homing_procedure();
 355:./Application/Src/menu.c ****                     LCD_draw_string(&lcd_config, 0, 9, "Homing done!            ", COLOR_BLACK, COL
 356:./Application/Src/menu.c ****                     break;
 357:./Application/Src/menu.c ****             }
 358:./Application/Src/menu.c ****         }
 359:./Application/Src/menu.c **** 
 360:./Application/Src/menu.c ****         menu_draw_main();
 361:./Application/Src/menu.c ****         break;
 362:./Application/Src/menu.c **** 
 363:./Application/Src/menu.c ****     /* ===== TRANSMIT SONG PAGE ===== */
 364:./Application/Src/menu.c ****     case MENU_STATE_TRANSMIT:
 365:./Application/Src/menu.c ****         /* No navigation needed; just show transfer status */
 366:./Application/Src/menu.c ****         menu_draw_transmit();
 1426              		.loc 1 366 9 view .LVU276
 1427 002c FFF7FEFF 		bl	menu_draw_transmit
 1428              	.LVL112:
 367:./Application/Src/menu.c ****         /* Check transfer timeout */
 368:./Application/Src/menu.c ****         FT_TimeoutCheck();
 1429              		.loc 1 368 9 view .LVU277
 1430 0030 FFF7FEFF 		bl	FT_TimeoutCheck
 1431              	.LVL113:
 369:./Application/Src/menu.c ****         break;
 1432              		.loc 1 369 9 view .LVU278
 1433              	.L90:
 370:./Application/Src/menu.c **** 
 371:./Application/Src/menu.c ****     case MENU_STATE_TRANSMIT_RAM:
 372:./Application/Src/menu.c ****         /* No navigation needed; just show transfer status */
 373:./Application/Src/menu.c ****         menu_draw_transmit_ram();
 374:./Application/Src/menu.c ****         break;
 375:./Application/Src/menu.c **** 
 376:./Application/Src/menu.c ****     /* ===== SELECT SONG PAGE ===== */
 377:./Application/Src/menu.c ****     case MENU_STATE_SELECT:
 378:./Application/Src/menu.c ****         /* Navigation through file list */
 379:./Application/Src/menu.c ****         if (menu_move_down)
 380:./Application/Src/menu.c ****         {
 381:./Application/Src/menu.c ****             select_song_index++;
 382:./Application/Src/menu.c ****             if (select_song_index >= fileCount)
 383:./Application/Src/menu.c ****                 select_song_index = 0;
 384:./Application/Src/menu.c ****             /* Adjust scroll window */
ARM GAS  C:\Users\Xuleo\AppData\Local\Temp\ccAeK8hd.s 			page 37


 385:./Application/Src/menu.c ****             if (select_song_index >= select_scroll_offset + 5)
 386:./Application/Src/menu.c ****                 select_scroll_offset = select_song_index - 4;
 387:./Application/Src/menu.c ****             if (select_song_index < select_scroll_offset)
 388:./Application/Src/menu.c ****                 select_scroll_offset = select_song_index;
 389:./Application/Src/menu.c ****             /* Handle wrap-around */
 390:./Application/Src/menu.c ****             if (select_song_index == 0)
 391:./Application/Src/menu.c ****                 select_scroll_offset = 0;
 392:./Application/Src/menu.c ****         }
 393:./Application/Src/menu.c ****         if (menu_move_up)
 394:./Application/Src/menu.c ****         {
 395:./Application/Src/menu.c ****             select_song_index--;
 396:./Application/Src/menu.c ****             if (select_song_index < 0)
 397:./Application/Src/menu.c ****                 select_song_index = fileCount - 1;
 398:./Application/Src/menu.c ****             /* Adjust scroll window */
 399:./Application/Src/menu.c ****             if (select_song_index < select_scroll_offset)
 400:./Application/Src/menu.c ****                 select_scroll_offset = select_song_index;
 401:./Application/Src/menu.c ****             if (select_song_index >= select_scroll_offset + 5)
 402:./Application/Src/menu.c ****                 select_scroll_offset = select_song_index - 4;
 403:./Application/Src/menu.c ****             /* Handle wrap-around */
 404:./Application/Src/menu.c ****             if (select_song_index == fileCount - 1)
 405:./Application/Src/menu.c ****                 select_scroll_offset = (fileCount > 5) ? fileCount - 5 : 0;
 406:./Application/Src/menu.c ****         }
 407:./Application/Src/menu.c **** 
 408:./Application/Src/menu.c ****         /* Select a song */
 409:./Application/Src/menu.c ****         if (menu_enter)
 410:./Application/Src/menu.c ****         {
 411:./Application/Src/menu.c ****             menu_enter = 0;
 412:./Application/Src/menu.c ****             if (fileCount > 0)
 413:./Application/Src/menu.c ****             {
 414:./Application/Src/menu.c ****                 active_song_index = select_song_index;
 415:./Application/Src/menu.c ****                 char buf[25];
 416:./Application/Src/menu.c ****                 snprintf(buf, sizeof(buf), "Selected: %-12s  ", fileList[active_song_index].name);
 417:./Application/Src/menu.c ****                 LCD_draw_string(&lcd_config, 0, 9, buf, COLOR_BLACK, COLOR_WHITE);
 418:./Application/Src/menu.c ****             }
 419:./Application/Src/menu.c ****         }
 420:./Application/Src/menu.c **** 
 421:./Application/Src/menu.c ****         menu_draw_select();
 422:./Application/Src/menu.c ****         break;
 423:./Application/Src/menu.c ****     }
 424:./Application/Src/menu.c **** 
 425:./Application/Src/menu.c ****     /* Reset navigation flags */
 426:./Application/Src/menu.c ****     menu_move_down = 0;
 1434              		.loc 1 426 5 view .LVU279
 1435              		.loc 1 426 20 is_stmt 0 view .LVU280
 1436 0034 0023     		movs	r3, #0
 1437 0036 814A     		ldr	r2, .L123+8
 1438 0038 1360     		str	r3, [r2]
 427:./Application/Src/menu.c ****     menu_move_up = 0;
 1439              		.loc 1 427 5 is_stmt 1 view .LVU281
 1440              		.loc 1 427 18 is_stmt 0 view .LVU282
 1441 003a 814A     		ldr	r2, .L123+12
 1442 003c 1360     		str	r3, [r2]
 1443              	.L81:
 428:./Application/Src/menu.c **** }
 1444              		.loc 1 428 1 view .LVU283
 1445 003e 0BB0     		add	sp, sp, #44
 1446              	.LCFI23:
ARM GAS  C:\Users\Xuleo\AppData\Local\Temp\ccAeK8hd.s 			page 38


 1447              		.cfi_remember_state
 1448              		.cfi_def_cfa_offset 12
 1449              		@ sp needed
 1450 0040 30BD     		pop	{r4, r5, pc}
 1451              	.L114:
 1452              	.LCFI24:
 1453              		.cfi_restore_state
 273:./Application/Src/menu.c ****             {
 1454              		.loc 1 273 13 is_stmt 1 view .LVU284
 273:./Application/Src/menu.c ****             {
 1455              		.loc 1 273 16 is_stmt 0 view .LVU285
 1456 0042 012B     		cmp	r3, #1
 1457 0044 18D0     		beq	.L115
 1458              	.L83:
 277:./Application/Src/menu.c ****             {
 1459              		.loc 1 277 13 is_stmt 1 view .LVU286
 277:./Application/Src/menu.c ****             {
 1460              		.loc 1 277 28 is_stmt 0 view .LVU287
 1461 0046 7C4B     		ldr	r3, .L123+4
 1462 0048 1B78     		ldrb	r3, [r3]	@ zero_extendqisi2
 277:./Application/Src/menu.c ****             {
 1463              		.loc 1 277 16 view .LVU288
 1464 004a 022B     		cmp	r3, #2
 1465 004c 1BD0     		beq	.L116
 1466              	.L84:
 284:./Application/Src/menu.c ****             menu_index = 0;
 1467              		.loc 1 284 13 is_stmt 1 view .LVU289
 284:./Application/Src/menu.c ****             menu_index = 0;
 1468              		.loc 1 284 24 is_stmt 0 view .LVU290
 1469 004e 7A4B     		ldr	r3, .L123+4
 1470 0050 4FF00002 		mov	r2, #0
 1471 0054 1A70     		strb	r2, [r3]
 285:./Application/Src/menu.c ****             page_dirty = 1;
 1472              		.loc 1 285 13 is_stmt 1 view .LVU291
 285:./Application/Src/menu.c ****             page_dirty = 1;
 1473              		.loc 1 285 24 is_stmt 0 view .LVU292
 1474 0056 7B4B     		ldr	r3, .L123+16
 1475 0058 0024     		movs	r4, #0
 1476 005a 1C60     		str	r4, [r3]
 286:./Application/Src/menu.c ****             clear_menu_area();
 1477              		.loc 1 286 13 is_stmt 1 view .LVU293
 286:./Application/Src/menu.c ****             clear_menu_area();
 1478              		.loc 1 286 24 is_stmt 0 view .LVU294
 1479 005c 7A4B     		ldr	r3, .L123+20
 1480 005e 0122     		movs	r2, #1
 1481 0060 1A60     		str	r2, [r3]
 287:./Application/Src/menu.c ****             menu_draw_main();
 1482              		.loc 1 287 13 is_stmt 1 view .LVU295
 1483 0062 FFF7FEFF 		bl	clear_menu_area
 1484              	.LVL114:
 288:./Application/Src/menu.c ****             /* Consume stale nav flags */
 1485              		.loc 1 288 13 view .LVU296
 1486 0066 FFF7FEFF 		bl	menu_draw_main
 1487              	.LVL115:
 290:./Application/Src/menu.c ****             menu_move_up = 0;
 1488              		.loc 1 290 13 view .LVU297
 290:./Application/Src/menu.c ****             menu_move_up = 0;
ARM GAS  C:\Users\Xuleo\AppData\Local\Temp\ccAeK8hd.s 			page 39


 1489              		.loc 1 290 28 is_stmt 0 view .LVU298
 1490 006a 744B     		ldr	r3, .L123+8
 1491 006c 1C60     		str	r4, [r3]
 291:./Application/Src/menu.c ****             menu_enter = 0;
 1492              		.loc 1 291 13 is_stmt 1 view .LVU299
 291:./Application/Src/menu.c ****             menu_enter = 0;
 1493              		.loc 1 291 26 is_stmt 0 view .LVU300
 1494 006e 744B     		ldr	r3, .L123+12
 1495 0070 1C60     		str	r4, [r3]
 292:./Application/Src/menu.c ****             return;
 1496              		.loc 1 292 13 is_stmt 1 view .LVU301
 292:./Application/Src/menu.c ****             return;
 1497              		.loc 1 292 24 is_stmt 0 view .LVU302
 1498 0072 764B     		ldr	r3, .L123+24
 1499 0074 1C60     		str	r4, [r3]
 293:./Application/Src/menu.c ****         }
 1500              		.loc 1 293 13 is_stmt 1 view .LVU303
 1501 0076 E2E7     		b	.L81
 1502              	.L115:
 273:./Application/Src/menu.c ****             {
 1503              		.loc 1 273 54 is_stmt 0 discriminator 1 view .LVU304
 1504 0078 FFF7FEFF 		bl	FT_GetState
 1505              	.LVL116:
 273:./Application/Src/menu.c ****             {
 1506              		.loc 1 273 51 discriminator 2 view .LVU305
 1507 007c 0128     		cmp	r0, #1
 1508 007e E2D1     		bne	.L83
 275:./Application/Src/menu.c ****             }
 1509              		.loc 1 275 17 is_stmt 1 view .LVU306
 1510 0080 FFF7FEFF 		bl	FT_Abort
 1511              	.LVL117:
 1512 0084 DFE7     		b	.L83
 1513              	.L116:
 279:./Application/Src/menu.c ****                 ram_rx_complete = 0;
 1514              		.loc 1 279 17 view .LVU307
 279:./Application/Src/menu.c ****                 ram_rx_complete = 0;
 1515              		.loc 1 279 32 is_stmt 0 view .LVU308
 1516 0086 0023     		movs	r3, #0
 1517 0088 714A     		ldr	r2, .L123+28
 1518 008a 1360     		str	r3, [r2]
 280:./Application/Src/menu.c ****                 ram_rx_offset = 0;
 1519              		.loc 1 280 17 is_stmt 1 view .LVU309
 280:./Application/Src/menu.c ****                 ram_rx_offset = 0;
 1520              		.loc 1 280 33 is_stmt 0 view .LVU310
 1521 008c 714A     		ldr	r2, .L123+32
 1522 008e 1360     		str	r3, [r2]
 281:./Application/Src/menu.c ****                 redirect_to_ram = 0;
 1523              		.loc 1 281 17 is_stmt 1 view .LVU311
 281:./Application/Src/menu.c ****                 redirect_to_ram = 0;
 1524              		.loc 1 281 31 is_stmt 0 view .LVU312
 1525 0090 714A     		ldr	r2, .L123+36
 1526 0092 1360     		str	r3, [r2]
 282:./Application/Src/menu.c ****             }
 1527              		.loc 1 282 17 is_stmt 1 view .LVU313
 282:./Application/Src/menu.c ****             }
 1528              		.loc 1 282 33 is_stmt 0 view .LVU314
 1529 0094 714A     		ldr	r2, .L123+40
ARM GAS  C:\Users\Xuleo\AppData\Local\Temp\ccAeK8hd.s 			page 40


 1530 0096 1360     		str	r3, [r2]
 1531 0098 D9E7     		b	.L84
 1532              	.L87:
 298:./Application/Src/menu.c ****     {
 1533              		.loc 1 298 5 view .LVU315
 1534 009a 032B     		cmp	r3, #3
 1535 009c CAD1     		bne	.L90
 379:./Application/Src/menu.c ****         {
 1536              		.loc 1 379 9 is_stmt 1 view .LVU316
 379:./Application/Src/menu.c ****         {
 1537              		.loc 1 379 13 is_stmt 0 view .LVU317
 1538 009e 674B     		ldr	r3, .L123+8
 1539 00a0 1B68     		ldr	r3, [r3]
 379:./Application/Src/menu.c ****         {
 1540              		.loc 1 379 12 view .LVU318
 1541 00a2 F3B1     		cbz	r3, .L102
 381:./Application/Src/menu.c ****             if (select_song_index >= fileCount)
 1542              		.loc 1 381 13 is_stmt 1 view .LVU319
 381:./Application/Src/menu.c ****             if (select_song_index >= fileCount)
 1543              		.loc 1 381 30 is_stmt 0 view .LVU320
 1544 00a4 6E4A     		ldr	r2, .L123+44
 1545 00a6 1368     		ldr	r3, [r2]
 1546 00a8 0133     		adds	r3, r3, #1
 1547 00aa 1360     		str	r3, [r2]
 382:./Application/Src/menu.c ****                 select_song_index = 0;
 1548              		.loc 1 382 13 is_stmt 1 view .LVU321
 382:./Application/Src/menu.c ****                 select_song_index = 0;
 1549              		.loc 1 382 35 is_stmt 0 view .LVU322
 1550 00ac 6D4A     		ldr	r2, .L123+48
 1551 00ae 1278     		ldrb	r2, [r2]	@ zero_extendqisi2
 382:./Application/Src/menu.c ****                 select_song_index = 0;
 1552              		.loc 1 382 16 view .LVU323
 1553 00b0 9342     		cmp	r3, r2
 1554 00b2 02DB     		blt	.L103
 383:./Application/Src/menu.c ****             /* Adjust scroll window */
 1555              		.loc 1 383 17 is_stmt 1 view .LVU324
 383:./Application/Src/menu.c ****             /* Adjust scroll window */
 1556              		.loc 1 383 35 is_stmt 0 view .LVU325
 1557 00b4 6A4B     		ldr	r3, .L123+44
 1558 00b6 0022     		movs	r2, #0
 1559 00b8 1A60     		str	r2, [r3]
 1560              	.L103:
 385:./Application/Src/menu.c ****                 select_scroll_offset = select_song_index - 4;
 1561              		.loc 1 385 13 is_stmt 1 view .LVU326
 385:./Application/Src/menu.c ****                 select_scroll_offset = select_song_index - 4;
 1562              		.loc 1 385 35 is_stmt 0 view .LVU327
 1563 00ba 6B4B     		ldr	r3, .L123+52
 1564 00bc 1A68     		ldr	r2, [r3]
 1565 00be 0432     		adds	r2, r2, #4
 1566 00c0 674B     		ldr	r3, .L123+44
 1567 00c2 1B68     		ldr	r3, [r3]
 385:./Application/Src/menu.c ****                 select_scroll_offset = select_song_index - 4;
 1568              		.loc 1 385 16 view .LVU328
 1569 00c4 9A42     		cmp	r2, r3
 1570 00c6 02DA     		bge	.L104
 386:./Application/Src/menu.c ****             if (select_song_index < select_scroll_offset)
 1571              		.loc 1 386 17 is_stmt 1 view .LVU329
ARM GAS  C:\Users\Xuleo\AppData\Local\Temp\ccAeK8hd.s 			page 41


 386:./Application/Src/menu.c ****             if (select_song_index < select_scroll_offset)
 1572              		.loc 1 386 58 is_stmt 0 view .LVU330
 1573 00c8 1A1F     		subs	r2, r3, #4
 386:./Application/Src/menu.c ****             if (select_song_index < select_scroll_offset)
 1574              		.loc 1 386 38 view .LVU331
 1575 00ca 6749     		ldr	r1, .L123+52
 1576 00cc 0A60     		str	r2, [r1]
 1577              	.L104:
 387:./Application/Src/menu.c ****                 select_scroll_offset = select_song_index;
 1578              		.loc 1 387 13 is_stmt 1 view .LVU332
 387:./Application/Src/menu.c ****                 select_scroll_offset = select_song_index;
 1579              		.loc 1 387 35 is_stmt 0 view .LVU333
 1580 00ce 664A     		ldr	r2, .L123+52
 1581 00d0 1268     		ldr	r2, [r2]
 387:./Application/Src/menu.c ****                 select_scroll_offset = select_song_index;
 1582              		.loc 1 387 16 view .LVU334
 1583 00d2 9342     		cmp	r3, r2
 1584 00d4 01DA     		bge	.L105
 388:./Application/Src/menu.c ****             /* Handle wrap-around */
 1585              		.loc 1 388 17 is_stmt 1 view .LVU335
 388:./Application/Src/menu.c ****             /* Handle wrap-around */
 1586              		.loc 1 388 38 is_stmt 0 view .LVU336
 1587 00d6 644A     		ldr	r2, .L123+52
 1588 00d8 1360     		str	r3, [r2]
 1589              	.L105:
 390:./Application/Src/menu.c ****                 select_scroll_offset = 0;
 1590              		.loc 1 390 13 is_stmt 1 view .LVU337
 390:./Application/Src/menu.c ****                 select_scroll_offset = 0;
 1591              		.loc 1 390 16 is_stmt 0 view .LVU338
 1592 00da 13B9     		cbnz	r3, .L102
 391:./Application/Src/menu.c ****         }
 1593              		.loc 1 391 17 is_stmt 1 view .LVU339
 391:./Application/Src/menu.c ****         }
 1594              		.loc 1 391 38 is_stmt 0 view .LVU340
 1595 00dc 624B     		ldr	r3, .L123+52
 1596 00de 0022     		movs	r2, #0
 1597 00e0 1A60     		str	r2, [r3]
 1598              	.L102:
 393:./Application/Src/menu.c ****         {
 1599              		.loc 1 393 9 is_stmt 1 view .LVU341
 393:./Application/Src/menu.c ****         {
 1600              		.loc 1 393 13 is_stmt 0 view .LVU342
 1601 00e2 574B     		ldr	r3, .L123+12
 1602 00e4 1B68     		ldr	r3, [r3]
 393:./Application/Src/menu.c ****         {
 1603              		.loc 1 393 12 view .LVU343
 1604 00e6 E3B1     		cbz	r3, .L106
 395:./Application/Src/menu.c ****             if (select_song_index < 0)
 1605              		.loc 1 395 13 is_stmt 1 view .LVU344
 395:./Application/Src/menu.c ****             if (select_song_index < 0)
 1606              		.loc 1 395 30 is_stmt 0 view .LVU345
 1607 00e8 5D4A     		ldr	r2, .L123+44
 1608 00ea 1368     		ldr	r3, [r2]
 1609 00ec 013B     		subs	r3, r3, #1
 1610 00ee 1360     		str	r3, [r2]
 396:./Application/Src/menu.c ****                 select_song_index = fileCount - 1;
 1611              		.loc 1 396 13 is_stmt 1 view .LVU346
ARM GAS  C:\Users\Xuleo\AppData\Local\Temp\ccAeK8hd.s 			page 42


 396:./Application/Src/menu.c ****                 select_song_index = fileCount - 1;
 1612              		.loc 1 396 16 is_stmt 0 view .LVU347
 1613 00f0 002B     		cmp	r3, #0
 1614 00f2 C0F2D180 		blt	.L117
 1615              	.L107:
 399:./Application/Src/menu.c ****                 select_scroll_offset = select_song_index;
 1616              		.loc 1 399 13 is_stmt 1 view .LVU348
 399:./Application/Src/menu.c ****                 select_scroll_offset = select_song_index;
 1617              		.loc 1 399 35 is_stmt 0 view .LVU349
 1618 00f6 5A4B     		ldr	r3, .L123+44
 1619 00f8 1B68     		ldr	r3, [r3]
 1620 00fa 5B4A     		ldr	r2, .L123+52
 1621 00fc 1268     		ldr	r2, [r2]
 399:./Application/Src/menu.c ****                 select_scroll_offset = select_song_index;
 1622              		.loc 1 399 16 view .LVU350
 1623 00fe 9342     		cmp	r3, r2
 1624 0100 01DA     		bge	.L108
 400:./Application/Src/menu.c ****             if (select_song_index >= select_scroll_offset + 5)
 1625              		.loc 1 400 17 is_stmt 1 view .LVU351
 400:./Application/Src/menu.c ****             if (select_song_index >= select_scroll_offset + 5)
 1626              		.loc 1 400 38 is_stmt 0 view .LVU352
 1627 0102 594A     		ldr	r2, .L123+52
 1628 0104 1360     		str	r3, [r2]
 1629              	.L108:
 401:./Application/Src/menu.c ****                 select_scroll_offset = select_song_index - 4;
 1630              		.loc 1 401 13 is_stmt 1 view .LVU353
 401:./Application/Src/menu.c ****                 select_scroll_offset = select_song_index - 4;
 1631              		.loc 1 401 35 is_stmt 0 view .LVU354
 1632 0106 584A     		ldr	r2, .L123+52
 1633 0108 1268     		ldr	r2, [r2]
 1634 010a 0432     		adds	r2, r2, #4
 401:./Application/Src/menu.c ****                 select_scroll_offset = select_song_index - 4;
 1635              		.loc 1 401 16 view .LVU355
 1636 010c 9342     		cmp	r3, r2
 1637 010e 02DD     		ble	.L109
 402:./Application/Src/menu.c ****             /* Handle wrap-around */
 1638              		.loc 1 402 17 is_stmt 1 view .LVU356
 402:./Application/Src/menu.c ****             /* Handle wrap-around */
 1639              		.loc 1 402 58 is_stmt 0 view .LVU357
 1640 0110 1A1F     		subs	r2, r3, #4
 402:./Application/Src/menu.c ****             /* Handle wrap-around */
 1641              		.loc 1 402 38 view .LVU358
 1642 0112 5549     		ldr	r1, .L123+52
 1643 0114 0A60     		str	r2, [r1]
 1644              	.L109:
 404:./Application/Src/menu.c ****                 select_scroll_offset = (fileCount > 5) ? fileCount - 5 : 0;
 1645              		.loc 1 404 13 is_stmt 1 view .LVU359
 404:./Application/Src/menu.c ****                 select_scroll_offset = (fileCount > 5) ? fileCount - 5 : 0;
 1646              		.loc 1 404 48 is_stmt 0 view .LVU360
 1647 0116 534A     		ldr	r2, .L123+48
 1648 0118 1278     		ldrb	r2, [r2]	@ zero_extendqisi2
 1649 011a 511E     		subs	r1, r2, #1
 404:./Application/Src/menu.c ****                 select_scroll_offset = (fileCount > 5) ? fileCount - 5 : 0;
 1650              		.loc 1 404 16 view .LVU361
 1651 011c 8B42     		cmp	r3, r1
 1652 011e 00F0C080 		beq	.L118
 1653              	.L106:
ARM GAS  C:\Users\Xuleo\AppData\Local\Temp\ccAeK8hd.s 			page 43


 409:./Application/Src/menu.c ****         {
 1654              		.loc 1 409 9 is_stmt 1 view .LVU362
 409:./Application/Src/menu.c ****         {
 1655              		.loc 1 409 13 is_stmt 0 view .LVU363
 1656 0122 4A4B     		ldr	r3, .L123+24
 1657 0124 1B68     		ldr	r3, [r3]
 409:./Application/Src/menu.c ****         {
 1658              		.loc 1 409 12 view .LVU364
 1659 0126 3BB1     		cbz	r3, .L111
 411:./Application/Src/menu.c ****             if (fileCount > 0)
 1660              		.loc 1 411 13 is_stmt 1 view .LVU365
 411:./Application/Src/menu.c ****             if (fileCount > 0)
 1661              		.loc 1 411 24 is_stmt 0 view .LVU366
 1662 0128 484B     		ldr	r3, .L123+24
 1663 012a 0022     		movs	r2, #0
 1664 012c 1A60     		str	r2, [r3]
 412:./Application/Src/menu.c ****             {
 1665              		.loc 1 412 13 is_stmt 1 view .LVU367
 412:./Application/Src/menu.c ****             {
 1666              		.loc 1 412 27 is_stmt 0 view .LVU368
 1667 012e 4D4B     		ldr	r3, .L123+48
 1668 0130 1B78     		ldrb	r3, [r3]	@ zero_extendqisi2
 412:./Application/Src/menu.c ****             {
 1669              		.loc 1 412 16 view .LVU369
 1670 0132 002B     		cmp	r3, #0
 1671 0134 40F0BD80 		bne	.L119
 1672              	.L111:
 421:./Application/Src/menu.c ****         break;
 1673              		.loc 1 421 9 is_stmt 1 view .LVU370
 1674 0138 FFF7FEFF 		bl	menu_draw_select
 1675              	.LVL118:
 422:./Application/Src/menu.c ****     }
 1676              		.loc 1 422 9 view .LVU371
 1677 013c 7AE7     		b	.L90
 1678              	.L88:
 304:./Application/Src/menu.c ****         {
 1679              		.loc 1 304 9 view .LVU372
 304:./Application/Src/menu.c ****         {
 1680              		.loc 1 304 13 is_stmt 0 view .LVU373
 1681 013e 3F4B     		ldr	r3, .L123+8
 1682 0140 1B68     		ldr	r3, [r3]
 304:./Application/Src/menu.c ****         {
 1683              		.loc 1 304 12 view .LVU374
 1684 0142 43B1     		cbz	r3, .L92
 306:./Application/Src/menu.c ****             if (menu_index > 4)
 1685              		.loc 1 306 13 is_stmt 1 view .LVU375
 306:./Application/Src/menu.c ****             if (menu_index > 4)
 1686              		.loc 1 306 23 is_stmt 0 view .LVU376
 1687 0144 3F4A     		ldr	r2, .L123+16
 1688 0146 1368     		ldr	r3, [r2]
 1689 0148 0133     		adds	r3, r3, #1
 1690 014a 1360     		str	r3, [r2]
 307:./Application/Src/menu.c ****                 menu_index = 0;
 1691              		.loc 1 307 13 is_stmt 1 view .LVU377
 307:./Application/Src/menu.c ****                 menu_index = 0;
 1692              		.loc 1 307 16 is_stmt 0 view .LVU378
 1693 014c 042B     		cmp	r3, #4
ARM GAS  C:\Users\Xuleo\AppData\Local\Temp\ccAeK8hd.s 			page 44


 1694 014e 02DD     		ble	.L92
 308:./Application/Src/menu.c ****         }
 1695              		.loc 1 308 17 is_stmt 1 view .LVU379
 308:./Application/Src/menu.c ****         }
 1696              		.loc 1 308 28 is_stmt 0 view .LVU380
 1697 0150 1346     		mov	r3, r2
 1698 0152 0022     		movs	r2, #0
 1699 0154 1A60     		str	r2, [r3]
 1700              	.L92:
 310:./Application/Src/menu.c ****         {
 1701              		.loc 1 310 9 is_stmt 1 view .LVU381
 310:./Application/Src/menu.c ****         {
 1702              		.loc 1 310 13 is_stmt 0 view .LVU382
 1703 0156 3A4B     		ldr	r3, .L123+12
 1704 0158 1B68     		ldr	r3, [r3]
 310:./Application/Src/menu.c ****         {
 1705              		.loc 1 310 12 view .LVU383
 1706 015a 2BB1     		cbz	r3, .L93
 312:./Application/Src/menu.c ****             if (menu_index < 0)
 1707              		.loc 1 312 13 is_stmt 1 view .LVU384
 312:./Application/Src/menu.c ****             if (menu_index < 0)
 1708              		.loc 1 312 23 is_stmt 0 view .LVU385
 1709 015c 394A     		ldr	r2, .L123+16
 1710 015e 1368     		ldr	r3, [r2]
 1711 0160 013B     		subs	r3, r3, #1
 1712 0162 1360     		str	r3, [r2]
 313:./Application/Src/menu.c ****                 menu_index = 4;
 1713              		.loc 1 313 13 is_stmt 1 view .LVU386
 313:./Application/Src/menu.c ****                 menu_index = 4;
 1714              		.loc 1 313 16 is_stmt 0 view .LVU387
 1715 0164 002B     		cmp	r3, #0
 1716 0166 25DB     		blt	.L120
 1717              	.L93:
 318:./Application/Src/menu.c ****         {
 1718              		.loc 1 318 9 is_stmt 1 view .LVU388
 318:./Application/Src/menu.c ****         {
 1719              		.loc 1 318 13 is_stmt 0 view .LVU389
 1720 0168 384B     		ldr	r3, .L123+24
 1721 016a 1B68     		ldr	r3, [r3]
 318:./Application/Src/menu.c ****         {
 1722              		.loc 1 318 12 view .LVU390
 1723 016c 002B     		cmp	r3, #0
 1724 016e 2FD0     		beq	.L94
 320:./Application/Src/menu.c ****             switch (menu_index)
 1725              		.loc 1 320 13 is_stmt 1 view .LVU391
 320:./Application/Src/menu.c ****             switch (menu_index)
 1726              		.loc 1 320 24 is_stmt 0 view .LVU392
 1727 0170 364B     		ldr	r3, .L123+24
 1728 0172 0022     		movs	r2, #0
 1729 0174 1A60     		str	r2, [r3]
 321:./Application/Src/menu.c ****             {
 1730              		.loc 1 321 13 is_stmt 1 view .LVU393
 1731 0176 334B     		ldr	r3, .L123+16
 1732 0178 1B68     		ldr	r3, [r3]
 1733 017a 022B     		cmp	r3, #2
 1734 017c 49D0     		beq	.L95
 1735 017e 1DDD     		ble	.L121
ARM GAS  C:\Users\Xuleo\AppData\Local\Temp\ccAeK8hd.s 			page 45


 1736 0180 032B     		cmp	r3, #3
 1737 0182 7FD0     		beq	.L99
 1738 0184 042B     		cmp	r3, #4
 1739 0186 23D1     		bne	.L94
 353:./Application/Src/menu.c ****                     homing_procedure();
 1740              		.loc 1 353 21 view .LVU394
 1741 0188 4FF6FF74 		movw	r4, #65535
 1742 018c 0194     		str	r4, [sp, #4]
 1743 018e 0025     		movs	r5, #0
 1744 0190 0095     		str	r5, [sp]
 1745 0192 364B     		ldr	r3, .L123+56
 1746 0194 0922     		movs	r2, #9
 1747 0196 2946     		mov	r1, r5
 1748 0198 3548     		ldr	r0, .L123+60
 1749 019a FFF7FEFF 		bl	LCD_draw_string
 1750              	.LVL119:
 354:./Application/Src/menu.c ****                     LCD_draw_string(&lcd_config, 0, 9, "Homing done!            ", COLOR_BLACK, COL
 1751              		.loc 1 354 21 view .LVU395
 1752 019e FFF7FEFF 		bl	homing_procedure
 1753              	.LVL120:
 355:./Application/Src/menu.c ****                     break;
 1754              		.loc 1 355 21 view .LVU396
 1755 01a2 0194     		str	r4, [sp, #4]
 1756 01a4 0095     		str	r5, [sp]
 1757 01a6 334B     		ldr	r3, .L123+64
 1758 01a8 0922     		movs	r2, #9
 1759 01aa 2946     		mov	r1, r5
 1760 01ac 3048     		ldr	r0, .L123+60
 1761 01ae FFF7FEFF 		bl	LCD_draw_string
 1762              	.LVL121:
 356:./Application/Src/menu.c ****             }
 1763              		.loc 1 356 21 view .LVU397
 1764 01b2 0DE0     		b	.L94
 1765              	.L120:
 314:./Application/Src/menu.c ****         }
 1766              		.loc 1 314 17 view .LVU398
 314:./Application/Src/menu.c ****         }
 1767              		.loc 1 314 28 is_stmt 0 view .LVU399
 1768 01b4 1346     		mov	r3, r2
 1769 01b6 0422     		movs	r2, #4
 1770 01b8 1A60     		str	r2, [r3]
 1771 01ba D5E7     		b	.L93
 1772              	.L121:
 321:./Application/Src/menu.c ****             {
 1773              		.loc 1 321 13 view .LVU400
 1774 01bc 5BB1     		cbz	r3, .L97
 1775 01be 012B     		cmp	r3, #1
 1776 01c0 06D1     		bne	.L94
 336:./Application/Src/menu.c ****                     page_dirty = 1;
 1777              		.loc 1 336 21 is_stmt 1 view .LVU401
 336:./Application/Src/menu.c ****                     page_dirty = 1;
 1778              		.loc 1 336 32 is_stmt 0 view .LVU402
 1779 01c2 0123     		movs	r3, #1
 1780 01c4 1C4A     		ldr	r2, .L123+4
 1781 01c6 1370     		strb	r3, [r2]
 337:./Application/Src/menu.c ****                     FT_Init(); /* Reset transfer state */
 1782              		.loc 1 337 21 is_stmt 1 view .LVU403
ARM GAS  C:\Users\Xuleo\AppData\Local\Temp\ccAeK8hd.s 			page 46


 337:./Application/Src/menu.c ****                     FT_Init(); /* Reset transfer state */
 1783              		.loc 1 337 32 is_stmt 0 view .LVU404
 1784 01c8 1F4A     		ldr	r2, .L123+20
 1785 01ca 1360     		str	r3, [r2]
 338:./Application/Src/menu.c ****                     break;
 1786              		.loc 1 338 21 is_stmt 1 view .LVU405
 1787 01cc FFF7FEFF 		bl	FT_Init
 1788              	.LVL122:
 339:./Application/Src/menu.c ****                 case 2: /* Transmit Song to RAM */
 1789              		.loc 1 339 21 view .LVU406
 1790              	.L94:
 360:./Application/Src/menu.c ****         break;
 1791              		.loc 1 360 9 view .LVU407
 1792 01d0 FFF7FEFF 		bl	menu_draw_main
 1793              	.LVL123:
 361:./Application/Src/menu.c **** 
 1794              		.loc 1 361 9 view .LVU408
 1795 01d4 2EE7     		b	.L90
 1796              	.L97:
 325:./Application/Src/menu.c ****                     {
 1797              		.loc 1 325 21 view .LVU409
 325:./Application/Src/menu.c ****                     {
 1798              		.loc 1 325 43 is_stmt 0 view .LVU410
 1799 01d6 284B     		ldr	r3, .L123+68
 1800 01d8 1B68     		ldr	r3, [r3]
 325:./Application/Src/menu.c ****                     {
 1801              		.loc 1 325 24 view .LVU411
 1802 01da 002B     		cmp	r3, #0
 1803 01dc 03DB     		blt	.L101
 325:./Application/Src/menu.c ****                     {
 1804              		.loc 1 325 69 discriminator 1 view .LVU412
 1805 01de 214A     		ldr	r2, .L123+48
 1806 01e0 1278     		ldrb	r2, [r2]	@ zero_extendqisi2
 325:./Application/Src/menu.c ****                     {
 1807              		.loc 1 325 48 discriminator 1 view .LVU413
 1808 01e2 9342     		cmp	r3, r2
 1809 01e4 0ADB     		blt	.L122
 1810              	.L101:
 332:./Application/Src/menu.c ****                     }
 1811              		.loc 1 332 25 is_stmt 1 view .LVU414
 1812 01e6 4FF6FF73 		movw	r3, #65535
 1813 01ea 0193     		str	r3, [sp, #4]
 1814 01ec 0021     		movs	r1, #0
 1815 01ee 0091     		str	r1, [sp]
 1816 01f0 224B     		ldr	r3, .L123+72
 1817 01f2 0922     		movs	r2, #9
 1818 01f4 1E48     		ldr	r0, .L123+60
 1819 01f6 FFF7FEFF 		bl	LCD_draw_string
 1820              	.LVL124:
 1821 01fa E9E7     		b	.L94
 1822              	.L122:
 327:./Application/Src/menu.c ****                         /* TODO: hook into traversal_song with the selected file */
 1823              		.loc 1 327 25 view .LVU415
 1824 01fc 4FF6FF73 		movw	r3, #65535
 1825 0200 0193     		str	r3, [sp, #4]
 1826 0202 0021     		movs	r1, #0
 1827 0204 0091     		str	r1, [sp]
ARM GAS  C:\Users\Xuleo\AppData\Local\Temp\ccAeK8hd.s 			page 47


 1828 0206 1E4B     		ldr	r3, .L123+76
 1829 0208 0922     		movs	r2, #9
 1830 020a 1948     		ldr	r0, .L123+60
 1831 020c FFF7FEFF 		bl	LCD_draw_string
 1832              	.LVL125:
 1833 0210 DEE7     		b	.L94
 1834              	.L95:
 341:./Application/Src/menu.c ****                     page_dirty = 1;
 1835              		.loc 1 341 21 view .LVU416
 341:./Application/Src/menu.c ****                     page_dirty = 1;
 1836              		.loc 1 341 32 is_stmt 0 view .LVU417
 1837 0212 094B     		ldr	r3, .L123+4
 1838 0214 0222     		movs	r2, #2
 1839 0216 1A70     		strb	r2, [r3]
 342:./Application/Src/menu.c ****                     redirect_to_ram = 1;
 1840              		.loc 1 342 21 is_stmt 1 view .LVU418
 342:./Application/Src/menu.c ****                     redirect_to_ram = 1;
 1841              		.loc 1 342 32 is_stmt 0 view .LVU419
 1842 0218 0123     		movs	r3, #1
 1843 021a 0B4A     		ldr	r2, .L123+20
 1844 021c 1360     		str	r3, [r2]
 343:./Application/Src/menu.c ****                     ram_rx_started = 0;
 1845              		.loc 1 343 21 is_stmt 1 view .LVU420
 343:./Application/Src/menu.c ****                     ram_rx_started = 0;
 1846              		.loc 1 343 37 is_stmt 0 view .LVU421
 1847 021e 0F4A     		ldr	r2, .L123+40
 1848 0220 1360     		str	r3, [r2]
 344:./Application/Src/menu.c ****                     ram_rx_complete = 0;
 1849              		.loc 1 344 21 is_stmt 1 view .LVU422
 344:./Application/Src/menu.c ****                     ram_rx_complete = 0;
 1850              		.loc 1 344 36 is_stmt 0 view .LVU423
 1851 0222 0023     		movs	r3, #0
 1852 0224 0A4A     		ldr	r2, .L123+28
 1853 0226 1360     		str	r3, [r2]
 345:./Application/Src/menu.c ****                     ram_rx_offset = 0;
 1854              		.loc 1 345 21 is_stmt 1 view .LVU424
 345:./Application/Src/menu.c ****                     ram_rx_offset = 0;
 1855              		.loc 1 345 37 is_stmt 0 view .LVU425
 1856 0228 0A4A     		ldr	r2, .L123+32
 1857 022a 1360     		str	r3, [r2]
 346:./Application/Src/menu.c ****                     break;
 1858              		.loc 1 346 21 is_stmt 1 view .LVU426
 346:./Application/Src/menu.c ****                     break;
 1859              		.loc 1 346 35 is_stmt 0 view .LVU427
 1860 022c 0A4A     		ldr	r2, .L123+36
 1861 022e 1360     		str	r3, [r2]
 347:./Application/Src/menu.c ****                 case 3: /* Select Song */
 1862              		.loc 1 347 21 is_stmt 1 view .LVU428
 1863 0230 CEE7     		b	.L94
 1864              	.L124:
 1865 0232 00BF     		.align	2
 1866              	.L123:
 1867 0234 00000000 		.word	menu_back
 1868 0238 00000000 		.word	menu_state
 1869 023c 00000000 		.word	menu_move_down
 1870 0240 00000000 		.word	menu_move_up
 1871 0244 00000000 		.word	menu_index
ARM GAS  C:\Users\Xuleo\AppData\Local\Temp\ccAeK8hd.s 			page 48


 1872 0248 00000000 		.word	page_dirty
 1873 024c 00000000 		.word	menu_enter
 1874 0250 00000000 		.word	ram_rx_started
 1875 0254 00000000 		.word	ram_rx_complete
 1876 0258 00000000 		.word	ram_rx_offset
 1877 025c 00000000 		.word	redirect_to_ram
 1878 0260 00000000 		.word	select_song_index
 1879 0264 00000000 		.word	fileCount
 1880 0268 00000000 		.word	select_scroll_offset
 1881 026c 38000000 		.word	.LC37
 1882 0270 00000000 		.word	lcd_config
 1883 0274 54000000 		.word	.LC38
 1884 0278 00000000 		.word	active_song_index
 1885 027c 1C000000 		.word	.LC36
 1886 0280 00000000 		.word	.LC35
 1887              	.L99:
 349:./Application/Src/menu.c ****                     page_dirty = 1;
 1888              		.loc 1 349 21 view .LVU429
 349:./Application/Src/menu.c ****                     page_dirty = 1;
 1889              		.loc 1 349 32 is_stmt 0 view .LVU430
 1890 0284 174B     		ldr	r3, .L125
 1891 0286 0322     		movs	r2, #3
 1892 0288 1A70     		strb	r2, [r3]
 350:./Application/Src/menu.c ****                     break;
 1893              		.loc 1 350 21 is_stmt 1 view .LVU431
 350:./Application/Src/menu.c ****                     break;
 1894              		.loc 1 350 32 is_stmt 0 view .LVU432
 1895 028a 174B     		ldr	r3, .L125+4
 1896 028c 0122     		movs	r2, #1
 1897 028e 1A60     		str	r2, [r3]
 351:./Application/Src/menu.c ****                 case 4: /* Homing */
 1898              		.loc 1 351 21 is_stmt 1 view .LVU433
 1899 0290 9EE7     		b	.L94
 1900              	.L86:
 373:./Application/Src/menu.c ****         break;
 1901              		.loc 1 373 9 view .LVU434
 1902 0292 FFF7FEFF 		bl	menu_draw_transmit_ram
 1903              	.LVL126:
 374:./Application/Src/menu.c **** 
 1904              		.loc 1 374 9 view .LVU435
 1905 0296 CDE6     		b	.L90
 1906              	.L117:
 397:./Application/Src/menu.c ****             /* Adjust scroll window */
 1907              		.loc 1 397 17 view .LVU436
 397:./Application/Src/menu.c ****             /* Adjust scroll window */
 1908              		.loc 1 397 47 is_stmt 0 view .LVU437
 1909 0298 144B     		ldr	r3, .L125+8
 1910 029a 1B78     		ldrb	r3, [r3]	@ zero_extendqisi2
 1911 029c 013B     		subs	r3, r3, #1
 397:./Application/Src/menu.c ****             /* Adjust scroll window */
 1912              		.loc 1 397 35 view .LVU438
 1913 029e 1360     		str	r3, [r2]
 1914 02a0 29E7     		b	.L107
 1915              	.L118:
 405:./Application/Src/menu.c ****         }
 1916              		.loc 1 405 17 is_stmt 1 view .LVU439
 405:./Application/Src/menu.c ****         }
ARM GAS  C:\Users\Xuleo\AppData\Local\Temp\ccAeK8hd.s 			page 49


 1917              		.loc 1 405 72 is_stmt 0 view .LVU440
 1918 02a2 052A     		cmp	r2, #5
 1919 02a4 01D9     		bls	.L112
 405:./Application/Src/menu.c ****         }
 1920              		.loc 1 405 72 discriminator 1 view .LVU441
 1921 02a6 053A     		subs	r2, r2, #5
 1922 02a8 00E0     		b	.L110
 1923              	.L112:
 405:./Application/Src/menu.c ****         }
 1924              		.loc 1 405 72 discriminator 2 view .LVU442
 1925 02aa 0022     		movs	r2, #0
 1926              	.L110:
 405:./Application/Src/menu.c ****         }
 1927              		.loc 1 405 38 discriminator 4 view .LVU443
 1928 02ac 104B     		ldr	r3, .L125+12
 1929 02ae 1A60     		str	r2, [r3]
 1930 02b0 37E7     		b	.L106
 1931              	.L119:
 1932              	.LBB18:
 414:./Application/Src/menu.c ****                 char buf[25];
 1933              		.loc 1 414 17 is_stmt 1 view .LVU444
 414:./Application/Src/menu.c ****                 char buf[25];
 1934              		.loc 1 414 35 is_stmt 0 view .LVU445
 1935 02b2 104B     		ldr	r3, .L125+16
 1936 02b4 1B68     		ldr	r3, [r3]
 1937 02b6 104A     		ldr	r2, .L125+20
 1938 02b8 1360     		str	r3, [r2]
 415:./Application/Src/menu.c ****                 snprintf(buf, sizeof(buf), "Selected: %-12s  ", fileList[active_song_index].name);
 1939              		.loc 1 415 17 is_stmt 1 view .LVU446
 416:./Application/Src/menu.c ****                 LCD_draw_string(&lcd_config, 0, 9, buf, COLOR_BLACK, COLOR_WHITE);
 1940              		.loc 1 416 17 view .LVU447
 416:./Application/Src/menu.c ****                 LCD_draw_string(&lcd_config, 0, 9, buf, COLOR_BLACK, COLOR_WHITE);
 1941              		.loc 1 416 92 is_stmt 0 view .LVU448
 1942 02ba 03EB8303 		add	r3, r3, r3, lsl #2
 416:./Application/Src/menu.c ****                 LCD_draw_string(&lcd_config, 0, 9, buf, COLOR_BLACK, COLOR_WHITE);
 1943              		.loc 1 416 17 view .LVU449
 1944 02be 0F4A     		ldr	r2, .L125+24
 1945 02c0 02EB8303 		add	r3, r2, r3, lsl #2
 1946 02c4 0E4A     		ldr	r2, .L125+28
 1947 02c6 1921     		movs	r1, #25
 1948 02c8 03A8     		add	r0, sp, #12
 1949 02ca FFF7FEFF 		bl	snprintf
 1950              	.LVL127:
 417:./Application/Src/menu.c ****             }
 1951              		.loc 1 417 17 is_stmt 1 view .LVU450
 1952 02ce 4FF6FF73 		movw	r3, #65535
 1953 02d2 0193     		str	r3, [sp, #4]
 1954 02d4 0021     		movs	r1, #0
 1955 02d6 0091     		str	r1, [sp]
 1956 02d8 03AB     		add	r3, sp, #12
 1957 02da 0922     		movs	r2, #9
 1958 02dc 0948     		ldr	r0, .L125+32
 1959 02de FFF7FEFF 		bl	LCD_draw_string
 1960              	.LVL128:
 1961 02e2 29E7     		b	.L111
 1962              	.L126:
 1963              		.align	2
ARM GAS  C:\Users\Xuleo\AppData\Local\Temp\ccAeK8hd.s 			page 50


 1964              	.L125:
 1965 02e4 00000000 		.word	menu_state
 1966 02e8 00000000 		.word	page_dirty
 1967 02ec 00000000 		.word	fileCount
 1968 02f0 00000000 		.word	select_scroll_offset
 1969 02f4 00000000 		.word	select_song_index
 1970 02f8 00000000 		.word	active_song_index
 1971 02fc 00000000 		.word	fileList
 1972 0300 70000000 		.word	.LC39
 1973 0304 00000000 		.word	lcd_config
 1974              	.LBE18:
 1975              		.cfi_endproc
 1976              	.LFE167:
 1978              		.section	.rodata.str1.4,"aMS",%progbits,1
 1979              		.align	2
 1980              	.LC0:
 1981 0000 312E2050 		.ascii	"1. Play Song\000"
 1981      6C617920 
 1981      536F6E67 
 1981      00
 1982 000d 000000   		.align	2
 1983              	.LC1:
 1984 0010 322E2054 		.ascii	"2. Transmit Song(SD)\000"
 1984      72616E73 
 1984      6D697420 
 1984      536F6E67 
 1984      28534429 
 1985 0025 000000   		.align	2
 1986              	.LC2:
 1987 0028 332E2054 		.ascii	"3. Transmit Song(RAM)\000"
 1987      72616E73 
 1987      6D697420 
 1987      536F6E67 
 1987      2852414D 
 1988 003e 0000     		.align	2
 1989              	.LC3:
 1990 0040 342E2053 		.ascii	"4. Select Song\000"
 1990      656C6563 
 1990      7420536F 
 1990      6E6700
 1991 004f 00       		.align	2
 1992              	.LC4:
 1993 0050 352E2048 		.ascii	"5. Homing\000"
 1993      6F6D696E 
 1993      6700
 1994              		.section	.data.page_dirty,"aw"
 1995              		.align	2
 1998              	page_dirty:
 1999 0000 01000000 		.word	1
 2000              		.global	active_song_index
 2001              		.section	.data.active_song_index,"aw"
 2002              		.align	2
 2005              	active_song_index:
 2006 0000 FFFFFFFF 		.word	-1
 2007              		.global	select_scroll_offset
 2008              		.section	.bss.select_scroll_offset,"aw",%nobits
 2009              		.align	2
ARM GAS  C:\Users\Xuleo\AppData\Local\Temp\ccAeK8hd.s 			page 51


 2012              	select_scroll_offset:
 2013 0000 00000000 		.space	4
 2014              		.global	select_song_index
 2015              		.section	.bss.select_song_index,"aw",%nobits
 2016              		.align	2
 2019              	select_song_index:
 2020 0000 00000000 		.space	4
 2021              		.global	menu_back
 2022              		.section	.bss.menu_back,"aw",%nobits
 2023              		.align	2
 2026              	menu_back:
 2027 0000 00000000 		.space	4
 2028              		.global	menu_enter
 2029              		.section	.bss.menu_enter,"aw",%nobits
 2030              		.align	2
 2033              	menu_enter:
 2034 0000 00000000 		.space	4
 2035              		.global	menu_move_up
 2036              		.section	.bss.menu_move_up,"aw",%nobits
 2037              		.align	2
 2040              	menu_move_up:
 2041 0000 00000000 		.space	4
 2042              		.global	menu_move_down
 2043              		.section	.bss.menu_move_down,"aw",%nobits
 2044              		.align	2
 2047              	menu_move_down:
 2048 0000 00000000 		.space	4
 2049              		.global	menu_index
 2050              		.section	.bss.menu_index,"aw",%nobits
 2051              		.align	2
 2054              	menu_index:
 2055 0000 00000000 		.space	4
 2056              		.section	.bss.menu_state,"aw",%nobits
 2059              	menu_state:
 2060 0000 00       		.space	1
 2061              		.section	.rodata
 2062              		.align	2
 2063              		.set	.LANCHOR0,. + 0
 2064              	.LC9:
 2065 0000 00000000 		.word	.LC0
 2066 0004 10000000 		.word	.LC1
 2067 0008 28000000 		.word	.LC2
 2068 000c 40000000 		.word	.LC3
 2069 0010 50000000 		.word	.LC4
 2070              		.text
 2071              	.Letext0:
 2072              		.file 2 "C:/thirdpartyLibs/arm-gnu-toolchain-15.2/lib/gcc/arm-none-eabi/15.2.1/include/stddef.h"
 2073              		.file 3 "C:/thirdpartyLibs/arm-gnu-toolchain-15.2/arm-none-eabi/include/machine/_default_types.h"
 2074              		.file 4 "C:/thirdpartyLibs/arm-gnu-toolchain-15.2/arm-none-eabi/include/sys/_stdint.h"
 2075              		.file 5 "Drivers/CMSIS/Device/ST/STM32H5xx/Include/stm32h533xx.h"
 2076              		.file 6 "Drivers/STM32H5xx_HAL_Driver/Inc/stm32h5xx_hal_def.h"
 2077              		.file 7 "Drivers/STM32H5xx_HAL_Driver/Inc/stm32h5xx_hal_dma.h"
 2078              		.file 8 "Drivers/STM32H5xx_HAL_Driver/Inc/stm32h5xx_hal_dma_ex.h"
 2079              		.file 9 "Drivers/STM32H5xx_HAL_Driver/Inc/stm32h5xx_hal_spi.h"
 2080              		.file 10 "Application/Inc/ILI9341.h"
 2081              		.file 11 "Application/Inc/sdcard.h"
 2082              		.file 12 "Application/Inc/application.h"
ARM GAS  C:\Users\Xuleo\AppData\Local\Temp\ccAeK8hd.s 			page 52


 2083              		.file 13 "Application/Inc/menu.h"
 2084              		.file 14 "Application/Inc/file_transfer.h"
 2085              		.file 15 "C:/thirdpartyLibs/arm-gnu-toolchain-15.2/arm-none-eabi/include/string.h"
 2086              		.file 16 "C:/thirdpartyLibs/arm-gnu-toolchain-15.2/arm-none-eabi/include/stdio.h"
ARM GAS  C:\Users\Xuleo\AppData\Local\Temp\ccAeK8hd.s 			page 53


DEFINED SYMBOLS
                            *ABS*:00000000 menu.c
C:\Users\Xuleo\AppData\Local\Temp\ccAeK8hd.s:22     .rodata.clear_menu_area.str1.4:00000000 $d
C:\Users\Xuleo\AppData\Local\Temp\ccAeK8hd.s:26     .text.clear_menu_area:00000000 $t
C:\Users\Xuleo\AppData\Local\Temp\ccAeK8hd.s:31     .text.clear_menu_area:00000000 clear_menu_area
C:\Users\Xuleo\AppData\Local\Temp\ccAeK8hd.s:84     .text.clear_menu_area:00000028 $d
C:\Users\Xuleo\AppData\Local\Temp\ccAeK8hd.s:90     .rodata.menu_draw_main.str1.4:00000000 $d
C:\Users\Xuleo\AppData\Local\Temp\ccAeK8hd.s:100    .text.menu_draw_main:00000000 $t
C:\Users\Xuleo\AppData\Local\Temp\ccAeK8hd.s:106    .text.menu_draw_main:00000000 menu_draw_main
C:\Users\Xuleo\AppData\Local\Temp\ccAeK8hd.s:229    .text.menu_draw_main:00000078 $d
C:\Users\Xuleo\AppData\Local\Temp\ccAeK8hd.s:2054   .bss.menu_index:00000000 menu_index
C:\Users\Xuleo\AppData\Local\Temp\ccAeK8hd.s:239    .rodata.menu_draw_transmit.str1.4:00000000 $d
C:\Users\Xuleo\AppData\Local\Temp\ccAeK8hd.s:267    .text.menu_draw_transmit:00000000 $t
C:\Users\Xuleo\AppData\Local\Temp\ccAeK8hd.s:273    .text.menu_draw_transmit:00000000 menu_draw_transmit
C:\Users\Xuleo\AppData\Local\Temp\ccAeK8hd.s:536    .text.menu_draw_transmit:00000148 $d
C:\Users\Xuleo\AppData\Local\Temp\ccAeK8hd.s:1998   .data.page_dirty:00000000 page_dirty
C:\Users\Xuleo\AppData\Local\Temp\ccAeK8hd.s:553    .rodata.menu_draw_transmit_ram.str1.4:00000000 $d
C:\Users\Xuleo\AppData\Local\Temp\ccAeK8hd.s:578    .text.menu_draw_transmit_ram:00000000 $t
C:\Users\Xuleo\AppData\Local\Temp\ccAeK8hd.s:584    .text.menu_draw_transmit_ram:00000000 menu_draw_transmit_ram
C:\Users\Xuleo\AppData\Local\Temp\ccAeK8hd.s:816    .text.menu_draw_transmit_ram:0000012c $d
C:\Users\Xuleo\AppData\Local\Temp\ccAeK8hd.s:839    .rodata.menu_draw_select.str1.4:00000000 $d
C:\Users\Xuleo\AppData\Local\Temp\ccAeK8hd.s:858    .text.menu_draw_select:00000000 $t
C:\Users\Xuleo\AppData\Local\Temp\ccAeK8hd.s:864    .text.menu_draw_select:00000000 menu_draw_select
C:\Users\Xuleo\AppData\Local\Temp\ccAeK8hd.s:1246   .text.menu_draw_select:000001b4 $d
C:\Users\Xuleo\AppData\Local\Temp\ccAeK8hd.s:2019   .bss.select_song_index:00000000 select_song_index
C:\Users\Xuleo\AppData\Local\Temp\ccAeK8hd.s:2012   .bss.select_scroll_offset:00000000 select_scroll_offset
C:\Users\Xuleo\AppData\Local\Temp\ccAeK8hd.s:2005   .data.active_song_index:00000000 active_song_index
C:\Users\Xuleo\AppData\Local\Temp\ccAeK8hd.s:1266   .text.menu_get_state:00000000 $t
C:\Users\Xuleo\AppData\Local\Temp\ccAeK8hd.s:1272   .text.menu_get_state:00000000 menu_get_state
C:\Users\Xuleo\AppData\Local\Temp\ccAeK8hd.s:1287   .text.menu_get_state:00000008 $d
C:\Users\Xuleo\AppData\Local\Temp\ccAeK8hd.s:2059   .bss.menu_state:00000000 menu_state
C:\Users\Xuleo\AppData\Local\Temp\ccAeK8hd.s:1292   .rodata.menu_init.str1.4:00000000 $d
C:\Users\Xuleo\AppData\Local\Temp\ccAeK8hd.s:1296   .text.menu_init:00000000 $t
C:\Users\Xuleo\AppData\Local\Temp\ccAeK8hd.s:1302   .text.menu_init:00000000 menu_init
C:\Users\Xuleo\AppData\Local\Temp\ccAeK8hd.s:1352   .text.menu_init:00000030 $d
C:\Users\Xuleo\AppData\Local\Temp\ccAeK8hd.s:1361   .rodata.menu_update.str1.4:00000000 $d
C:\Users\Xuleo\AppData\Local\Temp\ccAeK8hd.s:1377   .text.menu_update:00000000 $t
C:\Users\Xuleo\AppData\Local\Temp\ccAeK8hd.s:1383   .text.menu_update:00000000 menu_update
C:\Users\Xuleo\AppData\Local\Temp\ccAeK8hd.s:1867   .text.menu_update:00000234 $d
C:\Users\Xuleo\AppData\Local\Temp\ccAeK8hd.s:2026   .bss.menu_back:00000000 menu_back
C:\Users\Xuleo\AppData\Local\Temp\ccAeK8hd.s:2047   .bss.menu_move_down:00000000 menu_move_down
C:\Users\Xuleo\AppData\Local\Temp\ccAeK8hd.s:2040   .bss.menu_move_up:00000000 menu_move_up
C:\Users\Xuleo\AppData\Local\Temp\ccAeK8hd.s:2033   .bss.menu_enter:00000000 menu_enter
C:\Users\Xuleo\AppData\Local\Temp\ccAeK8hd.s:1890   .text.menu_update:00000284 $t
C:\Users\Xuleo\AppData\Local\Temp\ccAeK8hd.s:1965   .text.menu_update:000002e4 $d
C:\Users\Xuleo\AppData\Local\Temp\ccAeK8hd.s:1979   .rodata.str1.4:00000000 $d
C:\Users\Xuleo\AppData\Local\Temp\ccAeK8hd.s:1995   .data.page_dirty:00000000 $d
C:\Users\Xuleo\AppData\Local\Temp\ccAeK8hd.s:2002   .data.active_song_index:00000000 $d
C:\Users\Xuleo\AppData\Local\Temp\ccAeK8hd.s:2009   .bss.select_scroll_offset:00000000 $d
C:\Users\Xuleo\AppData\Local\Temp\ccAeK8hd.s:2016   .bss.select_song_index:00000000 $d
C:\Users\Xuleo\AppData\Local\Temp\ccAeK8hd.s:2023   .bss.menu_back:00000000 $d
C:\Users\Xuleo\AppData\Local\Temp\ccAeK8hd.s:2030   .bss.menu_enter:00000000 $d
C:\Users\Xuleo\AppData\Local\Temp\ccAeK8hd.s:2037   .bss.menu_move_up:00000000 $d
C:\Users\Xuleo\AppData\Local\Temp\ccAeK8hd.s:2044   .bss.menu_move_down:00000000 $d
C:\Users\Xuleo\AppData\Local\Temp\ccAeK8hd.s:2051   .bss.menu_index:00000000 $d
C:\Users\Xuleo\AppData\Local\Temp\ccAeK8hd.s:2060   .bss.menu_state:00000000 $d
C:\Users\Xuleo\AppData\Local\Temp\ccAeK8hd.s:2062   .rodata:00000000 $d
ARM GAS  C:\Users\Xuleo\AppData\Local\Temp\ccAeK8hd.s 			page 54



UNDEFINED SYMBOLS
LCD_draw_string
lcd_config
snprintf
strlen
FT_GetState
FT_GetProgress
parsing_song_buffer_to_struct
ram_rx_started
ram_rx_complete
ram_rx_offset
piano_song
song_ram
redirect_to_ram
SD_ListTxtFiles
fileCount
fileList
FT_TimeoutCheck
FT_Abort
homing_procedure
FT_Init
