ARM GAS  C:\Users\Xuleo\AppData\Local\Temp\ccbzHqJi.s 			page 1


   1              		.cpu cortex-m33
   2              		.arch armv8-m.main
   3              		.fpu fpv5-sp-d16
   4              		.arch_extension dsp
   5              		.eabi_attribute 27, 1
   6              		.eabi_attribute 28, 1
   7              		.eabi_attribute 20, 1
   8              		.eabi_attribute 21, 1
   9              		.eabi_attribute 23, 3
  10              		.eabi_attribute 24, 1
  11              		.eabi_attribute 25, 1
  12              		.eabi_attribute 26, 1
  13              		.eabi_attribute 30, 1
  14              		.eabi_attribute 34, 1
  15              		.eabi_attribute 18, 4
  16              		.file	"menu.c"
  17              		.text
  18              	.Ltext0:
  19              		.cfi_sections	.debug_frame
  20              		.file 1 "./Application/Src/menu.c"
  21              		.section	.rodata.clear_menu_area.str1.4,"aMS",%progbits,1
  22              		.align	2
  23              	.LC7:
  24 0000 20202020 		.ascii	"                        \000"
  24      20202020 
  24      20202020 
  24      20202020 
  24      20202020 
  25              		.section	.text.clear_menu_area,"ax",%progbits
  26              		.align	1
  27              		.syntax unified
  28              		.thumb
  29              		.thumb_func
  31              	clear_menu_area:
  32              	.LFB359:
   1:./Application/Src/menu.c **** #include <menu.h>
   2:./Application/Src/menu.c **** #include <diskio.h>
   3:./Application/Src/menu.c **** #include <file_transfer.h>
   4:./Application/Src/menu.c **** #include <string.h>
   5:./Application/Src/menu.c **** #include <stdio.h>
   6:./Application/Src/menu.c **** #include <application.h>
   7:./Application/Src/menu.c **** 
   8:./Application/Src/menu.c **** extern PID_t left_motor;
   9:./Application/Src/menu.c **** extern PID_t right_motor;
  10:./Application/Src/menu.c **** 
  11:./Application/Src/menu.c **** /* Menu state */
  12:./Application/Src/menu.c **** static MenuState_t menu_state = MENU_STATE_MAIN;
  13:./Application/Src/menu.c **** 
  14:./Application/Src/menu.c **** /* Navigation flags */
  15:./Application/Src/menu.c **** int menu_index = 0;
  16:./Application/Src/menu.c **** int menu_move_down = 0;
  17:./Application/Src/menu.c **** int menu_move_up = 0;
  18:./Application/Src/menu.c **** int menu_enter = 0;
  19:./Application/Src/menu.c **** int menu_back = 0;
  20:./Application/Src/menu.c **** 
  21:./Application/Src/menu.c **** /* Select-song page state */
  22:./Application/Src/menu.c **** int select_song_index = 0;
ARM GAS  C:\Users\Xuleo\AppData\Local\Temp\ccbzHqJi.s 			page 2


  23:./Application/Src/menu.c **** int select_scroll_offset = 0;
  24:./Application/Src/menu.c **** int active_song_index = -1;
  25:./Application/Src/menu.c **** 
  26:./Application/Src/menu.c **** /* Track if page needs full redraw */
  27:./Application/Src/menu.c **** static int page_dirty = 1;
  28:./Application/Src/menu.c **** 
  29:./Application/Src/menu.c **** /* Heartbeat timer (main page only) */
  30:./Application/Src/menu.c **** static uint32_t last_heartbeat_tick = 0;
  31:./Application/Src/menu.c **** #define HEARTBEAT_INTERVAL_MS 500
  32:./Application/Src/menu.c **** 
  33:./Application/Src/menu.c **** /* UI state sync — send on every state/index change */
  34:./Application/Src/menu.c **** static uint8_t last_sent_state = 0xFF;
  35:./Application/Src/menu.c **** static uint8_t last_sent_index = 0xFF;
  36:./Application/Src/menu.c **** 
  37:./Application/Src/menu.c **** /* File list send state: 0=not started, 1..N=sending entry N-1, N+1=done */
  38:./Application/Src/menu.c **** static int file_list_send_idx = 0;
  39:./Application/Src/menu.c **** static int file_list_sent = 0;
  40:./Application/Src/menu.c **** 
  41:./Application/Src/menu.c **** /* Transfer status tracking */
  42:./Application/Src/menu.c **** static uint8_t last_ft_state = 0xFF;
  43:./Application/Src/menu.c **** static uint8_t last_ram_sent_status = 0xFF;
  44:./Application/Src/menu.c **** 
  45:./Application/Src/menu.c **** /* ------------------------------------------------------------------ */
  46:./Application/Src/menu.c **** /*  Helpers                                                           */
  47:./Application/Src/menu.c **** /* ------------------------------------------------------------------ */
  48:./Application/Src/menu.c **** 
  49:./Application/Src/menu.c **** static void clear_menu_area(void)
  50:./Application/Src/menu.c **** {
  33              		.loc 1 50 1 view -0
  34              		.cfi_startproc
  35              		@ args = 0, pretend = 0, frame = 0
  36              		@ frame_needed = 0, uses_anonymous_args = 0
  37 0000 10B5     		push	{r4, lr}
  38              	.LCFI0:
  39              		.cfi_def_cfa_offset 8
  40              		.cfi_offset 4, -8
  41              		.cfi_offset 14, -4
  42 0002 82B0     		sub	sp, sp, #8
  43              	.LCFI1:
  44              		.cfi_def_cfa_offset 16
  51:./Application/Src/menu.c ****     for (int r = 1; r <= 9; r++)
  45              		.loc 1 51 5 view .LVU1
  46              	.LBB2:
  47              		.loc 1 51 10 view .LVU2
  48              	.LVL0:
  49              		.loc 1 51 14 is_stmt 0 view .LVU3
  50 0004 0124     		movs	r4, #1
  51              		.loc 1 51 5 view .LVU4
  52 0006 09E0     		b	.L2
  53              	.LVL1:
  54              	.L3:
  52:./Application/Src/menu.c ****     {
  53:./Application/Src/menu.c ****         LCD_draw_string(0, r, "                        ", COLOR_BLACK, COLOR_WHITE);
  55              		.loc 1 53 9 is_stmt 1 view .LVU5
  56 0008 4FF6FF73 		movw	r3, #65535
  57 000c 0093     		str	r3, [sp]
  58 000e 0023     		movs	r3, #0
ARM GAS  C:\Users\Xuleo\AppData\Local\Temp\ccbzHqJi.s 			page 3


  59 0010 044A     		ldr	r2, .L5
  60 0012 A1B2     		uxth	r1, r4
  61 0014 1846     		mov	r0, r3
  62 0016 FFF7FEFF 		bl	LCD_draw_string
  63              	.LVL2:
  51:./Application/Src/menu.c ****     for (int r = 1; r <= 9; r++)
  64              		.loc 1 51 30 discriminator 3 view .LVU6
  65 001a 0134     		adds	r4, r4, #1
  66              	.LVL3:
  67              	.L2:
  51:./Application/Src/menu.c ****     for (int r = 1; r <= 9; r++)
  68              		.loc 1 51 23 discriminator 1 view .LVU7
  69 001c 092C     		cmp	r4, #9
  70 001e F3DD     		ble	.L3
  71              	.LBE2:
  54:./Application/Src/menu.c ****     }
  55:./Application/Src/menu.c **** }
  72              		.loc 1 55 1 is_stmt 0 view .LVU8
  73 0020 02B0     		add	sp, sp, #8
  74              	.LCFI2:
  75              		.cfi_def_cfa_offset 8
  76              		@ sp needed
  77 0022 10BD     		pop	{r4, pc}
  78              	.LVL4:
  79              	.L6:
  80              		.loc 1 55 1 view .LVU9
  81              		.align	2
  82              	.L5:
  83 0024 00000000 		.word	.LC7
  84              		.cfi_endproc
  85              	.LFE359:
  87              		.section	.text.sync_ui_state,"ax",%progbits
  88              		.align	1
  89              		.syntax unified
  90              		.thumb
  91              		.thumb_func
  93              	sync_ui_state:
  94              	.LFB360:
  56:./Application/Src/menu.c **** 
  57:./Application/Src/menu.c **** /* Send UI state packet if changed */
  58:./Application/Src/menu.c **** static void sync_ui_state(void)
  59:./Application/Src/menu.c **** {
  95              		.loc 1 59 1 is_stmt 1 view -0
  96              		.cfi_startproc
  97              		@ args = 0, pretend = 0, frame = 0
  98              		@ frame_needed = 0, uses_anonymous_args = 0
  99 0000 38B5     		push	{r3, r4, r5, lr}
 100              	.LCFI3:
 101              		.cfi_def_cfa_offset 16
 102              		.cfi_offset 3, -16
 103              		.cfi_offset 4, -12
 104              		.cfi_offset 5, -8
 105              		.cfi_offset 14, -4
  60:./Application/Src/menu.c ****     uint8_t st = (uint8_t)menu_state;
 106              		.loc 1 60 5 view .LVU11
 107              		.loc 1 60 13 is_stmt 0 view .LVU12
 108 0002 114B     		ldr	r3, .L14
ARM GAS  C:\Users\Xuleo\AppData\Local\Temp\ccbzHqJi.s 			page 4


 109 0004 1C78     		ldrb	r4, [r3]	@ zero_extendqisi2
 110              	.LVL5:
  61:./Application/Src/menu.c ****     uint8_t idx = (uint8_t)menu_index;
 111              		.loc 1 61 5 is_stmt 1 view .LVU13
 112              		.loc 1 61 13 is_stmt 0 view .LVU14
 113 0006 114B     		ldr	r3, .L14+4
 114 0008 1D78     		ldrb	r5, [r3]	@ zero_extendqisi2
 115              	.LVL6:
  62:./Application/Src/menu.c ****     uint8_t ex1 = 0, ex2 = 0;
 116              		.loc 1 62 5 is_stmt 1 view .LVU15
  63:./Application/Src/menu.c **** 
  64:./Application/Src/menu.c ****     if (menu_state == MENU_STATE_SELECT) {
 117              		.loc 1 64 5 view .LVU16
 118              		.loc 1 64 8 is_stmt 0 view .LVU17
 119 000a 032C     		cmp	r4, #3
 120 000c 12D0     		beq	.L13
  62:./Application/Src/menu.c ****     uint8_t ex1 = 0, ex2 = 0;
 121              		.loc 1 62 22 view .LVU18
 122 000e 0023     		movs	r3, #0
  62:./Application/Src/menu.c ****     uint8_t ex1 = 0, ex2 = 0;
 123              		.loc 1 62 13 view .LVU19
 124 0010 1A46     		mov	r2, r3
 125              	.LVL7:
 126              	.L8:
  65:./Application/Src/menu.c ****         idx = (uint8_t)select_song_index;
  66:./Application/Src/menu.c ****         ex1 = (uint8_t)fileCount;
  67:./Application/Src/menu.c ****         ex2 = (uint8_t)(active_song_index + 1); /* 0 = none */
  68:./Application/Src/menu.c ****     }
  69:./Application/Src/menu.c **** 
  70:./Application/Src/menu.c ****     if (st != last_sent_state || idx != last_sent_index) {
 127              		.loc 1 70 5 is_stmt 1 view .LVU20
 128              		.loc 1 70 12 is_stmt 0 view .LVU21
 129 0012 0F49     		ldr	r1, .L14+8
 130 0014 0978     		ldrb	r1, [r1]	@ zero_extendqisi2
 131              		.loc 1 70 8 view .LVU22
 132 0016 A142     		cmp	r1, r4
 133 0018 03D1     		bne	.L9
 134              		.loc 1 70 38 discriminator 1 view .LVU23
 135 001a 0E49     		ldr	r1, .L14+12
 136 001c 0978     		ldrb	r1, [r1]	@ zero_extendqisi2
 137              		.loc 1 70 31 discriminator 1 view .LVU24
 138 001e A942     		cmp	r1, r5
 139 0020 07D0     		beq	.L7
 140              	.L9:
  71:./Application/Src/menu.c ****         pkt_send_ui_state(st, idx, ex1, ex2);
 141              		.loc 1 71 9 is_stmt 1 view .LVU25
 142 0022 2946     		mov	r1, r5
 143 0024 2046     		mov	r0, r4
 144 0026 FFF7FEFF 		bl	pkt_send_ui_state
 145              	.LVL8:
  72:./Application/Src/menu.c ****         last_sent_state = st;
 146              		.loc 1 72 9 view .LVU26
 147              		.loc 1 72 25 is_stmt 0 view .LVU27
 148 002a 094B     		ldr	r3, .L14+8
 149 002c 1C70     		strb	r4, [r3]
  73:./Application/Src/menu.c ****         last_sent_index = idx;
 150              		.loc 1 73 9 is_stmt 1 view .LVU28
ARM GAS  C:\Users\Xuleo\AppData\Local\Temp\ccbzHqJi.s 			page 5


 151              		.loc 1 73 25 is_stmt 0 view .LVU29
 152 002e 094B     		ldr	r3, .L14+12
 153 0030 1D70     		strb	r5, [r3]
 154              	.L7:
  74:./Application/Src/menu.c ****     }
  75:./Application/Src/menu.c **** }
 155              		.loc 1 75 1 view .LVU30
 156 0032 38BD     		pop	{r3, r4, r5, pc}
 157              	.LVL9:
 158              	.L13:
  65:./Application/Src/menu.c ****         ex1 = (uint8_t)fileCount;
 159              		.loc 1 65 9 is_stmt 1 view .LVU31
  65:./Application/Src/menu.c ****         ex1 = (uint8_t)fileCount;
 160              		.loc 1 65 13 is_stmt 0 view .LVU32
 161 0034 084B     		ldr	r3, .L14+16
 162 0036 1D78     		ldrb	r5, [r3]	@ zero_extendqisi2
 163              	.LVL10:
  66:./Application/Src/menu.c ****         ex2 = (uint8_t)(active_song_index + 1); /* 0 = none */
 164              		.loc 1 66 9 is_stmt 1 view .LVU33
  66:./Application/Src/menu.c ****         ex2 = (uint8_t)(active_song_index + 1); /* 0 = none */
 165              		.loc 1 66 13 is_stmt 0 view .LVU34
 166 0038 084B     		ldr	r3, .L14+20
 167 003a 1A78     		ldrb	r2, [r3]	@ zero_extendqisi2
 168              	.LVL11:
  67:./Application/Src/menu.c ****     }
 169              		.loc 1 67 9 is_stmt 1 view .LVU35
  67:./Application/Src/menu.c ****     }
 170              		.loc 1 67 15 is_stmt 0 view .LVU36
 171 003c 084B     		ldr	r3, .L14+24
 172 003e 1B78     		ldrb	r3, [r3]	@ zero_extendqisi2
  67:./Application/Src/menu.c ****     }
 173              		.loc 1 67 13 view .LVU37
 174 0040 0133     		adds	r3, r3, #1
 175 0042 DBB2     		uxtb	r3, r3
 176              	.LVL12:
  67:./Application/Src/menu.c ****     }
 177              		.loc 1 67 13 view .LVU38
 178 0044 E5E7     		b	.L8
 179              	.L15:
 180 0046 00BF     		.align	2
 181              	.L14:
 182 0048 00000000 		.word	menu_state
 183 004c 00000000 		.word	menu_index
 184 0050 00000000 		.word	last_sent_state
 185 0054 00000000 		.word	last_sent_index
 186 0058 00000000 		.word	select_song_index
 187 005c 00000000 		.word	fileCount
 188 0060 00000000 		.word	active_song_index
 189              		.cfi_endproc
 190              	.LFE360:
 192              		.section	.rodata.menu_draw_main.str1.4,"aMS",%progbits,1
 193              		.align	2
 194              	.LC8:
 195 0000 3E00     		.ascii	">\000"
 196 0002 0000     		.align	2
 197              	.LC9:
 198 0004 2000     		.ascii	" \000"
ARM GAS  C:\Users\Xuleo\AppData\Local\Temp\ccbzHqJi.s 			page 6


 199 0006 0000     		.align	2
 200              	.LC11:
 201 0008 25732025 		.ascii	"%s %s\000"
 201      7300
 202              		.section	.text.menu_draw_main,"ax",%progbits
 203              		.align	1
 204              		.global	menu_draw_main
 205              		.syntax unified
 206              		.thumb
 207              		.thumb_func
 209              	menu_draw_main:
 210              	.LFB361:
  76:./Application/Src/menu.c **** 
  77:./Application/Src/menu.c **** /* ------------------------------------------------------------------ */
  78:./Application/Src/menu.c **** /*  Main menu page                                                    */
  79:./Application/Src/menu.c **** /* ------------------------------------------------------------------ */
  80:./Application/Src/menu.c **** 
  81:./Application/Src/menu.c **** void menu_draw_main(void)
  82:./Application/Src/menu.c **** {
 211              		.loc 1 82 1 is_stmt 1 view -0
 212              		.cfi_startproc
 213              		@ args = 0, pretend = 0, frame = 56
 214              		@ frame_needed = 0, uses_anonymous_args = 0
 215 0000 30B5     		push	{r4, r5, lr}
 216              	.LCFI4:
 217              		.cfi_def_cfa_offset 12
 218              		.cfi_offset 4, -12
 219              		.cfi_offset 5, -8
 220              		.cfi_offset 14, -4
 221 0002 91B0     		sub	sp, sp, #68
 222              	.LCFI5:
 223              		.cfi_def_cfa_offset 80
  83:./Application/Src/menu.c ****     const char *items[] = {
 224              		.loc 1 83 5 view .LVU40
 225              		.loc 1 83 17 is_stmt 0 view .LVU41
 226 0004 0AAC     		add	r4, sp, #40
 227 0006 1D4D     		ldr	r5, .L26
 228 0008 0FCD     		ldmia	r5!, {r0, r1, r2, r3}
 229 000a 0FC4     		stmia	r4!, {r0, r1, r2, r3}
 230 000c 95E80300 		ldm	r5, {r0, r1}
 231 0010 84E80300 		stm	r4, {r0, r1}
  84:./Application/Src/menu.c ****         "1. Play Song",
  85:./Application/Src/menu.c ****         "2. Transmit Song(SD)",
  86:./Application/Src/menu.c ****         "3. Transmit Song(RAM)",
  87:./Application/Src/menu.c ****         "4. Select Song",
  88:./Application/Src/menu.c ****         "5. Homing",
  89:./Application/Src/menu.c ****         "6. Debug"};
  90:./Application/Src/menu.c ****     char line[25];
 232              		.loc 1 90 5 is_stmt 1 view .LVU42
  91:./Application/Src/menu.c ****     for (int i = 0; i < 6; i++)
 233              		.loc 1 91 5 view .LVU43
 234              	.LBB3:
 235              		.loc 1 91 10 view .LVU44
 236              	.LVL13:
 237              		.loc 1 91 14 is_stmt 0 view .LVU45
 238 0014 0024     		movs	r4, #0
 239              		.loc 1 91 5 view .LVU46
ARM GAS  C:\Users\Xuleo\AppData\Local\Temp\ccbzHqJi.s 			page 7


 240 0016 17E0     		b	.L17
 241              	.LVL14:
 242              	.L25:
 243              	.LBB4:
  92:./Application/Src/menu.c ****     {
  93:./Application/Src/menu.c ****         snprintf(line, sizeof(line), "%s %s", (i == menu_index) ? ">" : " ", items[i]);
 244              		.loc 1 93 9 discriminator 1 view .LVU47
 245 0018 194B     		ldr	r3, .L26+4
 246 001a 1CE0     		b	.L18
 247              	.LVL15:
 248              	.L20:
  94:./Application/Src/menu.c ****         int len = strlen(line);
  95:./Application/Src/menu.c ****         while (len < 23)
  96:./Application/Src/menu.c ****             line[len++] = ' ';
 249              		.loc 1 96 13 is_stmt 1 view .LVU48
 250              		.loc 1 96 25 is_stmt 0 view .LVU49
 251 001c 00F14003 		add	r3, r0, #64
 252 0020 6B44     		add	r3, sp, r3
 253 0022 2022     		movs	r2, #32
 254 0024 03F8342C 		strb	r2, [r3, #-52]
 255              		.loc 1 96 21 view .LVU50
 256 0028 0130     		adds	r0, r0, #1
 257              	.LVL16:
 258              	.L19:
  95:./Application/Src/menu.c ****             line[len++] = ' ';
 259              		.loc 1 95 20 is_stmt 1 view .LVU51
 260 002a 1628     		cmp	r0, #22
 261 002c F6DD     		ble	.L20
  97:./Application/Src/menu.c ****         line[23] = '\0';
 262              		.loc 1 97 9 view .LVU52
 263              		.loc 1 97 18 is_stmt 0 view .LVU53
 264 002e 0020     		movs	r0, #0
 265              	.LVL17:
 266              		.loc 1 97 18 view .LVU54
 267 0030 8DF82300 		strb	r0, [sp, #35]
  98:./Application/Src/menu.c ****         LCD_draw_string(0, 1 + i, line, COLOR_BLACK, COLOR_WHITE);
 268              		.loc 1 98 9 is_stmt 1 view .LVU55
 269 0034 611C     		adds	r1, r4, #1
 270 0036 4FF6FF73 		movw	r3, #65535
 271 003a 0093     		str	r3, [sp]
 272 003c 0346     		mov	r3, r0
 273 003e 03AA     		add	r2, sp, #12
 274 0040 89B2     		uxth	r1, r1
 275 0042 FFF7FEFF 		bl	LCD_draw_string
 276              	.LVL18:
 277              	.LBE4:
  91:./Application/Src/menu.c ****     {
 278              		.loc 1 91 29 discriminator 2 view .LVU56
 279 0046 0134     		adds	r4, r4, #1
 280              	.LVL19:
 281              	.L17:
  91:./Application/Src/menu.c ****     {
 282              		.loc 1 91 23 discriminator 1 view .LVU57
 283 0048 052C     		cmp	r4, #5
 284 004a 14DC     		bgt	.L24
 285              	.LBB5:
  93:./Application/Src/menu.c ****         int len = strlen(line);
ARM GAS  C:\Users\Xuleo\AppData\Local\Temp\ccbzHqJi.s 			page 8


 286              		.loc 1 93 9 view .LVU58
  93:./Application/Src/menu.c ****         int len = strlen(line);
 287              		.loc 1 93 50 is_stmt 0 view .LVU59
 288 004c 0D4B     		ldr	r3, .L26+8
 289 004e 1B68     		ldr	r3, [r3]
  93:./Application/Src/menu.c ****         int len = strlen(line);
 290              		.loc 1 93 9 view .LVU60
 291 0050 A342     		cmp	r3, r4
 292 0052 E1D0     		beq	.L25
  93:./Application/Src/menu.c ****         int len = strlen(line);
 293              		.loc 1 93 9 discriminator 2 view .LVU61
 294 0054 0C4B     		ldr	r3, .L26+12
 295              	.L18:
  93:./Application/Src/menu.c ****         int len = strlen(line);
 296              		.loc 1 93 9 discriminator 4 view .LVU62
 297 0056 03AD     		add	r5, sp, #12
 298 0058 10AA     		add	r2, sp, #64
 299 005a 02EB8402 		add	r2, r2, r4, lsl #2
 300 005e 52F8182C 		ldr	r2, [r2, #-24]
 301 0062 0092     		str	r2, [sp]
 302 0064 094A     		ldr	r2, .L26+16
 303 0066 1921     		movs	r1, #25
 304 0068 2846     		mov	r0, r5
 305 006a FFF7FEFF 		bl	snprintf
 306              	.LVL20:
  94:./Application/Src/menu.c ****         while (len < 23)
 307              		.loc 1 94 9 is_stmt 1 view .LVU63
  94:./Application/Src/menu.c ****         while (len < 23)
 308              		.loc 1 94 19 is_stmt 0 view .LVU64
 309 006e 2846     		mov	r0, r5
 310 0070 FFF7FEFF 		bl	strlen
 311              	.LVL21:
  95:./Application/Src/menu.c ****             line[len++] = ' ';
 312              		.loc 1 95 9 is_stmt 1 view .LVU65
  95:./Application/Src/menu.c ****             line[len++] = ' ';
 313              		.loc 1 95 15 is_stmt 0 view .LVU66
 314 0074 D9E7     		b	.L19
 315              	.LVL22:
 316              	.L24:
  95:./Application/Src/menu.c ****             line[len++] = ' ';
 317              		.loc 1 95 15 view .LVU67
 318              	.LBE5:
 319              	.LBE3:
  99:./Application/Src/menu.c ****     }
 100:./Application/Src/menu.c **** }
 320              		.loc 1 100 1 view .LVU68
 321 0076 11B0     		add	sp, sp, #68
 322              	.LCFI6:
 323              		.cfi_def_cfa_offset 12
 324              		@ sp needed
 325 0078 30BD     		pop	{r4, r5, pc}
 326              	.LVL23:
 327              	.L27:
 328              		.loc 1 100 1 view .LVU69
 329 007a 00BF     		.align	2
 330              	.L26:
 331 007c 00000000 		.word	.LANCHOR0
ARM GAS  C:\Users\Xuleo\AppData\Local\Temp\ccbzHqJi.s 			page 9


 332 0080 00000000 		.word	.LC8
 333 0084 00000000 		.word	menu_index
 334 0088 04000000 		.word	.LC9
 335 008c 08000000 		.word	.LC11
 336              		.cfi_endproc
 337              	.LFE361:
 339              		.section	.rodata.menu_draw_transmit.str1.4,"aMS",%progbits,1
 340              		.align	2
 341              	.LC12:
 342 0000 5B547261 		.ascii	"[Transmit Song]         \000"
 342      6E736D69 
 342      7420536F 
 342      6E675D20 
 342      20202020 
 343 0019 000000   		.align	2
 344              	.LC13:
 345 001c 57616974 		.ascii	"Waiting for file...     \000"
 345      696E6720 
 345      666F7220 
 345      66696C65 
 345      2E2E2E20 
 346 0035 000000   		.align	2
 347              	.LC14:
 348 0038 53656E64 		.ascii	"Send :a to go back      \000"
 348      203A6120 
 348      746F2067 
 348      6F206261 
 348      636B2020 
 349 0051 000000   		.align	2
 350              	.LC15:
 351 0054 53746174 		.ascii	"Status: IDLE            \000"
 351      75733A20 
 351      49444C45 
 351      20202020 
 351      20202020 
 352 006d 000000   		.align	2
 353              	.LC16:
 354 0070 53746174 		.ascii	"Status: RX  %3d%%        \000"
 354      75733A20 
 354      52582020 
 354      25336425 
 354      25202020 
 355 008a 0000     		.align	2
 356              	.LC17:
 357 008c 53746174 		.ascii	"Status: COMPLETE!       \000"
 357      75733A20 
 357      434F4D50 
 357      4C455445 
 357      21202020 
 358 00a5 000000   		.align	2
 359              	.LC18:
 360 00a8 46696C65 		.ascii	"File saved to SD card.  \000"
 360      20736176 
 360      65642074 
 360      6F205344 
 360      20636172 
 361 00c1 000000   		.align	2
ARM GAS  C:\Users\Xuleo\AppData\Local\Temp\ccbzHqJi.s 			page 10


 362              	.LC19:
 363 00c4 53746174 		.ascii	"Status: ERROR           \000"
 363      75733A20 
 363      4552524F 
 363      52202020 
 363      20202020 
 364 00dd 000000   		.align	2
 365              	.LC20:
 366 00e0 5472616E 		.ascii	"Transfer failed.        \000"
 366      73666572 
 366      20666169 
 366      6C65642E 
 366      20202020 
 367              		.section	.text.menu_draw_transmit,"ax",%progbits
 368              		.align	1
 369              		.global	menu_draw_transmit
 370              		.syntax unified
 371              		.thumb
 372              		.thumb_func
 374              	menu_draw_transmit:
 375              	.LFB362:
 101:./Application/Src/menu.c **** 
 102:./Application/Src/menu.c **** /* ------------------------------------------------------------------ */
 103:./Application/Src/menu.c **** /*  Transmit Song (SD) page                                           */
 104:./Application/Src/menu.c **** /* ------------------------------------------------------------------ */
 105:./Application/Src/menu.c **** 
 106:./Application/Src/menu.c **** void menu_draw_transmit(void)
 107:./Application/Src/menu.c **** {
 376              		.loc 1 107 1 is_stmt 1 view -0
 377              		.cfi_startproc
 378              		@ args = 0, pretend = 0, frame = 56
 379              		@ frame_needed = 0, uses_anonymous_args = 0
 380 0000 30B5     		push	{r4, r5, lr}
 381              	.LCFI7:
 382              		.cfi_def_cfa_offset 12
 383              		.cfi_offset 4, -12
 384              		.cfi_offset 5, -8
 385              		.cfi_offset 14, -4
 386 0002 91B0     		sub	sp, sp, #68
 387              	.LCFI8:
 388              		.cfi_def_cfa_offset 80
 108:./Application/Src/menu.c ****     if (page_dirty)
 389              		.loc 1 108 5 view .LVU71
 390              		.loc 1 108 9 is_stmt 0 view .LVU72
 391 0004 554B     		ldr	r3, .L43
 392 0006 1B68     		ldr	r3, [r3]
 393              		.loc 1 108 8 view .LVU73
 394 0008 1BBB     		cbnz	r3, .L41
 395              	.L29:
 109:./Application/Src/menu.c ****     {
 110:./Application/Src/menu.c ****         clear_menu_area();
 111:./Application/Src/menu.c ****         LCD_draw_string(0, 1, "[Transmit Song]         ", COLOR_BLACK, COLOR_WHITE);
 112:./Application/Src/menu.c ****         LCD_draw_string(0, 2, "Waiting for file...     ", COLOR_BLACK, COLOR_WHITE);
 113:./Application/Src/menu.c ****         LCD_draw_string(0, 8, "Send :a to go back      ", COLOR_BLACK, COLOR_WHITE);
 114:./Application/Src/menu.c ****         pkt_send_transfer_status(0); /* begin */
 115:./Application/Src/menu.c ****         last_ft_state = 0xFF;
 116:./Application/Src/menu.c ****         page_dirty = 0;
ARM GAS  C:\Users\Xuleo\AppData\Local\Temp\ccbzHqJi.s 			page 11


 117:./Application/Src/menu.c ****     }
 118:./Application/Src/menu.c **** 
 119:./Application/Src/menu.c ****     FT_State_t ft = FT_GetState();
 396              		.loc 1 119 5 is_stmt 1 view .LVU74
 397              		.loc 1 119 21 is_stmt 0 view .LVU75
 398 000a FFF7FEFF 		bl	FT_GetState
 399              	.LVL24:
 400 000e 0446     		mov	r4, r0
 401              	.LVL25:
 120:./Application/Src/menu.c ****     char buf[25];
 402              		.loc 1 120 5 is_stmt 1 view .LVU76
 121:./Application/Src/menu.c **** 
 122:./Application/Src/menu.c ****     switch (ft)
 403              		.loc 1 122 5 view .LVU77
 404 0010 0228     		cmp	r0, #2
 405 0012 00F08980 		beq	.L30
 406 0016 3FD8     		bhi	.L31
 407 0018 0028     		cmp	r0, #0
 408 001a 58D0     		beq	.L32
 409 001c 0128     		cmp	r0, #1
 410 001e 66D1     		bne	.L34
 411              	.LBB6:
 123:./Application/Src/menu.c ****     {
 124:./Application/Src/menu.c ****     case FT_STATE_IDLE:
 125:./Application/Src/menu.c ****         LCD_draw_string(0, 3, "Status: IDLE            ", COLOR_BLACK, COLOR_WHITE);
 126:./Application/Src/menu.c ****         LCD_draw_string(0, 4, "                        ", COLOR_BLACK, COLOR_WHITE);
 127:./Application/Src/menu.c ****         break;
 128:./Application/Src/menu.c ****     case FT_STATE_RECEIVING:
 129:./Application/Src/menu.c ****     {
 130:./Application/Src/menu.c ****         uint8_t pct = FT_GetProgress();
 412              		.loc 1 130 9 view .LVU78
 413              		.loc 1 130 23 is_stmt 0 view .LVU79
 414 0020 FFF7FEFF 		bl	FT_GetProgress
 415              	.LVL26:
 416              		.loc 1 130 23 view .LVU80
 417 0024 0546     		mov	r5, r0
 418              	.LVL27:
 131:./Application/Src/menu.c ****         snprintf(buf, sizeof(buf), "Status: RX  %3d%%        ", pct);
 419              		.loc 1 131 9 is_stmt 1 view .LVU81
 420 0026 0346     		mov	r3, r0
 421 0028 4D4A     		ldr	r2, .L43+4
 422 002a 1921     		movs	r1, #25
 423 002c 09A8     		add	r0, sp, #36
 424              	.LVL28:
 425              		.loc 1 131 9 is_stmt 0 view .LVU82
 426 002e FFF7FEFF 		bl	snprintf
 427              	.LVL29:
 132:./Application/Src/menu.c ****         LCD_draw_string(0, 3, buf, COLOR_BLACK, COLOR_WHITE);
 428              		.loc 1 132 9 is_stmt 1 view .LVU83
 429 0032 4FF6FF73 		movw	r3, #65535
 430 0036 0093     		str	r3, [sp]
 431 0038 0023     		movs	r3, #0
 432 003a 09AA     		add	r2, sp, #36
 433 003c 0321     		movs	r1, #3
 434 003e 1846     		mov	r0, r3
 435 0040 FFF7FEFF 		bl	LCD_draw_string
 436              	.LVL30:
ARM GAS  C:\Users\Xuleo\AppData\Local\Temp\ccbzHqJi.s 			page 12


 133:./Application/Src/menu.c ****         char bar[21];
 437              		.loc 1 133 9 view .LVU84
 134:./Application/Src/menu.c ****         int filled = pct / 5;
 438              		.loc 1 134 9 view .LVU85
 439              		.loc 1 134 26 is_stmt 0 view .LVU86
 440 0044 474B     		ldr	r3, .L43+8
 441 0046 A3FB0530 		umull	r3, r0, r3, r5
 442 004a C0F38700 		ubfx	r0, r0, #2, #8
 443              	.LVL31:
 135:./Application/Src/menu.c ****         for (int i = 0; i < 20; i++)
 444              		.loc 1 135 9 is_stmt 1 view .LVU87
 445              	.LBB7:
 446              		.loc 1 135 14 view .LVU88
 447              		.loc 1 135 18 is_stmt 0 view .LVU89
 448 004e 0023     		movs	r3, #0
 449              		.loc 1 135 9 view .LVU90
 450 0050 58E0     		b	.L36
 451              	.LVL32:
 452              	.L41:
 453              		.loc 1 135 9 view .LVU91
 454              	.LBE7:
 455              	.LBE6:
 110:./Application/Src/menu.c ****         LCD_draw_string(0, 1, "[Transmit Song]         ", COLOR_BLACK, COLOR_WHITE);
 456              		.loc 1 110 9 is_stmt 1 view .LVU92
 457 0052 FFF7FEFF 		bl	clear_menu_area
 458              	.LVL33:
 111:./Application/Src/menu.c ****         LCD_draw_string(0, 2, "Waiting for file...     ", COLOR_BLACK, COLOR_WHITE);
 459              		.loc 1 111 9 view .LVU93
 460 0056 4FF6FF74 		movw	r4, #65535
 461 005a 0094     		str	r4, [sp]
 462 005c 0023     		movs	r3, #0
 463 005e 424A     		ldr	r2, .L43+12
 464 0060 0121     		movs	r1, #1
 465 0062 1846     		mov	r0, r3
 466 0064 FFF7FEFF 		bl	LCD_draw_string
 467              	.LVL34:
 112:./Application/Src/menu.c ****         LCD_draw_string(0, 8, "Send :a to go back      ", COLOR_BLACK, COLOR_WHITE);
 468              		.loc 1 112 9 view .LVU94
 469 0068 0094     		str	r4, [sp]
 470 006a 0023     		movs	r3, #0
 471 006c 3F4A     		ldr	r2, .L43+16
 472 006e 0221     		movs	r1, #2
 473 0070 1846     		mov	r0, r3
 474 0072 FFF7FEFF 		bl	LCD_draw_string
 475              	.LVL35:
 113:./Application/Src/menu.c ****         pkt_send_transfer_status(0); /* begin */
 476              		.loc 1 113 9 view .LVU95
 477 0076 0094     		str	r4, [sp]
 478 0078 0023     		movs	r3, #0
 479 007a 3D4A     		ldr	r2, .L43+20
 480 007c 0821     		movs	r1, #8
 481 007e 1846     		mov	r0, r3
 482 0080 FFF7FEFF 		bl	LCD_draw_string
 483              	.LVL36:
 114:./Application/Src/menu.c ****         last_ft_state = 0xFF;
 484              		.loc 1 114 9 view .LVU96
 485 0084 0020     		movs	r0, #0
ARM GAS  C:\Users\Xuleo\AppData\Local\Temp\ccbzHqJi.s 			page 13


 486 0086 FFF7FEFF 		bl	pkt_send_transfer_status
 487              	.LVL37:
 115:./Application/Src/menu.c ****         page_dirty = 0;
 488              		.loc 1 115 9 view .LVU97
 115:./Application/Src/menu.c ****         page_dirty = 0;
 489              		.loc 1 115 23 is_stmt 0 view .LVU98
 490 008a 3A4B     		ldr	r3, .L43+24
 491 008c FF22     		movs	r2, #255
 492 008e 1A70     		strb	r2, [r3]
 116:./Application/Src/menu.c ****     }
 493              		.loc 1 116 9 is_stmt 1 view .LVU99
 116:./Application/Src/menu.c ****     }
 494              		.loc 1 116 20 is_stmt 0 view .LVU100
 495 0090 324B     		ldr	r3, .L43
 496 0092 0022     		movs	r2, #0
 497 0094 1A60     		str	r2, [r3]
 498 0096 B8E7     		b	.L29
 499              	.LVL38:
 500              	.L31:
 122:./Application/Src/menu.c ****     {
 501              		.loc 1 122 5 view .LVU101
 502 0098 0328     		cmp	r0, #3
 503 009a 28D1     		bne	.L34
 136:./Application/Src/menu.c ****             bar[i] = (i < filled) ? '#' : '-';
 137:./Application/Src/menu.c ****         bar[20] = '\0';
 138:./Application/Src/menu.c ****         LCD_draw_string(0, 4, bar, COLOR_BLACK, COLOR_WHITE);
 139:./Application/Src/menu.c ****         break;
 140:./Application/Src/menu.c ****     }
 141:./Application/Src/menu.c ****     case FT_STATE_COMPLETE:
 142:./Application/Src/menu.c ****         LCD_draw_string(0, 3, "Status: COMPLETE!       ", COLOR_BLACK, COLOR_WHITE);
 143:./Application/Src/menu.c ****         LCD_draw_string(0, 4, "File saved to SD card.  ", COLOR_BLACK, COLOR_WHITE);
 144:./Application/Src/menu.c ****         if (last_ft_state != (uint8_t)FT_STATE_COMPLETE) {
 145:./Application/Src/menu.c ****             pkt_send_transfer_status(1); /* complete */
 146:./Application/Src/menu.c ****         }
 147:./Application/Src/menu.c ****         break;
 148:./Application/Src/menu.c ****     case FT_STATE_ERROR:
 149:./Application/Src/menu.c ****         LCD_draw_string(0, 3, "Status: ERROR           ", COLOR_BLACK, COLOR_WHITE);
 504              		.loc 1 149 9 is_stmt 1 view .LVU102
 505 009c 4FF6FF73 		movw	r3, #65535
 506 00a0 1D46     		mov	r5, r3
 507 00a2 0093     		str	r3, [sp]
 508 00a4 0023     		movs	r3, #0
 509 00a6 344A     		ldr	r2, .L43+28
 510 00a8 0321     		movs	r1, #3
 511 00aa 1846     		mov	r0, r3
 512              	.LVL39:
 513              		.loc 1 149 9 is_stmt 0 view .LVU103
 514 00ac FFF7FEFF 		bl	LCD_draw_string
 515              	.LVL40:
 150:./Application/Src/menu.c ****         LCD_draw_string(0, 4, "Transfer failed.        ", COLOR_BLACK, COLOR_WHITE);
 516              		.loc 1 150 9 is_stmt 1 view .LVU104
 517 00b0 0095     		str	r5, [sp]
 518 00b2 0023     		movs	r3, #0
 519 00b4 314A     		ldr	r2, .L43+32
 520 00b6 0421     		movs	r1, #4
 521 00b8 1846     		mov	r0, r3
 522 00ba FFF7FEFF 		bl	LCD_draw_string
ARM GAS  C:\Users\Xuleo\AppData\Local\Temp\ccbzHqJi.s 			page 14


 523              	.LVL41:
 151:./Application/Src/menu.c ****         if (last_ft_state != (uint8_t)FT_STATE_ERROR) {
 524              		.loc 1 151 9 view .LVU105
 525              		.loc 1 151 27 is_stmt 0 view .LVU106
 526 00be 2D4B     		ldr	r3, .L43+24
 527 00c0 1B78     		ldrb	r3, [r3]	@ zero_extendqisi2
 528              		.loc 1 151 12 view .LVU107
 529 00c2 032B     		cmp	r3, #3
 530 00c4 13D0     		beq	.L34
 152:./Application/Src/menu.c ****             pkt_send_transfer_status(2); /* error */
 531              		.loc 1 152 13 is_stmt 1 view .LVU108
 532 00c6 0220     		movs	r0, #2
 533 00c8 FFF7FEFF 		bl	pkt_send_transfer_status
 534              	.LVL42:
 535 00cc 0FE0     		b	.L34
 536              	.LVL43:
 537              	.L32:
 125:./Application/Src/menu.c ****         LCD_draw_string(0, 4, "                        ", COLOR_BLACK, COLOR_WHITE);
 538              		.loc 1 125 9 view .LVU109
 539 00ce 4FF6FF73 		movw	r3, #65535
 540 00d2 1D46     		mov	r5, r3
 541 00d4 0093     		str	r3, [sp]
 542 00d6 0346     		mov	r3, r0
 543 00d8 294A     		ldr	r2, .L43+36
 544 00da 0321     		movs	r1, #3
 545 00dc FFF7FEFF 		bl	LCD_draw_string
 546              	.LVL44:
 126:./Application/Src/menu.c ****         break;
 547              		.loc 1 126 9 view .LVU110
 548 00e0 0095     		str	r5, [sp]
 549 00e2 2346     		mov	r3, r4
 550 00e4 274A     		ldr	r2, .L43+40
 551 00e6 0421     		movs	r1, #4
 552 00e8 2046     		mov	r0, r4
 553 00ea FFF7FEFF 		bl	LCD_draw_string
 554              	.LVL45:
 127:./Application/Src/menu.c ****     case FT_STATE_RECEIVING:
 555              		.loc 1 127 9 view .LVU111
 556              	.L34:
 153:./Application/Src/menu.c ****         }
 154:./Application/Src/menu.c ****         break;
 155:./Application/Src/menu.c ****     }
 156:./Application/Src/menu.c ****     last_ft_state = (uint8_t)ft;
 557              		.loc 1 156 5 view .LVU112
 558              		.loc 1 156 19 is_stmt 0 view .LVU113
 559 00ee 214B     		ldr	r3, .L43+24
 560 00f0 1C70     		strb	r4, [r3]
 157:./Application/Src/menu.c **** }
 561              		.loc 1 157 1 view .LVU114
 562 00f2 11B0     		add	sp, sp, #68
 563              	.LCFI9:
 564              		.cfi_remember_state
 565              		.cfi_def_cfa_offset 12
 566              		@ sp needed
 567 00f4 30BD     		pop	{r4, r5, pc}
 568              	.LVL46:
 569              	.L39:
ARM GAS  C:\Users\Xuleo\AppData\Local\Temp\ccbzHqJi.s 			page 15


 570              	.LCFI10:
 571              		.cfi_restore_state
 572              	.LBB9:
 573              	.LBB8:
 136:./Application/Src/menu.c ****         bar[20] = '\0';
 574              		.loc 1 136 20 discriminator 2 view .LVU115
 575 00f6 2D21     		movs	r1, #45
 576              	.L37:
 136:./Application/Src/menu.c ****         bar[20] = '\0';
 577              		.loc 1 136 20 discriminator 4 view .LVU116
 578 00f8 03F14002 		add	r2, r3, #64
 579 00fc 6A44     		add	r2, sp, r2
 580 00fe 02F8341C 		strb	r1, [r2, #-52]
 135:./Application/Src/menu.c ****             bar[i] = (i < filled) ? '#' : '-';
 581              		.loc 1 135 34 is_stmt 1 discriminator 2 view .LVU117
 582 0102 0133     		adds	r3, r3, #1
 583              	.LVL47:
 584              	.L36:
 135:./Application/Src/menu.c ****             bar[i] = (i < filled) ? '#' : '-';
 585              		.loc 1 135 27 discriminator 1 view .LVU118
 586 0104 132B     		cmp	r3, #19
 587 0106 03DC     		bgt	.L42
 136:./Application/Src/menu.c ****         bar[20] = '\0';
 588              		.loc 1 136 13 view .LVU119
 136:./Application/Src/menu.c ****         bar[20] = '\0';
 589              		.loc 1 136 20 is_stmt 0 view .LVU120
 590 0108 8342     		cmp	r3, r0
 591 010a F4DA     		bge	.L39
 136:./Application/Src/menu.c ****         bar[20] = '\0';
 592              		.loc 1 136 20 discriminator 1 view .LVU121
 593 010c 2321     		movs	r1, #35
 594 010e F3E7     		b	.L37
 595              	.L42:
 136:./Application/Src/menu.c ****         bar[20] = '\0';
 596              		.loc 1 136 20 discriminator 1 view .LVU122
 597              	.LBE8:
 137:./Application/Src/menu.c ****         LCD_draw_string(0, 4, bar, COLOR_BLACK, COLOR_WHITE);
 598              		.loc 1 137 9 is_stmt 1 view .LVU123
 137:./Application/Src/menu.c ****         LCD_draw_string(0, 4, bar, COLOR_BLACK, COLOR_WHITE);
 599              		.loc 1 137 17 is_stmt 0 view .LVU124
 600 0110 0020     		movs	r0, #0
 601              	.LVL48:
 137:./Application/Src/menu.c ****         LCD_draw_string(0, 4, bar, COLOR_BLACK, COLOR_WHITE);
 602              		.loc 1 137 17 view .LVU125
 603 0112 8DF82000 		strb	r0, [sp, #32]
 138:./Application/Src/menu.c ****         break;
 604              		.loc 1 138 9 is_stmt 1 view .LVU126
 605 0116 4FF6FF73 		movw	r3, #65535
 606              	.LVL49:
 138:./Application/Src/menu.c ****         break;
 607              		.loc 1 138 9 is_stmt 0 view .LVU127
 608 011a 0093     		str	r3, [sp]
 609 011c 0346     		mov	r3, r0
 610 011e 03AA     		add	r2, sp, #12
 611 0120 0421     		movs	r1, #4
 612 0122 FFF7FEFF 		bl	LCD_draw_string
 613              	.LVL50:
ARM GAS  C:\Users\Xuleo\AppData\Local\Temp\ccbzHqJi.s 			page 16


 139:./Application/Src/menu.c ****     }
 614              		.loc 1 139 9 is_stmt 1 view .LVU128
 615 0126 E2E7     		b	.L34
 616              	.LVL51:
 617              	.L30:
 139:./Application/Src/menu.c ****     }
 618              		.loc 1 139 9 is_stmt 0 view .LVU129
 619              	.LBE9:
 142:./Application/Src/menu.c ****         LCD_draw_string(0, 4, "File saved to SD card.  ", COLOR_BLACK, COLOR_WHITE);
 620              		.loc 1 142 9 is_stmt 1 view .LVU130
 621 0128 4FF6FF73 		movw	r3, #65535
 622 012c 1D46     		mov	r5, r3
 623 012e 0093     		str	r3, [sp]
 624 0130 0023     		movs	r3, #0
 625 0132 154A     		ldr	r2, .L43+44
 626 0134 0321     		movs	r1, #3
 627 0136 1846     		mov	r0, r3
 628              	.LVL52:
 142:./Application/Src/menu.c ****         LCD_draw_string(0, 4, "File saved to SD card.  ", COLOR_BLACK, COLOR_WHITE);
 629              		.loc 1 142 9 is_stmt 0 view .LVU131
 630 0138 FFF7FEFF 		bl	LCD_draw_string
 631              	.LVL53:
 143:./Application/Src/menu.c ****         if (last_ft_state != (uint8_t)FT_STATE_COMPLETE) {
 632              		.loc 1 143 9 is_stmt 1 view .LVU132
 633 013c 0095     		str	r5, [sp]
 634 013e 0023     		movs	r3, #0
 635 0140 124A     		ldr	r2, .L43+48
 636 0142 0421     		movs	r1, #4
 637 0144 1846     		mov	r0, r3
 638 0146 FFF7FEFF 		bl	LCD_draw_string
 639              	.LVL54:
 144:./Application/Src/menu.c ****             pkt_send_transfer_status(1); /* complete */
 640              		.loc 1 144 9 view .LVU133
 144:./Application/Src/menu.c ****             pkt_send_transfer_status(1); /* complete */
 641              		.loc 1 144 27 is_stmt 0 view .LVU134
 642 014a 0A4B     		ldr	r3, .L43+24
 643 014c 1B78     		ldrb	r3, [r3]	@ zero_extendqisi2
 144:./Application/Src/menu.c ****             pkt_send_transfer_status(1); /* complete */
 644              		.loc 1 144 12 view .LVU135
 645 014e 022B     		cmp	r3, #2
 646 0150 CDD0     		beq	.L34
 145:./Application/Src/menu.c ****         }
 647              		.loc 1 145 13 is_stmt 1 view .LVU136
 648 0152 0120     		movs	r0, #1
 649 0154 FFF7FEFF 		bl	pkt_send_transfer_status
 650              	.LVL55:
 651 0158 C9E7     		b	.L34
 652              	.L44:
 653 015a 00BF     		.align	2
 654              	.L43:
 655 015c 00000000 		.word	page_dirty
 656 0160 70000000 		.word	.LC16
 657 0164 CDCCCCCC 		.word	-858993459
 658 0168 00000000 		.word	.LC12
 659 016c 1C000000 		.word	.LC13
 660 0170 38000000 		.word	.LC14
 661 0174 00000000 		.word	last_ft_state
ARM GAS  C:\Users\Xuleo\AppData\Local\Temp\ccbzHqJi.s 			page 17


 662 0178 C4000000 		.word	.LC19
 663 017c E0000000 		.word	.LC20
 664 0180 54000000 		.word	.LC15
 665 0184 00000000 		.word	.LC7
 666 0188 8C000000 		.word	.LC17
 667 018c A8000000 		.word	.LC18
 668              		.cfi_endproc
 669              	.LFE362:
 671              		.section	.rodata.menu_draw_transmit_ram.str1.4,"aMS",%progbits,1
 672              		.align	2
 673              	.LC21:
 674 0000 5B547261 		.ascii	"[Transmit to RAM]       \000"
 674      6E736D69 
 674      7420746F 
 674      2052414D 
 674      5D202020 
 675 0019 000000   		.align	2
 676              	.LC22:
 677 001c 57616974 		.ascii	"Waiting for start...    \000"
 677      696E6720 
 677      666F7220 
 677      73746172 
 677      742E2E2E 
 678 0035 000000   		.align	2
 679              	.LC23:
 680 0038 4D617820 		.ascii	"Max 365x14 floats       \000"
 680      33363578 
 680      31342066 
 680      6C6F6174 
 680      73202020 
 681 0051 000000   		.align	2
 682              	.LC24:
 683 0054 52583A20 		.ascii	"RX: %lu/%d rows %3d%%  \000"
 683      256C752F 
 683      25642072 
 683      6F777320 
 683      25336425 
 684              		.align	2
 685              	.LC25:
 686 006c 52656365 		.ascii	"Receiving data...       \000"
 686      6976696E 
 686      67206461 
 686      74612E2E 
 686      2E202020 
 687 0085 000000   		.align	2
 688              	.LC26:
 689 0088 476F7420 		.ascii	"Got %lu chords!     \000"
 689      256C7520 
 689      63686F72 
 689      64732120 
 689      20202020 
 690 009d 000000   		.align	2
 691              	.LC27:
 692 00a0 536F6E67 		.ascii	"Song loaded to RAM!     \000"
 692      206C6F61 
 692      64656420 
 692      746F2052 
ARM GAS  C:\Users\Xuleo\AppData\Local\Temp\ccbzHqJi.s 			page 18


 692      414D2120 
 693              		.section	.text.menu_draw_transmit_ram,"ax",%progbits
 694              		.align	1
 695              		.global	menu_draw_transmit_ram
 696              		.syntax unified
 697              		.thumb
 698              		.thumb_func
 700              	menu_draw_transmit_ram:
 701              	.LFB363:
 158:./Application/Src/menu.c **** 
 159:./Application/Src/menu.c **** /* ------------------------------------------------------------------ */
 160:./Application/Src/menu.c **** /*  Transmit Song (RAM) page                                          */
 161:./Application/Src/menu.c **** /* ------------------------------------------------------------------ */
 162:./Application/Src/menu.c **** 
 163:./Application/Src/menu.c **** void menu_draw_transmit_ram(void){
 702              		.loc 1 163 34 view -0
 703              		.cfi_startproc
 704              		@ args = 0, pretend = 0, frame = 32
 705              		@ frame_needed = 0, uses_anonymous_args = 0
 706 0000 10B5     		push	{r4, lr}
 707              	.LCFI11:
 708              		.cfi_def_cfa_offset 8
 709              		.cfi_offset 4, -8
 710              		.cfi_offset 14, -4
 711 0002 8AB0     		sub	sp, sp, #40
 712              	.LCFI12:
 713              		.cfi_def_cfa_offset 48
 164:./Application/Src/menu.c ****     char buf[32];
 714              		.loc 1 164 5 view .LVU138
 165:./Application/Src/menu.c **** 
 166:./Application/Src/menu.c ****     if (page_dirty){
 715              		.loc 1 166 5 view .LVU139
 716              		.loc 1 166 9 is_stmt 0 view .LVU140
 717 0004 434B     		ldr	r3, .L55
 718 0006 1B68     		ldr	r3, [r3]
 719              		.loc 1 166 8 view .LVU141
 720 0008 63B9     		cbnz	r3, .L51
 721              	.L46:
 167:./Application/Src/menu.c ****         clear_menu_area();
 168:./Application/Src/menu.c ****         LCD_draw_string(0, 1, "[Transmit to RAM]       ", COLOR_BLACK, COLOR_WHITE);
 169:./Application/Src/menu.c ****         LCD_draw_string(0, 2, "Waiting for start...    ", COLOR_BLACK, COLOR_WHITE);
 170:./Application/Src/menu.c ****         LCD_draw_string(0, 3, "Max 365x14 floats       ", COLOR_BLACK, COLOR_WHITE);
 171:./Application/Src/menu.c ****         LCD_draw_string(0, 8, "Send :a to go back      ", COLOR_BLACK, COLOR_WHITE);
 172:./Application/Src/menu.c ****         pkt_send_transfer_status(0); /* begin */
 173:./Application/Src/menu.c ****         last_ram_sent_status = 0;
 174:./Application/Src/menu.c ****         page_dirty = 0;
 175:./Application/Src/menu.c ****     }
 176:./Application/Src/menu.c **** 
 177:./Application/Src/menu.c ****     if (ram_rx_started && !ram_rx_complete){
 722              		.loc 1 177 5 is_stmt 1 view .LVU142
 723              		.loc 1 177 9 is_stmt 0 view .LVU143
 724 000a 434B     		ldr	r3, .L55+4
 725 000c 1B68     		ldr	r3, [r3]
 726              		.loc 1 177 8 view .LVU144
 727 000e 1BB1     		cbz	r3, .L47
 728              		.loc 1 177 27 discriminator 1 view .LVU145
 729 0010 424B     		ldr	r3, .L55+8
ARM GAS  C:\Users\Xuleo\AppData\Local\Temp\ccbzHqJi.s 			page 19


 730 0012 1B68     		ldr	r3, [r3]
 731              		.loc 1 177 24 discriminator 1 view .LVU146
 732 0014 002B     		cmp	r3, #0
 733 0016 2FD0     		beq	.L52
 734              	.L47:
 178:./Application/Src/menu.c ****         uint8_t pct = (uint8_t)((ram_rx_offset * 100) / MAX_CHORD_EVENTS);
 179:./Application/Src/menu.c ****         snprintf(buf, sizeof(buf), "RX: %lu/%d rows %3d%%  ",
 180:./Application/Src/menu.c ****                  (unsigned long)ram_rx_offset, MAX_CHORD_EVENTS, pct);
 181:./Application/Src/menu.c ****         LCD_draw_string(0, 4, buf, COLOR_BLACK, COLOR_WHITE);
 182:./Application/Src/menu.c ****         LCD_draw_string(0, 2, "Receiving data...       ", COLOR_BLACK, COLOR_WHITE);
 183:./Application/Src/menu.c ****     }
 184:./Application/Src/menu.c **** 
 185:./Application/Src/menu.c ****     if (ram_rx_complete){
 735              		.loc 1 185 5 is_stmt 1 view .LVU147
 736              		.loc 1 185 9 is_stmt 0 view .LVU148
 737 0018 404B     		ldr	r3, .L55+8
 738 001a 1B68     		ldr	r3, [r3]
 739              		.loc 1 185 8 view .LVU149
 740 001c 002B     		cmp	r3, #0
 741 001e 4DD1     		bne	.L53
 742              	.L45:
 186:./Application/Src/menu.c ****         uint32_t num_chords = ram_rx_offset;
 187:./Application/Src/menu.c ****         snprintf(buf, sizeof(buf), "Got %lu chords!     ", (unsigned long)num_chords);
 188:./Application/Src/menu.c ****         LCD_draw_string(0, 3, buf, COLOR_BLACK, COLOR_WHITE);
 189:./Application/Src/menu.c ****         LCD_draw_string(0, 4, "Song loaded to RAM!     ", COLOR_BLACK, COLOR_WHITE);
 190:./Application/Src/menu.c **** 
 191:./Application/Src/menu.c ****         if (last_ram_sent_status != 1) {
 192:./Application/Src/menu.c ****             pkt_send_transfer_status(1); /* complete */
 193:./Application/Src/menu.c ****             last_ram_sent_status = 1;
 194:./Application/Src/menu.c ****         }
 195:./Application/Src/menu.c **** 
 196:./Application/Src/menu.c ****         ram_rx_complete = 0;
 197:./Application/Src/menu.c ****         ram_rx_started = 0;
 198:./Application/Src/menu.c ****         ram_rx_offset = 0;
 199:./Application/Src/menu.c ****         redirect_to_ram = 0;
 200:./Application/Src/menu.c ****     }
 201:./Application/Src/menu.c **** }
 743              		.loc 1 201 1 view .LVU150
 744 0020 0AB0     		add	sp, sp, #40
 745              	.LCFI13:
 746              		.cfi_remember_state
 747              		.cfi_def_cfa_offset 8
 748              		@ sp needed
 749 0022 10BD     		pop	{r4, pc}
 750              	.L51:
 751              	.LCFI14:
 752              		.cfi_restore_state
 167:./Application/Src/menu.c ****         LCD_draw_string(0, 1, "[Transmit to RAM]       ", COLOR_BLACK, COLOR_WHITE);
 753              		.loc 1 167 9 is_stmt 1 view .LVU151
 754 0024 FFF7FEFF 		bl	clear_menu_area
 755              	.LVL56:
 168:./Application/Src/menu.c ****         LCD_draw_string(0, 2, "Waiting for start...    ", COLOR_BLACK, COLOR_WHITE);
 756              		.loc 1 168 9 view .LVU152
 757 0028 4FF6FF73 		movw	r3, #65535
 758 002c 1C46     		mov	r4, r3
 759 002e 0093     		str	r3, [sp]
 760 0030 0023     		movs	r3, #0
ARM GAS  C:\Users\Xuleo\AppData\Local\Temp\ccbzHqJi.s 			page 20


 761 0032 3B4A     		ldr	r2, .L55+12
 762 0034 0121     		movs	r1, #1
 763 0036 1846     		mov	r0, r3
 764 0038 FFF7FEFF 		bl	LCD_draw_string
 765              	.LVL57:
 169:./Application/Src/menu.c ****         LCD_draw_string(0, 3, "Max 365x14 floats       ", COLOR_BLACK, COLOR_WHITE);
 766              		.loc 1 169 9 view .LVU153
 767 003c 0094     		str	r4, [sp]
 768 003e 0023     		movs	r3, #0
 769 0040 384A     		ldr	r2, .L55+16
 770 0042 0221     		movs	r1, #2
 771 0044 1846     		mov	r0, r3
 772 0046 FFF7FEFF 		bl	LCD_draw_string
 773              	.LVL58:
 170:./Application/Src/menu.c ****         LCD_draw_string(0, 8, "Send :a to go back      ", COLOR_BLACK, COLOR_WHITE);
 774              		.loc 1 170 9 view .LVU154
 775 004a 0094     		str	r4, [sp]
 776 004c 0023     		movs	r3, #0
 777 004e 364A     		ldr	r2, .L55+20
 778 0050 0321     		movs	r1, #3
 779 0052 1846     		mov	r0, r3
 780 0054 FFF7FEFF 		bl	LCD_draw_string
 781              	.LVL59:
 171:./Application/Src/menu.c ****         pkt_send_transfer_status(0); /* begin */
 782              		.loc 1 171 9 view .LVU155
 783 0058 0094     		str	r4, [sp]
 784 005a 0023     		movs	r3, #0
 785 005c 334A     		ldr	r2, .L55+24
 786 005e 0821     		movs	r1, #8
 787 0060 1846     		mov	r0, r3
 788 0062 FFF7FEFF 		bl	LCD_draw_string
 789              	.LVL60:
 172:./Application/Src/menu.c ****         last_ram_sent_status = 0;
 790              		.loc 1 172 9 view .LVU156
 791 0066 0020     		movs	r0, #0
 792 0068 FFF7FEFF 		bl	pkt_send_transfer_status
 793              	.LVL61:
 173:./Application/Src/menu.c ****         page_dirty = 0;
 794              		.loc 1 173 9 view .LVU157
 173:./Application/Src/menu.c ****         page_dirty = 0;
 795              		.loc 1 173 30 is_stmt 0 view .LVU158
 796 006c 0023     		movs	r3, #0
 797 006e 304A     		ldr	r2, .L55+28
 798 0070 1370     		strb	r3, [r2]
 174:./Application/Src/menu.c ****     }
 799              		.loc 1 174 9 is_stmt 1 view .LVU159
 174:./Application/Src/menu.c ****     }
 800              		.loc 1 174 20 is_stmt 0 view .LVU160
 801 0072 284A     		ldr	r2, .L55
 802 0074 1360     		str	r3, [r2]
 803 0076 C8E7     		b	.L46
 804              	.L52:
 805              	.LBB10:
 178:./Application/Src/menu.c ****         snprintf(buf, sizeof(buf), "RX: %lu/%d rows %3d%%  ",
 806              		.loc 1 178 9 is_stmt 1 view .LVU161
 178:./Application/Src/menu.c ****         snprintf(buf, sizeof(buf), "RX: %lu/%d rows %3d%%  ",
 807              		.loc 1 178 48 is_stmt 0 view .LVU162
ARM GAS  C:\Users\Xuleo\AppData\Local\Temp\ccbzHqJi.s 			page 21


 808 0078 2E4B     		ldr	r3, .L55+32
 809 007a 1A68     		ldr	r2, [r3]
 810 007c 6421     		movs	r1, #100
 811 007e 01FB02F2 		mul	r2, r1, r2
 812              	.LVL62:
 179:./Application/Src/menu.c ****                  (unsigned long)ram_rx_offset, MAX_CHORD_EVENTS, pct);
 813              		.loc 1 179 9 is_stmt 1 view .LVU163
 814 0082 1B68     		ldr	r3, [r3]
 815 0084 C2F38722 		ubfx	r2, r2, #10, #8
 816              	.LVL63:
 179:./Application/Src/menu.c ****                  (unsigned long)ram_rx_offset, MAX_CHORD_EVENTS, pct);
 817              		.loc 1 179 9 is_stmt 0 view .LVU164
 818 0088 0192     		str	r2, [sp, #4]
 819 008a 4FF48062 		mov	r2, #1024
 820 008e 0092     		str	r2, [sp]
 821 0090 294A     		ldr	r2, .L55+36
 822 0092 2021     		movs	r1, #32
 179:./Application/Src/menu.c ****                  (unsigned long)ram_rx_offset, MAX_CHORD_EVENTS, pct);
 823              		.loc 1 179 9 view .LVU165
 824 0094 02A8     		add	r0, sp, #8
 825 0096 FFF7FEFF 		bl	snprintf
 826              	.LVL64:
 181:./Application/Src/menu.c ****         LCD_draw_string(0, 2, "Receiving data...       ", COLOR_BLACK, COLOR_WHITE);
 827              		.loc 1 181 9 is_stmt 1 view .LVU166
 828 009a 4FF6FF74 		movw	r4, #65535
 829 009e 0094     		str	r4, [sp]
 830 00a0 0023     		movs	r3, #0
 831 00a2 02AA     		add	r2, sp, #8
 832 00a4 0421     		movs	r1, #4
 833 00a6 1846     		mov	r0, r3
 834 00a8 FFF7FEFF 		bl	LCD_draw_string
 835              	.LVL65:
 182:./Application/Src/menu.c ****     }
 836              		.loc 1 182 9 view .LVU167
 837 00ac 0094     		str	r4, [sp]
 838 00ae 0023     		movs	r3, #0
 839 00b0 224A     		ldr	r2, .L55+40
 840 00b2 0221     		movs	r1, #2
 841 00b4 1846     		mov	r0, r3
 842 00b6 FFF7FEFF 		bl	LCD_draw_string
 843              	.LVL66:
 844 00ba ADE7     		b	.L47
 845              	.LVL67:
 846              	.L53:
 182:./Application/Src/menu.c ****     }
 847              		.loc 1 182 9 is_stmt 0 view .LVU168
 848              	.LBE10:
 849              	.LBB11:
 186:./Application/Src/menu.c ****         snprintf(buf, sizeof(buf), "Got %lu chords!     ", (unsigned long)num_chords);
 850              		.loc 1 186 9 is_stmt 1 view .LVU169
 186:./Application/Src/menu.c ****         snprintf(buf, sizeof(buf), "Got %lu chords!     ", (unsigned long)num_chords);
 851              		.loc 1 186 18 is_stmt 0 view .LVU170
 852 00bc 1D4B     		ldr	r3, .L55+32
 853 00be 1B68     		ldr	r3, [r3]
 854              	.LVL68:
 187:./Application/Src/menu.c ****         LCD_draw_string(0, 3, buf, COLOR_BLACK, COLOR_WHITE);
 855              		.loc 1 187 9 is_stmt 1 view .LVU171
ARM GAS  C:\Users\Xuleo\AppData\Local\Temp\ccbzHqJi.s 			page 22


 856 00c0 1F4A     		ldr	r2, .L55+44
 857 00c2 2021     		movs	r1, #32
 858 00c4 02A8     		add	r0, sp, #8
 859 00c6 FFF7FEFF 		bl	snprintf
 860              	.LVL69:
 188:./Application/Src/menu.c ****         LCD_draw_string(0, 4, "Song loaded to RAM!     ", COLOR_BLACK, COLOR_WHITE);
 861              		.loc 1 188 9 view .LVU172
 862 00ca 4FF6FF74 		movw	r4, #65535
 863 00ce 0094     		str	r4, [sp]
 864 00d0 0023     		movs	r3, #0
 865 00d2 02AA     		add	r2, sp, #8
 866 00d4 0321     		movs	r1, #3
 867 00d6 1846     		mov	r0, r3
 868 00d8 FFF7FEFF 		bl	LCD_draw_string
 869              	.LVL70:
 189:./Application/Src/menu.c **** 
 870              		.loc 1 189 9 view .LVU173
 871 00dc 0094     		str	r4, [sp]
 872 00de 0023     		movs	r3, #0
 873 00e0 184A     		ldr	r2, .L55+48
 874 00e2 0421     		movs	r1, #4
 875 00e4 1846     		mov	r0, r3
 876 00e6 FFF7FEFF 		bl	LCD_draw_string
 877              	.LVL71:
 191:./Application/Src/menu.c ****             pkt_send_transfer_status(1); /* complete */
 878              		.loc 1 191 9 view .LVU174
 191:./Application/Src/menu.c ****             pkt_send_transfer_status(1); /* complete */
 879              		.loc 1 191 34 is_stmt 0 view .LVU175
 880 00ea 114B     		ldr	r3, .L55+28
 881 00ec 1B78     		ldrb	r3, [r3]	@ zero_extendqisi2
 191:./Application/Src/menu.c ****             pkt_send_transfer_status(1); /* complete */
 882              		.loc 1 191 12 view .LVU176
 883 00ee 012B     		cmp	r3, #1
 884 00f0 09D1     		bne	.L54
 885              	.L49:
 196:./Application/Src/menu.c ****         ram_rx_started = 0;
 886              		.loc 1 196 9 is_stmt 1 view .LVU177
 196:./Application/Src/menu.c ****         ram_rx_started = 0;
 887              		.loc 1 196 25 is_stmt 0 view .LVU178
 888 00f2 0023     		movs	r3, #0
 889 00f4 094A     		ldr	r2, .L55+8
 890 00f6 1360     		str	r3, [r2]
 197:./Application/Src/menu.c ****         ram_rx_offset = 0;
 891              		.loc 1 197 9 is_stmt 1 view .LVU179
 197:./Application/Src/menu.c ****         ram_rx_offset = 0;
 892              		.loc 1 197 24 is_stmt 0 view .LVU180
 893 00f8 074A     		ldr	r2, .L55+4
 894 00fa 1360     		str	r3, [r2]
 198:./Application/Src/menu.c ****         redirect_to_ram = 0;
 895              		.loc 1 198 9 is_stmt 1 view .LVU181
 198:./Application/Src/menu.c ****         redirect_to_ram = 0;
 896              		.loc 1 198 23 is_stmt 0 view .LVU182
 897 00fc 0D4A     		ldr	r2, .L55+32
 898 00fe 1360     		str	r3, [r2]
 199:./Application/Src/menu.c ****     }
 899              		.loc 1 199 9 is_stmt 1 view .LVU183
 199:./Application/Src/menu.c ****     }
ARM GAS  C:\Users\Xuleo\AppData\Local\Temp\ccbzHqJi.s 			page 23


 900              		.loc 1 199 25 is_stmt 0 view .LVU184
 901 0100 114A     		ldr	r2, .L55+52
 902 0102 1360     		str	r3, [r2]
 903              	.LBE11:
 904              		.loc 1 201 1 view .LVU185
 905 0104 8CE7     		b	.L45
 906              	.L54:
 907              	.LBB12:
 192:./Application/Src/menu.c ****             last_ram_sent_status = 1;
 908              		.loc 1 192 13 is_stmt 1 view .LVU186
 909 0106 0120     		movs	r0, #1
 910 0108 FFF7FEFF 		bl	pkt_send_transfer_status
 911              	.LVL72:
 193:./Application/Src/menu.c ****         }
 912              		.loc 1 193 13 view .LVU187
 193:./Application/Src/menu.c ****         }
 913              		.loc 1 193 34 is_stmt 0 view .LVU188
 914 010c 084B     		ldr	r3, .L55+28
 915 010e 0122     		movs	r2, #1
 916 0110 1A70     		strb	r2, [r3]
 917 0112 EEE7     		b	.L49
 918              	.L56:
 919              		.align	2
 920              	.L55:
 921 0114 00000000 		.word	page_dirty
 922 0118 00000000 		.word	ram_rx_started
 923 011c 00000000 		.word	ram_rx_complete
 924 0120 00000000 		.word	.LC21
 925 0124 1C000000 		.word	.LC22
 926 0128 38000000 		.word	.LC23
 927 012c 38000000 		.word	.LC14
 928 0130 00000000 		.word	last_ram_sent_status
 929 0134 00000000 		.word	ram_rx_offset
 930 0138 54000000 		.word	.LC24
 931 013c 6C000000 		.word	.LC25
 932 0140 88000000 		.word	.LC26
 933 0144 A0000000 		.word	.LC27
 934 0148 00000000 		.word	redirect_to_ram
 935              	.LBE12:
 936              		.cfi_endproc
 937              	.LFE363:
 939              		.section	.rodata.menu_draw_select.str1.4,"aMS",%progbits,1
 940              		.align	2
 941              	.LC28:
 942 0000 5B53656C 		.ascii	"[Select] %d songs\000"
 942      6563745D 
 942      20256420 
 942      736F6E67 
 942      7300
 943 0012 0000     		.align	2
 944              	.LC29:
 945 0014 4E6F2073 		.ascii	"No songs on SD card.    \000"
 945      6F6E6773 
 945      206F6E20 
 945      53442063 
 945      6172642E 
 946 002d 000000   		.align	2
ARM GAS  C:\Users\Xuleo\AppData\Local\Temp\ccbzHqJi.s 			page 24


 947              	.LC30:
 948 0030 25632A25 		.ascii	"%c*%-12s %5luB\000"
 948      2D313273 
 948      2025356C 
 948      754200
 949 003f 00       		.align	2
 950              	.LC31:
 951 0040 25632025 		.ascii	"%c %-12s %5luB\000"
 951      2D313273 
 951      2025356C 
 951      754200
 952 004f 00       		.align	2
 953              	.LC32:
 954 0050 20205B25 		.ascii	"  [%d-%d of %d]\000"
 954      642D2564 
 954      206F6620 
 954      25645D00 
 955              		.align	2
 956              	.LC33:
 957 0060 3A642073 		.ascii	":d select  :a back      \000"
 957      656C6563 
 957      7420203A 
 957      61206261 
 957      636B2020 
 958              		.section	.text.menu_draw_select,"ax",%progbits
 959              		.align	1
 960              		.global	menu_draw_select
 961              		.syntax unified
 962              		.thumb
 963              		.thumb_func
 965              	menu_draw_select:
 966              	.LFB364:
 202:./Application/Src/menu.c **** 
 203:./Application/Src/menu.c **** /* ------------------------------------------------------------------ */
 204:./Application/Src/menu.c **** /*  Select Song page                                                  */
 205:./Application/Src/menu.c **** /* ------------------------------------------------------------------ */
 206:./Application/Src/menu.c **** 
 207:./Application/Src/menu.c **** void menu_draw_select(void)
 208:./Application/Src/menu.c **** {
 967              		.loc 1 208 1 is_stmt 1 view -0
 968              		.cfi_startproc
 969              		@ args = 0, pretend = 0, frame = 48
 970              		@ frame_needed = 0, uses_anonymous_args = 0
 971 0000 30B5     		push	{r4, r5, lr}
 972              	.LCFI15:
 973              		.cfi_def_cfa_offset 12
 974              		.cfi_offset 4, -12
 975              		.cfi_offset 5, -8
 976              		.cfi_offset 14, -4
 977 0002 8FB0     		sub	sp, sp, #60
 978              	.LCFI16:
 979              		.cfi_def_cfa_offset 72
 209:./Application/Src/menu.c ****     char line[48];
 980              		.loc 1 209 5 view .LVU190
 210:./Application/Src/menu.c **** 
 211:./Application/Src/menu.c ****     if (page_dirty)
 981              		.loc 1 211 5 view .LVU191
ARM GAS  C:\Users\Xuleo\AppData\Local\Temp\ccbzHqJi.s 			page 25


 982              		.loc 1 211 9 is_stmt 0 view .LVU192
 983 0004 774B     		ldr	r3, .L85
 984 0006 1B68     		ldr	r3, [r3]
 985              		.loc 1 211 8 view .LVU193
 986 0008 0BBB     		cbnz	r3, .L79
 987              	.L58:
 212:./Application/Src/menu.c ****     {
 213:./Application/Src/menu.c ****         clear_menu_area();
 214:./Application/Src/menu.c ****         sd_list_txt_files();
 215:./Application/Src/menu.c ****         select_song_index = 0;
 216:./Application/Src/menu.c ****         select_scroll_offset = 0;
 217:./Application/Src/menu.c ****         file_list_sent = 0;
 218:./Application/Src/menu.c ****         file_list_send_idx = 0;
 219:./Application/Src/menu.c ****         page_dirty = 0;
 220:./Application/Src/menu.c ****     }
 221:./Application/Src/menu.c **** 
 222:./Application/Src/menu.c ****     /* Send file list to PC one entry per main-loop iteration (non-blocking) */
 223:./Application/Src/menu.c ****     if (!file_list_sent) {
 988              		.loc 1 223 5 is_stmt 1 view .LVU194
 989              		.loc 1 223 9 is_stmt 0 view .LVU195
 990 000a 774B     		ldr	r3, .L85+4
 991 000c 1B68     		ldr	r3, [r3]
 992              		.loc 1 223 8 view .LVU196
 993 000e 93B9     		cbnz	r3, .L59
 224:./Application/Src/menu.c ****         if (file_list_send_idx < fileCount) {
 994              		.loc 1 224 9 is_stmt 1 view .LVU197
 995              		.loc 1 224 32 is_stmt 0 view .LVU198
 996 0010 764B     		ldr	r3, .L85+8
 997 0012 1B68     		ldr	r3, [r3]
 998 0014 764A     		ldr	r2, .L85+12
 999 0016 1068     		ldr	r0, [r2]
 1000              		.loc 1 224 12 view .LVU199
 1001 0018 8342     		cmp	r3, r0
 1002 001a 28DA     		bge	.L60
 225:./Application/Src/menu.c ****             pkt_send_file_entry(fileList[file_list_send_idx].name,
 1003              		.loc 1 225 13 is_stmt 1 view .LVU200
 1004              		.loc 1 225 61 is_stmt 0 view .LVU201
 1005 001c 03EB8300 		add	r0, r3, r3, lsl #2
 1006 0020 744A     		ldr	r2, .L85+16
 1007              		.loc 1 225 13 view .LVU202
 1008 0022 02EB8003 		add	r3, r2, r0, lsl #2
 1009 0026 1969     		ldr	r1, [r3, #16]
 1010 0028 1846     		mov	r0, r3
 1011 002a FFF7FEFF 		bl	pkt_send_file_entry
 1012              	.LVL73:
 226:./Application/Src/menu.c ****                                 fileList[file_list_send_idx].size);
 227:./Application/Src/menu.c ****             file_list_send_idx++;
 1013              		.loc 1 227 13 is_stmt 1 view .LVU203
 1014              		.loc 1 227 31 is_stmt 0 view .LVU204
 1015 002e 6F4A     		ldr	r2, .L85+8
 1016 0030 1368     		ldr	r3, [r2]
 1017 0032 0133     		adds	r3, r3, #1
 1018 0034 1360     		str	r3, [r2]
 1019              	.L59:
 228:./Application/Src/menu.c ****         } else {
 229:./Application/Src/menu.c ****             pkt_send_file_list_end((uint8_t)fileCount);
 230:./Application/Src/menu.c ****             file_list_sent = 1;
ARM GAS  C:\Users\Xuleo\AppData\Local\Temp\ccbzHqJi.s 			page 26


 231:./Application/Src/menu.c ****         }
 232:./Application/Src/menu.c ****     }
 233:./Application/Src/menu.c **** 
 234:./Application/Src/menu.c ****     /* Header */
 235:./Application/Src/menu.c ****     snprintf(line, sizeof(line), "[Select] %d songs", (int)fileCount);
 1020              		.loc 1 235 5 is_stmt 1 view .LVU205
 1021 0036 02AC     		add	r4, sp, #8
 1022 0038 6D4B     		ldr	r3, .L85+12
 1023 003a 1B68     		ldr	r3, [r3]
 1024 003c 6E4A     		ldr	r2, .L85+20
 1025 003e 3021     		movs	r1, #48
 1026 0040 2046     		mov	r0, r4
 1027 0042 FFF7FEFF 		bl	snprintf
 1028              	.LVL74:
 236:./Application/Src/menu.c ****     int hlen = strlen(line);
 1029              		.loc 1 236 5 view .LVU206
 1030              		.loc 1 236 16 is_stmt 0 view .LVU207
 1031 0046 2046     		mov	r0, r4
 1032 0048 FFF7FEFF 		bl	strlen
 1033              	.LVL75:
 237:./Application/Src/menu.c ****     while (hlen < 24)
 1034              		.loc 1 237 5 is_stmt 1 view .LVU208
 1035              		.loc 1 237 11 is_stmt 0 view .LVU209
 1036 004c 1DE0     		b	.L61
 1037              	.LVL76:
 1038              	.L79:
 213:./Application/Src/menu.c ****         sd_list_txt_files();
 1039              		.loc 1 213 9 is_stmt 1 view .LVU210
 1040 004e FFF7FEFF 		bl	clear_menu_area
 1041              	.LVL77:
 214:./Application/Src/menu.c ****         select_song_index = 0;
 1042              		.loc 1 214 9 view .LVU211
 1043 0052 FFF7FEFF 		bl	sd_list_txt_files
 1044              	.LVL78:
 215:./Application/Src/menu.c ****         select_scroll_offset = 0;
 1045              		.loc 1 215 9 view .LVU212
 215:./Application/Src/menu.c ****         select_scroll_offset = 0;
 1046              		.loc 1 215 27 is_stmt 0 view .LVU213
 1047 0056 0023     		movs	r3, #0
 1048 0058 684A     		ldr	r2, .L85+24
 1049 005a 1360     		str	r3, [r2]
 216:./Application/Src/menu.c ****         file_list_sent = 0;
 1050              		.loc 1 216 9 is_stmt 1 view .LVU214
 216:./Application/Src/menu.c ****         file_list_sent = 0;
 1051              		.loc 1 216 30 is_stmt 0 view .LVU215
 1052 005c 684A     		ldr	r2, .L85+28
 1053 005e 1360     		str	r3, [r2]
 217:./Application/Src/menu.c ****         file_list_send_idx = 0;
 1054              		.loc 1 217 9 is_stmt 1 view .LVU216
 217:./Application/Src/menu.c ****         file_list_send_idx = 0;
 1055              		.loc 1 217 24 is_stmt 0 view .LVU217
 1056 0060 614A     		ldr	r2, .L85+4
 1057 0062 1360     		str	r3, [r2]
 218:./Application/Src/menu.c ****         page_dirty = 0;
 1058              		.loc 1 218 9 is_stmt 1 view .LVU218
 218:./Application/Src/menu.c ****         page_dirty = 0;
 1059              		.loc 1 218 28 is_stmt 0 view .LVU219
ARM GAS  C:\Users\Xuleo\AppData\Local\Temp\ccbzHqJi.s 			page 27


 1060 0064 614A     		ldr	r2, .L85+8
 1061 0066 1360     		str	r3, [r2]
 219:./Application/Src/menu.c ****     }
 1062              		.loc 1 219 9 is_stmt 1 view .LVU220
 219:./Application/Src/menu.c ****     }
 1063              		.loc 1 219 20 is_stmt 0 view .LVU221
 1064 0068 5E4A     		ldr	r2, .L85
 1065 006a 1360     		str	r3, [r2]
 1066 006c CDE7     		b	.L58
 1067              	.L60:
 229:./Application/Src/menu.c ****             file_list_sent = 1;
 1068              		.loc 1 229 13 is_stmt 1 view .LVU222
 1069 006e C0B2     		uxtb	r0, r0
 1070 0070 FFF7FEFF 		bl	pkt_send_file_list_end
 1071              	.LVL79:
 230:./Application/Src/menu.c ****         }
 1072              		.loc 1 230 13 view .LVU223
 230:./Application/Src/menu.c ****         }
 1073              		.loc 1 230 28 is_stmt 0 view .LVU224
 1074 0074 5C4B     		ldr	r3, .L85+4
 1075 0076 0122     		movs	r2, #1
 1076 0078 1A60     		str	r2, [r3]
 1077 007a DCE7     		b	.L59
 1078              	.LVL80:
 1079              	.L62:
 238:./Application/Src/menu.c ****         line[hlen++] = ' ';
 1080              		.loc 1 238 9 is_stmt 1 view .LVU225
 1081              		.loc 1 238 22 is_stmt 0 view .LVU226
 1082 007c 00F13803 		add	r3, r0, #56
 1083 0080 6B44     		add	r3, sp, r3
 1084 0082 2022     		movs	r2, #32
 1085 0084 03F8302C 		strb	r2, [r3, #-48]
 1086              		.loc 1 238 18 view .LVU227
 1087 0088 0130     		adds	r0, r0, #1
 1088              	.LVL81:
 1089              	.L61:
 237:./Application/Src/menu.c ****         line[hlen++] = ' ';
 1090              		.loc 1 237 17 is_stmt 1 view .LVU228
 1091 008a 1728     		cmp	r0, #23
 1092 008c F6DD     		ble	.L62
 239:./Application/Src/menu.c ****     line[24] = '\0';
 1093              		.loc 1 239 5 view .LVU229
 1094              		.loc 1 239 14 is_stmt 0 view .LVU230
 1095 008e 0020     		movs	r0, #0
 1096              	.LVL82:
 1097              		.loc 1 239 14 view .LVU231
 1098 0090 8DF82000 		strb	r0, [sp, #32]
 240:./Application/Src/menu.c ****     LCD_draw_string(0, 1, line, COLOR_BLACK, COLOR_WHITE);
 1099              		.loc 1 240 5 is_stmt 1 view .LVU232
 1100 0094 4FF6FF73 		movw	r3, #65535
 1101 0098 0093     		str	r3, [sp]
 1102 009a 0346     		mov	r3, r0
 1103 009c 02AA     		add	r2, sp, #8
 1104 009e 0121     		movs	r1, #1
 1105 00a0 FFF7FEFF 		bl	LCD_draw_string
 1106              	.LVL83:
 241:./Application/Src/menu.c **** 
ARM GAS  C:\Users\Xuleo\AppData\Local\Temp\ccbzHqJi.s 			page 28


 242:./Application/Src/menu.c ****     if (fileCount == 0)
 1107              		.loc 1 242 5 view .LVU233
 1108              		.loc 1 242 19 is_stmt 0 view .LVU234
 1109 00a4 524B     		ldr	r3, .L85+12
 1110 00a6 1B68     		ldr	r3, [r3]
 1111              		.loc 1 242 8 view .LVU235
 1112 00a8 0BB1     		cbz	r3, .L80
 1113              	.LBB13:
 243:./Application/Src/menu.c ****     {
 244:./Application/Src/menu.c ****         LCD_draw_string(0, 2, "No songs on SD card.    ", COLOR_BLACK, COLOR_WHITE);
 245:./Application/Src/menu.c ****         LCD_draw_string(0, 7, "Send :a to go back      ", COLOR_BLACK, COLOR_WHITE);
 246:./Application/Src/menu.c ****         return;
 247:./Application/Src/menu.c ****     }
 248:./Application/Src/menu.c **** 
 249:./Application/Src/menu.c ****     for (int i = 0; i < 5; i++)
 1114              		.loc 1 249 14 view .LVU236
 1115 00aa 0024     		movs	r4, #0
 1116 00ac 4EE0     		b	.L63
 1117              	.L80:
 1118              	.LBE13:
 244:./Application/Src/menu.c ****         LCD_draw_string(0, 7, "Send :a to go back      ", COLOR_BLACK, COLOR_WHITE);
 1119              		.loc 1 244 9 is_stmt 1 view .LVU237
 1120 00ae 4FF6FF74 		movw	r4, #65535
 1121 00b2 0094     		str	r4, [sp]
 1122 00b4 534A     		ldr	r2, .L85+32
 1123 00b6 0221     		movs	r1, #2
 1124 00b8 1846     		mov	r0, r3
 1125 00ba FFF7FEFF 		bl	LCD_draw_string
 1126              	.LVL84:
 245:./Application/Src/menu.c ****         return;
 1127              		.loc 1 245 9 view .LVU238
 1128 00be 0094     		str	r4, [sp]
 1129 00c0 0023     		movs	r3, #0
 1130 00c2 514A     		ldr	r2, .L85+36
 1131 00c4 0721     		movs	r1, #7
 1132 00c6 1846     		mov	r0, r3
 1133 00c8 FFF7FEFF 		bl	LCD_draw_string
 1134              	.LVL85:
 246:./Application/Src/menu.c ****     }
 1135              		.loc 1 246 9 view .LVU239
 1136 00cc 5FE0     		b	.L57
 1137              	.LVL86:
 1138              	.L83:
 1139              	.LBB17:
 1140              	.LBB14:
 1141              	.LBB15:
 250:./Application/Src/menu.c ****     {
 251:./Application/Src/menu.c ****         int fileIdx = select_scroll_offset + i;
 252:./Application/Src/menu.c ****         int row = 2 + i;
 253:./Application/Src/menu.c **** 
 254:./Application/Src/menu.c ****         if (fileIdx < fileCount)
 255:./Application/Src/menu.c ****         {
 256:./Application/Src/menu.c ****             char marker = ' ';
 1142              		.loc 1 256 13 view .LVU240
 257:./Application/Src/menu.c ****             if (fileIdx == select_song_index)
 1143              		.loc 1 257 13 view .LVU241
 1144              		.loc 1 257 25 is_stmt 0 view .LVU242
ARM GAS  C:\Users\Xuleo\AppData\Local\Temp\ccbzHqJi.s 			page 29


 1145 00ce 4B4B     		ldr	r3, .L85+24
 1146 00d0 1B68     		ldr	r3, [r3]
 1147              		.loc 1 257 16 view .LVU243
 1148 00d2 9342     		cmp	r3, r2
 1149 00d4 15D0     		beq	.L77
 256:./Application/Src/menu.c ****             if (fileIdx == select_song_index)
 1150              		.loc 1 256 18 view .LVU244
 1151 00d6 2023     		movs	r3, #32
 1152              	.L66:
 1153              	.LVL87:
 258:./Application/Src/menu.c ****                 marker = '>';
 259:./Application/Src/menu.c ****             if (fileIdx == active_song_index)
 1154              		.loc 1 259 13 is_stmt 1 view .LVU245
 1155              		.loc 1 259 25 is_stmt 0 view .LVU246
 1156 00d8 4C49     		ldr	r1, .L85+40
 1157 00da 0968     		ldr	r1, [r1]
 1158              		.loc 1 259 16 view .LVU247
 1159 00dc 9142     		cmp	r1, r2
 1160 00de 12D0     		beq	.L81
 260:./Application/Src/menu.c ****             {
 261:./Application/Src/menu.c ****                 snprintf(line, sizeof(line), "%c*%-12s %5luB", marker,
 262:./Application/Src/menu.c ****                          fileList[fileIdx].name, (unsigned long)fileList[fileIdx].size);
 263:./Application/Src/menu.c ****             }
 264:./Application/Src/menu.c ****             else
 265:./Application/Src/menu.c ****             {
 266:./Application/Src/menu.c ****                 snprintf(line, sizeof(line), "%c %-12s %5luB", marker,
 1161              		.loc 1 266 17 is_stmt 1 view .LVU248
 267:./Application/Src/menu.c ****                          fileList[fileIdx].name, (unsigned long)fileList[fileIdx].size);
 1162              		.loc 1 267 43 is_stmt 0 view .LVU249
 1163 00e0 02EB8200 		add	r0, r2, r2, lsl #2
 1164 00e4 4349     		ldr	r1, .L85+16
 1165 00e6 01EB8000 		add	r0, r1, r0, lsl #2
 1166              		.loc 1 267 82 view .LVU250
 1167 00ea 0269     		ldr	r2, [r0, #16]
 1168              	.LVL88:
 266:./Application/Src/menu.c ****                          fileList[fileIdx].name, (unsigned long)fileList[fileIdx].size);
 1169              		.loc 1 266 17 view .LVU251
 1170 00ec 0192     		str	r2, [sp, #4]
 1171 00ee 0090     		str	r0, [sp]
 1172 00f0 474A     		ldr	r2, .L85+44
 1173 00f2 3021     		movs	r1, #48
 1174 00f4 02A8     		add	r0, sp, #8
 1175 00f6 FFF7FEFF 		bl	snprintf
 1176              	.LVL89:
 1177              	.L68:
 268:./Application/Src/menu.c ****             }
 269:./Application/Src/menu.c ****             int len = strlen(line);
 1178              		.loc 1 269 13 is_stmt 1 view .LVU252
 1179              		.loc 1 269 23 is_stmt 0 view .LVU253
 1180 00fa 02A8     		add	r0, sp, #8
 1181 00fc FFF7FEFF 		bl	strlen
 1182              	.LVL90:
 270:./Application/Src/menu.c ****             while (len < 23)
 1183              		.loc 1 270 13 is_stmt 1 view .LVU254
 1184              		.loc 1 270 19 is_stmt 0 view .LVU255
 1185 0100 16E0     		b	.L69
 1186              	.LVL91:
ARM GAS  C:\Users\Xuleo\AppData\Local\Temp\ccbzHqJi.s 			page 30


 1187              	.L77:
 258:./Application/Src/menu.c ****             if (fileIdx == active_song_index)
 1188              		.loc 1 258 24 view .LVU256
 1189 0102 3E23     		movs	r3, #62
 1190 0104 E8E7     		b	.L66
 1191              	.LVL92:
 1192              	.L81:
 261:./Application/Src/menu.c ****                          fileList[fileIdx].name, (unsigned long)fileList[fileIdx].size);
 1193              		.loc 1 261 17 is_stmt 1 view .LVU257
 262:./Application/Src/menu.c ****             }
 1194              		.loc 1 262 43 is_stmt 0 view .LVU258
 1195 0106 02EB8200 		add	r0, r2, r2, lsl #2
 1196 010a 3A49     		ldr	r1, .L85+16
 1197 010c 01EB8000 		add	r0, r1, r0, lsl #2
 262:./Application/Src/menu.c ****             }
 1198              		.loc 1 262 82 view .LVU259
 1199 0110 0269     		ldr	r2, [r0, #16]
 1200              	.LVL93:
 261:./Application/Src/menu.c ****                          fileList[fileIdx].name, (unsigned long)fileList[fileIdx].size);
 1201              		.loc 1 261 17 view .LVU260
 1202 0112 0192     		str	r2, [sp, #4]
 1203 0114 0090     		str	r0, [sp]
 1204 0116 3F4A     		ldr	r2, .L85+48
 1205 0118 3021     		movs	r1, #48
 1206 011a 02A8     		add	r0, sp, #8
 1207 011c FFF7FEFF 		bl	snprintf
 1208              	.LVL94:
 261:./Application/Src/menu.c ****                          fileList[fileIdx].name, (unsigned long)fileList[fileIdx].size);
 1209              		.loc 1 261 17 view .LVU261
 1210 0120 EBE7     		b	.L68
 1211              	.LVL95:
 1212              	.L70:
 271:./Application/Src/menu.c ****                 line[len++] = ' ';
 1213              		.loc 1 271 17 is_stmt 1 view .LVU262
 1214              		.loc 1 271 29 is_stmt 0 view .LVU263
 1215 0122 00F13803 		add	r3, r0, #56
 1216 0126 6B44     		add	r3, sp, r3
 1217 0128 2022     		movs	r2, #32
 1218 012a 03F8302C 		strb	r2, [r3, #-48]
 1219              		.loc 1 271 25 view .LVU264
 1220 012e 0130     		adds	r0, r0, #1
 1221              	.LVL96:
 1222              	.L69:
 270:./Application/Src/menu.c ****                 line[len++] = ' ';
 1223              		.loc 1 270 24 is_stmt 1 view .LVU265
 1224 0130 1628     		cmp	r0, #22
 1225 0132 F6DD     		ble	.L70
 272:./Application/Src/menu.c ****             line[23] = '\0';
 1226              		.loc 1 272 13 view .LVU266
 1227              		.loc 1 272 22 is_stmt 0 view .LVU267
 1228 0134 0020     		movs	r0, #0
 1229              	.LVL97:
 1230              		.loc 1 272 22 view .LVU268
 1231 0136 8DF81F00 		strb	r0, [sp, #31]
 273:./Application/Src/menu.c ****             LCD_draw_string(0, row, line, COLOR_BLACK, COLOR_WHITE);
 1232              		.loc 1 273 13 is_stmt 1 view .LVU269
 1233 013a 4FF6FF73 		movw	r3, #65535
ARM GAS  C:\Users\Xuleo\AppData\Local\Temp\ccbzHqJi.s 			page 31


 1234 013e 0093     		str	r3, [sp]
 1235 0140 0346     		mov	r3, r0
 1236 0142 02AA     		add	r2, sp, #8
 1237 0144 A9B2     		uxth	r1, r5
 1238 0146 FFF7FEFF 		bl	LCD_draw_string
 1239              	.LVL98:
 1240              	.L71:
 1241              		.loc 1 273 13 is_stmt 0 view .LVU270
 1242              	.LBE15:
 1243              	.LBE14:
 249:./Application/Src/menu.c ****     {
 1244              		.loc 1 249 29 is_stmt 1 discriminator 2 view .LVU271
 1245 014a 0134     		adds	r4, r4, #1
 1246              	.LVL99:
 1247              	.L63:
 249:./Application/Src/menu.c ****     {
 1248              		.loc 1 249 23 discriminator 1 view .LVU272
 1249 014c 042C     		cmp	r4, #4
 1250 014e 11DC     		bgt	.L82
 1251              	.LBB16:
 251:./Application/Src/menu.c ****         int row = 2 + i;
 1252              		.loc 1 251 9 view .LVU273
 251:./Application/Src/menu.c ****         int row = 2 + i;
 1253              		.loc 1 251 44 is_stmt 0 view .LVU274
 1254 0150 2B4B     		ldr	r3, .L85+28
 1255 0152 1A68     		ldr	r2, [r3]
 251:./Application/Src/menu.c ****         int row = 2 + i;
 1256              		.loc 1 251 13 view .LVU275
 1257 0154 2244     		add	r2, r2, r4
 1258              	.LVL100:
 252:./Application/Src/menu.c **** 
 1259              		.loc 1 252 9 is_stmt 1 view .LVU276
 252:./Application/Src/menu.c **** 
 1260              		.loc 1 252 13 is_stmt 0 view .LVU277
 1261 0156 A51C     		adds	r5, r4, #2
 1262              	.LVL101:
 254:./Application/Src/menu.c ****         {
 1263              		.loc 1 254 9 is_stmt 1 view .LVU278
 254:./Application/Src/menu.c ****         {
 1264              		.loc 1 254 21 is_stmt 0 view .LVU279
 1265 0158 254B     		ldr	r3, .L85+12
 1266 015a 1B68     		ldr	r3, [r3]
 254:./Application/Src/menu.c ****         {
 1267              		.loc 1 254 12 view .LVU280
 1268 015c 9342     		cmp	r3, r2
 1269 015e B6DC     		bgt	.L83
 274:./Application/Src/menu.c ****         }
 275:./Application/Src/menu.c ****         else
 276:./Application/Src/menu.c ****         {
 277:./Application/Src/menu.c ****             LCD_draw_string(0, row, "                        ", COLOR_BLACK, COLOR_WHITE);
 1270              		.loc 1 277 13 is_stmt 1 view .LVU281
 1271 0160 4FF6FF73 		movw	r3, #65535
 1272 0164 0093     		str	r3, [sp]
 1273 0166 0023     		movs	r3, #0
 1274 0168 2B4A     		ldr	r2, .L85+52
 1275              	.LVL102:
 1276              		.loc 1 277 13 is_stmt 0 view .LVU282
ARM GAS  C:\Users\Xuleo\AppData\Local\Temp\ccbzHqJi.s 			page 32


 1277 016a A9B2     		uxth	r1, r5
 1278 016c 1846     		mov	r0, r3
 1279 016e FFF7FEFF 		bl	LCD_draw_string
 1280              	.LVL103:
 1281              		.loc 1 277 13 view .LVU283
 1282 0172 EAE7     		b	.L71
 1283              	.LVL104:
 1284              	.L82:
 1285              		.loc 1 277 13 view .LVU284
 1286              	.LBE16:
 1287              	.LBE17:
 278:./Application/Src/menu.c ****         }
 279:./Application/Src/menu.c ****     }
 280:./Application/Src/menu.c **** 
 281:./Application/Src/menu.c ****     if (fileCount > 5)
 1288              		.loc 1 281 5 is_stmt 1 view .LVU285
 1289              		.loc 1 281 19 is_stmt 0 view .LVU286
 1290 0174 1E4B     		ldr	r3, .L85+12
 1291 0176 1A68     		ldr	r2, [r3]
 1292              		.loc 1 281 8 view .LVU287
 1293 0178 052A     		cmp	r2, #5
 1294 017a 0ADC     		bgt	.L84
 1295              	.LVL105:
 1296              	.L73:
 282:./Application/Src/menu.c ****     {
 283:./Application/Src/menu.c ****         int lo = select_scroll_offset + 1;
 284:./Application/Src/menu.c ****         int hi = (select_scroll_offset + 5 < fileCount) ? select_scroll_offset + 5 : fileCount;
 285:./Application/Src/menu.c ****         snprintf(line, sizeof(line), "  [%d-%d of %d]", lo, hi, (int)fileCount);
 286:./Application/Src/menu.c ****         int slen = strlen(line);
 287:./Application/Src/menu.c ****         while (slen < 24)
 288:./Application/Src/menu.c ****             line[slen++] = ' ';
 289:./Application/Src/menu.c ****         line[24] = '\0';
 290:./Application/Src/menu.c ****         LCD_draw_string(0, 7, line, COLOR_BLACK, COLOR_WHITE);
 291:./Application/Src/menu.c ****     }
 292:./Application/Src/menu.c **** 
 293:./Application/Src/menu.c ****     LCD_draw_string(0, 8, ":d select  :a back      ", COLOR_BLACK, COLOR_WHITE);
 1297              		.loc 1 293 5 is_stmt 1 view .LVU288
 1298 017c 4FF6FF73 		movw	r3, #65535
 1299 0180 0093     		str	r3, [sp]
 1300 0182 0023     		movs	r3, #0
 1301 0184 254A     		ldr	r2, .L85+56
 1302 0186 0821     		movs	r1, #8
 1303 0188 1846     		mov	r0, r3
 1304 018a FFF7FEFF 		bl	LCD_draw_string
 1305              	.LVL106:
 1306              	.L57:
 294:./Application/Src/menu.c **** }
 1307              		.loc 1 294 1 is_stmt 0 view .LVU289
 1308 018e 0FB0     		add	sp, sp, #60
 1309              	.LCFI17:
 1310              		.cfi_remember_state
 1311              		.cfi_def_cfa_offset 12
 1312              		@ sp needed
 1313 0190 30BD     		pop	{r4, r5, pc}
 1314              	.LVL107:
 1315              	.L84:
 1316              	.LCFI18:
ARM GAS  C:\Users\Xuleo\AppData\Local\Temp\ccbzHqJi.s 			page 33


 1317              		.cfi_restore_state
 1318              	.LBB18:
 283:./Application/Src/menu.c ****         int hi = (select_scroll_offset + 5 < fileCount) ? select_scroll_offset + 5 : fileCount;
 1319              		.loc 1 283 9 is_stmt 1 view .LVU290
 283:./Application/Src/menu.c ****         int hi = (select_scroll_offset + 5 < fileCount) ? select_scroll_offset + 5 : fileCount;
 1320              		.loc 1 283 39 is_stmt 0 view .LVU291
 1321 0192 1B4B     		ldr	r3, .L85+28
 1322 0194 1B68     		ldr	r3, [r3]
 1323              	.LVL108:
 284:./Application/Src/menu.c ****         snprintf(line, sizeof(line), "  [%d-%d of %d]", lo, hi, (int)fileCount);
 1324              		.loc 1 284 9 is_stmt 1 view .LVU292
 284:./Application/Src/menu.c ****         snprintf(line, sizeof(line), "  [%d-%d of %d]", lo, hi, (int)fileCount);
 1325              		.loc 1 284 40 is_stmt 0 view .LVU293
 1326 0196 591D     		adds	r1, r3, #5
 284:./Application/Src/menu.c ****         snprintf(line, sizeof(line), "  [%d-%d of %d]", lo, hi, (int)fileCount);
 1327              		.loc 1 284 13 view .LVU294
 1328 0198 9142     		cmp	r1, r2
 1329 019a A8BF     		it	ge
 1330 019c 1146     		movge	r1, r2
 1331              	.LVL109:
 285:./Application/Src/menu.c ****         int slen = strlen(line);
 1332              		.loc 1 285 9 is_stmt 1 view .LVU295
 1333 019e 02AC     		add	r4, sp, #8
 1334              	.LVL110:
 285:./Application/Src/menu.c ****         int slen = strlen(line);
 1335              		.loc 1 285 9 is_stmt 0 view .LVU296
 1336 01a0 0192     		str	r2, [sp, #4]
 1337 01a2 0091     		str	r1, [sp]
 1338 01a4 0133     		adds	r3, r3, #1
 1339              	.LVL111:
 285:./Application/Src/menu.c ****         int slen = strlen(line);
 1340              		.loc 1 285 9 view .LVU297
 1341 01a6 1E4A     		ldr	r2, .L85+60
 1342 01a8 3021     		movs	r1, #48
 1343              	.LVL112:
 285:./Application/Src/menu.c ****         int slen = strlen(line);
 1344              		.loc 1 285 9 view .LVU298
 1345 01aa 2046     		mov	r0, r4
 1346 01ac FFF7FEFF 		bl	snprintf
 1347              	.LVL113:
 286:./Application/Src/menu.c ****         while (slen < 24)
 1348              		.loc 1 286 9 is_stmt 1 view .LVU299
 286:./Application/Src/menu.c ****         while (slen < 24)
 1349              		.loc 1 286 20 is_stmt 0 view .LVU300
 1350 01b0 2046     		mov	r0, r4
 1351 01b2 FFF7FEFF 		bl	strlen
 1352              	.LVL114:
 287:./Application/Src/menu.c ****             line[slen++] = ' ';
 1353              		.loc 1 287 9 is_stmt 1 view .LVU301
 287:./Application/Src/menu.c ****             line[slen++] = ' ';
 1354              		.loc 1 287 15 is_stmt 0 view .LVU302
 1355 01b6 06E0     		b	.L74
 1356              	.L75:
 288:./Application/Src/menu.c ****         line[24] = '\0';
 1357              		.loc 1 288 13 is_stmt 1 view .LVU303
 1358              	.LVL115:
 288:./Application/Src/menu.c ****         line[24] = '\0';
ARM GAS  C:\Users\Xuleo\AppData\Local\Temp\ccbzHqJi.s 			page 34


 1359              		.loc 1 288 26 is_stmt 0 view .LVU304
 1360 01b8 00F13803 		add	r3, r0, #56
 1361 01bc 6B44     		add	r3, sp, r3
 1362 01be 2022     		movs	r2, #32
 1363 01c0 03F8302C 		strb	r2, [r3, #-48]
 288:./Application/Src/menu.c ****         line[24] = '\0';
 1364              		.loc 1 288 22 view .LVU305
 1365 01c4 0130     		adds	r0, r0, #1
 1366              	.LVL116:
 1367              	.L74:
 287:./Application/Src/menu.c ****             line[slen++] = ' ';
 1368              		.loc 1 287 21 is_stmt 1 view .LVU306
 1369 01c6 1728     		cmp	r0, #23
 1370 01c8 F6DD     		ble	.L75
 289:./Application/Src/menu.c ****         LCD_draw_string(0, 7, line, COLOR_BLACK, COLOR_WHITE);
 1371              		.loc 1 289 9 view .LVU307
 289:./Application/Src/menu.c ****         LCD_draw_string(0, 7, line, COLOR_BLACK, COLOR_WHITE);
 1372              		.loc 1 289 18 is_stmt 0 view .LVU308
 1373 01ca 0020     		movs	r0, #0
 1374              	.LVL117:
 289:./Application/Src/menu.c ****         LCD_draw_string(0, 7, line, COLOR_BLACK, COLOR_WHITE);
 1375              		.loc 1 289 18 view .LVU309
 1376 01cc 8DF82000 		strb	r0, [sp, #32]
 290:./Application/Src/menu.c ****     }
 1377              		.loc 1 290 9 is_stmt 1 view .LVU310
 1378 01d0 4FF6FF73 		movw	r3, #65535
 1379 01d4 0093     		str	r3, [sp]
 1380 01d6 0346     		mov	r3, r0
 1381 01d8 02AA     		add	r2, sp, #8
 1382 01da 0721     		movs	r1, #7
 1383 01dc FFF7FEFF 		bl	LCD_draw_string
 1384              	.LVL118:
 1385 01e0 CCE7     		b	.L73
 1386              	.L86:
 1387 01e2 00BF     		.align	2
 1388              	.L85:
 1389 01e4 00000000 		.word	page_dirty
 1390 01e8 00000000 		.word	file_list_sent
 1391 01ec 00000000 		.word	file_list_send_idx
 1392 01f0 00000000 		.word	fileCount
 1393 01f4 00000000 		.word	fileList
 1394 01f8 00000000 		.word	.LC28
 1395 01fc 00000000 		.word	select_song_index
 1396 0200 00000000 		.word	select_scroll_offset
 1397 0204 14000000 		.word	.LC29
 1398 0208 38000000 		.word	.LC14
 1399 020c 00000000 		.word	active_song_index
 1400 0210 40000000 		.word	.LC31
 1401 0214 30000000 		.word	.LC30
 1402 0218 00000000 		.word	.LC7
 1403 021c 60000000 		.word	.LC33
 1404 0220 50000000 		.word	.LC32
 1405              	.LBE18:
 1406              		.cfi_endproc
 1407              	.LFE364:
 1409              		.section	.text.menu_get_state,"ax",%progbits
 1410              		.align	1
ARM GAS  C:\Users\Xuleo\AppData\Local\Temp\ccbzHqJi.s 			page 35


 1411              		.global	menu_get_state
 1412              		.syntax unified
 1413              		.thumb
 1414              		.thumb_func
 1416              	menu_get_state:
 1417              	.LFB367:
 295:./Application/Src/menu.c **** 
 296:./Application/Src/menu.c **** /* ------------------------------------------------------------------ */
 297:./Application/Src/menu.c **** /*  Dispatch incoming UART data to the right handler                  */
 298:./Application/Src/menu.c **** /* ------------------------------------------------------------------ */
 299:./Application/Src/menu.c **** 
 300:./Application/Src/menu.c **** void menu_process_message(uint8_t *data, uint16_t len)
 301:./Application/Src/menu.c **** {
 302:./Application/Src/menu.c ****     if (len == 0) return;
 303:./Application/Src/menu.c **** 
 304:./Application/Src/menu.c ****     MenuState_t state = menu_get_state();
 305:./Application/Src/menu.c **** 
 306:./Application/Src/menu.c ****     if (state == MENU_STATE_TRANSMIT &&
 307:./Application/Src/menu.c ****         data[0] >= 0xF0 && data[0] <= 0xF3)
 308:./Application/Src/menu.c ****     {
 309:./Application/Src/menu.c ****         FT_ProcessPacket(data, len);
 310:./Application/Src/menu.c ****     }
 311:./Application/Src/menu.c ****     else if (state == MENU_STATE_TRANSMIT_RAM && data[0] >= 0xE0 && data[0] <= 0xE2)
 312:./Application/Src/menu.c ****     {
 313:./Application/Src/menu.c ****         RAM_ProcessPacket(data, len);
 314:./Application/Src/menu.c ****     }
 315:./Application/Src/menu.c ****     else
 316:./Application/Src/menu.c ****     {
 317:./Application/Src/menu.c ****         data[len] = '\0';
 318:./Application/Src/menu.c ****         if (len > 0 && data[len - 1] == '\n') data[len - 1] = '\0';
 319:./Application/Src/menu.c ****         execute_command(data);
 320:./Application/Src/menu.c ****     }
 321:./Application/Src/menu.c **** }
 322:./Application/Src/menu.c **** 
 323:./Application/Src/menu.c **** int menu_try_dispatch_binary(uint8_t *data, uint16_t len)
 324:./Application/Src/menu.c **** {
 325:./Application/Src/menu.c ****     if (len == 0) return 0;
 326:./Application/Src/menu.c **** 
 327:./Application/Src/menu.c ****     if (menu_get_state() == MENU_STATE_TRANSMIT &&
 328:./Application/Src/menu.c ****         data[0] >= 0xF0 && data[0] <= 0xF3)
 329:./Application/Src/menu.c ****     {
 330:./Application/Src/menu.c ****         uint16_t need = 0;
 331:./Application/Src/menu.c ****         switch (data[0]) {
 332:./Application/Src/menu.c ****           case FT_CMD_FILE_START: need = FT_FILE_START_SIZE; break;
 333:./Application/Src/menu.c ****           case FT_CMD_FILE_DATA:  need = (len >= 4) ? (uint16_t)(5 + data[3]) : 0xFFFF; break;
 334:./Application/Src/menu.c ****           case FT_CMD_FILE_END:   need = FT_FILE_END_SIZE; break;
 335:./Application/Src/menu.c ****           case FT_CMD_FILE_ABORT: need = FT_FILE_ABORT_SIZE; break;
 336:./Application/Src/menu.c ****         }
 337:./Application/Src/menu.c ****         if (need == 0 || len < need)
 338:./Application/Src/menu.c ****             return 0;
 339:./Application/Src/menu.c **** 
 340:./Application/Src/menu.c ****         menu_process_message(data, len);
 341:./Application/Src/menu.c ****         return 1;
 342:./Application/Src/menu.c ****     }
 343:./Application/Src/menu.c **** 
 344:./Application/Src/menu.c ****     if (menu_get_state() == MENU_STATE_TRANSMIT_RAM &&
 345:./Application/Src/menu.c ****         data[0] >= 0xE0 && data[0] <= 0xE2)
ARM GAS  C:\Users\Xuleo\AppData\Local\Temp\ccbzHqJi.s 			page 36


 346:./Application/Src/menu.c ****     {
 347:./Application/Src/menu.c ****         uint16_t need = 0;
 348:./Application/Src/menu.c ****         switch (data[0]) {
 349:./Application/Src/menu.c ****           case FT_CMD_RAM_START: need = 2; break;
 350:./Application/Src/menu.c ****           case FT_CMD_RAM_DATA:  need = 4 + sizeof(ChordEvent_t); break;
 351:./Application/Src/menu.c ****           case FT_CMD_RAM_END:   need = 2; break;
 352:./Application/Src/menu.c ****         }
 353:./Application/Src/menu.c ****         if (need == 0 || len < need)
 354:./Application/Src/menu.c ****             return 0;
 355:./Application/Src/menu.c **** 
 356:./Application/Src/menu.c ****         menu_process_message(data, len);
 357:./Application/Src/menu.c ****         return 1;
 358:./Application/Src/menu.c ****     }
 359:./Application/Src/menu.c **** 
 360:./Application/Src/menu.c ****     menu_process_message(data, len);
 361:./Application/Src/menu.c ****     return 1;
 362:./Application/Src/menu.c **** }
 363:./Application/Src/menu.c **** 
 364:./Application/Src/menu.c **** /* ------------------------------------------------------------------ */
 365:./Application/Src/menu.c **** /*  Public API                                                        */
 366:./Application/Src/menu.c **** /* ------------------------------------------------------------------ */
 367:./Application/Src/menu.c **** 
 368:./Application/Src/menu.c **** MenuState_t menu_get_state(void)
 369:./Application/Src/menu.c **** {
 1418              		.loc 1 369 1 view -0
 1419              		.cfi_startproc
 1420              		@ args = 0, pretend = 0, frame = 0
 1421              		@ frame_needed = 0, uses_anonymous_args = 0
 1422              		@ link register save eliminated.
 370:./Application/Src/menu.c ****     return menu_state;
 1423              		.loc 1 370 5 view .LVU312
 371:./Application/Src/menu.c **** }
 1424              		.loc 1 371 1 is_stmt 0 view .LVU313
 1425 0000 014B     		ldr	r3, .L88
 1426 0002 1878     		ldrb	r0, [r3]	@ zero_extendqisi2
 1427 0004 7047     		bx	lr
 1428              	.L89:
 1429 0006 00BF     		.align	2
 1430              	.L88:
 1431 0008 00000000 		.word	menu_state
 1432              		.cfi_endproc
 1433              	.LFE367:
 1435              		.section	.text.menu_process_message,"ax",%progbits
 1436              		.align	1
 1437              		.global	menu_process_message
 1438              		.syntax unified
 1439              		.thumb
 1440              		.thumb_func
 1442              	menu_process_message:
 1443              	.LVL119:
 1444              	.LFB365:
 301:./Application/Src/menu.c ****     if (len == 0) return;
 1445              		.loc 1 301 1 is_stmt 1 view -0
 1446              		.cfi_startproc
 1447              		@ args = 0, pretend = 0, frame = 0
 1448              		@ frame_needed = 0, uses_anonymous_args = 0
 302:./Application/Src/menu.c **** 
ARM GAS  C:\Users\Xuleo\AppData\Local\Temp\ccbzHqJi.s 			page 37


 1449              		.loc 1 302 5 view .LVU315
 302:./Application/Src/menu.c **** 
 1450              		.loc 1 302 8 is_stmt 0 view .LVU316
 1451 0000 49B3     		cbz	r1, .L96
 301:./Application/Src/menu.c ****     if (len == 0) return;
 1452              		.loc 1 301 1 view .LVU317
 1453 0002 38B5     		push	{r3, r4, r5, lr}
 1454              	.LCFI19:
 1455              		.cfi_def_cfa_offset 16
 1456              		.cfi_offset 3, -16
 1457              		.cfi_offset 4, -12
 1458              		.cfi_offset 5, -8
 1459              		.cfi_offset 14, -4
 1460 0004 0446     		mov	r4, r0
 1461 0006 0D46     		mov	r5, r1
 304:./Application/Src/menu.c **** 
 1462              		.loc 1 304 5 is_stmt 1 view .LVU318
 304:./Application/Src/menu.c **** 
 1463              		.loc 1 304 25 is_stmt 0 view .LVU319
 1464 0008 FFF7FEFF 		bl	menu_get_state
 1465              	.LVL120:
 306:./Application/Src/menu.c ****         data[0] >= 0xF0 && data[0] <= 0xF3)
 1466              		.loc 1 306 5 is_stmt 1 view .LVU320
 306:./Application/Src/menu.c ****         data[0] >= 0xF0 && data[0] <= 0xF3)
 1467              		.loc 1 306 8 is_stmt 0 view .LVU321
 1468 000c 0128     		cmp	r0, #1
 1469 000e 0BD0     		beq	.L99
 1470              	.L92:
 311:./Application/Src/menu.c ****     {
 1471              		.loc 1 311 10 is_stmt 1 view .LVU322
 311:./Application/Src/menu.c ****     {
 1472              		.loc 1 311 13 is_stmt 0 view .LVU323
 1473 0010 0228     		cmp	r0, #2
 1474 0012 13D0     		beq	.L100
 1475              	.L93:
 317:./Application/Src/menu.c ****         if (len > 0 && data[len - 1] == '\n') data[len - 1] = '\0';
 1476              		.loc 1 317 9 is_stmt 1 view .LVU324
 317:./Application/Src/menu.c ****         if (len > 0 && data[len - 1] == '\n') data[len - 1] = '\0';
 1477              		.loc 1 317 19 is_stmt 0 view .LVU325
 1478 0014 0023     		movs	r3, #0
 1479 0016 6355     		strb	r3, [r4, r5]
 318:./Application/Src/menu.c ****         execute_command(data);
 1480              		.loc 1 318 9 is_stmt 1 view .LVU326
 318:./Application/Src/menu.c ****         execute_command(data);
 1481              		.loc 1 318 33 is_stmt 0 discriminator 1 view .LVU327
 1482 0018 6B1E     		subs	r3, r5, #1
 318:./Application/Src/menu.c ****         execute_command(data);
 1483              		.loc 1 318 28 discriminator 1 view .LVU328
 1484 001a E25C     		ldrb	r2, [r4, r3]	@ zero_extendqisi2
 318:./Application/Src/menu.c ****         execute_command(data);
 1485              		.loc 1 318 21 discriminator 1 view .LVU329
 1486 001c 0A2A     		cmp	r2, #10
 1487 001e 17D0     		beq	.L101
 1488              	.L94:
 319:./Application/Src/menu.c ****     }
 1489              		.loc 1 319 9 is_stmt 1 view .LVU330
 1490 0020 2046     		mov	r0, r4
ARM GAS  C:\Users\Xuleo\AppData\Local\Temp\ccbzHqJi.s 			page 38


 1491              	.LVL121:
 319:./Application/Src/menu.c ****     }
 1492              		.loc 1 319 9 is_stmt 0 view .LVU331
 1493 0022 FFF7FEFF 		bl	execute_command
 1494              	.LVL122:
 1495              	.L90:
 321:./Application/Src/menu.c **** 
 1496              		.loc 1 321 1 view .LVU332
 1497 0026 38BD     		pop	{r3, r4, r5, pc}
 1498              	.LVL123:
 1499              	.L99:
 307:./Application/Src/menu.c ****     {
 1500              		.loc 1 307 13 view .LVU333
 1501 0028 2378     		ldrb	r3, [r4]	@ zero_extendqisi2
 306:./Application/Src/menu.c ****         data[0] >= 0xF0 && data[0] <= 0xF3)
 1502              		.loc 1 306 38 discriminator 1 view .LVU334
 1503 002a EF2B     		cmp	r3, #239
 1504 002c F0D9     		bls	.L92
 307:./Application/Src/menu.c ****     {
 1505              		.loc 1 307 25 view .LVU335
 1506 002e F32B     		cmp	r3, #243
 1507 0030 EED8     		bhi	.L92
 309:./Application/Src/menu.c ****     }
 1508              		.loc 1 309 9 is_stmt 1 view .LVU336
 1509 0032 2946     		mov	r1, r5
 1510 0034 2046     		mov	r0, r4
 1511              	.LVL124:
 309:./Application/Src/menu.c ****     }
 1512              		.loc 1 309 9 is_stmt 0 view .LVU337
 1513 0036 FFF7FEFF 		bl	FT_ProcessPacket
 1514              	.LVL125:
 1515 003a F4E7     		b	.L90
 1516              	.LVL126:
 1517              	.L100:
 311:./Application/Src/menu.c ****     {
 1518              		.loc 1 311 54 discriminator 1 view .LVU338
 1519 003c 2378     		ldrb	r3, [r4]	@ zero_extendqisi2
 311:./Application/Src/menu.c ****     {
 1520              		.loc 1 311 47 discriminator 1 view .LVU339
 1521 003e DF2B     		cmp	r3, #223
 1522 0040 E8D9     		bls	.L93
 311:./Application/Src/menu.c ****     {
 1523              		.loc 1 311 66 discriminator 2 view .LVU340
 1524 0042 E22B     		cmp	r3, #226
 1525 0044 E6D8     		bhi	.L93
 313:./Application/Src/menu.c ****     }
 1526              		.loc 1 313 9 is_stmt 1 view .LVU341
 1527 0046 2946     		mov	r1, r5
 1528 0048 2046     		mov	r0, r4
 1529              	.LVL127:
 313:./Application/Src/menu.c ****     }
 1530              		.loc 1 313 9 is_stmt 0 view .LVU342
 1531 004a FFF7FEFF 		bl	RAM_ProcessPacket
 1532              	.LVL128:
 1533 004e EAE7     		b	.L90
 1534              	.LVL129:
 1535              	.L101:
ARM GAS  C:\Users\Xuleo\AppData\Local\Temp\ccbzHqJi.s 			page 39


 318:./Application/Src/menu.c ****         execute_command(data);
 1536              		.loc 1 318 47 is_stmt 1 discriminator 2 view .LVU343
 318:./Application/Src/menu.c ****         execute_command(data);
 1537              		.loc 1 318 61 is_stmt 0 discriminator 2 view .LVU344
 1538 0050 0022     		movs	r2, #0
 1539 0052 E254     		strb	r2, [r4, r3]
 1540 0054 E4E7     		b	.L94
 1541              	.LVL130:
 1542              	.L96:
 1543              	.LCFI20:
 1544              		.cfi_def_cfa_offset 0
 1545              		.cfi_restore 3
 1546              		.cfi_restore 4
 1547              		.cfi_restore 5
 1548              		.cfi_restore 14
 318:./Application/Src/menu.c ****         execute_command(data);
 1549              		.loc 1 318 61 discriminator 2 view .LVU345
 1550 0056 7047     		bx	lr
 1551              		.cfi_endproc
 1552              	.LFE365:
 1554              		.section	.text.menu_try_dispatch_binary,"ax",%progbits
 1555              		.align	1
 1556              		.global	menu_try_dispatch_binary
 1557              		.syntax unified
 1558              		.thumb
 1559              		.thumb_func
 1561              	menu_try_dispatch_binary:
 1562              	.LVL131:
 1563              	.LFB366:
 324:./Application/Src/menu.c ****     if (len == 0) return 0;
 1564              		.loc 1 324 1 is_stmt 1 view -0
 1565              		.cfi_startproc
 1566              		@ args = 0, pretend = 0, frame = 0
 1567              		@ frame_needed = 0, uses_anonymous_args = 0
 325:./Application/Src/menu.c **** 
 1568              		.loc 1 325 5 view .LVU347
 325:./Application/Src/menu.c **** 
 1569              		.loc 1 325 8 is_stmt 0 view .LVU348
 1570 0000 0029     		cmp	r1, #0
 1571 0002 53D0     		beq	.L110
 324:./Application/Src/menu.c ****     if (len == 0) return 0;
 1572              		.loc 1 324 1 view .LVU349
 1573 0004 38B5     		push	{r3, r4, r5, lr}
 1574              	.LCFI21:
 1575              		.cfi_def_cfa_offset 16
 1576              		.cfi_offset 3, -16
 1577              		.cfi_offset 4, -12
 1578              		.cfi_offset 5, -8
 1579              		.cfi_offset 14, -4
 1580 0006 0446     		mov	r4, r0
 1581 0008 0D46     		mov	r5, r1
 327:./Application/Src/menu.c ****         data[0] >= 0xF0 && data[0] <= 0xF3)
 1582              		.loc 1 327 5 is_stmt 1 view .LVU350
 327:./Application/Src/menu.c ****         data[0] >= 0xF0 && data[0] <= 0xF3)
 1583              		.loc 1 327 9 is_stmt 0 view .LVU351
 1584 000a FFF7FEFF 		bl	menu_get_state
 1585              	.LVL132:
ARM GAS  C:\Users\Xuleo\AppData\Local\Temp\ccbzHqJi.s 			page 40


 327:./Application/Src/menu.c ****         data[0] >= 0xF0 && data[0] <= 0xF3)
 1586              		.loc 1 327 8 discriminator 1 view .LVU352
 1587 000e 0128     		cmp	r0, #1
 1588 0010 0ED0     		beq	.L124
 1589              	.L104:
 344:./Application/Src/menu.c ****         data[0] >= 0xE0 && data[0] <= 0xE2)
 1590              		.loc 1 344 5 is_stmt 1 view .LVU353
 344:./Application/Src/menu.c ****         data[0] >= 0xE0 && data[0] <= 0xE2)
 1591              		.loc 1 344 8 is_stmt 0 discriminator 1 view .LVU354
 1592 0012 0228     		cmp	r0, #2
 1593 0014 44D1     		bne	.L108
 345:./Application/Src/menu.c ****     {
 1594              		.loc 1 345 13 view .LVU355
 1595 0016 2378     		ldrb	r3, [r4]	@ zero_extendqisi2
 344:./Application/Src/menu.c ****         data[0] >= 0xE0 && data[0] <= 0xE2)
 1596              		.loc 1 344 53 discriminator 2 view .LVU356
 1597 0018 DF2B     		cmp	r3, #223
 1598 001a 41D9     		bls	.L108
 345:./Application/Src/menu.c ****     {
 1599              		.loc 1 345 25 view .LVU357
 1600 001c E22B     		cmp	r3, #226
 1601 001e 3FD8     		bhi	.L108
 1602              	.LBB19:
 347:./Application/Src/menu.c ****         switch (data[0]) {
 1603              		.loc 1 347 9 is_stmt 1 view .LVU358
 1604              	.LVL133:
 348:./Application/Src/menu.c ****           case FT_CMD_RAM_START: need = 2; break;
 1605              		.loc 1 348 9 view .LVU359
 1606 0020 E12B     		cmp	r3, #225
 1607 0022 30D0     		beq	.L116
 1608 0024 E22B     		cmp	r3, #226
 1609 0026 33D0     		beq	.L117
 1610 0028 E02B     		cmp	r3, #224
 1611 002a 2AD0     		beq	.L125
 1612 002c 0020     		movs	r0, #0
 1613 002e 3CE0     		b	.L102
 1614              	.LVL134:
 1615              	.L124:
 348:./Application/Src/menu.c ****           case FT_CMD_RAM_START: need = 2; break;
 1616              		.loc 1 348 9 is_stmt 0 view .LVU360
 1617              	.LBE19:
 328:./Application/Src/menu.c ****     {
 1618              		.loc 1 328 13 view .LVU361
 1619 0030 2378     		ldrb	r3, [r4]	@ zero_extendqisi2
 327:./Application/Src/menu.c ****         data[0] >= 0xF0 && data[0] <= 0xF3)
 1620              		.loc 1 327 49 discriminator 2 view .LVU362
 1621 0032 EF2B     		cmp	r3, #239
 1622 0034 EDD9     		bls	.L104
 328:./Application/Src/menu.c ****     {
 1623              		.loc 1 328 25 view .LVU363
 1624 0036 F32B     		cmp	r3, #243
 1625 0038 EBD8     		bhi	.L104
 1626              	.LBB20:
 330:./Application/Src/menu.c ****         switch (data[0]) {
 1627              		.loc 1 330 9 is_stmt 1 view .LVU364
 1628              	.LVL135:
 331:./Application/Src/menu.c ****           case FT_CMD_FILE_START: need = FT_FILE_START_SIZE; break;
ARM GAS  C:\Users\Xuleo\AppData\Local\Temp\ccbzHqJi.s 			page 41


 1629              		.loc 1 331 9 view .LVU365
 1630 003a F22B     		cmp	r3, #242
 1631 003c 11D0     		beq	.L111
 1632 003e 0AD8     		bhi	.L106
 1633 0040 F02B     		cmp	r3, #240
 1634 0042 13D0     		beq	.L112
 1635 0044 F12B     		cmp	r3, #241
 1636 0046 04D1     		bne	.L126
 333:./Application/Src/menu.c ****           case FT_CMD_FILE_END:   need = FT_FILE_END_SIZE; break;
 1637              		.loc 1 333 35 view .LVU366
 333:./Application/Src/menu.c ****           case FT_CMD_FILE_END:   need = FT_FILE_END_SIZE; break;
 1638              		.loc 1 333 40 is_stmt 0 view .LVU367
 1639 0048 032D     		cmp	r5, #3
 1640 004a 11D9     		bls	.L114
 333:./Application/Src/menu.c ****           case FT_CMD_FILE_END:   need = FT_FILE_END_SIZE; break;
 1641              		.loc 1 333 74 discriminator 1 view .LVU368
 1642 004c E378     		ldrb	r3, [r4, #3]	@ zero_extendqisi2
 333:./Application/Src/menu.c ****           case FT_CMD_FILE_END:   need = FT_FILE_END_SIZE; break;
 1643              		.loc 1 333 40 discriminator 1 view .LVU369
 1644 004e 0533     		adds	r3, r3, #5
 1645              	.LVL136:
 337:./Application/Src/menu.c ****             return 0;
 1646              		.loc 1 337 9 is_stmt 1 view .LVU370
 1647 0050 08E0     		b	.L105
 1648              	.LVL137:
 1649              	.L126:
 331:./Application/Src/menu.c ****           case FT_CMD_FILE_START: need = FT_FILE_START_SIZE; break;
 1650              		.loc 1 331 9 is_stmt 0 view .LVU371
 1651 0052 0020     		movs	r0, #0
 1652 0054 29E0     		b	.L102
 1653              	.L106:
 1654 0056 F32B     		cmp	r3, #243
 1655 0058 01D1     		bne	.L127
 1656 005a 0223     		movs	r3, #2
 1657 005c 02E0     		b	.L105
 1658              	.L127:
 1659 005e 0020     		movs	r0, #0
 1660 0060 23E0     		b	.L102
 1661              	.L111:
 334:./Application/Src/menu.c ****           case FT_CMD_FILE_ABORT: need = FT_FILE_ABORT_SIZE; break;
 1662              		.loc 1 334 40 view .LVU372
 1663 0062 0423     		movs	r3, #4
 1664              	.LVL138:
 1665              	.L105:
 337:./Application/Src/menu.c ****             return 0;
 1666              		.loc 1 337 23 discriminator 1 view .LVU373
 1667 0064 AB42     		cmp	r3, r5
 1668 0066 06D9     		bls	.L128
 338:./Application/Src/menu.c **** 
 1669              		.loc 1 338 20 view .LVU374
 1670 0068 0020     		movs	r0, #0
 1671 006a 1EE0     		b	.L102
 1672              	.LVL139:
 1673              	.L112:
 332:./Application/Src/menu.c ****           case FT_CMD_FILE_DATA:  need = (len >= 4) ? (uint16_t)(5 + data[3]) : 0xFFFF; break;
 1674              		.loc 1 332 40 view .LVU375
 1675 006c 1223     		movs	r3, #18
ARM GAS  C:\Users\Xuleo\AppData\Local\Temp\ccbzHqJi.s 			page 42


 1676 006e F9E7     		b	.L105
 1677              	.L114:
 333:./Application/Src/menu.c ****           case FT_CMD_FILE_END:   need = FT_FILE_END_SIZE; break;
 1678              		.loc 1 333 40 discriminator 2 view .LVU376
 1679 0070 4FF6FF73 		movw	r3, #65535
 1680 0074 F6E7     		b	.L105
 1681              	.LVL140:
 1682              	.L128:
 340:./Application/Src/menu.c ****         return 1;
 1683              		.loc 1 340 9 is_stmt 1 view .LVU377
 1684 0076 2946     		mov	r1, r5
 1685 0078 2046     		mov	r0, r4
 1686 007a FFF7FEFF 		bl	menu_process_message
 1687              	.LVL141:
 341:./Application/Src/menu.c ****     }
 1688              		.loc 1 341 9 view .LVU378
 341:./Application/Src/menu.c ****     }
 1689              		.loc 1 341 16 is_stmt 0 view .LVU379
 1690 007e 0120     		movs	r0, #1
 1691 0080 13E0     		b	.L102
 1692              	.LVL142:
 1693              	.L125:
 341:./Application/Src/menu.c ****     }
 1694              		.loc 1 341 16 view .LVU380
 1695              	.LBE20:
 1696              	.LBB21:
 348:./Application/Src/menu.c ****           case FT_CMD_RAM_START: need = 2; break;
 1697              		.loc 1 348 9 view .LVU381
 1698 0082 0223     		movs	r3, #2
 1699 0084 00E0     		b	.L109
 1700              	.L116:
 350:./Application/Src/menu.c ****           case FT_CMD_RAM_END:   need = 2; break;
 1701              		.loc 1 350 39 view .LVU382
 1702 0086 1C23     		movs	r3, #28
 1703              	.L109:
 1704              	.LVL143:
 353:./Application/Src/menu.c ****             return 0;
 1705              		.loc 1 353 23 discriminator 1 view .LVU383
 1706 0088 AB42     		cmp	r3, r5
 1707 008a 03D9     		bls	.L129
 354:./Application/Src/menu.c **** 
 1708              		.loc 1 354 20 view .LVU384
 1709 008c 0020     		movs	r0, #0
 1710 008e 0CE0     		b	.L102
 1711              	.LVL144:
 1712              	.L117:
 348:./Application/Src/menu.c ****           case FT_CMD_RAM_START: need = 2; break;
 1713              		.loc 1 348 9 view .LVU385
 1714 0090 0223     		movs	r3, #2
 1715 0092 F9E7     		b	.L109
 1716              	.LVL145:
 1717              	.L129:
 356:./Application/Src/menu.c ****         return 1;
 1718              		.loc 1 356 9 is_stmt 1 view .LVU386
 1719 0094 2946     		mov	r1, r5
 1720 0096 2046     		mov	r0, r4
 1721 0098 FFF7FEFF 		bl	menu_process_message
ARM GAS  C:\Users\Xuleo\AppData\Local\Temp\ccbzHqJi.s 			page 43


 1722              	.LVL146:
 357:./Application/Src/menu.c ****     }
 1723              		.loc 1 357 9 view .LVU387
 357:./Application/Src/menu.c ****     }
 1724              		.loc 1 357 16 is_stmt 0 view .LVU388
 1725 009c 0120     		movs	r0, #1
 1726 009e 04E0     		b	.L102
 1727              	.L108:
 357:./Application/Src/menu.c ****     }
 1728              		.loc 1 357 16 view .LVU389
 1729              	.LBE21:
 360:./Application/Src/menu.c ****     return 1;
 1730              		.loc 1 360 5 is_stmt 1 view .LVU390
 1731 00a0 2946     		mov	r1, r5
 1732 00a2 2046     		mov	r0, r4
 1733 00a4 FFF7FEFF 		bl	menu_process_message
 1734              	.LVL147:
 361:./Application/Src/menu.c **** }
 1735              		.loc 1 361 5 view .LVU391
 361:./Application/Src/menu.c **** }
 1736              		.loc 1 361 12 is_stmt 0 view .LVU392
 1737 00a8 0120     		movs	r0, #1
 1738              	.L102:
 362:./Application/Src/menu.c **** 
 1739              		.loc 1 362 1 view .LVU393
 1740 00aa 38BD     		pop	{r3, r4, r5, pc}
 1741              	.LVL148:
 1742              	.L110:
 1743              	.LCFI22:
 1744              		.cfi_def_cfa_offset 0
 1745              		.cfi_restore 3
 1746              		.cfi_restore 4
 1747              		.cfi_restore 5
 1748              		.cfi_restore 14
 325:./Application/Src/menu.c **** 
 1749              		.loc 1 325 26 discriminator 1 view .LVU394
 1750 00ac 0846     		mov	r0, r1
 1751              	.LVL149:
 362:./Application/Src/menu.c **** 
 1752              		.loc 1 362 1 view .LVU395
 1753 00ae 7047     		bx	lr
 1754              		.cfi_endproc
 1755              	.LFE366:
 1757              		.section	.text.menu_set_state,"ax",%progbits
 1758              		.align	1
 1759              		.global	menu_set_state
 1760              		.syntax unified
 1761              		.thumb
 1762              		.thumb_func
 1764              	menu_set_state:
 1765              	.LVL150:
 1766              	.LFB368:
 372:./Application/Src/menu.c **** 
 373:./Application/Src/menu.c **** void menu_set_state(MenuState_t s)
 374:./Application/Src/menu.c **** {
 1767              		.loc 1 374 1 is_stmt 1 view -0
 1768              		.cfi_startproc
ARM GAS  C:\Users\Xuleo\AppData\Local\Temp\ccbzHqJi.s 			page 44


 1769              		@ args = 0, pretend = 0, frame = 0
 1770              		@ frame_needed = 0, uses_anonymous_args = 0
 1771              		@ link register save eliminated.
 375:./Application/Src/menu.c ****     menu_state = s;
 1772              		.loc 1 375 5 view .LVU397
 1773              		.loc 1 375 16 is_stmt 0 view .LVU398
 1774 0000 044B     		ldr	r3, .L131
 1775 0002 1870     		strb	r0, [r3]
 376:./Application/Src/menu.c ****     page_dirty = 1;
 1776              		.loc 1 376 5 is_stmt 1 view .LVU399
 1777              		.loc 1 376 16 is_stmt 0 view .LVU400
 1778 0004 044B     		ldr	r3, .L131+4
 1779 0006 0122     		movs	r2, #1
 1780 0008 1A60     		str	r2, [r3]
 377:./Application/Src/menu.c ****     last_sent_state = 0xFF; /* force re-sync */
 1781              		.loc 1 377 5 is_stmt 1 view .LVU401
 1782              		.loc 1 377 21 is_stmt 0 view .LVU402
 1783 000a 044B     		ldr	r3, .L131+8
 1784 000c FF22     		movs	r2, #255
 1785 000e 1A70     		strb	r2, [r3]
 378:./Application/Src/menu.c **** }
 1786              		.loc 1 378 1 view .LVU403
 1787 0010 7047     		bx	lr
 1788              	.L132:
 1789 0012 00BF     		.align	2
 1790              	.L131:
 1791 0014 00000000 		.word	menu_state
 1792 0018 00000000 		.word	page_dirty
 1793 001c 00000000 		.word	last_sent_state
 1794              		.cfi_endproc
 1795              	.LFE368:
 1797              		.section	.rodata.menu_init.str1.4,"aMS",%progbits,1
 1798              		.align	2
 1799              	.LC34:
 1800 0000 454C4543 		.ascii	"ELEC391 Piano Bot       \000"
 1800      33393120 
 1800      5069616E 
 1800      6F20426F 
 1800      74202020 
 1801              		.section	.text.menu_init,"ax",%progbits
 1802              		.align	1
 1803              		.global	menu_init
 1804              		.syntax unified
 1805              		.thumb
 1806              		.thumb_func
 1808              	menu_init:
 1809              	.LFB369:
 379:./Application/Src/menu.c **** 
 380:./Application/Src/menu.c **** void menu_init(void)
 381:./Application/Src/menu.c **** {
 1810              		.loc 1 381 1 is_stmt 1 view -0
 1811              		.cfi_startproc
 1812              		@ args = 0, pretend = 0, frame = 0
 1813              		@ frame_needed = 0, uses_anonymous_args = 0
 1814 0000 00B5     		push	{lr}
 1815              	.LCFI23:
 1816              		.cfi_def_cfa_offset 4
ARM GAS  C:\Users\Xuleo\AppData\Local\Temp\ccbzHqJi.s 			page 45


 1817              		.cfi_offset 14, -4
 1818 0002 83B0     		sub	sp, sp, #12
 1819              	.LCFI24:
 1820              		.cfi_def_cfa_offset 16
 382:./Application/Src/menu.c ****     LCD_draw_string(0, 0, "ELEC391 Piano Bot       ", COLOR_BLACK, COLOR_WHITE);
 1821              		.loc 1 382 5 view .LVU405
 1822 0004 4FF6FF73 		movw	r3, #65535
 1823 0008 0093     		str	r3, [sp]
 1824 000a 0023     		movs	r3, #0
 1825 000c 084A     		ldr	r2, .L135
 1826 000e 1946     		mov	r1, r3
 1827 0010 1846     		mov	r0, r3
 1828 0012 FFF7FEFF 		bl	LCD_draw_string
 1829              	.LVL151:
 383:./Application/Src/menu.c ****     menu_state = MENU_STATE_MAIN;
 1830              		.loc 1 383 5 view .LVU406
 1831              		.loc 1 383 16 is_stmt 0 view .LVU407
 1832 0016 0023     		movs	r3, #0
 1833 0018 064A     		ldr	r2, .L135+4
 1834 001a 1370     		strb	r3, [r2]
 384:./Application/Src/menu.c ****     menu_index = 0;
 1835              		.loc 1 384 5 is_stmt 1 view .LVU408
 1836              		.loc 1 384 16 is_stmt 0 view .LVU409
 1837 001c 064A     		ldr	r2, .L135+8
 1838 001e 1360     		str	r3, [r2]
 385:./Application/Src/menu.c ****     page_dirty = 1;
 1839              		.loc 1 385 5 is_stmt 1 view .LVU410
 1840              		.loc 1 385 16 is_stmt 0 view .LVU411
 1841 0020 064B     		ldr	r3, .L135+12
 1842 0022 0122     		movs	r2, #1
 1843 0024 1A60     		str	r2, [r3]
 386:./Application/Src/menu.c ****     menu_draw_main();
 1844              		.loc 1 386 5 is_stmt 1 view .LVU412
 1845 0026 FFF7FEFF 		bl	menu_draw_main
 1846              	.LVL152:
 387:./Application/Src/menu.c **** }
 1847              		.loc 1 387 1 is_stmt 0 view .LVU413
 1848 002a 03B0     		add	sp, sp, #12
 1849              	.LCFI25:
 1850              		.cfi_def_cfa_offset 4
 1851              		@ sp needed
 1852 002c 00BD     		pop	{pc}
 1853              	.L136:
 1854 002e 00BF     		.align	2
 1855              	.L135:
 1856 0030 00000000 		.word	.LC34
 1857 0034 00000000 		.word	menu_state
 1858 0038 00000000 		.word	menu_index
 1859 003c 00000000 		.word	page_dirty
 1860              		.cfi_endproc
 1861              	.LFE369:
 1863              		.section	.rodata.menu_update.str1.4,"aMS",%progbits,1
 1864              		.align	2
 1865              	.LC35:
 1866 0000 486F6D69 		.ascii	"Homing...               \000"
 1866      6E672E2E 
 1866      2E202020 
ARM GAS  C:\Users\Xuleo\AppData\Local\Temp\ccbzHqJi.s 			page 46


 1866      20202020 
 1866      20202020 
 1867 0019 000000   		.align	2
 1868              	.LC36:
 1869 001c 486F6D69 		.ascii	"Homing done!            \000"
 1869      6E672064 
 1869      6F6E6521 
 1869      20202020 
 1869      20202020 
 1870 0035 000000   		.align	2
 1871              	.LC37:
 1872 0038 20202020 		.ascii	"                         \000"
 1872      20202020 
 1872      20202020 
 1872      20202020 
 1872      20202020 
 1873 0052 0000     		.align	2
 1874              	.LC38:
 1875 0054 53656C65 		.ascii	"Selected: %-12s  \000"
 1875      63746564 
 1875      3A20252D 
 1875      31327320 
 1875      2000
 1876 0066 0000     		.align	2
 1877              	.LC39:
 1878 0068 50617273 		.ascii	"Parsing song...         \000"
 1878      696E6720 
 1878      736F6E67 
 1878      2E2E2E20 
 1878      20202020 
 1879 0081 000000   		.align	2
 1880              	.LC40:
 1881 0084 536F6E67 		.ascii	"Song ready to play!    \000"
 1881      20726561 
 1881      64792074 
 1881      6F20706C 
 1881      61792120 
 1882              		.align	2
 1883              	.LC41:
 1884 009c 5B446562 		.ascii	"[Debug] :a to go back   \000"
 1884      75675D20 
 1884      3A612074 
 1884      6F20676F 
 1884      20626163 
 1885 00b5 000000   		.align	2
 1886              	.LC42:
 1887 00b8 456E6331 		.ascii	"Enc1: %ld  Enc2: %ld      \000"
 1887      3A20256C 
 1887      64202045 
 1887      6E63323A 
 1887      20256C64 
 1888 00d3 00       		.align	2
 1889              	.LC43:
 1890 00d4 54617231 		.ascii	"Tar1: %.2f Tar2: %.2f  \000"
 1890      3A20252E 
 1890      32662054 
 1890      6172323A 
ARM GAS  C:\Users\Xuleo\AppData\Local\Temp\ccbzHqJi.s 			page 47


 1890      20252E32 
 1891              		.align	2
 1892              	.LC44:
 1893 00ec 506F7331 		.ascii	"Pos1: %.2f Pos2: %.2f  \000"
 1893      3A20252E 
 1893      32662050 
 1893      6F73323A 
 1893      20252E32 
 1894              		.align	2
 1895              	.LC45:
 1896 0104 4C3A2025 		.ascii	"L: %.3f %.3f %.3f  \000"
 1896      2E336620 
 1896      252E3366 
 1896      20252E33 
 1896      66202000 
 1897              		.align	2
 1898              	.LC46:
 1899 0118 523A2025 		.ascii	"R: %.3f %.3f %.3f  \000"
 1899      2E336620 
 1899      252E3366 
 1899      20252E33 
 1899      66202000 
 1900              		.section	.text.menu_update,"ax",%progbits
 1901              		.align	1
 1902              		.global	menu_update
 1903              		.syntax unified
 1904              		.thumb
 1905              		.thumb_func
 1907              	menu_update:
 1908              	.LFB370:
 388:./Application/Src/menu.c **** 
 389:./Application/Src/menu.c **** void menu_update(void)
 390:./Application/Src/menu.c **** {
 1909              		.loc 1 390 1 is_stmt 1 view -0
 1910              		.cfi_startproc
 1911              		@ args = 0, pretend = 0, frame = 32
 1912              		@ frame_needed = 0, uses_anonymous_args = 0
 1913 0000 70B5     		push	{r4, r5, r6, lr}
 1914              	.LCFI26:
 1915              		.cfi_def_cfa_offset 16
 1916              		.cfi_offset 4, -16
 1917              		.cfi_offset 5, -12
 1918              		.cfi_offset 6, -8
 1919              		.cfi_offset 14, -4
 1920 0002 2DED028B 		vpush.64	{d8}
 1921              	.LCFI27:
 1922              		.cfi_def_cfa_offset 24
 1923              		.cfi_offset 80, -24
 1924              		.cfi_offset 81, -20
 1925 0006 8EB0     		sub	sp, sp, #56
 1926              	.LCFI28:
 1927              		.cfi_def_cfa_offset 80
 391:./Application/Src/menu.c ****     /* ---- Handle BACK in any sub-page ---- */
 392:./Application/Src/menu.c ****     if (menu_back)
 1928              		.loc 1 392 5 view .LVU415
 1929              		.loc 1 392 9 is_stmt 0 view .LVU416
 1930 0008 9A4B     		ldr	r3, .L184
ARM GAS  C:\Users\Xuleo\AppData\Local\Temp\ccbzHqJi.s 			page 48


 1931 000a 1B68     		ldr	r3, [r3]
 1932              		.loc 1 392 8 view .LVU417
 1933 000c 3BB1     		cbz	r3, .L138
 393:./Application/Src/menu.c ****     {
 394:./Application/Src/menu.c ****         menu_back = 0;
 1934              		.loc 1 394 9 is_stmt 1 view .LVU418
 1935              		.loc 1 394 19 is_stmt 0 view .LVU419
 1936 000e 994B     		ldr	r3, .L184
 1937 0010 0022     		movs	r2, #0
 1938 0012 1A60     		str	r2, [r3]
 395:./Application/Src/menu.c ****         if (menu_state != MENU_STATE_MAIN)
 1939              		.loc 1 395 9 is_stmt 1 view .LVU420
 1940              		.loc 1 395 24 is_stmt 0 view .LVU421
 1941 0014 984B     		ldr	r3, .L184+4
 1942 0016 1B78     		ldrb	r3, [r3]	@ zero_extendqisi2
 1943              		.loc 1 395 12 view .LVU422
 1944 0018 002B     		cmp	r3, #0
 1945 001a 40F09A80 		bne	.L174
 1946              	.L138:
 396:./Application/Src/menu.c ****         {
 397:./Application/Src/menu.c ****             if (menu_state == MENU_STATE_TRANSMIT && FT_GetState() == FT_STATE_RECEIVING)
 398:./Application/Src/menu.c ****             {
 399:./Application/Src/menu.c ****                 FT_Abort();
 400:./Application/Src/menu.c ****             }
 401:./Application/Src/menu.c ****             if (menu_state == MENU_STATE_TRANSMIT_RAM)
 402:./Application/Src/menu.c ****             {
 403:./Application/Src/menu.c ****                 ram_rx_started = 0;
 404:./Application/Src/menu.c ****                 ram_rx_complete = 0;
 405:./Application/Src/menu.c ****                 ram_rx_offset = 0;
 406:./Application/Src/menu.c ****                 redirect_to_ram = 0;
 407:./Application/Src/menu.c ****             }
 408:./Application/Src/menu.c ****             uart_binary_mode = 0;
 409:./Application/Src/menu.c ****             menu_state = MENU_STATE_MAIN;
 410:./Application/Src/menu.c ****             menu_index = 0;
 411:./Application/Src/menu.c ****             page_dirty = 1;
 412:./Application/Src/menu.c ****             clear_menu_area();
 413:./Application/Src/menu.c ****             menu_draw_main();
 414:./Application/Src/menu.c ****             menu_move_down = 0;
 415:./Application/Src/menu.c ****             menu_move_up = 0;
 416:./Application/Src/menu.c ****             menu_enter = 0;
 417:./Application/Src/menu.c ****             last_sent_state = 0xFF;
 418:./Application/Src/menu.c ****             sync_ui_state();
 419:./Application/Src/menu.c ****             return;
 420:./Application/Src/menu.c ****         }
 421:./Application/Src/menu.c ****     }
 422:./Application/Src/menu.c **** 
 423:./Application/Src/menu.c ****     /* ---- State-specific update ---- */
 424:./Application/Src/menu.c ****     switch (menu_state)
 1947              		.loc 1 424 5 is_stmt 1 view .LVU423
 1948 001e 964B     		ldr	r3, .L184+4
 1949 0020 1B78     		ldrb	r3, [r3]	@ zero_extendqisi2
 1950 0022 022B     		cmp	r3, #2
 1951 0024 00F0A481 		beq	.L142
 1952 0028 40F2C580 		bls	.L175
 1953 002c 032B     		cmp	r3, #3
 1954 002e 00F0A281 		beq	.L147
 1955 0032 052B     		cmp	r3, #5
ARM GAS  C:\Users\Xuleo\AppData\Local\Temp\ccbzHqJi.s 			page 49


 1956 0034 40F08481 		bne	.L146
 1957              	.LBB22:
 425:./Application/Src/menu.c ****     {
 426:./Application/Src/menu.c **** 
 427:./Application/Src/menu.c ****     /* ===== MAIN MENU ===== */
 428:./Application/Src/menu.c ****     case MENU_STATE_MAIN:
 429:./Application/Src/menu.c ****     {
 430:./Application/Src/menu.c ****         /* Navigation */
 431:./Application/Src/menu.c ****         if (menu_move_down)
 432:./Application/Src/menu.c ****         {
 433:./Application/Src/menu.c ****             menu_index++;
 434:./Application/Src/menu.c ****             if (menu_index > 5)
 435:./Application/Src/menu.c ****                 menu_index = 0;
 436:./Application/Src/menu.c ****         }
 437:./Application/Src/menu.c ****         if (menu_move_up)
 438:./Application/Src/menu.c ****         {
 439:./Application/Src/menu.c ****             menu_index--;
 440:./Application/Src/menu.c ****             if (menu_index < 0)
 441:./Application/Src/menu.c ****                 menu_index = 5;
 442:./Application/Src/menu.c ****         }
 443:./Application/Src/menu.c **** 
 444:./Application/Src/menu.c ****         /* Enter */
 445:./Application/Src/menu.c ****         if (menu_enter)
 446:./Application/Src/menu.c ****         {
 447:./Application/Src/menu.c ****             menu_enter = 0;
 448:./Application/Src/menu.c ****             switch (menu_index)
 449:./Application/Src/menu.c ****             {
 450:./Application/Src/menu.c ****                 case 0: /* Play Song */
 451:./Application/Src/menu.c ****                     menu_state = MENU_STATE_PLAYING;
 452:./Application/Src/menu.c ****                     last_sent_state = 0xFF;
 453:./Application/Src/menu.c ****                     sync_ui_state();
 454:./Application/Src/menu.c ****                     traversal();
 455:./Application/Src/menu.c ****                     menu_state = MENU_STATE_MAIN;
 456:./Application/Src/menu.c ****                     page_dirty = 1;
 457:./Application/Src/menu.c ****                     last_sent_state = 0xFF;
 458:./Application/Src/menu.c ****                     clear_menu_area();
 459:./Application/Src/menu.c ****                     break;
 460:./Application/Src/menu.c ****                 case 1: /* Transmit Song to SD card */
 461:./Application/Src/menu.c ****                     menu_state = MENU_STATE_TRANSMIT;
 462:./Application/Src/menu.c ****                     page_dirty = 1;
 463:./Application/Src/menu.c ****                     uart_binary_mode = 1;
 464:./Application/Src/menu.c ****                     FT_Init();
 465:./Application/Src/menu.c ****                     break;
 466:./Application/Src/menu.c ****                 case 2: /* Transmit Song to RAM */
 467:./Application/Src/menu.c ****                     menu_state = MENU_STATE_TRANSMIT_RAM;
 468:./Application/Src/menu.c ****                     page_dirty = 1;
 469:./Application/Src/menu.c ****                     uart_binary_mode = 1;
 470:./Application/Src/menu.c ****                     redirect_to_ram = 1;
 471:./Application/Src/menu.c ****                     ram_rx_started = 0;
 472:./Application/Src/menu.c ****                     ram_rx_complete = 0;
 473:./Application/Src/menu.c ****                     ram_rx_offset = 0;
 474:./Application/Src/menu.c ****                     break;
 475:./Application/Src/menu.c ****                 case 3: /* Select Song */
 476:./Application/Src/menu.c ****                     menu_state = MENU_STATE_SELECT;
 477:./Application/Src/menu.c ****                     page_dirty = 1;
 478:./Application/Src/menu.c ****                     break;
 479:./Application/Src/menu.c ****                 case 4: /* Homing */
ARM GAS  C:\Users\Xuleo\AppData\Local\Temp\ccbzHqJi.s 			page 50


 480:./Application/Src/menu.c ****                     LCD_draw_string(0, 9, "Homing...               ", COLOR_BLACK, COLOR_WHITE);
 481:./Application/Src/menu.c ****                     homing_procedure();
 482:./Application/Src/menu.c ****                     LCD_draw_string(0, 9, "Homing done!            ", COLOR_BLACK, COLOR_WHITE);
 483:./Application/Src/menu.c ****                     break;
 484:./Application/Src/menu.c ****                 case 5: /* Debug */
 485:./Application/Src/menu.c ****                     menu_state = MENU_STATE_DEBUG;
 486:./Application/Src/menu.c ****                     page_dirty = 1;
 487:./Application/Src/menu.c ****                     break;
 488:./Application/Src/menu.c ****             }
 489:./Application/Src/menu.c ****         }
 490:./Application/Src/menu.c ****         else{
 491:./Application/Src/menu.c ****             for(int i = 9; i<14; i++)
 492:./Application/Src/menu.c ****                 LCD_draw_string(0, i,  "                         ", COLOR_BLACK, COLOR_WHITE);
 493:./Application/Src/menu.c ****         }
 494:./Application/Src/menu.c **** 
 495:./Application/Src/menu.c ****         menu_draw_main();
 496:./Application/Src/menu.c ****         break;
 497:./Application/Src/menu.c ****     }
 498:./Application/Src/menu.c **** 
 499:./Application/Src/menu.c ****     /* ===== PLAYING (handled by traversal in command.c) ===== */
 500:./Application/Src/menu.c ****     case MENU_STATE_PLAYING:
 501:./Application/Src/menu.c ****         /* traversal() is blocking, so we won't normally reach here */
 502:./Application/Src/menu.c ****         break;
 503:./Application/Src/menu.c **** 
 504:./Application/Src/menu.c ****     /* ===== TRANSMIT SONG PAGE ===== */
 505:./Application/Src/menu.c ****     case MENU_STATE_TRANSMIT:
 506:./Application/Src/menu.c ****         menu_draw_transmit();
 507:./Application/Src/menu.c ****         FT_TimeoutCheck();
 508:./Application/Src/menu.c ****         break;
 509:./Application/Src/menu.c **** 
 510:./Application/Src/menu.c ****     case MENU_STATE_TRANSMIT_RAM:
 511:./Application/Src/menu.c ****         menu_draw_transmit_ram();
 512:./Application/Src/menu.c ****         break;
 513:./Application/Src/menu.c **** 
 514:./Application/Src/menu.c ****     /* ===== SELECT SONG PAGE ===== */
 515:./Application/Src/menu.c ****     case MENU_STATE_SELECT:
 516:./Application/Src/menu.c ****         if (menu_move_down)
 517:./Application/Src/menu.c ****         {
 518:./Application/Src/menu.c ****             select_song_index++;
 519:./Application/Src/menu.c ****             if (select_song_index >= fileCount)
 520:./Application/Src/menu.c ****                 select_song_index = 0;
 521:./Application/Src/menu.c ****             if (select_song_index >= select_scroll_offset + 5)
 522:./Application/Src/menu.c ****                 select_scroll_offset = select_song_index - 4;
 523:./Application/Src/menu.c ****             if (select_song_index < select_scroll_offset)
 524:./Application/Src/menu.c ****                 select_scroll_offset = select_song_index;
 525:./Application/Src/menu.c ****             if (select_song_index == 0)
 526:./Application/Src/menu.c ****                 select_scroll_offset = 0;
 527:./Application/Src/menu.c ****         }
 528:./Application/Src/menu.c ****         if (menu_move_up)
 529:./Application/Src/menu.c ****         {
 530:./Application/Src/menu.c ****             select_song_index--;
 531:./Application/Src/menu.c ****             if (select_song_index < 0)
 532:./Application/Src/menu.c ****                 select_song_index = fileCount - 1;
 533:./Application/Src/menu.c ****             if (select_song_index < select_scroll_offset)
 534:./Application/Src/menu.c ****                 select_scroll_offset = select_song_index;
 535:./Application/Src/menu.c ****             if (select_song_index >= select_scroll_offset + 5)
 536:./Application/Src/menu.c ****                 select_scroll_offset = select_song_index - 4;
ARM GAS  C:\Users\Xuleo\AppData\Local\Temp\ccbzHqJi.s 			page 51


 537:./Application/Src/menu.c ****             if (select_song_index == fileCount - 1)
 538:./Application/Src/menu.c ****                 select_scroll_offset = (fileCount > 5) ? fileCount - 5 : 0;
 539:./Application/Src/menu.c ****         }
 540:./Application/Src/menu.c **** 
 541:./Application/Src/menu.c ****         if (menu_enter)
 542:./Application/Src/menu.c ****         {
 543:./Application/Src/menu.c ****             menu_enter = 0;
 544:./Application/Src/menu.c ****             if (fileCount > 0)
 545:./Application/Src/menu.c ****             {
 546:./Application/Src/menu.c ****                 active_song_index = select_song_index;
 547:./Application/Src/menu.c ****                 char buf[25];
 548:./Application/Src/menu.c ****                 snprintf(buf, sizeof(buf), "Selected: %-12s  ", fileList[active_song_index].name);
 549:./Application/Src/menu.c ****                 LCD_draw_string(0, 9, buf, COLOR_BLACK, COLOR_WHITE);
 550:./Application/Src/menu.c ****                 LCD_draw_string(0, 10, "Parsing song...         ", COLOR_BLACK, COLOR_WHITE);
 551:./Application/Src/menu.c ****                 sd_parse_array(fileList[active_song_index].name);
 552:./Application/Src/menu.c ****                 LCD_draw_string(0, 10, "Song ready to play!    ", COLOR_BLACK, COLOR_WHITE);
 553:./Application/Src/menu.c ****             }
 554:./Application/Src/menu.c ****         }
 555:./Application/Src/menu.c **** 
 556:./Application/Src/menu.c ****         menu_draw_select();
 557:./Application/Src/menu.c ****         break;
 558:./Application/Src/menu.c **** 
 559:./Application/Src/menu.c ****     /* ===== DEBUG PAGE ===== */
 560:./Application/Src/menu.c ****     case MENU_STATE_DEBUG:
 561:./Application/Src/menu.c ****     {
 562:./Application/Src/menu.c ****         if (page_dirty) {
 1958              		.loc 1 562 9 view .LVU424
 1959              		.loc 1 562 13 is_stmt 0 view .LVU425
 1960 0038 904B     		ldr	r3, .L184+8
 1961 003a 1B68     		ldr	r3, [r3]
 1962              		.loc 1 562 12 view .LVU426
 1963 003c 002B     		cmp	r3, #0
 1964 003e 40F02082 		bne	.L176
 1965              	.L170:
 563:./Application/Src/menu.c ****             clear_menu_area();
 564:./Application/Src/menu.c ****             LCD_draw_string(0, 1, "[Debug] :a to go back   ", COLOR_BLACK, COLOR_WHITE);
 565:./Application/Src/menu.c ****             page_dirty = 0;
 566:./Application/Src/menu.c ****         }
 567:./Application/Src/menu.c ****         char dbg[25];
 1966              		.loc 1 567 9 is_stmt 1 view .LVU427
 568:./Application/Src/menu.c ****         snprintf(dbg, sizeof(dbg), "Enc1: %ld  Enc2: %ld      ", left_motor.encoder_cnt, right_moto
 1967              		.loc 1 568 9 view .LVU428
 1968 0042 8F4C     		ldr	r4, .L184+12
 1969 0044 2369     		ldr	r3, [r4, #16]
 1970 0046 0093     		str	r3, [sp]
 1971 0048 8E4D     		ldr	r5, .L184+16
 1972 004a 2B69     		ldr	r3, [r5, #16]
 1973 004c 8E4A     		ldr	r2, .L184+20
 1974 004e 1921     		movs	r1, #25
 1975 0050 07A8     		add	r0, sp, #28
 1976 0052 FFF7FEFF 		bl	snprintf
 1977              	.LVL153:
 569:./Application/Src/menu.c ****         LCD_draw_string(0, 2, dbg, COLOR_BLACK, COLOR_WHITE);
 1978              		.loc 1 569 9 view .LVU429
 1979 0056 4FF6FF76 		movw	r6, #65535
 1980 005a 0096     		str	r6, [sp]
 1981 005c 0023     		movs	r3, #0
ARM GAS  C:\Users\Xuleo\AppData\Local\Temp\ccbzHqJi.s 			page 52


 1982 005e 07AA     		add	r2, sp, #28
 1983 0060 0221     		movs	r1, #2
 1984 0062 1846     		mov	r0, r3
 1985 0064 FFF7FEFF 		bl	LCD_draw_string
 1986              	.LVL154:
 570:./Application/Src/menu.c ****         snprintf(dbg, sizeof(dbg), "Tar1: %.2f Tar2: %.2f  ", left_motor.target_pos, right_motor.ta
 1987              		.loc 1 570 9 view .LVU430
 1988              		.loc 1 570 73 is_stmt 0 view .LVU431
 1989 0068 95ED058A 		vldr.32	s16, [r5, #20]
 1990              		.loc 1 570 9 view .LVU432
 1991 006c 6069     		ldr	r0, [r4, #20]	@ float
 1992 006e FFF7FEFF 		bl	__aeabi_f2d
 1993              	.LVL155:
 1994 0072 CDE90201 		strd	r0, [sp, #8]
 1995 0076 18EE100A 		vmov	r0, s16
 1996 007a FFF7FEFF 		bl	__aeabi_f2d
 1997              	.LVL156:
 1998 007e CDE90001 		strd	r0, [sp]
 1999 0082 824A     		ldr	r2, .L184+24
 2000 0084 1921     		movs	r1, #25
 2001 0086 07A8     		add	r0, sp, #28
 2002 0088 FFF7FEFF 		bl	snprintf
 2003              	.LVL157:
 571:./Application/Src/menu.c ****         LCD_draw_string(0, 3, dbg, COLOR_BLACK, COLOR_WHITE);
 2004              		.loc 1 571 9 is_stmt 1 view .LVU433
 2005 008c 0096     		str	r6, [sp]
 2006 008e 0023     		movs	r3, #0
 2007 0090 07AA     		add	r2, sp, #28
 2008 0092 0321     		movs	r1, #3
 2009 0094 1846     		mov	r0, r3
 2010 0096 FFF7FEFF 		bl	LCD_draw_string
 2011              	.LVL158:
 572:./Application/Src/menu.c ****         snprintf(dbg, sizeof(dbg), "Pos1: %.2f Pos2: %.2f  ", left_motor.current_pos, right_motor.c
 2012              		.loc 1 572 9 view .LVU434
 2013              		.loc 1 572 73 is_stmt 0 view .LVU435
 2014 009a 95ED068A 		vldr.32	s16, [r5, #24]
 2015              		.loc 1 572 9 view .LVU436
 2016 009e A069     		ldr	r0, [r4, #24]	@ float
 2017 00a0 FFF7FEFF 		bl	__aeabi_f2d
 2018              	.LVL159:
 2019 00a4 CDE90201 		strd	r0, [sp, #8]
 2020 00a8 18EE100A 		vmov	r0, s16
 2021 00ac FFF7FEFF 		bl	__aeabi_f2d
 2022              	.LVL160:
 2023 00b0 CDE90001 		strd	r0, [sp]
 2024 00b4 764A     		ldr	r2, .L184+28
 2025 00b6 1921     		movs	r1, #25
 2026 00b8 07A8     		add	r0, sp, #28
 2027 00ba FFF7FEFF 		bl	snprintf
 2028              	.LVL161:
 573:./Application/Src/menu.c ****         LCD_draw_string(0, 4, dbg, COLOR_BLACK, COLOR_WHITE);
 2029              		.loc 1 573 9 is_stmt 1 view .LVU437
 2030 00be 0096     		str	r6, [sp]
 2031 00c0 0023     		movs	r3, #0
 2032 00c2 07AA     		add	r2, sp, #28
 2033 00c4 0421     		movs	r1, #4
 2034 00c6 1846     		mov	r0, r3
ARM GAS  C:\Users\Xuleo\AppData\Local\Temp\ccbzHqJi.s 			page 53


 2035 00c8 FFF7FEFF 		bl	LCD_draw_string
 2036              	.LVL162:
 574:./Application/Src/menu.c ****         snprintf(dbg, sizeof(dbg), "L: %.3f %.3f %.3f  ", left_motor.Kp, left_motor.Ki, left_motor.
 2037              		.loc 1 574 9 view .LVU438
 2038              		.loc 1 574 69 is_stmt 0 view .LVU439
 2039 00cc 95ED008A 		vldr.32	s16, [r5]
 2040              		.loc 1 574 84 view .LVU440
 2041 00d0 D5ED018A 		vldr.32	s17, [r5, #4]
 2042              		.loc 1 574 9 view .LVU441
 2043 00d4 A868     		ldr	r0, [r5, #8]	@ float
 2044 00d6 FFF7FEFF 		bl	__aeabi_f2d
 2045              	.LVL163:
 2046 00da CDE90401 		strd	r0, [sp, #16]
 2047 00de 18EE900A 		vmov	r0, s17
 2048 00e2 FFF7FEFF 		bl	__aeabi_f2d
 2049              	.LVL164:
 2050 00e6 CDE90201 		strd	r0, [sp, #8]
 2051 00ea 18EE100A 		vmov	r0, s16
 2052 00ee FFF7FEFF 		bl	__aeabi_f2d
 2053              	.LVL165:
 2054 00f2 CDE90001 		strd	r0, [sp]
 2055 00f6 674A     		ldr	r2, .L184+32
 2056 00f8 1921     		movs	r1, #25
 2057 00fa 07A8     		add	r0, sp, #28
 2058 00fc FFF7FEFF 		bl	snprintf
 2059              	.LVL166:
 575:./Application/Src/menu.c ****         LCD_draw_string(0, 5, dbg, COLOR_BLACK, COLOR_WHITE);
 2060              		.loc 1 575 9 is_stmt 1 view .LVU442
 2061 0100 0096     		str	r6, [sp]
 2062 0102 0023     		movs	r3, #0
 2063 0104 07AA     		add	r2, sp, #28
 2064 0106 0521     		movs	r1, #5
 2065 0108 1846     		mov	r0, r3
 2066 010a FFF7FEFF 		bl	LCD_draw_string
 2067              	.LVL167:
 576:./Application/Src/menu.c ****         snprintf(dbg, sizeof(dbg), "R: %.3f %.3f %.3f  ", right_motor.Kp, right_motor.Ki, right_mot
 2068              		.loc 1 576 9 view .LVU443
 2069              		.loc 1 576 70 is_stmt 0 view .LVU444
 2070 010e 94ED008A 		vldr.32	s16, [r4]
 2071              		.loc 1 576 86 view .LVU445
 2072 0112 D4ED018A 		vldr.32	s17, [r4, #4]
 2073              		.loc 1 576 9 view .LVU446
 2074 0116 A068     		ldr	r0, [r4, #8]	@ float
 2075 0118 FFF7FEFF 		bl	__aeabi_f2d
 2076              	.LVL168:
 2077 011c CDE90401 		strd	r0, [sp, #16]
 2078 0120 18EE900A 		vmov	r0, s17
 2079 0124 FFF7FEFF 		bl	__aeabi_f2d
 2080              	.LVL169:
 2081 0128 CDE90201 		strd	r0, [sp, #8]
 2082 012c 18EE100A 		vmov	r0, s16
 2083 0130 FFF7FEFF 		bl	__aeabi_f2d
 2084              	.LVL170:
 2085 0134 CDE90001 		strd	r0, [sp]
 2086 0138 574A     		ldr	r2, .L184+36
 2087 013a 1921     		movs	r1, #25
 2088 013c 07A8     		add	r0, sp, #28
ARM GAS  C:\Users\Xuleo\AppData\Local\Temp\ccbzHqJi.s 			page 54


 2089 013e FFF7FEFF 		bl	snprintf
 2090              	.LVL171:
 577:./Application/Src/menu.c ****         LCD_draw_string(0, 6, dbg, COLOR_BLACK, COLOR_WHITE);
 2091              		.loc 1 577 9 is_stmt 1 view .LVU447
 2092 0142 0096     		str	r6, [sp]
 2093 0144 0023     		movs	r3, #0
 2094 0146 07AA     		add	r2, sp, #28
 2095 0148 0621     		movs	r1, #6
 2096 014a 1846     		mov	r0, r3
 2097 014c FFF7FEFF 		bl	LCD_draw_string
 2098              	.LVL172:
 578:./Application/Src/menu.c ****         break;
 2099              		.loc 1 578 9 view .LVU448
 2100 0150 F6E0     		b	.L146
 2101              	.L174:
 2102              	.LBE22:
 397:./Application/Src/menu.c ****             {
 2103              		.loc 1 397 13 view .LVU449
 397:./Application/Src/menu.c ****             {
 2104              		.loc 1 397 16 is_stmt 0 view .LVU450
 2105 0152 012B     		cmp	r3, #1
 2106 0154 1ED0     		beq	.L177
 2107              	.L139:
 401:./Application/Src/menu.c ****             {
 2108              		.loc 1 401 13 is_stmt 1 view .LVU451
 401:./Application/Src/menu.c ****             {
 2109              		.loc 1 401 28 is_stmt 0 view .LVU452
 2110 0156 484B     		ldr	r3, .L184+4
 2111 0158 1B78     		ldrb	r3, [r3]	@ zero_extendqisi2
 401:./Application/Src/menu.c ****             {
 2112              		.loc 1 401 16 view .LVU453
 2113 015a 022B     		cmp	r3, #2
 2114 015c 21D0     		beq	.L178
 2115              	.L140:
 408:./Application/Src/menu.c ****             menu_state = MENU_STATE_MAIN;
 2116              		.loc 1 408 13 is_stmt 1 view .LVU454
 408:./Application/Src/menu.c ****             menu_state = MENU_STATE_MAIN;
 2117              		.loc 1 408 30 is_stmt 0 view .LVU455
 2118 015e 4F4B     		ldr	r3, .L184+40
 2119 0160 0022     		movs	r2, #0
 2120 0162 1A60     		str	r2, [r3]
 409:./Application/Src/menu.c ****             menu_index = 0;
 2121              		.loc 1 409 13 is_stmt 1 view .LVU456
 409:./Application/Src/menu.c ****             menu_index = 0;
 2122              		.loc 1 409 24 is_stmt 0 view .LVU457
 2123 0164 444B     		ldr	r3, .L184+4
 2124 0166 1A70     		strb	r2, [r3]
 410:./Application/Src/menu.c ****             page_dirty = 1;
 2125              		.loc 1 410 13 is_stmt 1 view .LVU458
 410:./Application/Src/menu.c ****             page_dirty = 1;
 2126              		.loc 1 410 24 is_stmt 0 view .LVU459
 2127 0168 4D4B     		ldr	r3, .L184+44
 2128 016a 0024     		movs	r4, #0
 2129 016c 1C60     		str	r4, [r3]
 411:./Application/Src/menu.c ****             clear_menu_area();
 2130              		.loc 1 411 13 is_stmt 1 view .LVU460
 411:./Application/Src/menu.c ****             clear_menu_area();
ARM GAS  C:\Users\Xuleo\AppData\Local\Temp\ccbzHqJi.s 			page 55


 2131              		.loc 1 411 24 is_stmt 0 view .LVU461
 2132 016e 434B     		ldr	r3, .L184+8
 2133 0170 0122     		movs	r2, #1
 2134 0172 1A60     		str	r2, [r3]
 412:./Application/Src/menu.c ****             menu_draw_main();
 2135              		.loc 1 412 13 is_stmt 1 view .LVU462
 2136 0174 FFF7FEFF 		bl	clear_menu_area
 2137              	.LVL173:
 413:./Application/Src/menu.c ****             menu_move_down = 0;
 2138              		.loc 1 413 13 view .LVU463
 2139 0178 FFF7FEFF 		bl	menu_draw_main
 2140              	.LVL174:
 414:./Application/Src/menu.c ****             menu_move_up = 0;
 2141              		.loc 1 414 13 view .LVU464
 414:./Application/Src/menu.c ****             menu_move_up = 0;
 2142              		.loc 1 414 28 is_stmt 0 view .LVU465
 2143 017c 494B     		ldr	r3, .L184+48
 2144 017e 1C60     		str	r4, [r3]
 415:./Application/Src/menu.c ****             menu_enter = 0;
 2145              		.loc 1 415 13 is_stmt 1 view .LVU466
 415:./Application/Src/menu.c ****             menu_enter = 0;
 2146              		.loc 1 415 26 is_stmt 0 view .LVU467
 2147 0180 494B     		ldr	r3, .L184+52
 2148 0182 1C60     		str	r4, [r3]
 416:./Application/Src/menu.c ****             last_sent_state = 0xFF;
 2149              		.loc 1 416 13 is_stmt 1 view .LVU468
 416:./Application/Src/menu.c ****             last_sent_state = 0xFF;
 2150              		.loc 1 416 24 is_stmt 0 view .LVU469
 2151 0184 494B     		ldr	r3, .L184+56
 2152 0186 1C60     		str	r4, [r3]
 417:./Application/Src/menu.c ****             sync_ui_state();
 2153              		.loc 1 417 13 is_stmt 1 view .LVU470
 417:./Application/Src/menu.c ****             sync_ui_state();
 2154              		.loc 1 417 29 is_stmt 0 view .LVU471
 2155 0188 494B     		ldr	r3, .L184+60
 2156 018a FF22     		movs	r2, #255
 2157 018c 1A70     		strb	r2, [r3]
 418:./Application/Src/menu.c ****             return;
 2158              		.loc 1 418 13 is_stmt 1 view .LVU472
 2159 018e FFF7FEFF 		bl	sync_ui_state
 2160              	.LVL175:
 419:./Application/Src/menu.c ****         }
 2161              		.loc 1 419 13 view .LVU473
 2162 0192 E6E0     		b	.L137
 2163              	.L177:
 397:./Application/Src/menu.c ****             {
 2164              		.loc 1 397 54 is_stmt 0 discriminator 1 view .LVU474
 2165 0194 FFF7FEFF 		bl	FT_GetState
 2166              	.LVL176:
 397:./Application/Src/menu.c ****             {
 2167              		.loc 1 397 51 discriminator 2 view .LVU475
 2168 0198 0128     		cmp	r0, #1
 2169 019a DCD1     		bne	.L139
 399:./Application/Src/menu.c ****             }
 2170              		.loc 1 399 17 is_stmt 1 view .LVU476
 2171 019c FFF7FEFF 		bl	FT_Abort
 2172              	.LVL177:
ARM GAS  C:\Users\Xuleo\AppData\Local\Temp\ccbzHqJi.s 			page 56


 2173 01a0 D9E7     		b	.L139
 2174              	.L178:
 403:./Application/Src/menu.c ****                 ram_rx_complete = 0;
 2175              		.loc 1 403 17 view .LVU477
 403:./Application/Src/menu.c ****                 ram_rx_complete = 0;
 2176              		.loc 1 403 32 is_stmt 0 view .LVU478
 2177 01a2 0023     		movs	r3, #0
 2178 01a4 434A     		ldr	r2, .L184+64
 2179 01a6 1360     		str	r3, [r2]
 404:./Application/Src/menu.c ****                 ram_rx_offset = 0;
 2180              		.loc 1 404 17 is_stmt 1 view .LVU479
 404:./Application/Src/menu.c ****                 ram_rx_offset = 0;
 2181              		.loc 1 404 33 is_stmt 0 view .LVU480
 2182 01a8 434A     		ldr	r2, .L184+68
 2183 01aa 1360     		str	r3, [r2]
 405:./Application/Src/menu.c ****                 redirect_to_ram = 0;
 2184              		.loc 1 405 17 is_stmt 1 view .LVU481
 405:./Application/Src/menu.c ****                 redirect_to_ram = 0;
 2185              		.loc 1 405 31 is_stmt 0 view .LVU482
 2186 01ac 434A     		ldr	r2, .L184+72
 2187 01ae 1360     		str	r3, [r2]
 406:./Application/Src/menu.c ****             }
 2188              		.loc 1 406 17 is_stmt 1 view .LVU483
 406:./Application/Src/menu.c ****             }
 2189              		.loc 1 406 33 is_stmt 0 view .LVU484
 2190 01b0 434A     		ldr	r2, .L184+76
 2191 01b2 1360     		str	r3, [r2]
 2192 01b4 D3E7     		b	.L140
 2193              	.L175:
 424:./Application/Src/menu.c ****     {
 2194              		.loc 1 424 5 view .LVU485
 2195 01b6 3BB1     		cbz	r3, .L144
 2196 01b8 012B     		cmp	r3, #1
 2197 01ba 40F0C180 		bne	.L146
 506:./Application/Src/menu.c ****         FT_TimeoutCheck();
 2198              		.loc 1 506 9 is_stmt 1 view .LVU486
 2199 01be FFF7FEFF 		bl	menu_draw_transmit
 2200              	.LVL178:
 507:./Application/Src/menu.c ****         break;
 2201              		.loc 1 507 9 view .LVU487
 2202 01c2 FFF7FEFF 		bl	FT_TimeoutCheck
 2203              	.LVL179:
 508:./Application/Src/menu.c **** 
 2204              		.loc 1 508 9 view .LVU488
 2205 01c6 BBE0     		b	.L146
 2206              	.L144:
 431:./Application/Src/menu.c ****         {
 2207              		.loc 1 431 9 view .LVU489
 431:./Application/Src/menu.c ****         {
 2208              		.loc 1 431 13 is_stmt 0 view .LVU490
 2209 01c8 364B     		ldr	r3, .L184+48
 2210 01ca 1B68     		ldr	r3, [r3]
 431:./Application/Src/menu.c ****         {
 2211              		.loc 1 431 12 view .LVU491
 2212 01cc 43B1     		cbz	r3, .L149
 433:./Application/Src/menu.c ****             if (menu_index > 5)
 2213              		.loc 1 433 13 is_stmt 1 view .LVU492
ARM GAS  C:\Users\Xuleo\AppData\Local\Temp\ccbzHqJi.s 			page 57


 433:./Application/Src/menu.c ****             if (menu_index > 5)
 2214              		.loc 1 433 23 is_stmt 0 view .LVU493
 2215 01ce 344A     		ldr	r2, .L184+44
 2216 01d0 1368     		ldr	r3, [r2]
 2217 01d2 0133     		adds	r3, r3, #1
 2218 01d4 1360     		str	r3, [r2]
 434:./Application/Src/menu.c ****                 menu_index = 0;
 2219              		.loc 1 434 13 is_stmt 1 view .LVU494
 434:./Application/Src/menu.c ****                 menu_index = 0;
 2220              		.loc 1 434 16 is_stmt 0 view .LVU495
 2221 01d6 052B     		cmp	r3, #5
 2222 01d8 02DD     		ble	.L149
 435:./Application/Src/menu.c ****         }
 2223              		.loc 1 435 17 is_stmt 1 view .LVU496
 435:./Application/Src/menu.c ****         }
 2224              		.loc 1 435 28 is_stmt 0 view .LVU497
 2225 01da 1346     		mov	r3, r2
 2226 01dc 0022     		movs	r2, #0
 2227 01de 1A60     		str	r2, [r3]
 2228              	.L149:
 437:./Application/Src/menu.c ****         {
 2229              		.loc 1 437 9 is_stmt 1 view .LVU498
 437:./Application/Src/menu.c ****         {
 2230              		.loc 1 437 13 is_stmt 0 view .LVU499
 2231 01e0 314B     		ldr	r3, .L184+52
 2232 01e2 1B68     		ldr	r3, [r3]
 437:./Application/Src/menu.c ****         {
 2233              		.loc 1 437 12 view .LVU500
 2234 01e4 2BB1     		cbz	r3, .L150
 439:./Application/Src/menu.c ****             if (menu_index < 0)
 2235              		.loc 1 439 13 is_stmt 1 view .LVU501
 439:./Application/Src/menu.c ****             if (menu_index < 0)
 2236              		.loc 1 439 23 is_stmt 0 view .LVU502
 2237 01e6 2E4A     		ldr	r2, .L184+44
 2238 01e8 1368     		ldr	r3, [r2]
 2239 01ea 013B     		subs	r3, r3, #1
 2240 01ec 1360     		str	r3, [r2]
 440:./Application/Src/menu.c ****                 menu_index = 5;
 2241              		.loc 1 440 13 is_stmt 1 view .LVU503
 440:./Application/Src/menu.c ****                 menu_index = 5;
 2242              		.loc 1 440 16 is_stmt 0 view .LVU504
 2243 01ee 002B     		cmp	r3, #0
 2244 01f0 27DB     		blt	.L179
 2245              	.L150:
 445:./Application/Src/menu.c ****         {
 2246              		.loc 1 445 9 is_stmt 1 view .LVU505
 445:./Application/Src/menu.c ****         {
 2247              		.loc 1 445 13 is_stmt 0 view .LVU506
 2248 01f2 2E4B     		ldr	r3, .L184+56
 2249 01f4 1B68     		ldr	r3, [r3]
 445:./Application/Src/menu.c ****         {
 2250              		.loc 1 445 12 view .LVU507
 2251 01f6 002B     		cmp	r3, #0
 2252 01f8 00F0B780 		beq	.L172
 447:./Application/Src/menu.c ****             switch (menu_index)
 2253              		.loc 1 447 13 is_stmt 1 view .LVU508
 447:./Application/Src/menu.c ****             switch (menu_index)
ARM GAS  C:\Users\Xuleo\AppData\Local\Temp\ccbzHqJi.s 			page 58


 2254              		.loc 1 447 24 is_stmt 0 view .LVU509
 2255 01fc 2B4B     		ldr	r3, .L184+56
 2256 01fe 0022     		movs	r2, #0
 2257 0200 1A60     		str	r2, [r3]
 448:./Application/Src/menu.c ****             {
 2258              		.loc 1 448 13 is_stmt 1 view .LVU510
 2259 0202 274B     		ldr	r3, .L184+44
 2260 0204 1B68     		ldr	r3, [r3]
 2261 0206 032B     		cmp	r3, #3
 2262 0208 6ED0     		beq	.L152
 2263 020a 1EDC     		bgt	.L153
 2264 020c 012B     		cmp	r3, #1
 2265 020e 27D0     		beq	.L154
 2266 0210 022B     		cmp	r3, #2
 2267 0212 57D0     		beq	.L155
 2268 0214 002B     		cmp	r3, #0
 2269 0216 40F09180 		bne	.L157
 451:./Application/Src/menu.c ****                     last_sent_state = 0xFF;
 2270              		.loc 1 451 21 view .LVU511
 451:./Application/Src/menu.c ****                     last_sent_state = 0xFF;
 2271              		.loc 1 451 32 is_stmt 0 view .LVU512
 2272 021a 0423     		movs	r3, #4
 2273 021c 164C     		ldr	r4, .L184+4
 2274 021e 2370     		strb	r3, [r4]
 452:./Application/Src/menu.c ****                     sync_ui_state();
 2275              		.loc 1 452 21 is_stmt 1 view .LVU513
 452:./Application/Src/menu.c ****                     sync_ui_state();
 2276              		.loc 1 452 37 is_stmt 0 view .LVU514
 2277 0220 234D     		ldr	r5, .L184+60
 2278 0222 4FF0FF36 		mov	r6, #-1
 2279 0226 2E70     		strb	r6, [r5]
 453:./Application/Src/menu.c ****                     traversal();
 2280              		.loc 1 453 21 is_stmt 1 view .LVU515
 2281 0228 FFF7FEFF 		bl	sync_ui_state
 2282              	.LVL180:
 454:./Application/Src/menu.c ****                     menu_state = MENU_STATE_MAIN;
 2283              		.loc 1 454 21 view .LVU516
 2284 022c FFF7FEFF 		bl	traversal
 2285              	.LVL181:
 455:./Application/Src/menu.c ****                     page_dirty = 1;
 2286              		.loc 1 455 21 view .LVU517
 455:./Application/Src/menu.c ****                     page_dirty = 1;
 2287              		.loc 1 455 32 is_stmt 0 view .LVU518
 2288 0230 0023     		movs	r3, #0
 2289 0232 2370     		strb	r3, [r4]
 456:./Application/Src/menu.c ****                     last_sent_state = 0xFF;
 2290              		.loc 1 456 21 is_stmt 1 view .LVU519
 456:./Application/Src/menu.c ****                     last_sent_state = 0xFF;
 2291              		.loc 1 456 32 is_stmt 0 view .LVU520
 2292 0234 114B     		ldr	r3, .L184+8
 2293 0236 0122     		movs	r2, #1
 2294 0238 1A60     		str	r2, [r3]
 457:./Application/Src/menu.c ****                     clear_menu_area();
 2295              		.loc 1 457 21 is_stmt 1 view .LVU521
 457:./Application/Src/menu.c ****                     clear_menu_area();
 2296              		.loc 1 457 37 is_stmt 0 view .LVU522
 2297 023a 2E70     		strb	r6, [r5]
ARM GAS  C:\Users\Xuleo\AppData\Local\Temp\ccbzHqJi.s 			page 59


 458:./Application/Src/menu.c ****                     break;
 2298              		.loc 1 458 21 is_stmt 1 view .LVU523
 2299 023c FFF7FEFF 		bl	clear_menu_area
 2300              	.LVL182:
 459:./Application/Src/menu.c ****                 case 1: /* Transmit Song to SD card */
 2301              		.loc 1 459 21 view .LVU524
 2302 0240 7CE0     		b	.L157
 2303              	.L179:
 441:./Application/Src/menu.c ****         }
 2304              		.loc 1 441 17 view .LVU525
 441:./Application/Src/menu.c ****         }
 2305              		.loc 1 441 28 is_stmt 0 view .LVU526
 2306 0242 1346     		mov	r3, r2
 2307 0244 0522     		movs	r2, #5
 2308 0246 1A60     		str	r2, [r3]
 2309 0248 D3E7     		b	.L150
 2310              	.L153:
 448:./Application/Src/menu.c ****             {
 2311              		.loc 1 448 13 view .LVU527
 2312 024a 042B     		cmp	r3, #4
 2313 024c 53D0     		beq	.L158
 2314 024e 052B     		cmp	r3, #5
 2315 0250 74D1     		bne	.L157
 485:./Application/Src/menu.c ****                     page_dirty = 1;
 2316              		.loc 1 485 21 is_stmt 1 view .LVU528
 485:./Application/Src/menu.c ****                     page_dirty = 1;
 2317              		.loc 1 485 32 is_stmt 0 view .LVU529
 2318 0252 094B     		ldr	r3, .L184+4
 2319 0254 0522     		movs	r2, #5
 2320 0256 1A70     		strb	r2, [r3]
 486:./Application/Src/menu.c ****                     break;
 2321              		.loc 1 486 21 is_stmt 1 view .LVU530
 486:./Application/Src/menu.c ****                     break;
 2322              		.loc 1 486 32 is_stmt 0 view .LVU531
 2323 0258 084B     		ldr	r3, .L184+8
 2324 025a 0122     		movs	r2, #1
 2325 025c 1A60     		str	r2, [r3]
 487:./Application/Src/menu.c ****             }
 2326              		.loc 1 487 21 is_stmt 1 view .LVU532
 2327 025e 6DE0     		b	.L157
 2328              	.L154:
 461:./Application/Src/menu.c ****                     page_dirty = 1;
 2329              		.loc 1 461 21 view .LVU533
 461:./Application/Src/menu.c ****                     page_dirty = 1;
 2330              		.loc 1 461 32 is_stmt 0 view .LVU534
 2331 0260 0123     		movs	r3, #1
 2332 0262 054A     		ldr	r2, .L184+4
 2333 0264 1370     		strb	r3, [r2]
 462:./Application/Src/menu.c ****                     uart_binary_mode = 1;
 2334              		.loc 1 462 21 is_stmt 1 view .LVU535
 462:./Application/Src/menu.c ****                     uart_binary_mode = 1;
 2335              		.loc 1 462 32 is_stmt 0 view .LVU536
 2336 0266 054A     		ldr	r2, .L184+8
 2337 0268 1360     		str	r3, [r2]
 463:./Application/Src/menu.c ****                     FT_Init();
 2338              		.loc 1 463 21 is_stmt 1 view .LVU537
 463:./Application/Src/menu.c ****                     FT_Init();
ARM GAS  C:\Users\Xuleo\AppData\Local\Temp\ccbzHqJi.s 			page 60


 2339              		.loc 1 463 38 is_stmt 0 view .LVU538
 2340 026a 0C4A     		ldr	r2, .L184+40
 2341 026c 1360     		str	r3, [r2]
 464:./Application/Src/menu.c ****                     break;
 2342              		.loc 1 464 21 is_stmt 1 view .LVU539
 2343 026e FFF7FEFF 		bl	FT_Init
 2344              	.LVL183:
 465:./Application/Src/menu.c ****                 case 2: /* Transmit Song to RAM */
 2345              		.loc 1 465 21 view .LVU540
 2346 0272 63E0     		b	.L157
 2347              	.L185:
 2348              		.align	2
 2349              	.L184:
 2350 0274 00000000 		.word	menu_back
 2351 0278 00000000 		.word	menu_state
 2352 027c 00000000 		.word	page_dirty
 2353 0280 00000000 		.word	right_motor
 2354 0284 00000000 		.word	left_motor
 2355 0288 B8000000 		.word	.LC42
 2356 028c D4000000 		.word	.LC43
 2357 0290 EC000000 		.word	.LC44
 2358 0294 04010000 		.word	.LC45
 2359 0298 18010000 		.word	.LC46
 2360 029c 00000000 		.word	uart_binary_mode
 2361 02a0 00000000 		.word	menu_index
 2362 02a4 00000000 		.word	menu_move_down
 2363 02a8 00000000 		.word	menu_move_up
 2364 02ac 00000000 		.word	menu_enter
 2365 02b0 00000000 		.word	last_sent_state
 2366 02b4 00000000 		.word	ram_rx_started
 2367 02b8 00000000 		.word	ram_rx_complete
 2368 02bc 00000000 		.word	ram_rx_offset
 2369 02c0 00000000 		.word	redirect_to_ram
 2370              	.L155:
 467:./Application/Src/menu.c ****                     page_dirty = 1;
 2371              		.loc 1 467 21 view .LVU541
 467:./Application/Src/menu.c ****                     page_dirty = 1;
 2372              		.loc 1 467 32 is_stmt 0 view .LVU542
 2373 02c4 794B     		ldr	r3, .L186
 2374 02c6 0222     		movs	r2, #2
 2375 02c8 1A70     		strb	r2, [r3]
 468:./Application/Src/menu.c ****                     uart_binary_mode = 1;
 2376              		.loc 1 468 21 is_stmt 1 view .LVU543
 468:./Application/Src/menu.c ****                     uart_binary_mode = 1;
 2377              		.loc 1 468 32 is_stmt 0 view .LVU544
 2378 02ca 0123     		movs	r3, #1
 2379 02cc 784A     		ldr	r2, .L186+4
 2380 02ce 1360     		str	r3, [r2]
 469:./Application/Src/menu.c ****                     redirect_to_ram = 1;
 2381              		.loc 1 469 21 is_stmt 1 view .LVU545
 469:./Application/Src/menu.c ****                     redirect_to_ram = 1;
 2382              		.loc 1 469 38 is_stmt 0 view .LVU546
 2383 02d0 784A     		ldr	r2, .L186+8
 2384 02d2 1360     		str	r3, [r2]
 470:./Application/Src/menu.c ****                     ram_rx_started = 0;
 2385              		.loc 1 470 21 is_stmt 1 view .LVU547
 470:./Application/Src/menu.c ****                     ram_rx_started = 0;
ARM GAS  C:\Users\Xuleo\AppData\Local\Temp\ccbzHqJi.s 			page 61


 2386              		.loc 1 470 37 is_stmt 0 view .LVU548
 2387 02d4 784A     		ldr	r2, .L186+12
 2388 02d6 1360     		str	r3, [r2]
 471:./Application/Src/menu.c ****                     ram_rx_complete = 0;
 2389              		.loc 1 471 21 is_stmt 1 view .LVU549
 471:./Application/Src/menu.c ****                     ram_rx_complete = 0;
 2390              		.loc 1 471 36 is_stmt 0 view .LVU550
 2391 02d8 0023     		movs	r3, #0
 2392 02da 784A     		ldr	r2, .L186+16
 2393 02dc 1360     		str	r3, [r2]
 472:./Application/Src/menu.c ****                     ram_rx_offset = 0;
 2394              		.loc 1 472 21 is_stmt 1 view .LVU551
 472:./Application/Src/menu.c ****                     ram_rx_offset = 0;
 2395              		.loc 1 472 37 is_stmt 0 view .LVU552
 2396 02de 784A     		ldr	r2, .L186+20
 2397 02e0 1360     		str	r3, [r2]
 473:./Application/Src/menu.c ****                     break;
 2398              		.loc 1 473 21 is_stmt 1 view .LVU553
 473:./Application/Src/menu.c ****                     break;
 2399              		.loc 1 473 35 is_stmt 0 view .LVU554
 2400 02e2 784A     		ldr	r2, .L186+24
 2401 02e4 1360     		str	r3, [r2]
 474:./Application/Src/menu.c ****                 case 3: /* Select Song */
 2402              		.loc 1 474 21 is_stmt 1 view .LVU555
 2403 02e6 29E0     		b	.L157
 2404              	.L152:
 476:./Application/Src/menu.c ****                     page_dirty = 1;
 2405              		.loc 1 476 21 view .LVU556
 476:./Application/Src/menu.c ****                     page_dirty = 1;
 2406              		.loc 1 476 32 is_stmt 0 view .LVU557
 2407 02e8 704B     		ldr	r3, .L186
 2408 02ea 0322     		movs	r2, #3
 2409 02ec 1A70     		strb	r2, [r3]
 477:./Application/Src/menu.c ****                     break;
 2410              		.loc 1 477 21 is_stmt 1 view .LVU558
 477:./Application/Src/menu.c ****                     break;
 2411              		.loc 1 477 32 is_stmt 0 view .LVU559
 2412 02ee 704B     		ldr	r3, .L186+4
 2413 02f0 0122     		movs	r2, #1
 2414 02f2 1A60     		str	r2, [r3]
 478:./Application/Src/menu.c ****                 case 4: /* Homing */
 2415              		.loc 1 478 21 is_stmt 1 view .LVU560
 2416 02f4 22E0     		b	.L157
 2417              	.L158:
 480:./Application/Src/menu.c ****                     homing_procedure();
 2418              		.loc 1 480 21 view .LVU561
 2419 02f6 4FF6FF73 		movw	r3, #65535
 2420 02fa 1C46     		mov	r4, r3
 2421 02fc 0093     		str	r3, [sp]
 2422 02fe 0023     		movs	r3, #0
 2423 0300 714A     		ldr	r2, .L186+28
 2424 0302 0921     		movs	r1, #9
 2425 0304 1846     		mov	r0, r3
 2426 0306 FFF7FEFF 		bl	LCD_draw_string
 2427              	.LVL184:
 481:./Application/Src/menu.c ****                     LCD_draw_string(0, 9, "Homing done!            ", COLOR_BLACK, COLOR_WHITE);
 2428              		.loc 1 481 21 view .LVU562
ARM GAS  C:\Users\Xuleo\AppData\Local\Temp\ccbzHqJi.s 			page 62


 2429 030a FFF7FEFF 		bl	homing_procedure
 2430              	.LVL185:
 482:./Application/Src/menu.c ****                     break;
 2431              		.loc 1 482 21 view .LVU563
 2432 030e 0094     		str	r4, [sp]
 2433 0310 0023     		movs	r3, #0
 2434 0312 6E4A     		ldr	r2, .L186+32
 2435 0314 0921     		movs	r1, #9
 2436 0316 1846     		mov	r0, r3
 2437 0318 FFF7FEFF 		bl	LCD_draw_string
 2438              	.LVL186:
 483:./Application/Src/menu.c ****                 case 5: /* Debug */
 2439              		.loc 1 483 21 view .LVU564
 2440 031c 0EE0     		b	.L157
 2441              	.LVL187:
 2442              	.L160:
 2443              	.LBB23:
 492:./Application/Src/menu.c ****         }
 2444              		.loc 1 492 17 view .LVU565
 2445 031e 4FF6FF73 		movw	r3, #65535
 2446 0322 0093     		str	r3, [sp]
 2447 0324 0023     		movs	r3, #0
 2448 0326 6A4A     		ldr	r2, .L186+36
 2449 0328 0C46     		mov	r4, r1
 2450 032a 89B2     		uxth	r1, r1
 2451              	.LVL188:
 492:./Application/Src/menu.c ****         }
 2452              		.loc 1 492 17 is_stmt 0 view .LVU566
 2453 032c 1846     		mov	r0, r3
 2454 032e FFF7FEFF 		bl	LCD_draw_string
 2455              	.LVL189:
 491:./Application/Src/menu.c ****                 LCD_draw_string(0, i,  "                         ", COLOR_BLACK, COLOR_WHITE);
 2456              		.loc 1 491 35 is_stmt 1 discriminator 3 view .LVU567
 2457 0332 2346     		mov	r3, r4
 2458 0334 0133     		adds	r3, r3, #1
 2459 0336 1946     		mov	r1, r3
 2460              	.LVL190:
 2461              	.L151:
 491:./Application/Src/menu.c ****                 LCD_draw_string(0, i,  "                         ", COLOR_BLACK, COLOR_WHITE);
 2462              		.loc 1 491 29 discriminator 1 view .LVU568
 2463 0338 0D29     		cmp	r1, #13
 2464 033a F0DD     		ble	.L160
 2465              	.LVL191:
 2466              	.L157:
 491:./Application/Src/menu.c ****                 LCD_draw_string(0, i,  "                         ", COLOR_BLACK, COLOR_WHITE);
 2467              		.loc 1 491 29 is_stmt 0 discriminator 1 view .LVU569
 2468              	.LBE23:
 495:./Application/Src/menu.c ****         break;
 2469              		.loc 1 495 9 is_stmt 1 view .LVU570
 2470 033c FFF7FEFF 		bl	menu_draw_main
 2471              	.LVL192:
 496:./Application/Src/menu.c ****     }
 2472              		.loc 1 496 9 view .LVU571
 2473              	.L146:
 2474              	.LBB24:
 579:./Application/Src/menu.c ****     }
 580:./Application/Src/menu.c ****     }
ARM GAS  C:\Users\Xuleo\AppData\Local\Temp\ccbzHqJi.s 			page 63


 581:./Application/Src/menu.c **** 
 582:./Application/Src/menu.c ****     /* Heartbeat on every page (keeps PC BT-alive indicator green) */
 583:./Application/Src/menu.c ****     {
 584:./Application/Src/menu.c ****         uint32_t now = HAL_GetTick();
 2475              		.loc 1 584 9 view .LVU572
 2476              		.loc 1 584 24 is_stmt 0 view .LVU573
 2477 0340 FFF7FEFF 		bl	HAL_GetTick
 2478              	.LVL193:
 2479 0344 0446     		mov	r4, r0
 2480              	.LVL194:
 585:./Application/Src/menu.c ****         if (now - last_heartbeat_tick >= HEARTBEAT_INTERVAL_MS) {
 2481              		.loc 1 585 9 is_stmt 1 view .LVU574
 2482              		.loc 1 585 17 is_stmt 0 view .LVU575
 2483 0346 634B     		ldr	r3, .L186+40
 2484 0348 1B68     		ldr	r3, [r3]
 2485 034a C31A     		subs	r3, r0, r3
 2486              		.loc 1 585 12 view .LVU576
 2487 034c B3F5FA7F 		cmp	r3, #500
 2488 0350 80F0A680 		bcs	.L180
 2489              	.LVL195:
 2490              	.L171:
 2491              		.loc 1 585 12 view .LVU577
 2492              	.LBE24:
 586:./Application/Src/menu.c ****             pkt_send_heartbeat();
 587:./Application/Src/menu.c ****             last_heartbeat_tick = now;
 588:./Application/Src/menu.c ****         }
 589:./Application/Src/menu.c ****     }
 590:./Application/Src/menu.c **** 
 591:./Application/Src/menu.c ****     /* Sync UI state to PC */
 592:./Application/Src/menu.c ****     sync_ui_state();
 2493              		.loc 1 592 5 is_stmt 1 view .LVU578
 2494 0354 FFF7FEFF 		bl	sync_ui_state
 2495              	.LVL196:
 593:./Application/Src/menu.c **** 
 594:./Application/Src/menu.c ****     /* Reset navigation flags */
 595:./Application/Src/menu.c ****     menu_move_down = 0;
 2496              		.loc 1 595 5 view .LVU579
 2497              		.loc 1 595 20 is_stmt 0 view .LVU580
 2498 0358 0023     		movs	r3, #0
 2499 035a 5F4A     		ldr	r2, .L186+44
 2500 035c 1360     		str	r3, [r2]
 596:./Application/Src/menu.c ****     menu_move_up = 0;
 2501              		.loc 1 596 5 is_stmt 1 view .LVU581
 2502              		.loc 1 596 18 is_stmt 0 view .LVU582
 2503 035e 5F4A     		ldr	r2, .L186+48
 2504 0360 1360     		str	r3, [r2]
 2505              	.LVL197:
 2506              	.L137:
 597:./Application/Src/menu.c **** }
 2507              		.loc 1 597 1 view .LVU583
 2508 0362 0EB0     		add	sp, sp, #56
 2509              	.LCFI29:
 2510              		.cfi_remember_state
 2511              		.cfi_def_cfa_offset 24
 2512              		@ sp needed
 2513 0364 BDEC028B 		vldm	sp!, {d8}
 2514              	.LCFI30:
ARM GAS  C:\Users\Xuleo\AppData\Local\Temp\ccbzHqJi.s 			page 64


 2515              		.cfi_restore 80
 2516              		.cfi_restore 81
 2517              		.cfi_def_cfa_offset 16
 2518 0368 70BD     		pop	{r4, r5, r6, pc}
 2519              	.L172:
 2520              	.LCFI31:
 2521              		.cfi_restore_state
 2522              	.LBB25:
 491:./Application/Src/menu.c ****                 LCD_draw_string(0, i,  "                         ", COLOR_BLACK, COLOR_WHITE);
 2523              		.loc 1 491 21 view .LVU584
 2524 036a 0923     		movs	r3, #9
 2525 036c 1946     		mov	r1, r3
 2526 036e E3E7     		b	.L151
 2527              	.L142:
 2528              	.LBE25:
 511:./Application/Src/menu.c ****         break;
 2529              		.loc 1 511 9 is_stmt 1 view .LVU585
 2530 0370 FFF7FEFF 		bl	menu_draw_transmit_ram
 2531              	.LVL198:
 512:./Application/Src/menu.c **** 
 2532              		.loc 1 512 9 view .LVU586
 2533 0374 E4E7     		b	.L146
 2534              	.L147:
 516:./Application/Src/menu.c ****         {
 2535              		.loc 1 516 9 view .LVU587
 516:./Application/Src/menu.c ****         {
 2536              		.loc 1 516 13 is_stmt 0 view .LVU588
 2537 0376 584B     		ldr	r3, .L186+44
 2538 0378 1B68     		ldr	r3, [r3]
 516:./Application/Src/menu.c ****         {
 2539              		.loc 1 516 12 view .LVU589
 2540 037a F3B1     		cbz	r3, .L161
 518:./Application/Src/menu.c ****             if (select_song_index >= fileCount)
 2541              		.loc 1 518 13 is_stmt 1 view .LVU590
 518:./Application/Src/menu.c ****             if (select_song_index >= fileCount)
 2542              		.loc 1 518 30 is_stmt 0 view .LVU591
 2543 037c 584A     		ldr	r2, .L186+52
 2544 037e 1368     		ldr	r3, [r2]
 2545 0380 0133     		adds	r3, r3, #1
 2546 0382 1360     		str	r3, [r2]
 519:./Application/Src/menu.c ****                 select_song_index = 0;
 2547              		.loc 1 519 13 is_stmt 1 view .LVU592
 519:./Application/Src/menu.c ****                 select_song_index = 0;
 2548              		.loc 1 519 35 is_stmt 0 view .LVU593
 2549 0384 574A     		ldr	r2, .L186+56
 2550 0386 1268     		ldr	r2, [r2]
 519:./Application/Src/menu.c ****                 select_song_index = 0;
 2551              		.loc 1 519 16 view .LVU594
 2552 0388 9342     		cmp	r3, r2
 2553 038a 02DB     		blt	.L162
 520:./Application/Src/menu.c ****             if (select_song_index >= select_scroll_offset + 5)
 2554              		.loc 1 520 17 is_stmt 1 view .LVU595
 520:./Application/Src/menu.c ****             if (select_song_index >= select_scroll_offset + 5)
 2555              		.loc 1 520 35 is_stmt 0 view .LVU596
 2556 038c 544B     		ldr	r3, .L186+52
 2557 038e 0022     		movs	r2, #0
 2558 0390 1A60     		str	r2, [r3]
ARM GAS  C:\Users\Xuleo\AppData\Local\Temp\ccbzHqJi.s 			page 65


 2559              	.L162:
 521:./Application/Src/menu.c ****                 select_scroll_offset = select_song_index - 4;
 2560              		.loc 1 521 13 is_stmt 1 view .LVU597
 521:./Application/Src/menu.c ****                 select_scroll_offset = select_song_index - 4;
 2561              		.loc 1 521 35 is_stmt 0 view .LVU598
 2562 0392 554B     		ldr	r3, .L186+60
 2563 0394 1A68     		ldr	r2, [r3]
 2564 0396 0432     		adds	r2, r2, #4
 2565 0398 514B     		ldr	r3, .L186+52
 2566 039a 1B68     		ldr	r3, [r3]
 521:./Application/Src/menu.c ****                 select_scroll_offset = select_song_index - 4;
 2567              		.loc 1 521 16 view .LVU599
 2568 039c 9A42     		cmp	r2, r3
 2569 039e 02DA     		bge	.L163
 522:./Application/Src/menu.c ****             if (select_song_index < select_scroll_offset)
 2570              		.loc 1 522 17 is_stmt 1 view .LVU600
 522:./Application/Src/menu.c ****             if (select_song_index < select_scroll_offset)
 2571              		.loc 1 522 58 is_stmt 0 view .LVU601
 2572 03a0 1A1F     		subs	r2, r3, #4
 522:./Application/Src/menu.c ****             if (select_song_index < select_scroll_offset)
 2573              		.loc 1 522 38 view .LVU602
 2574 03a2 5149     		ldr	r1, .L186+60
 2575 03a4 0A60     		str	r2, [r1]
 2576              	.L163:
 523:./Application/Src/menu.c ****                 select_scroll_offset = select_song_index;
 2577              		.loc 1 523 13 is_stmt 1 view .LVU603
 523:./Application/Src/menu.c ****                 select_scroll_offset = select_song_index;
 2578              		.loc 1 523 35 is_stmt 0 view .LVU604
 2579 03a6 504A     		ldr	r2, .L186+60
 2580 03a8 1268     		ldr	r2, [r2]
 523:./Application/Src/menu.c ****                 select_scroll_offset = select_song_index;
 2581              		.loc 1 523 16 view .LVU605
 2582 03aa 9342     		cmp	r3, r2
 2583 03ac 01DA     		bge	.L164
 524:./Application/Src/menu.c ****             if (select_song_index == 0)
 2584              		.loc 1 524 17 is_stmt 1 view .LVU606
 524:./Application/Src/menu.c ****             if (select_song_index == 0)
 2585              		.loc 1 524 38 is_stmt 0 view .LVU607
 2586 03ae 4E4A     		ldr	r2, .L186+60
 2587 03b0 1360     		str	r3, [r2]
 2588              	.L164:
 525:./Application/Src/menu.c ****                 select_scroll_offset = 0;
 2589              		.loc 1 525 13 is_stmt 1 view .LVU608
 525:./Application/Src/menu.c ****                 select_scroll_offset = 0;
 2590              		.loc 1 525 16 is_stmt 0 view .LVU609
 2591 03b2 13B9     		cbnz	r3, .L161
 526:./Application/Src/menu.c ****         }
 2592              		.loc 1 526 17 is_stmt 1 view .LVU610
 526:./Application/Src/menu.c ****         }
 2593              		.loc 1 526 38 is_stmt 0 view .LVU611
 2594 03b4 4C4B     		ldr	r3, .L186+60
 2595 03b6 0022     		movs	r2, #0
 2596 03b8 1A60     		str	r2, [r3]
 2597              	.L161:
 528:./Application/Src/menu.c ****         {
 2598              		.loc 1 528 9 is_stmt 1 view .LVU612
 528:./Application/Src/menu.c ****         {
ARM GAS  C:\Users\Xuleo\AppData\Local\Temp\ccbzHqJi.s 			page 66


 2599              		.loc 1 528 13 is_stmt 0 view .LVU613
 2600 03ba 484B     		ldr	r3, .L186+48
 2601 03bc 1B68     		ldr	r3, [r3]
 528:./Application/Src/menu.c ****         {
 2602              		.loc 1 528 12 view .LVU614
 2603 03be D3B1     		cbz	r3, .L165
 530:./Application/Src/menu.c ****             if (select_song_index < 0)
 2604              		.loc 1 530 13 is_stmt 1 view .LVU615
 530:./Application/Src/menu.c ****             if (select_song_index < 0)
 2605              		.loc 1 530 30 is_stmt 0 view .LVU616
 2606 03c0 474A     		ldr	r2, .L186+52
 2607 03c2 1368     		ldr	r3, [r2]
 2608 03c4 013B     		subs	r3, r3, #1
 2609 03c6 1360     		str	r3, [r2]
 531:./Application/Src/menu.c ****                 select_song_index = fileCount - 1;
 2610              		.loc 1 531 13 is_stmt 1 view .LVU617
 531:./Application/Src/menu.c ****                 select_song_index = fileCount - 1;
 2611              		.loc 1 531 16 is_stmt 0 view .LVU618
 2612 03c8 002B     		cmp	r3, #0
 2613 03ca 21DB     		blt	.L181
 2614              	.L166:
 533:./Application/Src/menu.c ****                 select_scroll_offset = select_song_index;
 2615              		.loc 1 533 13 is_stmt 1 view .LVU619
 533:./Application/Src/menu.c ****                 select_scroll_offset = select_song_index;
 2616              		.loc 1 533 35 is_stmt 0 view .LVU620
 2617 03cc 444B     		ldr	r3, .L186+52
 2618 03ce 1B68     		ldr	r3, [r3]
 2619 03d0 454A     		ldr	r2, .L186+60
 2620 03d2 1268     		ldr	r2, [r2]
 533:./Application/Src/menu.c ****                 select_scroll_offset = select_song_index;
 2621              		.loc 1 533 16 view .LVU621
 2622 03d4 9342     		cmp	r3, r2
 2623 03d6 01DA     		bge	.L167
 534:./Application/Src/menu.c ****             if (select_song_index >= select_scroll_offset + 5)
 2624              		.loc 1 534 17 is_stmt 1 view .LVU622
 534:./Application/Src/menu.c ****             if (select_song_index >= select_scroll_offset + 5)
 2625              		.loc 1 534 38 is_stmt 0 view .LVU623
 2626 03d8 434A     		ldr	r2, .L186+60
 2627 03da 1360     		str	r3, [r2]
 2628              	.L167:
 535:./Application/Src/menu.c ****                 select_scroll_offset = select_song_index - 4;
 2629              		.loc 1 535 13 is_stmt 1 view .LVU624
 535:./Application/Src/menu.c ****                 select_scroll_offset = select_song_index - 4;
 2630              		.loc 1 535 35 is_stmt 0 view .LVU625
 2631 03dc 424A     		ldr	r2, .L186+60
 2632 03de 1268     		ldr	r2, [r2]
 2633 03e0 0432     		adds	r2, r2, #4
 535:./Application/Src/menu.c ****                 select_scroll_offset = select_song_index - 4;
 2634              		.loc 1 535 16 view .LVU626
 2635 03e2 9342     		cmp	r3, r2
 2636 03e4 02DD     		ble	.L168
 536:./Application/Src/menu.c ****             if (select_song_index == fileCount - 1)
 2637              		.loc 1 536 17 is_stmt 1 view .LVU627
 536:./Application/Src/menu.c ****             if (select_song_index == fileCount - 1)
 2638              		.loc 1 536 58 is_stmt 0 view .LVU628
 2639 03e6 1A1F     		subs	r2, r3, #4
 536:./Application/Src/menu.c ****             if (select_song_index == fileCount - 1)
ARM GAS  C:\Users\Xuleo\AppData\Local\Temp\ccbzHqJi.s 			page 67


 2640              		.loc 1 536 38 view .LVU629
 2641 03e8 3F49     		ldr	r1, .L186+60
 2642 03ea 0A60     		str	r2, [r1]
 2643              	.L168:
 537:./Application/Src/menu.c ****                 select_scroll_offset = (fileCount > 5) ? fileCount - 5 : 0;
 2644              		.loc 1 537 13 is_stmt 1 view .LVU630
 537:./Application/Src/menu.c ****                 select_scroll_offset = (fileCount > 5) ? fileCount - 5 : 0;
 2645              		.loc 1 537 48 is_stmt 0 view .LVU631
 2646 03ec 3D4A     		ldr	r2, .L186+56
 2647 03ee 1268     		ldr	r2, [r2]
 2648 03f0 511E     		subs	r1, r2, #1
 537:./Application/Src/menu.c ****                 select_scroll_offset = (fileCount > 5) ? fileCount - 5 : 0;
 2649              		.loc 1 537 16 view .LVU632
 2650 03f2 8B42     		cmp	r3, r1
 2651 03f4 11D0     		beq	.L182
 2652              	.L165:
 541:./Application/Src/menu.c ****         {
 2653              		.loc 1 541 9 is_stmt 1 view .LVU633
 541:./Application/Src/menu.c ****         {
 2654              		.loc 1 541 13 is_stmt 0 view .LVU634
 2655 03f6 3D4B     		ldr	r3, .L186+64
 2656 03f8 1B68     		ldr	r3, [r3]
 541:./Application/Src/menu.c ****         {
 2657              		.loc 1 541 12 view .LVU635
 2658 03fa 33B1     		cbz	r3, .L169
 543:./Application/Src/menu.c ****             if (fileCount > 0)
 2659              		.loc 1 543 13 is_stmt 1 view .LVU636
 543:./Application/Src/menu.c ****             if (fileCount > 0)
 2660              		.loc 1 543 24 is_stmt 0 view .LVU637
 2661 03fc 3B4B     		ldr	r3, .L186+64
 2662 03fe 0022     		movs	r2, #0
 2663 0400 1A60     		str	r2, [r3]
 544:./Application/Src/menu.c ****             {
 2664              		.loc 1 544 13 is_stmt 1 view .LVU638
 544:./Application/Src/menu.c ****             {
 2665              		.loc 1 544 27 is_stmt 0 view .LVU639
 2666 0402 384B     		ldr	r3, .L186+56
 2667 0404 1B68     		ldr	r3, [r3]
 544:./Application/Src/menu.c ****             {
 2668              		.loc 1 544 16 view .LVU640
 2669 0406 9342     		cmp	r3, r2
 2670 0408 0EDC     		bgt	.L183
 2671              	.L169:
 556:./Application/Src/menu.c ****         break;
 2672              		.loc 1 556 9 is_stmt 1 view .LVU641
 2673 040a FFF7FEFF 		bl	menu_draw_select
 2674              	.LVL199:
 557:./Application/Src/menu.c **** 
 2675              		.loc 1 557 9 view .LVU642
 2676 040e 97E7     		b	.L146
 2677              	.L181:
 532:./Application/Src/menu.c ****             if (select_song_index < select_scroll_offset)
 2678              		.loc 1 532 17 view .LVU643
 532:./Application/Src/menu.c ****             if (select_song_index < select_scroll_offset)
 2679              		.loc 1 532 47 is_stmt 0 view .LVU644
 2680 0410 344B     		ldr	r3, .L186+56
 2681 0412 1B68     		ldr	r3, [r3]
ARM GAS  C:\Users\Xuleo\AppData\Local\Temp\ccbzHqJi.s 			page 68


 2682 0414 013B     		subs	r3, r3, #1
 532:./Application/Src/menu.c ****             if (select_song_index < select_scroll_offset)
 2683              		.loc 1 532 35 view .LVU645
 2684 0416 1360     		str	r3, [r2]
 2685 0418 D8E7     		b	.L166
 2686              	.L182:
 538:./Application/Src/menu.c ****         }
 2687              		.loc 1 538 17 is_stmt 1 view .LVU646
 538:./Application/Src/menu.c ****         }
 2688              		.loc 1 538 72 is_stmt 0 view .LVU647
 2689 041a 052A     		cmp	r2, #5
 2690 041c B8BF     		it	lt
 2691 041e 0522     		movlt	r2, #5
 2692 0420 053A     		subs	r2, r2, #5
 538:./Application/Src/menu.c ****         }
 2693              		.loc 1 538 38 view .LVU648
 2694 0422 314B     		ldr	r3, .L186+60
 2695 0424 1A60     		str	r2, [r3]
 2696 0426 E6E7     		b	.L165
 2697              	.L183:
 2698              	.LBB26:
 546:./Application/Src/menu.c ****                 char buf[25];
 2699              		.loc 1 546 17 is_stmt 1 view .LVU649
 546:./Application/Src/menu.c ****                 char buf[25];
 2700              		.loc 1 546 35 is_stmt 0 view .LVU650
 2701 0428 2D4B     		ldr	r3, .L186+52
 2702 042a 1B68     		ldr	r3, [r3]
 2703 042c 304D     		ldr	r5, .L186+68
 2704 042e 2B60     		str	r3, [r5]
 547:./Application/Src/menu.c ****                 snprintf(buf, sizeof(buf), "Selected: %-12s  ", fileList[active_song_index].name);
 2705              		.loc 1 547 17 is_stmt 1 view .LVU651
 548:./Application/Src/menu.c ****                 LCD_draw_string(0, 9, buf, COLOR_BLACK, COLOR_WHITE);
 2706              		.loc 1 548 17 view .LVU652
 548:./Application/Src/menu.c ****                 LCD_draw_string(0, 9, buf, COLOR_BLACK, COLOR_WHITE);
 2707              		.loc 1 548 92 is_stmt 0 view .LVU653
 2708 0430 03EB8303 		add	r3, r3, r3, lsl #2
 548:./Application/Src/menu.c ****                 LCD_draw_string(0, 9, buf, COLOR_BLACK, COLOR_WHITE);
 2709              		.loc 1 548 17 view .LVU654
 2710 0434 2F4E     		ldr	r6, .L186+72
 2711 0436 06EB8303 		add	r3, r6, r3, lsl #2
 2712 043a 2F4A     		ldr	r2, .L186+76
 2713 043c 1921     		movs	r1, #25
 2714 043e 07A8     		add	r0, sp, #28
 2715 0440 FFF7FEFF 		bl	snprintf
 2716              	.LVL200:
 549:./Application/Src/menu.c ****                 LCD_draw_string(0, 10, "Parsing song...         ", COLOR_BLACK, COLOR_WHITE);
 2717              		.loc 1 549 17 is_stmt 1 view .LVU655
 2718 0444 4FF6FF74 		movw	r4, #65535
 2719 0448 0094     		str	r4, [sp]
 2720 044a 0023     		movs	r3, #0
 2721 044c 07AA     		add	r2, sp, #28
 2722 044e 0921     		movs	r1, #9
 2723 0450 1846     		mov	r0, r3
 2724 0452 FFF7FEFF 		bl	LCD_draw_string
 2725              	.LVL201:
 550:./Application/Src/menu.c ****                 sd_parse_array(fileList[active_song_index].name);
 2726              		.loc 1 550 17 view .LVU656
ARM GAS  C:\Users\Xuleo\AppData\Local\Temp\ccbzHqJi.s 			page 69


 2727 0456 0094     		str	r4, [sp]
 2728 0458 0023     		movs	r3, #0
 2729 045a 284A     		ldr	r2, .L186+80
 2730 045c 0A21     		movs	r1, #10
 2731 045e 1846     		mov	r0, r3
 2732 0460 FFF7FEFF 		bl	LCD_draw_string
 2733              	.LVL202:
 551:./Application/Src/menu.c ****                 LCD_draw_string(0, 10, "Song ready to play!    ", COLOR_BLACK, COLOR_WHITE);
 2734              		.loc 1 551 17 view .LVU657
 551:./Application/Src/menu.c ****                 LCD_draw_string(0, 10, "Song ready to play!    ", COLOR_BLACK, COLOR_WHITE);
 2735              		.loc 1 551 59 is_stmt 0 view .LVU658
 2736 0464 2868     		ldr	r0, [r5]
 2737 0466 00EB8000 		add	r0, r0, r0, lsl #2
 551:./Application/Src/menu.c ****                 LCD_draw_string(0, 10, "Song ready to play!    ", COLOR_BLACK, COLOR_WHITE);
 2738              		.loc 1 551 17 view .LVU659
 2739 046a 06EB8000 		add	r0, r6, r0, lsl #2
 2740 046e FFF7FEFF 		bl	sd_parse_array
 2741              	.LVL203:
 552:./Application/Src/menu.c ****             }
 2742              		.loc 1 552 17 is_stmt 1 view .LVU660
 2743 0472 0094     		str	r4, [sp]
 2744 0474 0023     		movs	r3, #0
 2745 0476 224A     		ldr	r2, .L186+84
 2746 0478 0A21     		movs	r1, #10
 2747 047a 1846     		mov	r0, r3
 2748 047c FFF7FEFF 		bl	LCD_draw_string
 2749              	.LVL204:
 2750 0480 C3E7     		b	.L169
 2751              	.L176:
 2752              	.LBE26:
 2753              	.LBB27:
 563:./Application/Src/menu.c ****             LCD_draw_string(0, 1, "[Debug] :a to go back   ", COLOR_BLACK, COLOR_WHITE);
 2754              		.loc 1 563 13 view .LVU661
 2755 0482 FFF7FEFF 		bl	clear_menu_area
 2756              	.LVL205:
 564:./Application/Src/menu.c ****             page_dirty = 0;
 2757              		.loc 1 564 13 view .LVU662
 2758 0486 4FF6FF73 		movw	r3, #65535
 2759 048a 0093     		str	r3, [sp]
 2760 048c 0023     		movs	r3, #0
 2761 048e 1D4A     		ldr	r2, .L186+88
 2762 0490 0121     		movs	r1, #1
 2763 0492 1846     		mov	r0, r3
 2764 0494 FFF7FEFF 		bl	LCD_draw_string
 2765              	.LVL206:
 565:./Application/Src/menu.c ****         }
 2766              		.loc 1 565 13 view .LVU663
 565:./Application/Src/menu.c ****         }
 2767              		.loc 1 565 24 is_stmt 0 view .LVU664
 2768 0498 054B     		ldr	r3, .L186+4
 2769 049a 0022     		movs	r2, #0
 2770 049c 1A60     		str	r2, [r3]
 2771 049e D0E5     		b	.L170
 2772              	.LVL207:
 2773              	.L180:
 565:./Application/Src/menu.c ****         }
 2774              		.loc 1 565 24 view .LVU665
ARM GAS  C:\Users\Xuleo\AppData\Local\Temp\ccbzHqJi.s 			page 70


 2775              	.LBE27:
 2776              	.LBB28:
 586:./Application/Src/menu.c ****             last_heartbeat_tick = now;
 2777              		.loc 1 586 13 is_stmt 1 view .LVU666
 2778 04a0 FFF7FEFF 		bl	pkt_send_heartbeat
 2779              	.LVL208:
 587:./Application/Src/menu.c ****         }
 2780              		.loc 1 587 13 view .LVU667
 587:./Application/Src/menu.c ****         }
 2781              		.loc 1 587 33 is_stmt 0 view .LVU668
 2782 04a4 0B4B     		ldr	r3, .L186+40
 2783 04a6 1C60     		str	r4, [r3]
 2784 04a8 54E7     		b	.L171
 2785              	.L187:
 2786 04aa 00BF     		.align	2
 2787              	.L186:
 2788 04ac 00000000 		.word	menu_state
 2789 04b0 00000000 		.word	page_dirty
 2790 04b4 00000000 		.word	uart_binary_mode
 2791 04b8 00000000 		.word	redirect_to_ram
 2792 04bc 00000000 		.word	ram_rx_started
 2793 04c0 00000000 		.word	ram_rx_complete
 2794 04c4 00000000 		.word	ram_rx_offset
 2795 04c8 00000000 		.word	.LC35
 2796 04cc 1C000000 		.word	.LC36
 2797 04d0 38000000 		.word	.LC37
 2798 04d4 00000000 		.word	last_heartbeat_tick
 2799 04d8 00000000 		.word	menu_move_down
 2800 04dc 00000000 		.word	menu_move_up
 2801 04e0 00000000 		.word	select_song_index
 2802 04e4 00000000 		.word	fileCount
 2803 04e8 00000000 		.word	select_scroll_offset
 2804 04ec 00000000 		.word	menu_enter
 2805 04f0 00000000 		.word	active_song_index
 2806 04f4 00000000 		.word	fileList
 2807 04f8 54000000 		.word	.LC38
 2808 04fc 68000000 		.word	.LC39
 2809 0500 84000000 		.word	.LC40
 2810 0504 9C000000 		.word	.LC41
 2811              	.LBE28:
 2812              		.cfi_endproc
 2813              	.LFE370:
 2815              		.section	.rodata.str1.4,"aMS",%progbits,1
 2816              		.align	2
 2817              	.LC0:
 2818 0000 312E2050 		.ascii	"1. Play Song\000"
 2818      6C617920 
 2818      536F6E67 
 2818      00
 2819 000d 000000   		.align	2
 2820              	.LC1:
 2821 0010 322E2054 		.ascii	"2. Transmit Song(SD)\000"
 2821      72616E73 
 2821      6D697420 
 2821      536F6E67 
 2821      28534429 
 2822 0025 000000   		.align	2
ARM GAS  C:\Users\Xuleo\AppData\Local\Temp\ccbzHqJi.s 			page 71


 2823              	.LC2:
 2824 0028 332E2054 		.ascii	"3. Transmit Song(RAM)\000"
 2824      72616E73 
 2824      6D697420 
 2824      536F6E67 
 2824      2852414D 
 2825 003e 0000     		.align	2
 2826              	.LC3:
 2827 0040 342E2053 		.ascii	"4. Select Song\000"
 2827      656C6563 
 2827      7420536F 
 2827      6E6700
 2828 004f 00       		.align	2
 2829              	.LC4:
 2830 0050 352E2048 		.ascii	"5. Homing\000"
 2830      6F6D696E 
 2830      6700
 2831 005a 0000     		.align	2
 2832              	.LC5:
 2833 005c 362E2044 		.ascii	"6. Debug\000"
 2833      65627567 
 2833      00
 2834              		.section	.data.last_ram_sent_status,"aw"
 2837              	last_ram_sent_status:
 2838 0000 FF       		.byte	-1
 2839              		.section	.data.last_ft_state,"aw"
 2842              	last_ft_state:
 2843 0000 FF       		.byte	-1
 2844              		.section	.bss.file_list_sent,"aw",%nobits
 2845              		.align	2
 2848              	file_list_sent:
 2849 0000 00000000 		.space	4
 2850              		.section	.bss.file_list_send_idx,"aw",%nobits
 2851              		.align	2
 2854              	file_list_send_idx:
 2855 0000 00000000 		.space	4
 2856              		.section	.data.last_sent_index,"aw"
 2859              	last_sent_index:
 2860 0000 FF       		.byte	-1
 2861              		.section	.data.last_sent_state,"aw"
 2864              	last_sent_state:
 2865 0000 FF       		.byte	-1
 2866              		.section	.bss.last_heartbeat_tick,"aw",%nobits
 2867              		.align	2
 2870              	last_heartbeat_tick:
 2871 0000 00000000 		.space	4
 2872              		.section	.data.page_dirty,"aw"
 2873              		.align	2
 2876              	page_dirty:
 2877 0000 01000000 		.word	1
 2878              		.global	active_song_index
 2879              		.section	.data.active_song_index,"aw"
 2880              		.align	2
 2883              	active_song_index:
 2884 0000 FFFFFFFF 		.word	-1
 2885              		.global	select_scroll_offset
 2886              		.section	.bss.select_scroll_offset,"aw",%nobits
ARM GAS  C:\Users\Xuleo\AppData\Local\Temp\ccbzHqJi.s 			page 72


 2887              		.align	2
 2890              	select_scroll_offset:
 2891 0000 00000000 		.space	4
 2892              		.global	select_song_index
 2893              		.section	.bss.select_song_index,"aw",%nobits
 2894              		.align	2
 2897              	select_song_index:
 2898 0000 00000000 		.space	4
 2899              		.global	menu_back
 2900              		.section	.bss.menu_back,"aw",%nobits
 2901              		.align	2
 2904              	menu_back:
 2905 0000 00000000 		.space	4
 2906              		.global	menu_enter
 2907              		.section	.bss.menu_enter,"aw",%nobits
 2908              		.align	2
 2911              	menu_enter:
 2912 0000 00000000 		.space	4
 2913              		.global	menu_move_up
 2914              		.section	.bss.menu_move_up,"aw",%nobits
 2915              		.align	2
 2918              	menu_move_up:
 2919 0000 00000000 		.space	4
 2920              		.global	menu_move_down
 2921              		.section	.bss.menu_move_down,"aw",%nobits
 2922              		.align	2
 2925              	menu_move_down:
 2926 0000 00000000 		.space	4
 2927              		.global	menu_index
 2928              		.section	.bss.menu_index,"aw",%nobits
 2929              		.align	2
 2932              	menu_index:
 2933 0000 00000000 		.space	4
 2934              		.section	.bss.menu_state,"aw",%nobits
 2937              	menu_state:
 2938 0000 00       		.space	1
 2939              		.section	.rodata
 2940              		.align	2
 2941              		.set	.LANCHOR0,. + 0
 2942              	.LC10:
 2943 0000 00000000 		.word	.LC0
 2944 0004 10000000 		.word	.LC1
 2945 0008 28000000 		.word	.LC2
 2946 000c 40000000 		.word	.LC3
 2947 0010 50000000 		.word	.LC4
 2948 0014 5C000000 		.word	.LC5
 2949              		.text
 2950              	.Letext0:
 2951              		.file 2 "C:/thirdpartyLibs/arm-gnu-toolchain-15.2/lib/gcc/arm-none-eabi/15.2.1/include/stddef.h"
 2952              		.file 3 "C:/thirdpartyLibs/arm-gnu-toolchain-15.2/arm-none-eabi/include/machine/_default_types.h"
 2953              		.file 4 "C:/thirdpartyLibs/arm-gnu-toolchain-15.2/arm-none-eabi/include/sys/_stdint.h"
 2954              		.file 5 "Drivers/CMSIS/Device/ST/STM32H5xx/Include/stm32h523xx.h"
 2955              		.file 6 "Application/Inc/sd.h"
 2956              		.file 7 "Application/Inc/file_transfer.h"
 2957              		.file 8 "Application/Inc/application.h"
 2958              		.file 9 "Application/Inc/menu.h"
 2959              		.file 10 "Application/Inc/packet.h"
ARM GAS  C:\Users\Xuleo\AppData\Local\Temp\ccbzHqJi.s 			page 73


 2960              		.file 11 "Application/Inc/command.h"
 2961              		.file 12 "Drivers/STM32H5xx_HAL_Driver/Inc/stm32h5xx_hal.h"
 2962              		.file 13 "Application/Inc/ILI9225.h"
 2963              		.file 14 "C:/thirdpartyLibs/arm-gnu-toolchain-15.2/arm-none-eabi/include/string.h"
 2964              		.file 15 "C:/thirdpartyLibs/arm-gnu-toolchain-15.2/arm-none-eabi/include/stdio.h"
ARM GAS  C:\Users\Xuleo\AppData\Local\Temp\ccbzHqJi.s 			page 74


DEFINED SYMBOLS
                            *ABS*:00000000 menu.c
C:\Users\Xuleo\AppData\Local\Temp\ccbzHqJi.s:22     .rodata.clear_menu_area.str1.4:00000000 $d
C:\Users\Xuleo\AppData\Local\Temp\ccbzHqJi.s:26     .text.clear_menu_area:00000000 $t
C:\Users\Xuleo\AppData\Local\Temp\ccbzHqJi.s:31     .text.clear_menu_area:00000000 clear_menu_area
C:\Users\Xuleo\AppData\Local\Temp\ccbzHqJi.s:83     .text.clear_menu_area:00000024 $d
C:\Users\Xuleo\AppData\Local\Temp\ccbzHqJi.s:88     .text.sync_ui_state:00000000 $t
C:\Users\Xuleo\AppData\Local\Temp\ccbzHqJi.s:93     .text.sync_ui_state:00000000 sync_ui_state
C:\Users\Xuleo\AppData\Local\Temp\ccbzHqJi.s:182    .text.sync_ui_state:00000048 $d
C:\Users\Xuleo\AppData\Local\Temp\ccbzHqJi.s:2937   .bss.menu_state:00000000 menu_state
C:\Users\Xuleo\AppData\Local\Temp\ccbzHqJi.s:2932   .bss.menu_index:00000000 menu_index
C:\Users\Xuleo\AppData\Local\Temp\ccbzHqJi.s:2864   .data.last_sent_state:00000000 last_sent_state
C:\Users\Xuleo\AppData\Local\Temp\ccbzHqJi.s:2859   .data.last_sent_index:00000000 last_sent_index
C:\Users\Xuleo\AppData\Local\Temp\ccbzHqJi.s:2897   .bss.select_song_index:00000000 select_song_index
C:\Users\Xuleo\AppData\Local\Temp\ccbzHqJi.s:2883   .data.active_song_index:00000000 active_song_index
C:\Users\Xuleo\AppData\Local\Temp\ccbzHqJi.s:193    .rodata.menu_draw_main.str1.4:00000000 $d
C:\Users\Xuleo\AppData\Local\Temp\ccbzHqJi.s:203    .text.menu_draw_main:00000000 $t
C:\Users\Xuleo\AppData\Local\Temp\ccbzHqJi.s:209    .text.menu_draw_main:00000000 menu_draw_main
C:\Users\Xuleo\AppData\Local\Temp\ccbzHqJi.s:331    .text.menu_draw_main:0000007c $d
C:\Users\Xuleo\AppData\Local\Temp\ccbzHqJi.s:340    .rodata.menu_draw_transmit.str1.4:00000000 $d
C:\Users\Xuleo\AppData\Local\Temp\ccbzHqJi.s:368    .text.menu_draw_transmit:00000000 $t
C:\Users\Xuleo\AppData\Local\Temp\ccbzHqJi.s:374    .text.menu_draw_transmit:00000000 menu_draw_transmit
C:\Users\Xuleo\AppData\Local\Temp\ccbzHqJi.s:655    .text.menu_draw_transmit:0000015c $d
C:\Users\Xuleo\AppData\Local\Temp\ccbzHqJi.s:2876   .data.page_dirty:00000000 page_dirty
C:\Users\Xuleo\AppData\Local\Temp\ccbzHqJi.s:2842   .data.last_ft_state:00000000 last_ft_state
C:\Users\Xuleo\AppData\Local\Temp\ccbzHqJi.s:672    .rodata.menu_draw_transmit_ram.str1.4:00000000 $d
C:\Users\Xuleo\AppData\Local\Temp\ccbzHqJi.s:694    .text.menu_draw_transmit_ram:00000000 $t
C:\Users\Xuleo\AppData\Local\Temp\ccbzHqJi.s:700    .text.menu_draw_transmit_ram:00000000 menu_draw_transmit_ram
C:\Users\Xuleo\AppData\Local\Temp\ccbzHqJi.s:921    .text.menu_draw_transmit_ram:00000114 $d
C:\Users\Xuleo\AppData\Local\Temp\ccbzHqJi.s:2837   .data.last_ram_sent_status:00000000 last_ram_sent_status
C:\Users\Xuleo\AppData\Local\Temp\ccbzHqJi.s:940    .rodata.menu_draw_select.str1.4:00000000 $d
C:\Users\Xuleo\AppData\Local\Temp\ccbzHqJi.s:959    .text.menu_draw_select:00000000 $t
C:\Users\Xuleo\AppData\Local\Temp\ccbzHqJi.s:965    .text.menu_draw_select:00000000 menu_draw_select
C:\Users\Xuleo\AppData\Local\Temp\ccbzHqJi.s:1389   .text.menu_draw_select:000001e4 $d
C:\Users\Xuleo\AppData\Local\Temp\ccbzHqJi.s:2848   .bss.file_list_sent:00000000 file_list_sent
C:\Users\Xuleo\AppData\Local\Temp\ccbzHqJi.s:2854   .bss.file_list_send_idx:00000000 file_list_send_idx
C:\Users\Xuleo\AppData\Local\Temp\ccbzHqJi.s:2890   .bss.select_scroll_offset:00000000 select_scroll_offset
C:\Users\Xuleo\AppData\Local\Temp\ccbzHqJi.s:1410   .text.menu_get_state:00000000 $t
C:\Users\Xuleo\AppData\Local\Temp\ccbzHqJi.s:1416   .text.menu_get_state:00000000 menu_get_state
C:\Users\Xuleo\AppData\Local\Temp\ccbzHqJi.s:1431   .text.menu_get_state:00000008 $d
C:\Users\Xuleo\AppData\Local\Temp\ccbzHqJi.s:1436   .text.menu_process_message:00000000 $t
C:\Users\Xuleo\AppData\Local\Temp\ccbzHqJi.s:1442   .text.menu_process_message:00000000 menu_process_message
C:\Users\Xuleo\AppData\Local\Temp\ccbzHqJi.s:1555   .text.menu_try_dispatch_binary:00000000 $t
C:\Users\Xuleo\AppData\Local\Temp\ccbzHqJi.s:1561   .text.menu_try_dispatch_binary:00000000 menu_try_dispatch_binary
C:\Users\Xuleo\AppData\Local\Temp\ccbzHqJi.s:1758   .text.menu_set_state:00000000 $t
C:\Users\Xuleo\AppData\Local\Temp\ccbzHqJi.s:1764   .text.menu_set_state:00000000 menu_set_state
C:\Users\Xuleo\AppData\Local\Temp\ccbzHqJi.s:1791   .text.menu_set_state:00000014 $d
C:\Users\Xuleo\AppData\Local\Temp\ccbzHqJi.s:1798   .rodata.menu_init.str1.4:00000000 $d
C:\Users\Xuleo\AppData\Local\Temp\ccbzHqJi.s:1802   .text.menu_init:00000000 $t
C:\Users\Xuleo\AppData\Local\Temp\ccbzHqJi.s:1808   .text.menu_init:00000000 menu_init
C:\Users\Xuleo\AppData\Local\Temp\ccbzHqJi.s:1856   .text.menu_init:00000030 $d
C:\Users\Xuleo\AppData\Local\Temp\ccbzHqJi.s:1864   .rodata.menu_update.str1.4:00000000 $d
C:\Users\Xuleo\AppData\Local\Temp\ccbzHqJi.s:1901   .text.menu_update:00000000 $t
C:\Users\Xuleo\AppData\Local\Temp\ccbzHqJi.s:1907   .text.menu_update:00000000 menu_update
C:\Users\Xuleo\AppData\Local\Temp\ccbzHqJi.s:2350   .text.menu_update:00000274 $d
C:\Users\Xuleo\AppData\Local\Temp\ccbzHqJi.s:2904   .bss.menu_back:00000000 menu_back
C:\Users\Xuleo\AppData\Local\Temp\ccbzHqJi.s:2925   .bss.menu_move_down:00000000 menu_move_down
ARM GAS  C:\Users\Xuleo\AppData\Local\Temp\ccbzHqJi.s 			page 75


C:\Users\Xuleo\AppData\Local\Temp\ccbzHqJi.s:2918   .bss.menu_move_up:00000000 menu_move_up
C:\Users\Xuleo\AppData\Local\Temp\ccbzHqJi.s:2911   .bss.menu_enter:00000000 menu_enter
C:\Users\Xuleo\AppData\Local\Temp\ccbzHqJi.s:2373   .text.menu_update:000002c4 $t
C:\Users\Xuleo\AppData\Local\Temp\ccbzHqJi.s:2788   .text.menu_update:000004ac $d
C:\Users\Xuleo\AppData\Local\Temp\ccbzHqJi.s:2870   .bss.last_heartbeat_tick:00000000 last_heartbeat_tick
C:\Users\Xuleo\AppData\Local\Temp\ccbzHqJi.s:2816   .rodata.str1.4:00000000 $d
C:\Users\Xuleo\AppData\Local\Temp\ccbzHqJi.s:2845   .bss.file_list_sent:00000000 $d
C:\Users\Xuleo\AppData\Local\Temp\ccbzHqJi.s:2851   .bss.file_list_send_idx:00000000 $d
C:\Users\Xuleo\AppData\Local\Temp\ccbzHqJi.s:2867   .bss.last_heartbeat_tick:00000000 $d
C:\Users\Xuleo\AppData\Local\Temp\ccbzHqJi.s:2873   .data.page_dirty:00000000 $d
C:\Users\Xuleo\AppData\Local\Temp\ccbzHqJi.s:2880   .data.active_song_index:00000000 $d
C:\Users\Xuleo\AppData\Local\Temp\ccbzHqJi.s:2887   .bss.select_scroll_offset:00000000 $d
C:\Users\Xuleo\AppData\Local\Temp\ccbzHqJi.s:2894   .bss.select_song_index:00000000 $d
C:\Users\Xuleo\AppData\Local\Temp\ccbzHqJi.s:2901   .bss.menu_back:00000000 $d
C:\Users\Xuleo\AppData\Local\Temp\ccbzHqJi.s:2908   .bss.menu_enter:00000000 $d
C:\Users\Xuleo\AppData\Local\Temp\ccbzHqJi.s:2915   .bss.menu_move_up:00000000 $d
C:\Users\Xuleo\AppData\Local\Temp\ccbzHqJi.s:2922   .bss.menu_move_down:00000000 $d
C:\Users\Xuleo\AppData\Local\Temp\ccbzHqJi.s:2929   .bss.menu_index:00000000 $d
C:\Users\Xuleo\AppData\Local\Temp\ccbzHqJi.s:2938   .bss.menu_state:00000000 $d
C:\Users\Xuleo\AppData\Local\Temp\ccbzHqJi.s:2940   .rodata:00000000 $d

UNDEFINED SYMBOLS
LCD_draw_string
pkt_send_ui_state
fileCount
snprintf
strlen
FT_GetState
FT_GetProgress
pkt_send_transfer_status
ram_rx_started
ram_rx_complete
ram_rx_offset
redirect_to_ram
pkt_send_file_entry
sd_list_txt_files
pkt_send_file_list_end
fileList
execute_command
FT_ProcessPacket
RAM_ProcessPacket
__aeabi_f2d
FT_Abort
FT_TimeoutCheck
traversal
FT_Init
right_motor
left_motor
uart_binary_mode
homing_procedure
HAL_GetTick
sd_parse_array
pkt_send_heartbeat
