ARM GAS  C:\Users\Xuleo\AppData\Local\Temp\cc2YNAUe.s 			page 1


   1              		.cpu cortex-m33
   2              		.arch armv8-m.main
   3              		.fpu fpv5-sp-d16
   4              		.arch_extension dsp
   5              		.eabi_attribute 27, 1
   6              		.eabi_attribute 28, 1
   7              		.eabi_attribute 20, 1
   8              		.eabi_attribute 21, 1
   9              		.eabi_attribute 23, 3
  10              		.eabi_attribute 24, 1
  11              		.eabi_attribute 25, 1
  12              		.eabi_attribute 26, 1
  13              		.eabi_attribute 30, 1
  14              		.eabi_attribute 34, 1
  15              		.eabi_attribute 18, 4
  16              		.file	"menu.c"
  17              		.text
  18              	.Ltext0:
  19              		.cfi_sections	.debug_frame
  20              		.file 1 "./Application/Src/menu.c"
  21              		.section	.rodata.clear_menu_area.str1.4,"aMS",%progbits,1
  22              		.align	2
  23              	.LC7:
  24 0000 20202020 		.ascii	"                        \000"
  24      20202020 
  24      20202020 
  24      20202020 
  24      20202020 
  25              		.section	.text.clear_menu_area,"ax",%progbits
  26              		.align	1
  27              		.syntax unified
  28              		.thumb
  29              		.thumb_func
  31              	clear_menu_area:
  32              	.LFB359:
   1:./Application/Src/menu.c **** #include <menu.h>
   2:./Application/Src/menu.c **** #include <diskio.h>
   3:./Application/Src/menu.c **** #include <file_transfer.h>
   4:./Application/Src/menu.c **** #include <string.h>
   5:./Application/Src/menu.c **** #include <stdio.h>
   6:./Application/Src/menu.c **** #include <application.h>
   7:./Application/Src/menu.c **** 
   8:./Application/Src/menu.c **** extern PID_t left_motor;
   9:./Application/Src/menu.c **** extern PID_t right_motor;
  10:./Application/Src/menu.c **** 
  11:./Application/Src/menu.c **** /* Menu state */
  12:./Application/Src/menu.c **** static MenuState_t menu_state = MENU_STATE_MAIN;
  13:./Application/Src/menu.c **** 
  14:./Application/Src/menu.c **** /* Navigation flags */
  15:./Application/Src/menu.c **** int menu_index = 0;
  16:./Application/Src/menu.c **** int menu_move_down = 0;
  17:./Application/Src/menu.c **** int menu_move_up = 0;
  18:./Application/Src/menu.c **** int menu_enter = 0;
  19:./Application/Src/menu.c **** int menu_back = 0;
  20:./Application/Src/menu.c **** 
  21:./Application/Src/menu.c **** /* Select-song page state */
  22:./Application/Src/menu.c **** int select_song_index = 0;
ARM GAS  C:\Users\Xuleo\AppData\Local\Temp\cc2YNAUe.s 			page 2


  23:./Application/Src/menu.c **** int select_scroll_offset = 0;
  24:./Application/Src/menu.c **** int active_song_index = -1;
  25:./Application/Src/menu.c **** 
  26:./Application/Src/menu.c **** /* Track if page needs full redraw */
  27:./Application/Src/menu.c **** static int page_dirty = 1;
  28:./Application/Src/menu.c **** 
  29:./Application/Src/menu.c **** /* ------------------------------------------------------------------ */
  30:./Application/Src/menu.c **** /*  Helpers                                                           */
  31:./Application/Src/menu.c **** /* ------------------------------------------------------------------ */
  32:./Application/Src/menu.c **** 
  33:./Application/Src/menu.c **** static void clear_menu_area(void)
  34:./Application/Src/menu.c **** {
  33              		.loc 1 34 1 view -0
  34              		.cfi_startproc
  35              		@ args = 0, pretend = 0, frame = 0
  36              		@ frame_needed = 0, uses_anonymous_args = 0
  37 0000 10B5     		push	{r4, lr}
  38              	.LCFI0:
  39              		.cfi_def_cfa_offset 8
  40              		.cfi_offset 4, -8
  41              		.cfi_offset 14, -4
  42 0002 82B0     		sub	sp, sp, #8
  43              	.LCFI1:
  44              		.cfi_def_cfa_offset 16
  35:./Application/Src/menu.c ****     /* Clear rows 1-9 (leave row 0 = title, rows 10+ = debug info) */
  36:./Application/Src/menu.c ****     for (int r = 1; r <= 9; r++)
  45              		.loc 1 36 5 view .LVU1
  46              	.LBB2:
  47              		.loc 1 36 10 view .LVU2
  48              	.LVL0:
  49              		.loc 1 36 14 is_stmt 0 view .LVU3
  50 0004 0124     		movs	r4, #1
  51              		.loc 1 36 5 view .LVU4
  52 0006 09E0     		b	.L2
  53              	.LVL1:
  54              	.L3:
  37:./Application/Src/menu.c ****     {
  38:./Application/Src/menu.c ****         LCD_draw_string(0, r, "                        ", COLOR_BLACK, COLOR_WHITE);
  55              		.loc 1 38 9 is_stmt 1 view .LVU5
  56 0008 4FF6FF73 		movw	r3, #65535
  57 000c 0093     		str	r3, [sp]
  58 000e 0023     		movs	r3, #0
  59 0010 044A     		ldr	r2, .L5
  60 0012 A1B2     		uxth	r1, r4
  61 0014 1846     		mov	r0, r3
  62 0016 FFF7FEFF 		bl	LCD_draw_string
  63              	.LVL2:
  36:./Application/Src/menu.c ****     {
  64              		.loc 1 36 30 discriminator 3 view .LVU6
  65 001a 0134     		adds	r4, r4, #1
  66              	.LVL3:
  67              	.L2:
  36:./Application/Src/menu.c ****     {
  68              		.loc 1 36 23 discriminator 1 view .LVU7
  69 001c 092C     		cmp	r4, #9
  70 001e F3DD     		ble	.L3
  71              	.LBE2:
ARM GAS  C:\Users\Xuleo\AppData\Local\Temp\cc2YNAUe.s 			page 3


  39:./Application/Src/menu.c ****     }
  40:./Application/Src/menu.c **** }
  72              		.loc 1 40 1 is_stmt 0 view .LVU8
  73 0020 02B0     		add	sp, sp, #8
  74              	.LCFI2:
  75              		.cfi_def_cfa_offset 8
  76              		@ sp needed
  77 0022 10BD     		pop	{r4, pc}
  78              	.LVL4:
  79              	.L6:
  80              		.loc 1 40 1 view .LVU9
  81              		.align	2
  82              	.L5:
  83 0024 00000000 		.word	.LC7
  84              		.cfi_endproc
  85              	.LFE359:
  87              		.section	.rodata.menu_draw_main.str1.4,"aMS",%progbits,1
  88              		.align	2
  89              	.LC8:
  90 0000 3E00     		.ascii	">\000"
  91 0002 0000     		.align	2
  92              	.LC9:
  93 0004 2000     		.ascii	" \000"
  94 0006 0000     		.align	2
  95              	.LC11:
  96 0008 25732025 		.ascii	"%s %s\000"
  96      7300
  97              		.section	.text.menu_draw_main,"ax",%progbits
  98              		.align	1
  99              		.global	menu_draw_main
 100              		.syntax unified
 101              		.thumb
 102              		.thumb_func
 104              	menu_draw_main:
 105              	.LFB360:
  41:./Application/Src/menu.c **** 
  42:./Application/Src/menu.c **** /* ------------------------------------------------------------------ */
  43:./Application/Src/menu.c **** /*  Main menu page                                                    */
  44:./Application/Src/menu.c **** /* ------------------------------------------------------------------ */
  45:./Application/Src/menu.c **** 
  46:./Application/Src/menu.c **** void menu_draw_main(void)
  47:./Application/Src/menu.c **** {
 106              		.loc 1 47 1 is_stmt 1 view -0
 107              		.cfi_startproc
 108              		@ args = 0, pretend = 0, frame = 56
 109              		@ frame_needed = 0, uses_anonymous_args = 0
 110 0000 30B5     		push	{r4, r5, lr}
 111              	.LCFI3:
 112              		.cfi_def_cfa_offset 12
 113              		.cfi_offset 4, -12
 114              		.cfi_offset 5, -8
 115              		.cfi_offset 14, -4
 116 0002 91B0     		sub	sp, sp, #68
 117              	.LCFI4:
 118              		.cfi_def_cfa_offset 80
  48:./Application/Src/menu.c ****     const char *items[] = {
 119              		.loc 1 48 5 view .LVU11
ARM GAS  C:\Users\Xuleo\AppData\Local\Temp\cc2YNAUe.s 			page 4


 120              		.loc 1 48 17 is_stmt 0 view .LVU12
 121 0004 0AAC     		add	r4, sp, #40
 122 0006 1D4D     		ldr	r5, .L17
 123 0008 0FCD     		ldmia	r5!, {r0, r1, r2, r3}
 124 000a 0FC4     		stmia	r4!, {r0, r1, r2, r3}
 125 000c 95E80300 		ldm	r5, {r0, r1}
 126 0010 84E80300 		stm	r4, {r0, r1}
  49:./Application/Src/menu.c ****         "1. Play Song",
  50:./Application/Src/menu.c ****         "2. Transmit Song(SD)",
  51:./Application/Src/menu.c ****         "3. Transmit Song(RAM)",
  52:./Application/Src/menu.c ****         "4. Select Song",
  53:./Application/Src/menu.c ****         "5. Homing",
  54:./Application/Src/menu.c ****         "6. Debug"};
  55:./Application/Src/menu.c ****     char line[25];
 127              		.loc 1 55 5 is_stmt 1 view .LVU13
  56:./Application/Src/menu.c ****     for (int i = 0; i < 6; i++)
 128              		.loc 1 56 5 view .LVU14
 129              	.LBB3:
 130              		.loc 1 56 10 view .LVU15
 131              	.LVL5:
 132              		.loc 1 56 14 is_stmt 0 view .LVU16
 133 0014 0024     		movs	r4, #0
 134              		.loc 1 56 5 view .LVU17
 135 0016 17E0     		b	.L8
 136              	.LVL6:
 137              	.L16:
 138              	.LBB4:
  57:./Application/Src/menu.c ****     {
  58:./Application/Src/menu.c ****         snprintf(line, sizeof(line), "%s %s", (i == menu_index) ? ">" : " ", items[i]);
 139              		.loc 1 58 9 discriminator 1 view .LVU18
 140 0018 194B     		ldr	r3, .L17+4
 141 001a 1CE0     		b	.L9
 142              	.LVL7:
 143              	.L11:
  59:./Application/Src/menu.c ****         /* Pad to clear old text */
  60:./Application/Src/menu.c ****         int len = strlen(line);
  61:./Application/Src/menu.c ****         while (len < 23)
  62:./Application/Src/menu.c ****             line[len++] = ' ';
 144              		.loc 1 62 13 is_stmt 1 view .LVU19
 145              		.loc 1 62 25 is_stmt 0 view .LVU20
 146 001c 00F14003 		add	r3, r0, #64
 147 0020 6B44     		add	r3, sp, r3
 148 0022 2022     		movs	r2, #32
 149 0024 03F8342C 		strb	r2, [r3, #-52]
 150              		.loc 1 62 21 view .LVU21
 151 0028 0130     		adds	r0, r0, #1
 152              	.LVL8:
 153              	.L10:
  61:./Application/Src/menu.c ****             line[len++] = ' ';
 154              		.loc 1 61 20 is_stmt 1 view .LVU22
 155 002a 1628     		cmp	r0, #22
 156 002c F6DD     		ble	.L11
  63:./Application/Src/menu.c ****         line[23] = '\0';
 157              		.loc 1 63 9 view .LVU23
 158              		.loc 1 63 18 is_stmt 0 view .LVU24
 159 002e 0020     		movs	r0, #0
 160              	.LVL9:
ARM GAS  C:\Users\Xuleo\AppData\Local\Temp\cc2YNAUe.s 			page 5


 161              		.loc 1 63 18 view .LVU25
 162 0030 8DF82300 		strb	r0, [sp, #35]
  64:./Application/Src/menu.c ****         LCD_draw_string(0, 1 + i, line, COLOR_BLACK, COLOR_WHITE);
 163              		.loc 1 64 9 is_stmt 1 view .LVU26
 164 0034 611C     		adds	r1, r4, #1
 165 0036 4FF6FF73 		movw	r3, #65535
 166 003a 0093     		str	r3, [sp]
 167 003c 0346     		mov	r3, r0
 168 003e 03AA     		add	r2, sp, #12
 169 0040 89B2     		uxth	r1, r1
 170 0042 FFF7FEFF 		bl	LCD_draw_string
 171              	.LVL10:
 172              	.LBE4:
  56:./Application/Src/menu.c ****     {
 173              		.loc 1 56 29 discriminator 2 view .LVU27
 174 0046 0134     		adds	r4, r4, #1
 175              	.LVL11:
 176              	.L8:
  56:./Application/Src/menu.c ****     {
 177              		.loc 1 56 23 discriminator 1 view .LVU28
 178 0048 052C     		cmp	r4, #5
 179 004a 14DC     		bgt	.L15
 180              	.LBB5:
  58:./Application/Src/menu.c ****         /* Pad to clear old text */
 181              		.loc 1 58 9 view .LVU29
  58:./Application/Src/menu.c ****         /* Pad to clear old text */
 182              		.loc 1 58 50 is_stmt 0 view .LVU30
 183 004c 0D4B     		ldr	r3, .L17+8
 184 004e 1B68     		ldr	r3, [r3]
  58:./Application/Src/menu.c ****         /* Pad to clear old text */
 185              		.loc 1 58 9 view .LVU31
 186 0050 A342     		cmp	r3, r4
 187 0052 E1D0     		beq	.L16
  58:./Application/Src/menu.c ****         /* Pad to clear old text */
 188              		.loc 1 58 9 discriminator 2 view .LVU32
 189 0054 0C4B     		ldr	r3, .L17+12
 190              	.L9:
  58:./Application/Src/menu.c ****         /* Pad to clear old text */
 191              		.loc 1 58 9 discriminator 4 view .LVU33
 192 0056 03AD     		add	r5, sp, #12
 193 0058 10AA     		add	r2, sp, #64
 194 005a 02EB8402 		add	r2, r2, r4, lsl #2
 195 005e 52F8182C 		ldr	r2, [r2, #-24]
 196 0062 0092     		str	r2, [sp]
 197 0064 094A     		ldr	r2, .L17+16
 198 0066 1921     		movs	r1, #25
 199 0068 2846     		mov	r0, r5
 200 006a FFF7FEFF 		bl	snprintf
 201              	.LVL12:
  60:./Application/Src/menu.c ****         while (len < 23)
 202              		.loc 1 60 9 is_stmt 1 view .LVU34
  60:./Application/Src/menu.c ****         while (len < 23)
 203              		.loc 1 60 19 is_stmt 0 view .LVU35
 204 006e 2846     		mov	r0, r5
 205 0070 FFF7FEFF 		bl	strlen
 206              	.LVL13:
  61:./Application/Src/menu.c ****             line[len++] = ' ';
ARM GAS  C:\Users\Xuleo\AppData\Local\Temp\cc2YNAUe.s 			page 6


 207              		.loc 1 61 9 is_stmt 1 view .LVU36
  61:./Application/Src/menu.c ****             line[len++] = ' ';
 208              		.loc 1 61 15 is_stmt 0 view .LVU37
 209 0074 D9E7     		b	.L10
 210              	.LVL14:
 211              	.L15:
  61:./Application/Src/menu.c ****             line[len++] = ' ';
 212              		.loc 1 61 15 view .LVU38
 213              	.LBE5:
 214              	.LBE3:
  65:./Application/Src/menu.c ****     }
  66:./Application/Src/menu.c **** }
 215              		.loc 1 66 1 view .LVU39
 216 0076 11B0     		add	sp, sp, #68
 217              	.LCFI5:
 218              		.cfi_def_cfa_offset 12
 219              		@ sp needed
 220 0078 30BD     		pop	{r4, r5, pc}
 221              	.LVL15:
 222              	.L18:
 223              		.loc 1 66 1 view .LVU40
 224 007a 00BF     		.align	2
 225              	.L17:
 226 007c 00000000 		.word	.LANCHOR0
 227 0080 00000000 		.word	.LC8
 228 0084 00000000 		.word	menu_index
 229 0088 04000000 		.word	.LC9
 230 008c 08000000 		.word	.LC11
 231              		.cfi_endproc
 232              	.LFE360:
 234              		.section	.rodata.menu_draw_transmit.str1.4,"aMS",%progbits,1
 235              		.align	2
 236              	.LC12:
 237 0000 5B547261 		.ascii	"[Transmit Song]         \000"
 237      6E736D69 
 237      7420536F 
 237      6E675D20 
 237      20202020 
 238 0019 000000   		.align	2
 239              	.LC13:
 240 001c 57616974 		.ascii	"Waiting for file...     \000"
 240      696E6720 
 240      666F7220 
 240      66696C65 
 240      2E2E2E20 
 241 0035 000000   		.align	2
 242              	.LC14:
 243 0038 53656E64 		.ascii	"Send :a to go back      \000"
 243      203A6120 
 243      746F2067 
 243      6F206261 
 243      636B2020 
 244 0051 000000   		.align	2
 245              	.LC15:
 246 0054 53746174 		.ascii	"Status: IDLE            \000"
 246      75733A20 
 246      49444C45 
ARM GAS  C:\Users\Xuleo\AppData\Local\Temp\cc2YNAUe.s 			page 7


 246      20202020 
 246      20202020 
 247 006d 000000   		.align	2
 248              	.LC16:
 249 0070 53746174 		.ascii	"Status: RX  %3d%%        \000"
 249      75733A20 
 249      52582020 
 249      25336425 
 249      25202020 
 250 008a 0000     		.align	2
 251              	.LC17:
 252 008c 53746174 		.ascii	"Status: COMPLETE!       \000"
 252      75733A20 
 252      434F4D50 
 252      4C455445 
 252      21202020 
 253 00a5 000000   		.align	2
 254              	.LC18:
 255 00a8 46696C65 		.ascii	"File saved to SD card.  \000"
 255      20736176 
 255      65642074 
 255      6F205344 
 255      20636172 
 256 00c1 000000   		.align	2
 257              	.LC19:
 258 00c4 53746174 		.ascii	"Status: ERROR           \000"
 258      75733A20 
 258      4552524F 
 258      52202020 
 258      20202020 
 259 00dd 000000   		.align	2
 260              	.LC20:
 261 00e0 5472616E 		.ascii	"Transfer failed.        \000"
 261      73666572 
 261      20666169 
 261      6C65642E 
 261      20202020 
 262              		.section	.text.menu_draw_transmit,"ax",%progbits
 263              		.align	1
 264              		.global	menu_draw_transmit
 265              		.syntax unified
 266              		.thumb
 267              		.thumb_func
 269              	menu_draw_transmit:
 270              	.LFB361:
  67:./Application/Src/menu.c **** 
  68:./Application/Src/menu.c **** /* ------------------------------------------------------------------ */
  69:./Application/Src/menu.c **** /*  Transmit Song (SD) page                                           */
  70:./Application/Src/menu.c **** /* ------------------------------------------------------------------ */
  71:./Application/Src/menu.c **** 
  72:./Application/Src/menu.c **** void menu_draw_transmit(void)
  73:./Application/Src/menu.c **** {
 271              		.loc 1 73 1 is_stmt 1 view -0
 272              		.cfi_startproc
 273              		@ args = 0, pretend = 0, frame = 56
 274              		@ frame_needed = 0, uses_anonymous_args = 0
 275 0000 10B5     		push	{r4, lr}
ARM GAS  C:\Users\Xuleo\AppData\Local\Temp\cc2YNAUe.s 			page 8


 276              	.LCFI6:
 277              		.cfi_def_cfa_offset 8
 278              		.cfi_offset 4, -8
 279              		.cfi_offset 14, -4
 280 0002 90B0     		sub	sp, sp, #64
 281              	.LCFI7:
 282              		.cfi_def_cfa_offset 72
  74:./Application/Src/menu.c ****     if (page_dirty)
 283              		.loc 1 74 5 view .LVU42
 284              		.loc 1 74 9 is_stmt 0 view .LVU43
 285 0004 494B     		ldr	r3, .L34
 286 0006 1B68     		ldr	r3, [r3]
 287              		.loc 1 74 8 view .LVU44
 288 0008 0BBB     		cbnz	r3, .L32
 289              	.L20:
  75:./Application/Src/menu.c ****     {
  76:./Application/Src/menu.c ****         clear_menu_area();
  77:./Application/Src/menu.c ****         LCD_draw_string(0, 1, "[Transmit Song]         ", COLOR_BLACK, COLOR_WHITE);
  78:./Application/Src/menu.c ****         LCD_draw_string(0, 2, "Waiting for file...     ", COLOR_BLACK, COLOR_WHITE);
  79:./Application/Src/menu.c ****         LCD_draw_string(0, 8, "Send :a to go back      ", COLOR_BLACK, COLOR_WHITE);
  80:./Application/Src/menu.c ****         page_dirty = 0;
  81:./Application/Src/menu.c ****     }
  82:./Application/Src/menu.c **** 
  83:./Application/Src/menu.c ****     /* Show live transfer status */
  84:./Application/Src/menu.c ****     FT_State_t ft = FT_GetState();
 290              		.loc 1 84 5 is_stmt 1 view .LVU45
 291              		.loc 1 84 21 is_stmt 0 view .LVU46
 292 000a FFF7FEFF 		bl	FT_GetState
 293              	.LVL16:
  85:./Application/Src/menu.c ****     char buf[25];
 294              		.loc 1 85 5 is_stmt 1 view .LVU47
  86:./Application/Src/menu.c **** 
  87:./Application/Src/menu.c ****     switch (ft)
 295              		.loc 1 87 5 view .LVU48
 296 000e 0228     		cmp	r0, #2
 297 0010 7AD0     		beq	.L21
 298 0012 3AD8     		bhi	.L22
 299 0014 0028     		cmp	r0, #0
 300 0016 4CD0     		beq	.L23
 301 0018 0128     		cmp	r0, #1
 302 001a 5AD1     		bne	.L19
 303              	.LBB6:
  88:./Application/Src/menu.c ****     {
  89:./Application/Src/menu.c ****     case FT_STATE_IDLE:
  90:./Application/Src/menu.c ****         LCD_draw_string(0, 3, "Status: IDLE            ", COLOR_BLACK, COLOR_WHITE);
  91:./Application/Src/menu.c ****         LCD_draw_string(0, 4, "                        ", COLOR_BLACK, COLOR_WHITE);
  92:./Application/Src/menu.c ****         break;
  93:./Application/Src/menu.c ****     case FT_STATE_RECEIVING:
  94:./Application/Src/menu.c ****     {
  95:./Application/Src/menu.c ****         uint8_t pct = FT_GetProgress();
 304              		.loc 1 95 9 view .LVU49
 305              		.loc 1 95 23 is_stmt 0 view .LVU50
 306 001c FFF7FEFF 		bl	FT_GetProgress
 307              	.LVL17:
 308              		.loc 1 95 23 view .LVU51
 309 0020 0446     		mov	r4, r0
 310              	.LVL18:
ARM GAS  C:\Users\Xuleo\AppData\Local\Temp\cc2YNAUe.s 			page 9


  96:./Application/Src/menu.c ****         snprintf(buf, sizeof(buf), "Status: RX  %3d%%        ", pct);
 311              		.loc 1 96 9 is_stmt 1 view .LVU52
 312 0022 0346     		mov	r3, r0
 313 0024 424A     		ldr	r2, .L34+4
 314 0026 1921     		movs	r1, #25
 315 0028 09A8     		add	r0, sp, #36
 316              	.LVL19:
 317              		.loc 1 96 9 is_stmt 0 view .LVU53
 318 002a FFF7FEFF 		bl	snprintf
 319              	.LVL20:
  97:./Application/Src/menu.c ****         LCD_draw_string(0, 3, buf, COLOR_BLACK, COLOR_WHITE);
 320              		.loc 1 97 9 is_stmt 1 view .LVU54
 321 002e 4FF6FF73 		movw	r3, #65535
 322 0032 0093     		str	r3, [sp]
 323 0034 0023     		movs	r3, #0
 324 0036 09AA     		add	r2, sp, #36
 325 0038 0321     		movs	r1, #3
 326 003a 1846     		mov	r0, r3
 327 003c FFF7FEFF 		bl	LCD_draw_string
 328              	.LVL21:
  98:./Application/Src/menu.c **** 
  99:./Application/Src/menu.c ****         /* Simple progress bar */
 100:./Application/Src/menu.c ****         char bar[21];
 329              		.loc 1 100 9 view .LVU55
 101:./Application/Src/menu.c ****         int filled = pct / 5; /* 0-20 */
 330              		.loc 1 101 9 view .LVU56
 331              		.loc 1 101 26 is_stmt 0 view .LVU57
 332 0040 3C4B     		ldr	r3, .L34+8
 333 0042 A3FB0430 		umull	r3, r0, r3, r4
 334 0046 C0F38700 		ubfx	r0, r0, #2, #8
 335              	.LVL22:
 102:./Application/Src/menu.c ****         for (int i = 0; i < 20; i++)
 336              		.loc 1 102 9 is_stmt 1 view .LVU58
 337              	.LBB7:
 338              		.loc 1 102 14 view .LVU59
 339              		.loc 1 102 18 is_stmt 0 view .LVU60
 340 004a 0023     		movs	r3, #0
 341              		.loc 1 102 9 view .LVU61
 342 004c 4AE0     		b	.L27
 343              	.LVL23:
 344              	.L32:
 345              		.loc 1 102 9 view .LVU62
 346              	.LBE7:
 347              	.LBE6:
  76:./Application/Src/menu.c ****         LCD_draw_string(0, 1, "[Transmit Song]         ", COLOR_BLACK, COLOR_WHITE);
 348              		.loc 1 76 9 is_stmt 1 view .LVU63
 349 004e FFF7FEFF 		bl	clear_menu_area
 350              	.LVL24:
  77:./Application/Src/menu.c ****         LCD_draw_string(0, 2, "Waiting for file...     ", COLOR_BLACK, COLOR_WHITE);
 351              		.loc 1 77 9 view .LVU64
 352 0052 4FF6FF73 		movw	r3, #65535
 353 0056 1C46     		mov	r4, r3
 354 0058 0093     		str	r3, [sp]
 355 005a 0023     		movs	r3, #0
 356 005c 364A     		ldr	r2, .L34+12
 357 005e 0121     		movs	r1, #1
 358 0060 1846     		mov	r0, r3
ARM GAS  C:\Users\Xuleo\AppData\Local\Temp\cc2YNAUe.s 			page 10


 359 0062 FFF7FEFF 		bl	LCD_draw_string
 360              	.LVL25:
  78:./Application/Src/menu.c ****         LCD_draw_string(0, 8, "Send :a to go back      ", COLOR_BLACK, COLOR_WHITE);
 361              		.loc 1 78 9 view .LVU65
 362 0066 0094     		str	r4, [sp]
 363 0068 0023     		movs	r3, #0
 364 006a 344A     		ldr	r2, .L34+16
 365 006c 0221     		movs	r1, #2
 366 006e 1846     		mov	r0, r3
 367 0070 FFF7FEFF 		bl	LCD_draw_string
 368              	.LVL26:
  79:./Application/Src/menu.c ****         page_dirty = 0;
 369              		.loc 1 79 9 view .LVU66
 370 0074 0094     		str	r4, [sp]
 371 0076 0023     		movs	r3, #0
 372 0078 314A     		ldr	r2, .L34+20
 373 007a 0821     		movs	r1, #8
 374 007c 1846     		mov	r0, r3
 375 007e FFF7FEFF 		bl	LCD_draw_string
 376              	.LVL27:
  80:./Application/Src/menu.c ****     }
 377              		.loc 1 80 9 view .LVU67
  80:./Application/Src/menu.c ****     }
 378              		.loc 1 80 20 is_stmt 0 view .LVU68
 379 0082 2A4B     		ldr	r3, .L34
 380 0084 0022     		movs	r2, #0
 381 0086 1A60     		str	r2, [r3]
 382 0088 BFE7     		b	.L20
 383              	.LVL28:
 384              	.L22:
  87:./Application/Src/menu.c ****     {
 385              		.loc 1 87 5 view .LVU69
 386 008a 0328     		cmp	r0, #3
 387 008c 21D1     		bne	.L19
 103:./Application/Src/menu.c ****             bar[i] = (i < filled) ? '#' : '-';
 104:./Application/Src/menu.c ****         bar[20] = '\0';
 105:./Application/Src/menu.c ****         LCD_draw_string(0, 4, bar, COLOR_BLACK, COLOR_WHITE);
 106:./Application/Src/menu.c ****         break;
 107:./Application/Src/menu.c ****     }
 108:./Application/Src/menu.c ****     case FT_STATE_COMPLETE:
 109:./Application/Src/menu.c ****         LCD_draw_string(0, 3, "Status: COMPLETE!       ", COLOR_BLACK, COLOR_WHITE);
 110:./Application/Src/menu.c ****         LCD_draw_string(0, 4, "File saved to SD card.  ", COLOR_BLACK, COLOR_WHITE);
 111:./Application/Src/menu.c ****         break;
 112:./Application/Src/menu.c ****     case FT_STATE_ERROR:
 113:./Application/Src/menu.c ****         LCD_draw_string(0, 3, "Status: ERROR           ", COLOR_BLACK, COLOR_WHITE);
 388              		.loc 1 113 9 is_stmt 1 view .LVU70
 389 008e 4FF6FF73 		movw	r3, #65535
 390 0092 1C46     		mov	r4, r3
 391 0094 0093     		str	r3, [sp]
 392 0096 0023     		movs	r3, #0
 393 0098 2A4A     		ldr	r2, .L34+24
 394 009a 0321     		movs	r1, #3
 395 009c 1846     		mov	r0, r3
 396              	.LVL29:
 397              		.loc 1 113 9 is_stmt 0 view .LVU71
 398 009e FFF7FEFF 		bl	LCD_draw_string
 399              	.LVL30:
ARM GAS  C:\Users\Xuleo\AppData\Local\Temp\cc2YNAUe.s 			page 11


 114:./Application/Src/menu.c ****         LCD_draw_string(0, 4, "Transfer failed.        ", COLOR_BLACK, COLOR_WHITE);
 400              		.loc 1 114 9 is_stmt 1 view .LVU72
 401 00a2 0094     		str	r4, [sp]
 402 00a4 0023     		movs	r3, #0
 403 00a6 284A     		ldr	r2, .L34+28
 404 00a8 0421     		movs	r1, #4
 405 00aa 1846     		mov	r0, r3
 406 00ac FFF7FEFF 		bl	LCD_draw_string
 407              	.LVL31:
 115:./Application/Src/menu.c ****         break;
 408              		.loc 1 115 9 view .LVU73
 116:./Application/Src/menu.c ****     }
 117:./Application/Src/menu.c **** }
 409              		.loc 1 117 1 is_stmt 0 view .LVU74
 410 00b0 0FE0     		b	.L19
 411              	.LVL32:
 412              	.L23:
  90:./Application/Src/menu.c ****         LCD_draw_string(0, 4, "                        ", COLOR_BLACK, COLOR_WHITE);
 413              		.loc 1 90 9 is_stmt 1 view .LVU75
 414 00b2 4FF6FF73 		movw	r3, #65535
 415 00b6 1C46     		mov	r4, r3
 416 00b8 0093     		str	r3, [sp]
 417 00ba 0346     		mov	r3, r0
 418 00bc 234A     		ldr	r2, .L34+32
 419 00be 0321     		movs	r1, #3
 420 00c0 FFF7FEFF 		bl	LCD_draw_string
 421              	.LVL33:
  91:./Application/Src/menu.c ****         break;
 422              		.loc 1 91 9 view .LVU76
 423 00c4 0094     		str	r4, [sp]
 424 00c6 0023     		movs	r3, #0
 425 00c8 214A     		ldr	r2, .L34+36
 426 00ca 0421     		movs	r1, #4
 427 00cc 1846     		mov	r0, r3
 428 00ce FFF7FEFF 		bl	LCD_draw_string
 429              	.LVL34:
  92:./Application/Src/menu.c ****     case FT_STATE_RECEIVING:
 430              		.loc 1 92 9 view .LVU77
 431              	.L19:
 432              		.loc 1 117 1 is_stmt 0 view .LVU78
 433 00d2 10B0     		add	sp, sp, #64
 434              	.LCFI8:
 435              		.cfi_remember_state
 436              		.cfi_def_cfa_offset 8
 437              		@ sp needed
 438 00d4 10BD     		pop	{r4, pc}
 439              	.LVL35:
 440              	.L30:
 441              	.LCFI9:
 442              		.cfi_restore_state
 443              	.LBB9:
 444              	.LBB8:
 103:./Application/Src/menu.c ****         bar[20] = '\0';
 445              		.loc 1 103 20 discriminator 2 view .LVU79
 446 00d6 2D21     		movs	r1, #45
 447              	.L28:
 103:./Application/Src/menu.c ****         bar[20] = '\0';
ARM GAS  C:\Users\Xuleo\AppData\Local\Temp\cc2YNAUe.s 			page 12


 448              		.loc 1 103 20 discriminator 4 view .LVU80
 449 00d8 03F14002 		add	r2, r3, #64
 450 00dc 6A44     		add	r2, sp, r2
 451 00de 02F8341C 		strb	r1, [r2, #-52]
 102:./Application/Src/menu.c ****             bar[i] = (i < filled) ? '#' : '-';
 452              		.loc 1 102 34 is_stmt 1 discriminator 2 view .LVU81
 453 00e2 0133     		adds	r3, r3, #1
 454              	.LVL36:
 455              	.L27:
 102:./Application/Src/menu.c ****             bar[i] = (i < filled) ? '#' : '-';
 456              		.loc 1 102 27 discriminator 1 view .LVU82
 457 00e4 132B     		cmp	r3, #19
 458 00e6 03DC     		bgt	.L33
 103:./Application/Src/menu.c ****         bar[20] = '\0';
 459              		.loc 1 103 13 view .LVU83
 103:./Application/Src/menu.c ****         bar[20] = '\0';
 460              		.loc 1 103 20 is_stmt 0 view .LVU84
 461 00e8 8342     		cmp	r3, r0
 462 00ea F4DA     		bge	.L30
 103:./Application/Src/menu.c ****         bar[20] = '\0';
 463              		.loc 1 103 20 discriminator 1 view .LVU85
 464 00ec 2321     		movs	r1, #35
 465 00ee F3E7     		b	.L28
 466              	.L33:
 103:./Application/Src/menu.c ****         bar[20] = '\0';
 467              		.loc 1 103 20 discriminator 1 view .LVU86
 468              	.LBE8:
 104:./Application/Src/menu.c ****         LCD_draw_string(0, 4, bar, COLOR_BLACK, COLOR_WHITE);
 469              		.loc 1 104 9 is_stmt 1 view .LVU87
 104:./Application/Src/menu.c ****         LCD_draw_string(0, 4, bar, COLOR_BLACK, COLOR_WHITE);
 470              		.loc 1 104 17 is_stmt 0 view .LVU88
 471 00f0 0020     		movs	r0, #0
 472              	.LVL37:
 104:./Application/Src/menu.c ****         LCD_draw_string(0, 4, bar, COLOR_BLACK, COLOR_WHITE);
 473              		.loc 1 104 17 view .LVU89
 474 00f2 8DF82000 		strb	r0, [sp, #32]
 105:./Application/Src/menu.c ****         break;
 475              		.loc 1 105 9 is_stmt 1 view .LVU90
 476 00f6 4FF6FF73 		movw	r3, #65535
 477              	.LVL38:
 105:./Application/Src/menu.c ****         break;
 478              		.loc 1 105 9 is_stmt 0 view .LVU91
 479 00fa 0093     		str	r3, [sp]
 480 00fc 0346     		mov	r3, r0
 481 00fe 03AA     		add	r2, sp, #12
 482 0100 0421     		movs	r1, #4
 483 0102 FFF7FEFF 		bl	LCD_draw_string
 484              	.LVL39:
 106:./Application/Src/menu.c ****     }
 485              		.loc 1 106 9 is_stmt 1 view .LVU92
 486 0106 E4E7     		b	.L19
 487              	.LVL40:
 488              	.L21:
 106:./Application/Src/menu.c ****     }
 489              		.loc 1 106 9 is_stmt 0 view .LVU93
 490              	.LBE9:
 109:./Application/Src/menu.c ****         LCD_draw_string(0, 4, "File saved to SD card.  ", COLOR_BLACK, COLOR_WHITE);
ARM GAS  C:\Users\Xuleo\AppData\Local\Temp\cc2YNAUe.s 			page 13


 491              		.loc 1 109 9 is_stmt 1 view .LVU94
 492 0108 4FF6FF73 		movw	r3, #65535
 493 010c 1C46     		mov	r4, r3
 494 010e 0093     		str	r3, [sp]
 495 0110 0023     		movs	r3, #0
 496 0112 104A     		ldr	r2, .L34+40
 497 0114 0321     		movs	r1, #3
 498 0116 1846     		mov	r0, r3
 499              	.LVL41:
 109:./Application/Src/menu.c ****         LCD_draw_string(0, 4, "File saved to SD card.  ", COLOR_BLACK, COLOR_WHITE);
 500              		.loc 1 109 9 is_stmt 0 view .LVU95
 501 0118 FFF7FEFF 		bl	LCD_draw_string
 502              	.LVL42:
 110:./Application/Src/menu.c ****         break;
 503              		.loc 1 110 9 is_stmt 1 view .LVU96
 504 011c 0094     		str	r4, [sp]
 505 011e 0023     		movs	r3, #0
 506 0120 0D4A     		ldr	r2, .L34+44
 507 0122 0421     		movs	r1, #4
 508 0124 1846     		mov	r0, r3
 509 0126 FFF7FEFF 		bl	LCD_draw_string
 510              	.LVL43:
 111:./Application/Src/menu.c ****     case FT_STATE_ERROR:
 511              		.loc 1 111 9 view .LVU97
 512 012a D2E7     		b	.L19
 513              	.L35:
 514              		.align	2
 515              	.L34:
 516 012c 00000000 		.word	page_dirty
 517 0130 70000000 		.word	.LC16
 518 0134 CDCCCCCC 		.word	-858993459
 519 0138 00000000 		.word	.LC12
 520 013c 1C000000 		.word	.LC13
 521 0140 38000000 		.word	.LC14
 522 0144 C4000000 		.word	.LC19
 523 0148 E0000000 		.word	.LC20
 524 014c 54000000 		.word	.LC15
 525 0150 00000000 		.word	.LC7
 526 0154 8C000000 		.word	.LC17
 527 0158 A8000000 		.word	.LC18
 528              		.cfi_endproc
 529              	.LFE361:
 531              		.section	.rodata.menu_draw_transmit_ram.str1.4,"aMS",%progbits,1
 532              		.align	2
 533              	.LC21:
 534 0000 5B547261 		.ascii	"[Transmit to RAM]       \000"
 534      6E736D69 
 534      7420746F 
 534      2052414D 
 534      5D202020 
 535 0019 000000   		.align	2
 536              	.LC22:
 537 001c 57616974 		.ascii	"Waiting for start...    \000"
 537      696E6720 
 537      666F7220 
 537      73746172 
 537      742E2E2E 
ARM GAS  C:\Users\Xuleo\AppData\Local\Temp\cc2YNAUe.s 			page 14


 538 0035 000000   		.align	2
 539              	.LC23:
 540 0038 4D617820 		.ascii	"Max 365x14 floats       \000"
 540      33363578 
 540      31342066 
 540      6C6F6174 
 540      73202020 
 541 0051 000000   		.align	2
 542              	.LC24:
 543 0054 52583A20 		.ascii	"RX: %lu/%d rows %3d%%  \000"
 543      256C752F 
 543      25642072 
 543      6F777320 
 543      25336425 
 544              		.align	2
 545              	.LC25:
 546 006c 52656365 		.ascii	"Receiving data...       \000"
 546      6976696E 
 546      67206461 
 546      74612E2E 
 546      2E202020 
 547 0085 000000   		.align	2
 548              	.LC26:
 549 0088 476F7420 		.ascii	"Got %lu chords!     \000"
 549      256C7520 
 549      63686F72 
 549      64732120 
 549      20202020 
 550 009d 000000   		.align	2
 551              	.LC27:
 552 00a0 536F6E67 		.ascii	"Song loaded to RAM!     \000"
 552      206C6F61 
 552      64656420 
 552      746F2052 
 552      414D2120 
 553              		.section	.text.menu_draw_transmit_ram,"ax",%progbits
 554              		.align	1
 555              		.global	menu_draw_transmit_ram
 556              		.syntax unified
 557              		.thumb
 558              		.thumb_func
 560              	menu_draw_transmit_ram:
 561              	.LFB364:
 118:./Application/Src/menu.c **** 
 119:./Application/Src/menu.c **** /* ------------------------------------------------------------------ */
 120:./Application/Src/menu.c **** /*  RAM accumulation helper (depreciated)                             */
 121:./Application/Src/menu.c **** /* ------------------------------------------------------------------ */
 122:./Application/Src/menu.c **** 
 123:./Application/Src/menu.c **** // static void RAM_AccumulateData(uint8_t *data, uint16_t len)
 124:./Application/Src/menu.c **** // {
 125:./Application/Src/menu.c **** //     if (!ram_rx_started)
 126:./Application/Src/menu.c **** //     {
 127:./Application/Src/menu.c **** //         const float start_sentinel = RAM_SENTINEL_START;
 128:./Application/Src/menu.c **** //         for (int i = 0; i <= (int)len - 4; i++)
 129:./Application/Src/menu.c **** //         {
 130:./Application/Src/menu.c **** //             if (memcmp(&data[i], &start_sentinel, 4) == 0)
 131:./Application/Src/menu.c **** //             {
ARM GAS  C:\Users\Xuleo\AppData\Local\Temp\cc2YNAUe.s 			page 15


 132:./Application/Src/menu.c **** //                 ram_rx_started = 1;
 133:./Application/Src/menu.c **** //                 ram_rx_offset = 0;
 134:./Application/Src/menu.c **** //                 int remaining = len - (i + 4);
 135:./Application/Src/menu.c **** //                 if (remaining > 0)
 136:./Application/Src/menu.c **** //                 {
 137:./Application/Src/menu.c **** //                     uint32_t copy_len = ((uint32_t)remaining < RAM_SONG_MAX_BYTES)
 138:./Application/Src/menu.c **** //                                         ? (uint32_t)remaining : RAM_SONG_MAX_BYTES;
 139:./Application/Src/menu.c **** //                     // find check sum
 140:./Application/Src/menu.c **** //                     uint8_t checksum = RAM_CalculateChecksum(&data[i + 4], copy_len-1); // last 
 141:./Application/Src/menu.c **** //                     if (checksum != data[i + 4 + copy_len - 1]) {
 142:./Application/Src/menu.c **** //                         // checksum mismatch, discard data and reset state
 143:./Application/Src/menu.c **** //                         // send NAK
 144:./Application/Src/menu.c **** //                         HAL_UART_Transmit(&huart1, (uint8_t[]){0xFF}, 1, 50);
 145:./Application/Src/menu.c **** //                         return;
 146:./Application/Src/menu.c **** //                     }
 147:./Application/Src/menu.c **** //                     // send ACK
 148:./Application/Src/menu.c **** //                     HAL_UART_Transmit(&huart1, (uint8_t[]){0xAA}, 1, 50);
 149:./Application/Src/menu.c ****                     
 150:./Application/Src/menu.c **** //                     memcpy((uint8_t *)song_ram, &data[i + 4], copy_len);
 151:./Application/Src/menu.c **** //                     ram_rx_offset = copy_len;
 152:./Application/Src/menu.c **** //                 }
 153:./Application/Src/menu.c **** //                 return;
 154:./Application/Src/menu.c **** //             }
 155:./Application/Src/menu.c **** //         }
 156:./Application/Src/menu.c **** //         /* Not song data — treat as text command (e.g. :a to go back) */
 157:./Application/Src/menu.c **** //         data[len] = '\0';
 158:./Application/Src/menu.c **** //         if (len > 0 && data[len - 1] == '\n') data[len - 1] = '\0';
 159:./Application/Src/menu.c **** //         execute_command(data);
 160:./Application/Src/menu.c **** //     }
 161:./Application/Src/menu.c **** //     else
 162:./Application/Src/menu.c **** //     {
 163:./Application/Src/menu.c **** //         uint32_t space = RAM_SONG_MAX_BYTES - ram_rx_offset;
 164:./Application/Src/menu.c **** //         uint32_t copy_len = (len < space) ? len : space;
 165:./Application/Src/menu.c **** //         memcpy(&((uint8_t *)song_ram)[ram_rx_offset], data, copy_len);
 166:./Application/Src/menu.c **** //         ram_rx_offset += copy_len;
 167:./Application/Src/menu.c **** 
 168:./Application/Src/menu.c **** //         const float end_sentinel = RAM_SENTINEL_END;
 169:./Application/Src/menu.c **** //         if (ram_rx_offset >= 4)
 170:./Application/Src/menu.c **** //         {
 171:./Application/Src/menu.c **** //             float last_float;
 172:./Application/Src/menu.c **** //             memcpy(&last_float, &((uint8_t *)song_ram)[ram_rx_offset - 4], 4);
 173:./Application/Src/menu.c **** //             if (last_float == end_sentinel)
 174:./Application/Src/menu.c **** //             {
 175:./Application/Src/menu.c **** //                 ram_rx_offset -= 4;
 176:./Application/Src/menu.c **** //                 ram_rx_complete = 1;
 177:./Application/Src/menu.c **** //             }
 178:./Application/Src/menu.c **** //         }
 179:./Application/Src/menu.c **** //         if (ram_rx_offset >= RAM_SONG_MAX_BYTES)
 180:./Application/Src/menu.c **** //             ram_rx_complete = 1;
 181:./Application/Src/menu.c **** //     }
 182:./Application/Src/menu.c **** // }
 183:./Application/Src/menu.c **** 
 184:./Application/Src/menu.c **** /* ------------------------------------------------------------------ */
 185:./Application/Src/menu.c **** /*  Dispatch incoming UART data to the right handler                  */
 186:./Application/Src/menu.c **** /* ------------------------------------------------------------------ */
 187:./Application/Src/menu.c **** 
 188:./Application/Src/menu.c **** void menu_process_message(uint8_t *data, uint16_t len)
ARM GAS  C:\Users\Xuleo\AppData\Local\Temp\cc2YNAUe.s 			page 16


 189:./Application/Src/menu.c **** {
 190:./Application/Src/menu.c ****     if (len == 0) return;
 191:./Application/Src/menu.c **** 
 192:./Application/Src/menu.c ****     MenuState_t state = menu_get_state();
 193:./Application/Src/menu.c **** 
 194:./Application/Src/menu.c ****     if (state == MENU_STATE_TRANSMIT &&
 195:./Application/Src/menu.c ****         data[0] >= 0xF0 && data[0] <= 0xF3)
 196:./Application/Src/menu.c ****     {
 197:./Application/Src/menu.c ****         /* File transfer packet → SD card */
 198:./Application/Src/menu.c ****         FT_ProcessPacket(data, len);
 199:./Application/Src/menu.c ****     }
 200:./Application/Src/menu.c ****     else if (state == MENU_STATE_TRANSMIT_RAM && data[0] >= 0xE0 && data[0] <= 0xE2)
 201:./Application/Src/menu.c ****     {
 202:./Application/Src/menu.c ****         /* Raw binary → RAM accumulation */
 203:./Application/Src/menu.c ****         // RAM_AccumulateData(data, len);
 204:./Application/Src/menu.c ****         RAM_ProcessPacket(data, len);
 205:./Application/Src/menu.c ****     }
 206:./Application/Src/menu.c ****     else
 207:./Application/Src/menu.c ****     {
 208:./Application/Src/menu.c ****         /* Text command */
 209:./Application/Src/menu.c ****         data[len] = '\0';
 210:./Application/Src/menu.c ****         if (len > 0 && data[len - 1] == '\n') data[len - 1] = '\0';
 211:./Application/Src/menu.c ****         execute_command(data);
 212:./Application/Src/menu.c ****     }
 213:./Application/Src/menu.c **** }
 214:./Application/Src/menu.c **** 
 215:./Application/Src/menu.c **** /* Try to dispatch accumulated binary bytes (called from main loop).
 216:./Application/Src/menu.c ****    Returns 1 if data was consumed, 0 if still waiting for more bytes. */
 217:./Application/Src/menu.c **** int menu_try_dispatch_binary(uint8_t *data, uint16_t len)
 218:./Application/Src/menu.c **** {
 219:./Application/Src/menu.c ****     if (len == 0) return 0;
 220:./Application/Src/menu.c **** 
 221:./Application/Src/menu.c ****     // check for MENU in transmit state and waiting for file data packets (0xF0-0xF3)
 222:./Application/Src/menu.c ****     if (menu_get_state() == MENU_STATE_TRANSMIT &&
 223:./Application/Src/menu.c ****         data[0] >= 0xF0 && data[0] <= 0xF3)
 224:./Application/Src/menu.c ****     {
 225:./Application/Src/menu.c ****         uint16_t need = 0;
 226:./Application/Src/menu.c ****         switch (data[0]) {
 227:./Application/Src/menu.c ****           case FT_CMD_FILE_START: need = FT_FILE_START_SIZE; break;
 228:./Application/Src/menu.c ****           case FT_CMD_FILE_DATA:  need = (len >= 4) ? (uint16_t)(5 + data[3]) : 0xFFFF; break;
 229:./Application/Src/menu.c ****           case FT_CMD_FILE_END:   need = FT_FILE_END_SIZE; break;
 230:./Application/Src/menu.c ****           case FT_CMD_FILE_ABORT: need = FT_FILE_ABORT_SIZE; break;
 231:./Application/Src/menu.c ****         }
 232:./Application/Src/menu.c ****         if (need == 0 || len < need)
 233:./Application/Src/menu.c ****             return 0; /* not enough bytes yet */
 234:./Application/Src/menu.c **** 
 235:./Application/Src/menu.c ****         menu_process_message(data, len);
 236:./Application/Src/menu.c ****         return 1;
 237:./Application/Src/menu.c ****     }
 238:./Application/Src/menu.c **** 
 239:./Application/Src/menu.c ****     // check for MENU in transmit RAM state and waiting for RAM packets (0xE0-0xE2)
 240:./Application/Src/menu.c ****     if (menu_get_state() == MENU_STATE_TRANSMIT_RAM &&
 241:./Application/Src/menu.c ****         data[0] >= 0xE0 && data[0] <= 0xE2)
 242:./Application/Src/menu.c ****     {
 243:./Application/Src/menu.c ****         uint16_t need = 0;
 244:./Application/Src/menu.c ****         switch (data[0]) {
 245:./Application/Src/menu.c ****           case FT_CMD_RAM_START: need = 2; break;   // [0xE0] [sentinel]
ARM GAS  C:\Users\Xuleo\AppData\Local\Temp\cc2YNAUe.s 			page 17


 246:./Application/Src/menu.c ****           case FT_CMD_RAM_DATA:  need = 4 + sizeof(ChordEvent_t); break;   // [0xE1] [row_lo] [row_
 247:./Application/Src/menu.c ****           case FT_CMD_RAM_END:   need = 2; break;   // [0xE2] [sentinel]
 248:./Application/Src/menu.c ****         }
 249:./Application/Src/menu.c ****         if (need == 0 || len < need)
 250:./Application/Src/menu.c ****             return 0; /* not enough bytes yet */
 251:./Application/Src/menu.c **** 
 252:./Application/Src/menu.c ****         menu_process_message(data, len);
 253:./Application/Src/menu.c ****         return 1;
 254:./Application/Src/menu.c ****     }
 255:./Application/Src/menu.c **** 
 256:./Application/Src/menu.c ****     /* Everything else (text commands) — dispatch immediately */
 257:./Application/Src/menu.c ****     menu_process_message(data, len);
 258:./Application/Src/menu.c ****     return 1;
 259:./Application/Src/menu.c **** }
 260:./Application/Src/menu.c **** 
 261:./Application/Src/menu.c **** /* ------------------------------------------------------------------ */
 262:./Application/Src/menu.c **** /*  Transmit Song (RAM) page                                          */
 263:./Application/Src/menu.c **** /* ------------------------------------------------------------------ */
 264:./Application/Src/menu.c **** 
 265:./Application/Src/menu.c **** void menu_draw_transmit_ram(void){
 562              		.loc 1 265 34 view -0
 563              		.cfi_startproc
 564              		@ args = 0, pretend = 0, frame = 32
 565              		@ frame_needed = 0, uses_anonymous_args = 0
 566 0000 30B5     		push	{r4, r5, lr}
 567              	.LCFI10:
 568              		.cfi_def_cfa_offset 12
 569              		.cfi_offset 4, -12
 570              		.cfi_offset 5, -8
 571              		.cfi_offset 14, -4
 572 0002 8BB0     		sub	sp, sp, #44
 573              	.LCFI11:
 574              		.cfi_def_cfa_offset 56
 266:./Application/Src/menu.c ****     char buf[32];
 575              		.loc 1 266 5 view .LVU99
 267:./Application/Src/menu.c **** 
 268:./Application/Src/menu.c ****     if (page_dirty){
 576              		.loc 1 268 5 view .LVU100
 577              		.loc 1 268 9 is_stmt 0 view .LVU101
 578 0004 3A4B     		ldr	r3, .L44
 579 0006 1B68     		ldr	r3, [r3]
 580              		.loc 1 268 8 view .LVU102
 581 0008 5BB9     		cbnz	r3, .L41
 582              	.L37:
 269:./Application/Src/menu.c ****         clear_menu_area();
 270:./Application/Src/menu.c ****         LCD_draw_string(0, 1, "[Transmit to RAM]       ", COLOR_BLACK, COLOR_WHITE);
 271:./Application/Src/menu.c ****         LCD_draw_string(0, 2, "Waiting for start...    ", COLOR_BLACK, COLOR_WHITE);
 272:./Application/Src/menu.c ****         LCD_draw_string(0, 3, "Max 365x14 floats       ", COLOR_BLACK, COLOR_WHITE);
 273:./Application/Src/menu.c ****         LCD_draw_string(0, 8, "Send :a to go back      ", COLOR_BLACK, COLOR_WHITE);
 274:./Application/Src/menu.c ****         page_dirty = 0;
 275:./Application/Src/menu.c ****     }
 276:./Application/Src/menu.c **** 
 277:./Application/Src/menu.c ****     /* Show live accumulation status */
 278:./Application/Src/menu.c ****     if (ram_rx_started && !ram_rx_complete){
 583              		.loc 1 278 5 is_stmt 1 view .LVU103
 584              		.loc 1 278 9 is_stmt 0 view .LVU104
 585 000a 3A4B     		ldr	r3, .L44+4
ARM GAS  C:\Users\Xuleo\AppData\Local\Temp\cc2YNAUe.s 			page 18


 586 000c 1B68     		ldr	r3, [r3]
 587              		.loc 1 278 8 view .LVU105
 588 000e 13B1     		cbz	r3, .L38
 589              		.loc 1 278 27 discriminator 1 view .LVU106
 590 0010 394B     		ldr	r3, .L44+8
 591 0012 1B68     		ldr	r3, [r3]
 592              		.loc 1 278 24 discriminator 1 view .LVU107
 593 0014 53B3     		cbz	r3, .L42
 594              	.L38:
 279:./Application/Src/menu.c ****         uint8_t pct = (uint8_t)((ram_rx_offset * 100) / MAX_CHORD_EVENTS);
 280:./Application/Src/menu.c ****         snprintf(buf, sizeof(buf), "RX: %lu/%d rows %3d%%  ",
 281:./Application/Src/menu.c ****                  (unsigned long)ram_rx_offset, MAX_CHORD_EVENTS, pct);
 282:./Application/Src/menu.c ****         LCD_draw_string(0, 4, buf, COLOR_BLACK, COLOR_WHITE);
 283:./Application/Src/menu.c ****         LCD_draw_string(0, 2, "Receiving data...       ", COLOR_BLACK, COLOR_WHITE);
 284:./Application/Src/menu.c ****     }
 285:./Application/Src/menu.c **** 
 286:./Application/Src/menu.c ****     if (ram_rx_complete){
 595              		.loc 1 286 5 is_stmt 1 view .LVU108
 596              		.loc 1 286 9 is_stmt 0 view .LVU109
 597 0016 384B     		ldr	r3, .L44+8
 598 0018 1B68     		ldr	r3, [r3]
 599              		.loc 1 286 8 view .LVU110
 600 001a 002B     		cmp	r3, #0
 601 001c 48D1     		bne	.L43
 602              	.L36:
 287:./Application/Src/menu.c ****         uint32_t num_chords = ram_rx_offset;
 288:./Application/Src/menu.c ****         snprintf(buf, sizeof(buf), "Got %lu chords!     ", (unsigned long)num_chords);
 289:./Application/Src/menu.c ****         LCD_draw_string(0, 3, buf, COLOR_BLACK, COLOR_WHITE);
 290:./Application/Src/menu.c **** 
 291:./Application/Src/menu.c ****         LCD_draw_string(0, 4, "Song loaded to RAM!     ", COLOR_BLACK, COLOR_WHITE);
 292:./Application/Src/menu.c **** 
 293:./Application/Src/menu.c ****         /* Reset state so we don't re-parse every loop */
 294:./Application/Src/menu.c ****         ram_rx_complete = 0;
 295:./Application/Src/menu.c ****         ram_rx_started = 0;
 296:./Application/Src/menu.c ****         ram_rx_offset = 0;
 297:./Application/Src/menu.c ****         redirect_to_ram = 0;
 298:./Application/Src/menu.c ****     }
 299:./Application/Src/menu.c **** }
 603              		.loc 1 299 1 view .LVU111
 604 001e 0BB0     		add	sp, sp, #44
 605              	.LCFI12:
 606              		.cfi_remember_state
 607              		.cfi_def_cfa_offset 12
 608              		@ sp needed
 609 0020 30BD     		pop	{r4, r5, pc}
 610              	.L41:
 611              	.LCFI13:
 612              		.cfi_restore_state
 269:./Application/Src/menu.c ****         LCD_draw_string(0, 1, "[Transmit to RAM]       ", COLOR_BLACK, COLOR_WHITE);
 613              		.loc 1 269 9 is_stmt 1 view .LVU112
 614 0022 FFF7FEFF 		bl	clear_menu_area
 615              	.LVL44:
 270:./Application/Src/menu.c ****         LCD_draw_string(0, 2, "Waiting for start...    ", COLOR_BLACK, COLOR_WHITE);
 616              		.loc 1 270 9 view .LVU113
 617 0026 4FF6FF73 		movw	r3, #65535
 618 002a 1C46     		mov	r4, r3
 619 002c 0093     		str	r3, [sp]
ARM GAS  C:\Users\Xuleo\AppData\Local\Temp\cc2YNAUe.s 			page 19


 620 002e 0023     		movs	r3, #0
 621 0030 324A     		ldr	r2, .L44+12
 622 0032 0121     		movs	r1, #1
 623 0034 1846     		mov	r0, r3
 624 0036 FFF7FEFF 		bl	LCD_draw_string
 625              	.LVL45:
 271:./Application/Src/menu.c ****         LCD_draw_string(0, 3, "Max 365x14 floats       ", COLOR_BLACK, COLOR_WHITE);
 626              		.loc 1 271 9 view .LVU114
 627 003a 0094     		str	r4, [sp]
 628 003c 0023     		movs	r3, #0
 629 003e 304A     		ldr	r2, .L44+16
 630 0040 0221     		movs	r1, #2
 631 0042 1846     		mov	r0, r3
 632 0044 FFF7FEFF 		bl	LCD_draw_string
 633              	.LVL46:
 272:./Application/Src/menu.c ****         LCD_draw_string(0, 8, "Send :a to go back      ", COLOR_BLACK, COLOR_WHITE);
 634              		.loc 1 272 9 view .LVU115
 635 0048 0094     		str	r4, [sp]
 636 004a 0023     		movs	r3, #0
 637 004c 2D4A     		ldr	r2, .L44+20
 638 004e 0321     		movs	r1, #3
 639 0050 1846     		mov	r0, r3
 640 0052 FFF7FEFF 		bl	LCD_draw_string
 641              	.LVL47:
 273:./Application/Src/menu.c ****         page_dirty = 0;
 642              		.loc 1 273 9 view .LVU116
 643 0056 0094     		str	r4, [sp]
 644 0058 0023     		movs	r3, #0
 645 005a 2B4A     		ldr	r2, .L44+24
 646 005c 0821     		movs	r1, #8
 647 005e 1846     		mov	r0, r3
 648 0060 FFF7FEFF 		bl	LCD_draw_string
 649              	.LVL48:
 274:./Application/Src/menu.c ****     }
 650              		.loc 1 274 9 view .LVU117
 274:./Application/Src/menu.c ****     }
 651              		.loc 1 274 20 is_stmt 0 view .LVU118
 652 0064 224B     		ldr	r3, .L44
 653 0066 0022     		movs	r2, #0
 654 0068 1A60     		str	r2, [r3]
 655 006a CEE7     		b	.L37
 656              	.L42:
 657              	.LBB10:
 279:./Application/Src/menu.c ****         snprintf(buf, sizeof(buf), "RX: %lu/%d rows %3d%%  ",
 658              		.loc 1 279 9 is_stmt 1 view .LVU119
 279:./Application/Src/menu.c ****         snprintf(buf, sizeof(buf), "RX: %lu/%d rows %3d%%  ",
 659              		.loc 1 279 48 is_stmt 0 view .LVU120
 660 006c 274B     		ldr	r3, .L44+28
 661 006e 1A68     		ldr	r2, [r3]
 662 0070 6421     		movs	r1, #100
 663 0072 01FB02F2 		mul	r2, r1, r2
 664              	.LVL49:
 280:./Application/Src/menu.c ****                  (unsigned long)ram_rx_offset, MAX_CHORD_EVENTS, pct);
 665              		.loc 1 280 9 is_stmt 1 view .LVU121
 666 0076 1B68     		ldr	r3, [r3]
 667 0078 C2F38722 		ubfx	r2, r2, #10, #8
 668              	.LVL50:
ARM GAS  C:\Users\Xuleo\AppData\Local\Temp\cc2YNAUe.s 			page 20


 280:./Application/Src/menu.c ****                  (unsigned long)ram_rx_offset, MAX_CHORD_EVENTS, pct);
 669              		.loc 1 280 9 is_stmt 0 view .LVU122
 670 007c 0192     		str	r2, [sp, #4]
 671 007e 4FF48062 		mov	r2, #1024
 672 0082 0092     		str	r2, [sp]
 673 0084 224A     		ldr	r2, .L44+32
 674 0086 2021     		movs	r1, #32
 280:./Application/Src/menu.c ****                  (unsigned long)ram_rx_offset, MAX_CHORD_EVENTS, pct);
 675              		.loc 1 280 9 view .LVU123
 676 0088 02A8     		add	r0, sp, #8
 677 008a FFF7FEFF 		bl	snprintf
 678              	.LVL51:
 282:./Application/Src/menu.c ****         LCD_draw_string(0, 2, "Receiving data...       ", COLOR_BLACK, COLOR_WHITE);
 679              		.loc 1 282 9 is_stmt 1 view .LVU124
 680 008e 4FF6FF74 		movw	r4, #65535
 681 0092 0094     		str	r4, [sp]
 682 0094 0023     		movs	r3, #0
 683 0096 02AA     		add	r2, sp, #8
 684 0098 0421     		movs	r1, #4
 685 009a 1846     		mov	r0, r3
 686 009c FFF7FEFF 		bl	LCD_draw_string
 687              	.LVL52:
 283:./Application/Src/menu.c ****     }
 688              		.loc 1 283 9 view .LVU125
 689 00a0 0094     		str	r4, [sp]
 690 00a2 0023     		movs	r3, #0
 691 00a4 1B4A     		ldr	r2, .L44+36
 692 00a6 0221     		movs	r1, #2
 693 00a8 1846     		mov	r0, r3
 694 00aa FFF7FEFF 		bl	LCD_draw_string
 695              	.LVL53:
 696 00ae B2E7     		b	.L38
 697              	.LVL54:
 698              	.L43:
 283:./Application/Src/menu.c ****     }
 699              		.loc 1 283 9 is_stmt 0 view .LVU126
 700              	.LBE10:
 701              	.LBB11:
 287:./Application/Src/menu.c ****         snprintf(buf, sizeof(buf), "Got %lu chords!     ", (unsigned long)num_chords);
 702              		.loc 1 287 9 is_stmt 1 view .LVU127
 287:./Application/Src/menu.c ****         snprintf(buf, sizeof(buf), "Got %lu chords!     ", (unsigned long)num_chords);
 703              		.loc 1 287 18 is_stmt 0 view .LVU128
 704 00b0 164C     		ldr	r4, .L44+28
 705 00b2 2368     		ldr	r3, [r4]
 706              	.LVL55:
 288:./Application/Src/menu.c ****         LCD_draw_string(0, 3, buf, COLOR_BLACK, COLOR_WHITE);
 707              		.loc 1 288 9 is_stmt 1 view .LVU129
 708 00b4 184A     		ldr	r2, .L44+40
 709 00b6 2021     		movs	r1, #32
 710 00b8 02A8     		add	r0, sp, #8
 711 00ba FFF7FEFF 		bl	snprintf
 712              	.LVL56:
 289:./Application/Src/menu.c **** 
 713              		.loc 1 289 9 view .LVU130
 714 00be 4FF6FF75 		movw	r5, #65535
 715 00c2 0095     		str	r5, [sp]
 716 00c4 0023     		movs	r3, #0
ARM GAS  C:\Users\Xuleo\AppData\Local\Temp\cc2YNAUe.s 			page 21


 717 00c6 02AA     		add	r2, sp, #8
 718 00c8 0321     		movs	r1, #3
 719 00ca 1846     		mov	r0, r3
 720 00cc FFF7FEFF 		bl	LCD_draw_string
 721              	.LVL57:
 291:./Application/Src/menu.c **** 
 722              		.loc 1 291 9 view .LVU131
 723 00d0 0095     		str	r5, [sp]
 724 00d2 0023     		movs	r3, #0
 725 00d4 114A     		ldr	r2, .L44+44
 726 00d6 0421     		movs	r1, #4
 727 00d8 1846     		mov	r0, r3
 728 00da FFF7FEFF 		bl	LCD_draw_string
 729              	.LVL58:
 294:./Application/Src/menu.c ****         ram_rx_started = 0;
 730              		.loc 1 294 9 view .LVU132
 294:./Application/Src/menu.c ****         ram_rx_started = 0;
 731              		.loc 1 294 25 is_stmt 0 view .LVU133
 732 00de 0023     		movs	r3, #0
 733 00e0 054A     		ldr	r2, .L44+8
 734 00e2 1360     		str	r3, [r2]
 295:./Application/Src/menu.c ****         ram_rx_offset = 0;
 735              		.loc 1 295 9 is_stmt 1 view .LVU134
 295:./Application/Src/menu.c ****         ram_rx_offset = 0;
 736              		.loc 1 295 24 is_stmt 0 view .LVU135
 737 00e4 034A     		ldr	r2, .L44+4
 738 00e6 1360     		str	r3, [r2]
 296:./Application/Src/menu.c ****         redirect_to_ram = 0;
 739              		.loc 1 296 9 is_stmt 1 view .LVU136
 296:./Application/Src/menu.c ****         redirect_to_ram = 0;
 740              		.loc 1 296 23 is_stmt 0 view .LVU137
 741 00e8 2360     		str	r3, [r4]
 297:./Application/Src/menu.c ****     }
 742              		.loc 1 297 9 is_stmt 1 view .LVU138
 297:./Application/Src/menu.c ****     }
 743              		.loc 1 297 25 is_stmt 0 view .LVU139
 744 00ea 0D4A     		ldr	r2, .L44+48
 745 00ec 1360     		str	r3, [r2]
 746              	.LBE11:
 747              		.loc 1 299 1 view .LVU140
 748 00ee 96E7     		b	.L36
 749              	.L45:
 750              		.align	2
 751              	.L44:
 752 00f0 00000000 		.word	page_dirty
 753 00f4 00000000 		.word	ram_rx_started
 754 00f8 00000000 		.word	ram_rx_complete
 755 00fc 00000000 		.word	.LC21
 756 0100 1C000000 		.word	.LC22
 757 0104 38000000 		.word	.LC23
 758 0108 38000000 		.word	.LC14
 759 010c 00000000 		.word	ram_rx_offset
 760 0110 54000000 		.word	.LC24
 761 0114 6C000000 		.word	.LC25
 762 0118 88000000 		.word	.LC26
 763 011c A0000000 		.word	.LC27
 764 0120 00000000 		.word	redirect_to_ram
ARM GAS  C:\Users\Xuleo\AppData\Local\Temp\cc2YNAUe.s 			page 22


 765              		.cfi_endproc
 766              	.LFE364:
 768              		.section	.rodata.menu_draw_select.str1.4,"aMS",%progbits,1
 769              		.align	2
 770              	.LC28:
 771 0000 5B53656C 		.ascii	"[Select] %d songs\000"
 771      6563745D 
 771      20256420 
 771      736F6E67 
 771      7300
 772 0012 0000     		.align	2
 773              	.LC29:
 774 0014 4E6F2073 		.ascii	"No songs on SD card.    \000"
 774      6F6E6773 
 774      206F6E20 
 774      53442063 
 774      6172642E 
 775 002d 000000   		.align	2
 776              	.LC30:
 777 0030 25632A25 		.ascii	"%c*%-12s %5luB\000"
 777      2D313273 
 777      2025356C 
 777      754200
 778 003f 00       		.align	2
 779              	.LC31:
 780 0040 25632025 		.ascii	"%c %-12s %5luB\000"
 780      2D313273 
 780      2025356C 
 780      754200
 781 004f 00       		.align	2
 782              	.LC32:
 783 0050 20205B25 		.ascii	"  [%d-%d of %d]\000"
 783      642D2564 
 783      206F6620 
 783      25645D00 
 784              		.align	2
 785              	.LC33:
 786 0060 3A642073 		.ascii	":d select  :a back      \000"
 786      656C6563 
 786      7420203A 
 786      61206261 
 786      636B2020 
 787              		.section	.text.menu_draw_select,"ax",%progbits
 788              		.align	1
 789              		.global	menu_draw_select
 790              		.syntax unified
 791              		.thumb
 792              		.thumb_func
 794              	menu_draw_select:
 795              	.LFB365:
 300:./Application/Src/menu.c **** 
 301:./Application/Src/menu.c **** /* ------------------------------------------------------------------ */
 302:./Application/Src/menu.c **** /*  Select Song page                                                  */
 303:./Application/Src/menu.c **** /* ------------------------------------------------------------------ */
 304:./Application/Src/menu.c **** 
 305:./Application/Src/menu.c **** void menu_draw_select(void)
 306:./Application/Src/menu.c **** {
ARM GAS  C:\Users\Xuleo\AppData\Local\Temp\cc2YNAUe.s 			page 23


 796              		.loc 1 306 1 is_stmt 1 view -0
 797              		.cfi_startproc
 798              		@ args = 0, pretend = 0, frame = 48
 799              		@ frame_needed = 0, uses_anonymous_args = 0
 800 0000 30B5     		push	{r4, r5, lr}
 801              	.LCFI14:
 802              		.cfi_def_cfa_offset 12
 803              		.cfi_offset 4, -12
 804              		.cfi_offset 5, -8
 805              		.cfi_offset 14, -4
 806 0002 8FB0     		sub	sp, sp, #60
 807              	.LCFI15:
 808              		.cfi_def_cfa_offset 72
 307:./Application/Src/menu.c ****     char line[48];
 809              		.loc 1 307 5 view .LVU142
 308:./Application/Src/menu.c **** 
 309:./Application/Src/menu.c ****     if (page_dirty)
 810              		.loc 1 309 5 view .LVU143
 811              		.loc 1 309 9 is_stmt 0 view .LVU144
 812 0004 664B     		ldr	r3, .L72
 813 0006 1B68     		ldr	r3, [r3]
 814              		.loc 1 309 8 view .LVU145
 815 0008 5BB9     		cbnz	r3, .L66
 816              	.L47:
 310:./Application/Src/menu.c ****     {
 311:./Application/Src/menu.c ****         clear_menu_area();
 312:./Application/Src/menu.c ****         /* Scan SD card for TXT files */
 313:./Application/Src/menu.c ****         sd_list_txt_files();
 314:./Application/Src/menu.c ****         select_song_index = 0;
 315:./Application/Src/menu.c ****         select_scroll_offset = 0;
 316:./Application/Src/menu.c ****         page_dirty = 0;
 317:./Application/Src/menu.c ****     }
 318:./Application/Src/menu.c **** 
 319:./Application/Src/menu.c ****     /* Header */
 320:./Application/Src/menu.c ****     snprintf(line, sizeof(line), "[Select] %d songs", (int)fileCount);
 817              		.loc 1 320 5 is_stmt 1 view .LVU146
 818 000a 02AC     		add	r4, sp, #8
 819 000c 654B     		ldr	r3, .L72+4
 820 000e 1B68     		ldr	r3, [r3]
 821 0010 654A     		ldr	r2, .L72+8
 822 0012 3021     		movs	r1, #48
 823 0014 2046     		mov	r0, r4
 824 0016 FFF7FEFF 		bl	snprintf
 825              	.LVL59:
 321:./Application/Src/menu.c ****     /* Pad to 24 chars */
 322:./Application/Src/menu.c ****     int hlen = strlen(line);
 826              		.loc 1 322 5 view .LVU147
 827              		.loc 1 322 16 is_stmt 0 view .LVU148
 828 001a 2046     		mov	r0, r4
 829 001c FFF7FEFF 		bl	strlen
 830              	.LVL60:
 323:./Application/Src/menu.c ****     while (hlen < 24)
 831              		.loc 1 323 5 is_stmt 1 view .LVU149
 832              		.loc 1 323 11 is_stmt 0 view .LVU150
 833 0020 12E0     		b	.L48
 834              	.LVL61:
 835              	.L66:
ARM GAS  C:\Users\Xuleo\AppData\Local\Temp\cc2YNAUe.s 			page 24


 311:./Application/Src/menu.c ****         /* Scan SD card for TXT files */
 836              		.loc 1 311 9 is_stmt 1 view .LVU151
 837 0022 FFF7FEFF 		bl	clear_menu_area
 838              	.LVL62:
 313:./Application/Src/menu.c ****         select_song_index = 0;
 839              		.loc 1 313 9 view .LVU152
 840 0026 FFF7FEFF 		bl	sd_list_txt_files
 841              	.LVL63:
 314:./Application/Src/menu.c ****         select_scroll_offset = 0;
 842              		.loc 1 314 9 view .LVU153
 314:./Application/Src/menu.c ****         select_scroll_offset = 0;
 843              		.loc 1 314 27 is_stmt 0 view .LVU154
 844 002a 0023     		movs	r3, #0
 845 002c 5F4A     		ldr	r2, .L72+12
 846 002e 1360     		str	r3, [r2]
 315:./Application/Src/menu.c ****         page_dirty = 0;
 847              		.loc 1 315 9 is_stmt 1 view .LVU155
 315:./Application/Src/menu.c ****         page_dirty = 0;
 848              		.loc 1 315 30 is_stmt 0 view .LVU156
 849 0030 5F4A     		ldr	r2, .L72+16
 850 0032 1360     		str	r3, [r2]
 316:./Application/Src/menu.c ****     }
 851              		.loc 1 316 9 is_stmt 1 view .LVU157
 316:./Application/Src/menu.c ****     }
 852              		.loc 1 316 20 is_stmt 0 view .LVU158
 853 0034 5A4A     		ldr	r2, .L72
 854 0036 1360     		str	r3, [r2]
 855 0038 E7E7     		b	.L47
 856              	.LVL64:
 857              	.L49:
 324:./Application/Src/menu.c ****         line[hlen++] = ' ';
 858              		.loc 1 324 9 is_stmt 1 view .LVU159
 859              		.loc 1 324 22 is_stmt 0 view .LVU160
 860 003a 00F13803 		add	r3, r0, #56
 861 003e 6B44     		add	r3, sp, r3
 862 0040 2022     		movs	r2, #32
 863 0042 03F8302C 		strb	r2, [r3, #-48]
 864              		.loc 1 324 18 view .LVU161
 865 0046 0130     		adds	r0, r0, #1
 866              	.LVL65:
 867              	.L48:
 323:./Application/Src/menu.c ****         line[hlen++] = ' ';
 868              		.loc 1 323 17 is_stmt 1 view .LVU162
 869 0048 1728     		cmp	r0, #23
 870 004a F6DD     		ble	.L49
 325:./Application/Src/menu.c ****     line[24] = '\0';
 871              		.loc 1 325 5 view .LVU163
 872              		.loc 1 325 14 is_stmt 0 view .LVU164
 873 004c 0020     		movs	r0, #0
 874              	.LVL66:
 875              		.loc 1 325 14 view .LVU165
 876 004e 8DF82000 		strb	r0, [sp, #32]
 326:./Application/Src/menu.c ****     LCD_draw_string(0, 1, line, COLOR_BLACK, COLOR_WHITE);
 877              		.loc 1 326 5 is_stmt 1 view .LVU166
 878 0052 4FF6FF73 		movw	r3, #65535
 879 0056 0093     		str	r3, [sp]
 880 0058 0346     		mov	r3, r0
ARM GAS  C:\Users\Xuleo\AppData\Local\Temp\cc2YNAUe.s 			page 25


 881 005a 02AA     		add	r2, sp, #8
 882 005c 0121     		movs	r1, #1
 883 005e FFF7FEFF 		bl	LCD_draw_string
 884              	.LVL67:
 327:./Application/Src/menu.c **** 
 328:./Application/Src/menu.c ****     if (fileCount == 0)
 885              		.loc 1 328 5 view .LVU167
 886              		.loc 1 328 19 is_stmt 0 view .LVU168
 887 0062 504B     		ldr	r3, .L72+4
 888 0064 1B68     		ldr	r3, [r3]
 889              		.loc 1 328 8 view .LVU169
 890 0066 0BB1     		cbz	r3, .L67
 891              	.LBB12:
 329:./Application/Src/menu.c ****     {
 330:./Application/Src/menu.c ****         LCD_draw_string(0, 2, "No songs on SD card.    ", COLOR_BLACK, COLOR_WHITE);
 331:./Application/Src/menu.c ****         LCD_draw_string(0, 7, "Send :a to go back      ", COLOR_BLACK, COLOR_WHITE);
 332:./Application/Src/menu.c ****         return;
 333:./Application/Src/menu.c ****     }
 334:./Application/Src/menu.c **** 
 335:./Application/Src/menu.c ****     /* Show up to 5 files with scroll */
 336:./Application/Src/menu.c ****     for (int i = 0; i < 5; i++)
 892              		.loc 1 336 14 view .LVU170
 893 0068 0024     		movs	r4, #0
 894 006a 4EE0     		b	.L50
 895              	.L67:
 896              	.LBE12:
 330:./Application/Src/menu.c ****         LCD_draw_string(0, 7, "Send :a to go back      ", COLOR_BLACK, COLOR_WHITE);
 897              		.loc 1 330 9 is_stmt 1 view .LVU171
 898 006c 4FF6FF74 		movw	r4, #65535
 899 0070 0094     		str	r4, [sp]
 900 0072 504A     		ldr	r2, .L72+20
 901 0074 0221     		movs	r1, #2
 902 0076 1846     		mov	r0, r3
 903 0078 FFF7FEFF 		bl	LCD_draw_string
 904              	.LVL68:
 331:./Application/Src/menu.c ****         return;
 905              		.loc 1 331 9 view .LVU172
 906 007c 0094     		str	r4, [sp]
 907 007e 0023     		movs	r3, #0
 908 0080 4D4A     		ldr	r2, .L72+24
 909 0082 0721     		movs	r1, #7
 910 0084 1846     		mov	r0, r3
 911 0086 FFF7FEFF 		bl	LCD_draw_string
 912              	.LVL69:
 332:./Application/Src/menu.c ****     }
 913              		.loc 1 332 9 view .LVU173
 914 008a 5FE0     		b	.L46
 915              	.LVL70:
 916              	.L70:
 917              	.LBB16:
 918              	.LBB13:
 919              	.LBB14:
 337:./Application/Src/menu.c ****     {
 338:./Application/Src/menu.c ****         int fileIdx = select_scroll_offset + i;
 339:./Application/Src/menu.c ****         int row = 2 + i;
 340:./Application/Src/menu.c **** 
 341:./Application/Src/menu.c ****         if (fileIdx < fileCount)
ARM GAS  C:\Users\Xuleo\AppData\Local\Temp\cc2YNAUe.s 			page 26


 342:./Application/Src/menu.c ****         {
 343:./Application/Src/menu.c ****             char marker = ' ';
 920              		.loc 1 343 13 view .LVU174
 344:./Application/Src/menu.c ****             if (fileIdx == select_song_index)
 921              		.loc 1 344 13 view .LVU175
 922              		.loc 1 344 25 is_stmt 0 view .LVU176
 923 008c 474B     		ldr	r3, .L72+12
 924 008e 1B68     		ldr	r3, [r3]
 925              		.loc 1 344 16 view .LVU177
 926 0090 9342     		cmp	r3, r2
 927 0092 15D0     		beq	.L64
 343:./Application/Src/menu.c ****             if (fileIdx == select_song_index)
 928              		.loc 1 343 18 view .LVU178
 929 0094 2023     		movs	r3, #32
 930              	.L53:
 931              	.LVL71:
 345:./Application/Src/menu.c ****                 marker = '>';
 346:./Application/Src/menu.c ****             /* Show active song indicator */
 347:./Application/Src/menu.c ****             if (fileIdx == active_song_index)
 932              		.loc 1 347 13 is_stmt 1 view .LVU179
 933              		.loc 1 347 25 is_stmt 0 view .LVU180
 934 0096 4949     		ldr	r1, .L72+28
 935 0098 0968     		ldr	r1, [r1]
 936              		.loc 1 347 16 view .LVU181
 937 009a 9142     		cmp	r1, r2
 938 009c 12D0     		beq	.L68
 348:./Application/Src/menu.c ****             {
 349:./Application/Src/menu.c ****                 snprintf(line, sizeof(line), "%c*%-12s %5luB", marker,
 350:./Application/Src/menu.c ****                          fileList[fileIdx].name, (unsigned long)fileList[fileIdx].size);
 351:./Application/Src/menu.c ****             }
 352:./Application/Src/menu.c ****             else
 353:./Application/Src/menu.c ****             {
 354:./Application/Src/menu.c ****                 snprintf(line, sizeof(line), "%c %-12s %5luB", marker,
 939              		.loc 1 354 17 is_stmt 1 view .LVU182
 355:./Application/Src/menu.c ****                          fileList[fileIdx].name, (unsigned long)fileList[fileIdx].size);
 940              		.loc 1 355 43 is_stmt 0 view .LVU183
 941 009e 02EB8200 		add	r0, r2, r2, lsl #2
 942 00a2 4749     		ldr	r1, .L72+32
 943 00a4 01EB8000 		add	r0, r1, r0, lsl #2
 944              		.loc 1 355 82 view .LVU184
 945 00a8 0269     		ldr	r2, [r0, #16]
 946              	.LVL72:
 354:./Application/Src/menu.c ****                          fileList[fileIdx].name, (unsigned long)fileList[fileIdx].size);
 947              		.loc 1 354 17 view .LVU185
 948 00aa 0192     		str	r2, [sp, #4]
 949 00ac 0090     		str	r0, [sp]
 950 00ae 454A     		ldr	r2, .L72+36
 951 00b0 3021     		movs	r1, #48
 952 00b2 02A8     		add	r0, sp, #8
 953 00b4 FFF7FEFF 		bl	snprintf
 954              	.LVL73:
 955              	.L55:
 356:./Application/Src/menu.c ****             }
 357:./Application/Src/menu.c ****             /* Pad to clear */
 358:./Application/Src/menu.c ****             int len = strlen(line);
 956              		.loc 1 358 13 is_stmt 1 view .LVU186
 957              		.loc 1 358 23 is_stmt 0 view .LVU187
ARM GAS  C:\Users\Xuleo\AppData\Local\Temp\cc2YNAUe.s 			page 27


 958 00b8 02A8     		add	r0, sp, #8
 959 00ba FFF7FEFF 		bl	strlen
 960              	.LVL74:
 359:./Application/Src/menu.c ****             while (len < 23)
 961              		.loc 1 359 13 is_stmt 1 view .LVU188
 962              		.loc 1 359 19 is_stmt 0 view .LVU189
 963 00be 16E0     		b	.L56
 964              	.LVL75:
 965              	.L64:
 345:./Application/Src/menu.c ****             /* Show active song indicator */
 966              		.loc 1 345 24 view .LVU190
 967 00c0 3E23     		movs	r3, #62
 968 00c2 E8E7     		b	.L53
 969              	.LVL76:
 970              	.L68:
 349:./Application/Src/menu.c ****                          fileList[fileIdx].name, (unsigned long)fileList[fileIdx].size);
 971              		.loc 1 349 17 is_stmt 1 view .LVU191
 350:./Application/Src/menu.c ****             }
 972              		.loc 1 350 43 is_stmt 0 view .LVU192
 973 00c4 02EB8200 		add	r0, r2, r2, lsl #2
 974 00c8 3D49     		ldr	r1, .L72+32
 975 00ca 01EB8000 		add	r0, r1, r0, lsl #2
 350:./Application/Src/menu.c ****             }
 976              		.loc 1 350 82 view .LVU193
 977 00ce 0269     		ldr	r2, [r0, #16]
 978              	.LVL77:
 349:./Application/Src/menu.c ****                          fileList[fileIdx].name, (unsigned long)fileList[fileIdx].size);
 979              		.loc 1 349 17 view .LVU194
 980 00d0 0192     		str	r2, [sp, #4]
 981 00d2 0090     		str	r0, [sp]
 982 00d4 3C4A     		ldr	r2, .L72+40
 983 00d6 3021     		movs	r1, #48
 984 00d8 02A8     		add	r0, sp, #8
 985 00da FFF7FEFF 		bl	snprintf
 986              	.LVL78:
 349:./Application/Src/menu.c ****                          fileList[fileIdx].name, (unsigned long)fileList[fileIdx].size);
 987              		.loc 1 349 17 view .LVU195
 988 00de EBE7     		b	.L55
 989              	.LVL79:
 990              	.L57:
 360:./Application/Src/menu.c ****                 line[len++] = ' ';
 991              		.loc 1 360 17 is_stmt 1 view .LVU196
 992              		.loc 1 360 29 is_stmt 0 view .LVU197
 993 00e0 00F13803 		add	r3, r0, #56
 994 00e4 6B44     		add	r3, sp, r3
 995 00e6 2022     		movs	r2, #32
 996 00e8 03F8302C 		strb	r2, [r3, #-48]
 997              		.loc 1 360 25 view .LVU198
 998 00ec 0130     		adds	r0, r0, #1
 999              	.LVL80:
 1000              	.L56:
 359:./Application/Src/menu.c ****                 line[len++] = ' ';
 1001              		.loc 1 359 24 is_stmt 1 view .LVU199
 1002 00ee 1628     		cmp	r0, #22
 1003 00f0 F6DD     		ble	.L57
 361:./Application/Src/menu.c ****             line[23] = '\0';
 1004              		.loc 1 361 13 view .LVU200
ARM GAS  C:\Users\Xuleo\AppData\Local\Temp\cc2YNAUe.s 			page 28


 1005              		.loc 1 361 22 is_stmt 0 view .LVU201
 1006 00f2 0020     		movs	r0, #0
 1007              	.LVL81:
 1008              		.loc 1 361 22 view .LVU202
 1009 00f4 8DF81F00 		strb	r0, [sp, #31]
 362:./Application/Src/menu.c ****             LCD_draw_string(0, row, line, COLOR_BLACK, COLOR_WHITE);
 1010              		.loc 1 362 13 is_stmt 1 view .LVU203
 1011 00f8 4FF6FF73 		movw	r3, #65535
 1012 00fc 0093     		str	r3, [sp]
 1013 00fe 0346     		mov	r3, r0
 1014 0100 02AA     		add	r2, sp, #8
 1015 0102 A9B2     		uxth	r1, r5
 1016 0104 FFF7FEFF 		bl	LCD_draw_string
 1017              	.LVL82:
 1018              	.L58:
 1019              		.loc 1 362 13 is_stmt 0 view .LVU204
 1020              	.LBE14:
 1021              	.LBE13:
 336:./Application/Src/menu.c ****     {
 1022              		.loc 1 336 29 is_stmt 1 discriminator 2 view .LVU205
 1023 0108 0134     		adds	r4, r4, #1
 1024              	.LVL83:
 1025              	.L50:
 336:./Application/Src/menu.c ****     {
 1026              		.loc 1 336 23 discriminator 1 view .LVU206
 1027 010a 042C     		cmp	r4, #4
 1028 010c 11DC     		bgt	.L69
 1029              	.LBB15:
 338:./Application/Src/menu.c ****         int row = 2 + i;
 1030              		.loc 1 338 9 view .LVU207
 338:./Application/Src/menu.c ****         int row = 2 + i;
 1031              		.loc 1 338 44 is_stmt 0 view .LVU208
 1032 010e 284B     		ldr	r3, .L72+16
 1033 0110 1A68     		ldr	r2, [r3]
 338:./Application/Src/menu.c ****         int row = 2 + i;
 1034              		.loc 1 338 13 view .LVU209
 1035 0112 2244     		add	r2, r2, r4
 1036              	.LVL84:
 339:./Application/Src/menu.c **** 
 1037              		.loc 1 339 9 is_stmt 1 view .LVU210
 339:./Application/Src/menu.c **** 
 1038              		.loc 1 339 13 is_stmt 0 view .LVU211
 1039 0114 A51C     		adds	r5, r4, #2
 1040              	.LVL85:
 341:./Application/Src/menu.c ****         {
 1041              		.loc 1 341 9 is_stmt 1 view .LVU212
 341:./Application/Src/menu.c ****         {
 1042              		.loc 1 341 21 is_stmt 0 view .LVU213
 1043 0116 234B     		ldr	r3, .L72+4
 1044 0118 1B68     		ldr	r3, [r3]
 341:./Application/Src/menu.c ****         {
 1045              		.loc 1 341 12 view .LVU214
 1046 011a 9342     		cmp	r3, r2
 1047 011c B6DC     		bgt	.L70
 363:./Application/Src/menu.c ****         }
 364:./Application/Src/menu.c ****         else
 365:./Application/Src/menu.c ****         {
ARM GAS  C:\Users\Xuleo\AppData\Local\Temp\cc2YNAUe.s 			page 29


 366:./Application/Src/menu.c ****             LCD_draw_string(0, row, "                        ", COLOR_BLACK, COLOR_WHITE);
 1048              		.loc 1 366 13 is_stmt 1 view .LVU215
 1049 011e 4FF6FF73 		movw	r3, #65535
 1050 0122 0093     		str	r3, [sp]
 1051 0124 0023     		movs	r3, #0
 1052 0126 294A     		ldr	r2, .L72+44
 1053              	.LVL86:
 1054              		.loc 1 366 13 is_stmt 0 view .LVU216
 1055 0128 A9B2     		uxth	r1, r5
 1056 012a 1846     		mov	r0, r3
 1057 012c FFF7FEFF 		bl	LCD_draw_string
 1058              	.LVL87:
 1059              		.loc 1 366 13 view .LVU217
 1060 0130 EAE7     		b	.L58
 1061              	.LVL88:
 1062              	.L69:
 1063              		.loc 1 366 13 view .LVU218
 1064              	.LBE15:
 1065              	.LBE16:
 367:./Application/Src/menu.c ****         }
 368:./Application/Src/menu.c ****     }
 369:./Application/Src/menu.c **** 
 370:./Application/Src/menu.c ****     /* Scroll indicator */
 371:./Application/Src/menu.c ****     if (fileCount > 5)
 1066              		.loc 1 371 5 is_stmt 1 view .LVU219
 1067              		.loc 1 371 19 is_stmt 0 view .LVU220
 1068 0132 1C4B     		ldr	r3, .L72+4
 1069 0134 1A68     		ldr	r2, [r3]
 1070              		.loc 1 371 8 view .LVU221
 1071 0136 052A     		cmp	r2, #5
 1072 0138 0ADC     		bgt	.L71
 1073              	.LVL89:
 1074              	.L60:
 372:./Application/Src/menu.c ****     {
 373:./Application/Src/menu.c ****         int lo = select_scroll_offset + 1;
 374:./Application/Src/menu.c ****         int hi = (select_scroll_offset + 5 < fileCount) ? select_scroll_offset + 5 : fileCount;
 375:./Application/Src/menu.c ****         snprintf(line, sizeof(line), "  [%d-%d of %d]", lo, hi, (int)fileCount);
 376:./Application/Src/menu.c ****         int slen = strlen(line);
 377:./Application/Src/menu.c ****         while (slen < 24)
 378:./Application/Src/menu.c ****             line[slen++] = ' ';
 379:./Application/Src/menu.c ****         line[24] = '\0';
 380:./Application/Src/menu.c ****         LCD_draw_string(0, 7, line, COLOR_BLACK, COLOR_WHITE);
 381:./Application/Src/menu.c ****     }
 382:./Application/Src/menu.c **** 
 383:./Application/Src/menu.c ****     LCD_draw_string(0, 8, ":d select  :a back      ", COLOR_BLACK, COLOR_WHITE);
 1075              		.loc 1 383 5 is_stmt 1 view .LVU222
 1076 013a 4FF6FF73 		movw	r3, #65535
 1077 013e 0093     		str	r3, [sp]
 1078 0140 0023     		movs	r3, #0
 1079 0142 234A     		ldr	r2, .L72+48
 1080 0144 0821     		movs	r1, #8
 1081 0146 1846     		mov	r0, r3
 1082 0148 FFF7FEFF 		bl	LCD_draw_string
 1083              	.LVL90:
 1084              	.L46:
 384:./Application/Src/menu.c **** }
 1085              		.loc 1 384 1 is_stmt 0 view .LVU223
ARM GAS  C:\Users\Xuleo\AppData\Local\Temp\cc2YNAUe.s 			page 30


 1086 014c 0FB0     		add	sp, sp, #60
 1087              	.LCFI16:
 1088              		.cfi_remember_state
 1089              		.cfi_def_cfa_offset 12
 1090              		@ sp needed
 1091 014e 30BD     		pop	{r4, r5, pc}
 1092              	.LVL91:
 1093              	.L71:
 1094              	.LCFI17:
 1095              		.cfi_restore_state
 1096              	.LBB17:
 373:./Application/Src/menu.c ****         int hi = (select_scroll_offset + 5 < fileCount) ? select_scroll_offset + 5 : fileCount;
 1097              		.loc 1 373 9 is_stmt 1 view .LVU224
 373:./Application/Src/menu.c ****         int hi = (select_scroll_offset + 5 < fileCount) ? select_scroll_offset + 5 : fileCount;
 1098              		.loc 1 373 39 is_stmt 0 view .LVU225
 1099 0150 174B     		ldr	r3, .L72+16
 1100 0152 1B68     		ldr	r3, [r3]
 1101              	.LVL92:
 374:./Application/Src/menu.c ****         snprintf(line, sizeof(line), "  [%d-%d of %d]", lo, hi, (int)fileCount);
 1102              		.loc 1 374 9 is_stmt 1 view .LVU226
 374:./Application/Src/menu.c ****         snprintf(line, sizeof(line), "  [%d-%d of %d]", lo, hi, (int)fileCount);
 1103              		.loc 1 374 40 is_stmt 0 view .LVU227
 1104 0154 591D     		adds	r1, r3, #5
 374:./Application/Src/menu.c ****         snprintf(line, sizeof(line), "  [%d-%d of %d]", lo, hi, (int)fileCount);
 1105              		.loc 1 374 13 view .LVU228
 1106 0156 9142     		cmp	r1, r2
 1107 0158 A8BF     		it	ge
 1108 015a 1146     		movge	r1, r2
 1109              	.LVL93:
 375:./Application/Src/menu.c ****         int slen = strlen(line);
 1110              		.loc 1 375 9 is_stmt 1 view .LVU229
 1111 015c 02AC     		add	r4, sp, #8
 1112              	.LVL94:
 375:./Application/Src/menu.c ****         int slen = strlen(line);
 1113              		.loc 1 375 9 is_stmt 0 view .LVU230
 1114 015e 0192     		str	r2, [sp, #4]
 1115 0160 0091     		str	r1, [sp]
 1116 0162 0133     		adds	r3, r3, #1
 1117              	.LVL95:
 375:./Application/Src/menu.c ****         int slen = strlen(line);
 1118              		.loc 1 375 9 view .LVU231
 1119 0164 1B4A     		ldr	r2, .L72+52
 1120 0166 3021     		movs	r1, #48
 1121              	.LVL96:
 375:./Application/Src/menu.c ****         int slen = strlen(line);
 1122              		.loc 1 375 9 view .LVU232
 1123 0168 2046     		mov	r0, r4
 1124 016a FFF7FEFF 		bl	snprintf
 1125              	.LVL97:
 376:./Application/Src/menu.c ****         while (slen < 24)
 1126              		.loc 1 376 9 is_stmt 1 view .LVU233
 376:./Application/Src/menu.c ****         while (slen < 24)
 1127              		.loc 1 376 20 is_stmt 0 view .LVU234
 1128 016e 2046     		mov	r0, r4
 1129 0170 FFF7FEFF 		bl	strlen
 1130              	.LVL98:
 377:./Application/Src/menu.c ****             line[slen++] = ' ';
ARM GAS  C:\Users\Xuleo\AppData\Local\Temp\cc2YNAUe.s 			page 31


 1131              		.loc 1 377 9 is_stmt 1 view .LVU235
 377:./Application/Src/menu.c ****             line[slen++] = ' ';
 1132              		.loc 1 377 15 is_stmt 0 view .LVU236
 1133 0174 06E0     		b	.L61
 1134              	.L62:
 378:./Application/Src/menu.c ****         line[24] = '\0';
 1135              		.loc 1 378 13 is_stmt 1 view .LVU237
 1136              	.LVL99:
 378:./Application/Src/menu.c ****         line[24] = '\0';
 1137              		.loc 1 378 26 is_stmt 0 view .LVU238
 1138 0176 00F13803 		add	r3, r0, #56
 1139 017a 6B44     		add	r3, sp, r3
 1140 017c 2022     		movs	r2, #32
 1141 017e 03F8302C 		strb	r2, [r3, #-48]
 378:./Application/Src/menu.c ****         line[24] = '\0';
 1142              		.loc 1 378 22 view .LVU239
 1143 0182 0130     		adds	r0, r0, #1
 1144              	.LVL100:
 1145              	.L61:
 377:./Application/Src/menu.c ****             line[slen++] = ' ';
 1146              		.loc 1 377 21 is_stmt 1 view .LVU240
 1147 0184 1728     		cmp	r0, #23
 1148 0186 F6DD     		ble	.L62
 379:./Application/Src/menu.c ****         LCD_draw_string(0, 7, line, COLOR_BLACK, COLOR_WHITE);
 1149              		.loc 1 379 9 view .LVU241
 379:./Application/Src/menu.c ****         LCD_draw_string(0, 7, line, COLOR_BLACK, COLOR_WHITE);
 1150              		.loc 1 379 18 is_stmt 0 view .LVU242
 1151 0188 0020     		movs	r0, #0
 1152              	.LVL101:
 379:./Application/Src/menu.c ****         LCD_draw_string(0, 7, line, COLOR_BLACK, COLOR_WHITE);
 1153              		.loc 1 379 18 view .LVU243
 1154 018a 8DF82000 		strb	r0, [sp, #32]
 380:./Application/Src/menu.c ****     }
 1155              		.loc 1 380 9 is_stmt 1 view .LVU244
 1156 018e 4FF6FF73 		movw	r3, #65535
 1157 0192 0093     		str	r3, [sp]
 1158 0194 0346     		mov	r3, r0
 1159 0196 02AA     		add	r2, sp, #8
 1160 0198 0721     		movs	r1, #7
 1161 019a FFF7FEFF 		bl	LCD_draw_string
 1162              	.LVL102:
 1163 019e CCE7     		b	.L60
 1164              	.L73:
 1165              		.align	2
 1166              	.L72:
 1167 01a0 00000000 		.word	page_dirty
 1168 01a4 00000000 		.word	fileCount
 1169 01a8 00000000 		.word	.LC28
 1170 01ac 00000000 		.word	select_song_index
 1171 01b0 00000000 		.word	select_scroll_offset
 1172 01b4 14000000 		.word	.LC29
 1173 01b8 38000000 		.word	.LC14
 1174 01bc 00000000 		.word	active_song_index
 1175 01c0 00000000 		.word	fileList
 1176 01c4 40000000 		.word	.LC31
 1177 01c8 30000000 		.word	.LC30
 1178 01cc 00000000 		.word	.LC7
ARM GAS  C:\Users\Xuleo\AppData\Local\Temp\cc2YNAUe.s 			page 32


 1179 01d0 60000000 		.word	.LC33
 1180 01d4 50000000 		.word	.LC32
 1181              	.LBE17:
 1182              		.cfi_endproc
 1183              	.LFE365:
 1185              		.section	.text.menu_get_state,"ax",%progbits
 1186              		.align	1
 1187              		.global	menu_get_state
 1188              		.syntax unified
 1189              		.thumb
 1190              		.thumb_func
 1192              	menu_get_state:
 1193              	.LFB366:
 385:./Application/Src/menu.c **** 
 386:./Application/Src/menu.c **** /* ------------------------------------------------------------------ */
 387:./Application/Src/menu.c **** /*  Public API                                                        */
 388:./Application/Src/menu.c **** /* ------------------------------------------------------------------ */
 389:./Application/Src/menu.c **** 
 390:./Application/Src/menu.c **** MenuState_t menu_get_state(void)
 391:./Application/Src/menu.c **** {
 1194              		.loc 1 391 1 view -0
 1195              		.cfi_startproc
 1196              		@ args = 0, pretend = 0, frame = 0
 1197              		@ frame_needed = 0, uses_anonymous_args = 0
 1198              		@ link register save eliminated.
 392:./Application/Src/menu.c ****     return menu_state;
 1199              		.loc 1 392 5 view .LVU246
 393:./Application/Src/menu.c **** }
 1200              		.loc 1 393 1 is_stmt 0 view .LVU247
 1201 0000 014B     		ldr	r3, .L75
 1202 0002 1878     		ldrb	r0, [r3]	@ zero_extendqisi2
 1203 0004 7047     		bx	lr
 1204              	.L76:
 1205 0006 00BF     		.align	2
 1206              	.L75:
 1207 0008 00000000 		.word	menu_state
 1208              		.cfi_endproc
 1209              	.LFE366:
 1211              		.section	.text.menu_process_message,"ax",%progbits
 1212              		.align	1
 1213              		.global	menu_process_message
 1214              		.syntax unified
 1215              		.thumb
 1216              		.thumb_func
 1218              	menu_process_message:
 1219              	.LVL103:
 1220              	.LFB362:
 189:./Application/Src/menu.c ****     if (len == 0) return;
 1221              		.loc 1 189 1 is_stmt 1 view -0
 1222              		.cfi_startproc
 1223              		@ args = 0, pretend = 0, frame = 0
 1224              		@ frame_needed = 0, uses_anonymous_args = 0
 190:./Application/Src/menu.c **** 
 1225              		.loc 1 190 5 view .LVU249
 190:./Application/Src/menu.c **** 
 1226              		.loc 1 190 8 is_stmt 0 view .LVU250
 1227 0000 49B3     		cbz	r1, .L83
ARM GAS  C:\Users\Xuleo\AppData\Local\Temp\cc2YNAUe.s 			page 33


 189:./Application/Src/menu.c ****     if (len == 0) return;
 1228              		.loc 1 189 1 view .LVU251
 1229 0002 38B5     		push	{r3, r4, r5, lr}
 1230              	.LCFI18:
 1231              		.cfi_def_cfa_offset 16
 1232              		.cfi_offset 3, -16
 1233              		.cfi_offset 4, -12
 1234              		.cfi_offset 5, -8
 1235              		.cfi_offset 14, -4
 1236 0004 0446     		mov	r4, r0
 1237 0006 0D46     		mov	r5, r1
 192:./Application/Src/menu.c **** 
 1238              		.loc 1 192 5 is_stmt 1 view .LVU252
 192:./Application/Src/menu.c **** 
 1239              		.loc 1 192 25 is_stmt 0 view .LVU253
 1240 0008 FFF7FEFF 		bl	menu_get_state
 1241              	.LVL104:
 194:./Application/Src/menu.c ****         data[0] >= 0xF0 && data[0] <= 0xF3)
 1242              		.loc 1 194 5 is_stmt 1 view .LVU254
 194:./Application/Src/menu.c ****         data[0] >= 0xF0 && data[0] <= 0xF3)
 1243              		.loc 1 194 8 is_stmt 0 view .LVU255
 1244 000c 0128     		cmp	r0, #1
 1245 000e 0BD0     		beq	.L86
 1246              	.L79:
 200:./Application/Src/menu.c ****     {
 1247              		.loc 1 200 10 is_stmt 1 view .LVU256
 200:./Application/Src/menu.c ****     {
 1248              		.loc 1 200 13 is_stmt 0 view .LVU257
 1249 0010 0228     		cmp	r0, #2
 1250 0012 13D0     		beq	.L87
 1251              	.L80:
 209:./Application/Src/menu.c ****         if (len > 0 && data[len - 1] == '\n') data[len - 1] = '\0';
 1252              		.loc 1 209 9 is_stmt 1 view .LVU258
 209:./Application/Src/menu.c ****         if (len > 0 && data[len - 1] == '\n') data[len - 1] = '\0';
 1253              		.loc 1 209 19 is_stmt 0 view .LVU259
 1254 0014 0023     		movs	r3, #0
 1255 0016 6355     		strb	r3, [r4, r5]
 210:./Application/Src/menu.c ****         execute_command(data);
 1256              		.loc 1 210 9 is_stmt 1 view .LVU260
 210:./Application/Src/menu.c ****         execute_command(data);
 1257              		.loc 1 210 33 is_stmt 0 discriminator 1 view .LVU261
 1258 0018 6B1E     		subs	r3, r5, #1
 210:./Application/Src/menu.c ****         execute_command(data);
 1259              		.loc 1 210 28 discriminator 1 view .LVU262
 1260 001a E25C     		ldrb	r2, [r4, r3]	@ zero_extendqisi2
 210:./Application/Src/menu.c ****         execute_command(data);
 1261              		.loc 1 210 21 discriminator 1 view .LVU263
 1262 001c 0A2A     		cmp	r2, #10
 1263 001e 17D0     		beq	.L88
 1264              	.L81:
 211:./Application/Src/menu.c ****     }
 1265              		.loc 1 211 9 is_stmt 1 view .LVU264
 1266 0020 2046     		mov	r0, r4
 1267              	.LVL105:
 211:./Application/Src/menu.c ****     }
 1268              		.loc 1 211 9 is_stmt 0 view .LVU265
 1269 0022 FFF7FEFF 		bl	execute_command
ARM GAS  C:\Users\Xuleo\AppData\Local\Temp\cc2YNAUe.s 			page 34


 1270              	.LVL106:
 1271              	.L77:
 213:./Application/Src/menu.c **** 
 1272              		.loc 1 213 1 view .LVU266
 1273 0026 38BD     		pop	{r3, r4, r5, pc}
 1274              	.LVL107:
 1275              	.L86:
 195:./Application/Src/menu.c ****     {
 1276              		.loc 1 195 13 view .LVU267
 1277 0028 2378     		ldrb	r3, [r4]	@ zero_extendqisi2
 194:./Application/Src/menu.c ****         data[0] >= 0xF0 && data[0] <= 0xF3)
 1278              		.loc 1 194 38 discriminator 1 view .LVU268
 1279 002a EF2B     		cmp	r3, #239
 1280 002c F0D9     		bls	.L79
 195:./Application/Src/menu.c ****     {
 1281              		.loc 1 195 25 view .LVU269
 1282 002e F32B     		cmp	r3, #243
 1283 0030 EED8     		bhi	.L79
 198:./Application/Src/menu.c ****     }
 1284              		.loc 1 198 9 is_stmt 1 view .LVU270
 1285 0032 2946     		mov	r1, r5
 1286 0034 2046     		mov	r0, r4
 1287              	.LVL108:
 198:./Application/Src/menu.c ****     }
 1288              		.loc 1 198 9 is_stmt 0 view .LVU271
 1289 0036 FFF7FEFF 		bl	FT_ProcessPacket
 1290              	.LVL109:
 1291 003a F4E7     		b	.L77
 1292              	.LVL110:
 1293              	.L87:
 200:./Application/Src/menu.c ****     {
 1294              		.loc 1 200 54 discriminator 1 view .LVU272
 1295 003c 2378     		ldrb	r3, [r4]	@ zero_extendqisi2
 200:./Application/Src/menu.c ****     {
 1296              		.loc 1 200 47 discriminator 1 view .LVU273
 1297 003e DF2B     		cmp	r3, #223
 1298 0040 E8D9     		bls	.L80
 200:./Application/Src/menu.c ****     {
 1299              		.loc 1 200 66 discriminator 2 view .LVU274
 1300 0042 E22B     		cmp	r3, #226
 1301 0044 E6D8     		bhi	.L80
 204:./Application/Src/menu.c ****     }
 1302              		.loc 1 204 9 is_stmt 1 view .LVU275
 1303 0046 2946     		mov	r1, r5
 1304 0048 2046     		mov	r0, r4
 1305              	.LVL111:
 204:./Application/Src/menu.c ****     }
 1306              		.loc 1 204 9 is_stmt 0 view .LVU276
 1307 004a FFF7FEFF 		bl	RAM_ProcessPacket
 1308              	.LVL112:
 1309 004e EAE7     		b	.L77
 1310              	.LVL113:
 1311              	.L88:
 210:./Application/Src/menu.c ****         execute_command(data);
 1312              		.loc 1 210 47 is_stmt 1 discriminator 2 view .LVU277
 210:./Application/Src/menu.c ****         execute_command(data);
 1313              		.loc 1 210 61 is_stmt 0 discriminator 2 view .LVU278
ARM GAS  C:\Users\Xuleo\AppData\Local\Temp\cc2YNAUe.s 			page 35


 1314 0050 0022     		movs	r2, #0
 1315 0052 E254     		strb	r2, [r4, r3]
 1316 0054 E4E7     		b	.L81
 1317              	.LVL114:
 1318              	.L83:
 1319              	.LCFI19:
 1320              		.cfi_def_cfa_offset 0
 1321              		.cfi_restore 3
 1322              		.cfi_restore 4
 1323              		.cfi_restore 5
 1324              		.cfi_restore 14
 210:./Application/Src/menu.c ****         execute_command(data);
 1325              		.loc 1 210 61 discriminator 2 view .LVU279
 1326 0056 7047     		bx	lr
 1327              		.cfi_endproc
 1328              	.LFE362:
 1330              		.section	.text.menu_try_dispatch_binary,"ax",%progbits
 1331              		.align	1
 1332              		.global	menu_try_dispatch_binary
 1333              		.syntax unified
 1334              		.thumb
 1335              		.thumb_func
 1337              	menu_try_dispatch_binary:
 1338              	.LVL115:
 1339              	.LFB363:
 218:./Application/Src/menu.c ****     if (len == 0) return 0;
 1340              		.loc 1 218 1 is_stmt 1 view -0
 1341              		.cfi_startproc
 1342              		@ args = 0, pretend = 0, frame = 0
 1343              		@ frame_needed = 0, uses_anonymous_args = 0
 219:./Application/Src/menu.c **** 
 1344              		.loc 1 219 5 view .LVU281
 219:./Application/Src/menu.c **** 
 1345              		.loc 1 219 8 is_stmt 0 view .LVU282
 1346 0000 0029     		cmp	r1, #0
 1347 0002 53D0     		beq	.L97
 218:./Application/Src/menu.c ****     if (len == 0) return 0;
 1348              		.loc 1 218 1 view .LVU283
 1349 0004 38B5     		push	{r3, r4, r5, lr}
 1350              	.LCFI20:
 1351              		.cfi_def_cfa_offset 16
 1352              		.cfi_offset 3, -16
 1353              		.cfi_offset 4, -12
 1354              		.cfi_offset 5, -8
 1355              		.cfi_offset 14, -4
 1356 0006 0446     		mov	r4, r0
 1357 0008 0D46     		mov	r5, r1
 222:./Application/Src/menu.c ****         data[0] >= 0xF0 && data[0] <= 0xF3)
 1358              		.loc 1 222 5 is_stmt 1 view .LVU284
 222:./Application/Src/menu.c ****         data[0] >= 0xF0 && data[0] <= 0xF3)
 1359              		.loc 1 222 9 is_stmt 0 view .LVU285
 1360 000a FFF7FEFF 		bl	menu_get_state
 1361              	.LVL116:
 222:./Application/Src/menu.c ****         data[0] >= 0xF0 && data[0] <= 0xF3)
 1362              		.loc 1 222 8 discriminator 1 view .LVU286
 1363 000e 0128     		cmp	r0, #1
 1364 0010 0ED0     		beq	.L111
ARM GAS  C:\Users\Xuleo\AppData\Local\Temp\cc2YNAUe.s 			page 36


 1365              	.L91:
 240:./Application/Src/menu.c ****         data[0] >= 0xE0 && data[0] <= 0xE2)
 1366              		.loc 1 240 5 is_stmt 1 view .LVU287
 240:./Application/Src/menu.c ****         data[0] >= 0xE0 && data[0] <= 0xE2)
 1367              		.loc 1 240 8 is_stmt 0 discriminator 1 view .LVU288
 1368 0012 0228     		cmp	r0, #2
 1369 0014 44D1     		bne	.L95
 241:./Application/Src/menu.c ****     {
 1370              		.loc 1 241 13 view .LVU289
 1371 0016 2378     		ldrb	r3, [r4]	@ zero_extendqisi2
 240:./Application/Src/menu.c ****         data[0] >= 0xE0 && data[0] <= 0xE2)
 1372              		.loc 1 240 53 discriminator 2 view .LVU290
 1373 0018 DF2B     		cmp	r3, #223
 1374 001a 41D9     		bls	.L95
 241:./Application/Src/menu.c ****     {
 1375              		.loc 1 241 25 view .LVU291
 1376 001c E22B     		cmp	r3, #226
 1377 001e 3FD8     		bhi	.L95
 1378              	.LBB18:
 243:./Application/Src/menu.c ****         switch (data[0]) {
 1379              		.loc 1 243 9 is_stmt 1 view .LVU292
 1380              	.LVL117:
 244:./Application/Src/menu.c ****           case FT_CMD_RAM_START: need = 2; break;   // [0xE0] [sentinel]
 1381              		.loc 1 244 9 view .LVU293
 1382 0020 E12B     		cmp	r3, #225
 1383 0022 30D0     		beq	.L103
 1384 0024 E22B     		cmp	r3, #226
 1385 0026 33D0     		beq	.L104
 1386 0028 E02B     		cmp	r3, #224
 1387 002a 2AD0     		beq	.L112
 1388 002c 0020     		movs	r0, #0
 1389 002e 3CE0     		b	.L89
 1390              	.LVL118:
 1391              	.L111:
 244:./Application/Src/menu.c ****           case FT_CMD_RAM_START: need = 2; break;   // [0xE0] [sentinel]
 1392              		.loc 1 244 9 is_stmt 0 view .LVU294
 1393              	.LBE18:
 223:./Application/Src/menu.c ****     {
 1394              		.loc 1 223 13 view .LVU295
 1395 0030 2378     		ldrb	r3, [r4]	@ zero_extendqisi2
 222:./Application/Src/menu.c ****         data[0] >= 0xF0 && data[0] <= 0xF3)
 1396              		.loc 1 222 49 discriminator 2 view .LVU296
 1397 0032 EF2B     		cmp	r3, #239
 1398 0034 EDD9     		bls	.L91
 223:./Application/Src/menu.c ****     {
 1399              		.loc 1 223 25 view .LVU297
 1400 0036 F32B     		cmp	r3, #243
 1401 0038 EBD8     		bhi	.L91
 1402              	.LBB19:
 225:./Application/Src/menu.c ****         switch (data[0]) {
 1403              		.loc 1 225 9 is_stmt 1 view .LVU298
 1404              	.LVL119:
 226:./Application/Src/menu.c ****           case FT_CMD_FILE_START: need = FT_FILE_START_SIZE; break;
 1405              		.loc 1 226 9 view .LVU299
 1406 003a F22B     		cmp	r3, #242
 1407 003c 11D0     		beq	.L98
 1408 003e 0AD8     		bhi	.L93
ARM GAS  C:\Users\Xuleo\AppData\Local\Temp\cc2YNAUe.s 			page 37


 1409 0040 F02B     		cmp	r3, #240
 1410 0042 13D0     		beq	.L99
 1411 0044 F12B     		cmp	r3, #241
 1412 0046 04D1     		bne	.L113
 228:./Application/Src/menu.c ****           case FT_CMD_FILE_END:   need = FT_FILE_END_SIZE; break;
 1413              		.loc 1 228 35 view .LVU300
 228:./Application/Src/menu.c ****           case FT_CMD_FILE_END:   need = FT_FILE_END_SIZE; break;
 1414              		.loc 1 228 40 is_stmt 0 view .LVU301
 1415 0048 032D     		cmp	r5, #3
 1416 004a 11D9     		bls	.L101
 228:./Application/Src/menu.c ****           case FT_CMD_FILE_END:   need = FT_FILE_END_SIZE; break;
 1417              		.loc 1 228 74 discriminator 1 view .LVU302
 1418 004c E378     		ldrb	r3, [r4, #3]	@ zero_extendqisi2
 228:./Application/Src/menu.c ****           case FT_CMD_FILE_END:   need = FT_FILE_END_SIZE; break;
 1419              		.loc 1 228 40 discriminator 1 view .LVU303
 1420 004e 0533     		adds	r3, r3, #5
 1421              	.LVL120:
 232:./Application/Src/menu.c ****             return 0; /* not enough bytes yet */
 1422              		.loc 1 232 9 is_stmt 1 view .LVU304
 1423 0050 08E0     		b	.L92
 1424              	.LVL121:
 1425              	.L113:
 226:./Application/Src/menu.c ****           case FT_CMD_FILE_START: need = FT_FILE_START_SIZE; break;
 1426              		.loc 1 226 9 is_stmt 0 view .LVU305
 1427 0052 0020     		movs	r0, #0
 1428 0054 29E0     		b	.L89
 1429              	.L93:
 1430 0056 F32B     		cmp	r3, #243
 1431 0058 01D1     		bne	.L114
 1432 005a 0223     		movs	r3, #2
 1433 005c 02E0     		b	.L92
 1434              	.L114:
 1435 005e 0020     		movs	r0, #0
 1436 0060 23E0     		b	.L89
 1437              	.L98:
 229:./Application/Src/menu.c ****           case FT_CMD_FILE_ABORT: need = FT_FILE_ABORT_SIZE; break;
 1438              		.loc 1 229 40 view .LVU306
 1439 0062 0423     		movs	r3, #4
 1440              	.LVL122:
 1441              	.L92:
 232:./Application/Src/menu.c ****             return 0; /* not enough bytes yet */
 1442              		.loc 1 232 23 discriminator 1 view .LVU307
 1443 0064 AB42     		cmp	r3, r5
 1444 0066 06D9     		bls	.L115
 233:./Application/Src/menu.c **** 
 1445              		.loc 1 233 20 view .LVU308
 1446 0068 0020     		movs	r0, #0
 1447 006a 1EE0     		b	.L89
 1448              	.LVL123:
 1449              	.L99:
 227:./Application/Src/menu.c ****           case FT_CMD_FILE_DATA:  need = (len >= 4) ? (uint16_t)(5 + data[3]) : 0xFFFF; break;
 1450              		.loc 1 227 40 view .LVU309
 1451 006c 1223     		movs	r3, #18
 1452 006e F9E7     		b	.L92
 1453              	.L101:
 228:./Application/Src/menu.c ****           case FT_CMD_FILE_END:   need = FT_FILE_END_SIZE; break;
 1454              		.loc 1 228 40 discriminator 2 view .LVU310
ARM GAS  C:\Users\Xuleo\AppData\Local\Temp\cc2YNAUe.s 			page 38


 1455 0070 4FF6FF73 		movw	r3, #65535
 1456 0074 F6E7     		b	.L92
 1457              	.LVL124:
 1458              	.L115:
 235:./Application/Src/menu.c ****         return 1;
 1459              		.loc 1 235 9 is_stmt 1 view .LVU311
 1460 0076 2946     		mov	r1, r5
 1461 0078 2046     		mov	r0, r4
 1462 007a FFF7FEFF 		bl	menu_process_message
 1463              	.LVL125:
 236:./Application/Src/menu.c ****     }
 1464              		.loc 1 236 9 view .LVU312
 236:./Application/Src/menu.c ****     }
 1465              		.loc 1 236 16 is_stmt 0 view .LVU313
 1466 007e 0120     		movs	r0, #1
 1467 0080 13E0     		b	.L89
 1468              	.LVL126:
 1469              	.L112:
 236:./Application/Src/menu.c ****     }
 1470              		.loc 1 236 16 view .LVU314
 1471              	.LBE19:
 1472              	.LBB20:
 244:./Application/Src/menu.c ****           case FT_CMD_RAM_START: need = 2; break;   // [0xE0] [sentinel]
 1473              		.loc 1 244 9 view .LVU315
 1474 0082 0223     		movs	r3, #2
 1475 0084 00E0     		b	.L96
 1476              	.L103:
 246:./Application/Src/menu.c ****           case FT_CMD_RAM_END:   need = 2; break;   // [0xE2] [sentinel]
 1477              		.loc 1 246 39 view .LVU316
 1478 0086 1C23     		movs	r3, #28
 1479              	.L96:
 1480              	.LVL127:
 249:./Application/Src/menu.c ****             return 0; /* not enough bytes yet */
 1481              		.loc 1 249 23 discriminator 1 view .LVU317
 1482 0088 AB42     		cmp	r3, r5
 1483 008a 03D9     		bls	.L116
 250:./Application/Src/menu.c **** 
 1484              		.loc 1 250 20 view .LVU318
 1485 008c 0020     		movs	r0, #0
 1486 008e 0CE0     		b	.L89
 1487              	.LVL128:
 1488              	.L104:
 244:./Application/Src/menu.c ****           case FT_CMD_RAM_START: need = 2; break;   // [0xE0] [sentinel]
 1489              		.loc 1 244 9 view .LVU319
 1490 0090 0223     		movs	r3, #2
 1491 0092 F9E7     		b	.L96
 1492              	.LVL129:
 1493              	.L116:
 252:./Application/Src/menu.c ****         return 1;
 1494              		.loc 1 252 9 is_stmt 1 view .LVU320
 1495 0094 2946     		mov	r1, r5
 1496 0096 2046     		mov	r0, r4
 1497 0098 FFF7FEFF 		bl	menu_process_message
 1498              	.LVL130:
 253:./Application/Src/menu.c ****     }
 1499              		.loc 1 253 9 view .LVU321
 253:./Application/Src/menu.c ****     }
ARM GAS  C:\Users\Xuleo\AppData\Local\Temp\cc2YNAUe.s 			page 39


 1500              		.loc 1 253 16 is_stmt 0 view .LVU322
 1501 009c 0120     		movs	r0, #1
 1502 009e 04E0     		b	.L89
 1503              	.L95:
 253:./Application/Src/menu.c ****     }
 1504              		.loc 1 253 16 view .LVU323
 1505              	.LBE20:
 257:./Application/Src/menu.c ****     return 1;
 1506              		.loc 1 257 5 is_stmt 1 view .LVU324
 1507 00a0 2946     		mov	r1, r5
 1508 00a2 2046     		mov	r0, r4
 1509 00a4 FFF7FEFF 		bl	menu_process_message
 1510              	.LVL131:
 258:./Application/Src/menu.c **** }
 1511              		.loc 1 258 5 view .LVU325
 258:./Application/Src/menu.c **** }
 1512              		.loc 1 258 12 is_stmt 0 view .LVU326
 1513 00a8 0120     		movs	r0, #1
 1514              	.L89:
 259:./Application/Src/menu.c **** 
 1515              		.loc 1 259 1 view .LVU327
 1516 00aa 38BD     		pop	{r3, r4, r5, pc}
 1517              	.LVL132:
 1518              	.L97:
 1519              	.LCFI21:
 1520              		.cfi_def_cfa_offset 0
 1521              		.cfi_restore 3
 1522              		.cfi_restore 4
 1523              		.cfi_restore 5
 1524              		.cfi_restore 14
 219:./Application/Src/menu.c **** 
 1525              		.loc 1 219 26 discriminator 1 view .LVU328
 1526 00ac 0846     		mov	r0, r1
 1527              	.LVL133:
 259:./Application/Src/menu.c **** 
 1528              		.loc 1 259 1 view .LVU329
 1529 00ae 7047     		bx	lr
 1530              		.cfi_endproc
 1531              	.LFE363:
 1533              		.section	.rodata.menu_init.str1.4,"aMS",%progbits,1
 1534              		.align	2
 1535              	.LC34:
 1536 0000 454C4543 		.ascii	"ELEC391 Piano Bot       \000"
 1536      33393120 
 1536      5069616E 
 1536      6F20426F 
 1536      74202020 
 1537              		.section	.text.menu_init,"ax",%progbits
 1538              		.align	1
 1539              		.global	menu_init
 1540              		.syntax unified
 1541              		.thumb
 1542              		.thumb_func
 1544              	menu_init:
 1545              	.LFB367:
 394:./Application/Src/menu.c **** 
 395:./Application/Src/menu.c **** void menu_init(void)
ARM GAS  C:\Users\Xuleo\AppData\Local\Temp\cc2YNAUe.s 			page 40


 396:./Application/Src/menu.c **** {
 1546              		.loc 1 396 1 is_stmt 1 view -0
 1547              		.cfi_startproc
 1548              		@ args = 0, pretend = 0, frame = 0
 1549              		@ frame_needed = 0, uses_anonymous_args = 0
 1550 0000 00B5     		push	{lr}
 1551              	.LCFI22:
 1552              		.cfi_def_cfa_offset 4
 1553              		.cfi_offset 14, -4
 1554 0002 83B0     		sub	sp, sp, #12
 1555              	.LCFI23:
 1556              		.cfi_def_cfa_offset 16
 397:./Application/Src/menu.c ****     LCD_draw_string(0, 0, "ELEC391 Piano Bot       ", COLOR_BLACK, COLOR_WHITE);
 1557              		.loc 1 397 5 view .LVU331
 1558 0004 4FF6FF73 		movw	r3, #65535
 1559 0008 0093     		str	r3, [sp]
 1560 000a 0023     		movs	r3, #0
 1561 000c 084A     		ldr	r2, .L119
 1562 000e 1946     		mov	r1, r3
 1563 0010 1846     		mov	r0, r3
 1564 0012 FFF7FEFF 		bl	LCD_draw_string
 1565              	.LVL134:
 398:./Application/Src/menu.c ****     menu_state = MENU_STATE_MAIN;
 1566              		.loc 1 398 5 view .LVU332
 1567              		.loc 1 398 16 is_stmt 0 view .LVU333
 1568 0016 0023     		movs	r3, #0
 1569 0018 064A     		ldr	r2, .L119+4
 1570 001a 1370     		strb	r3, [r2]
 399:./Application/Src/menu.c ****     menu_index = 0;
 1571              		.loc 1 399 5 is_stmt 1 view .LVU334
 1572              		.loc 1 399 16 is_stmt 0 view .LVU335
 1573 001c 064A     		ldr	r2, .L119+8
 1574 001e 1360     		str	r3, [r2]
 400:./Application/Src/menu.c ****     page_dirty = 1;
 1575              		.loc 1 400 5 is_stmt 1 view .LVU336
 1576              		.loc 1 400 16 is_stmt 0 view .LVU337
 1577 0020 064B     		ldr	r3, .L119+12
 1578 0022 0122     		movs	r2, #1
 1579 0024 1A60     		str	r2, [r3]
 401:./Application/Src/menu.c ****     menu_draw_main();
 1580              		.loc 1 401 5 is_stmt 1 view .LVU338
 1581 0026 FFF7FEFF 		bl	menu_draw_main
 1582              	.LVL135:
 402:./Application/Src/menu.c **** }
 1583              		.loc 1 402 1 is_stmt 0 view .LVU339
 1584 002a 03B0     		add	sp, sp, #12
 1585              	.LCFI24:
 1586              		.cfi_def_cfa_offset 4
 1587              		@ sp needed
 1588 002c 00BD     		pop	{pc}
 1589              	.L120:
 1590 002e 00BF     		.align	2
 1591              	.L119:
 1592 0030 00000000 		.word	.LC34
 1593 0034 00000000 		.word	menu_state
 1594 0038 00000000 		.word	menu_index
 1595 003c 00000000 		.word	page_dirty
ARM GAS  C:\Users\Xuleo\AppData\Local\Temp\cc2YNAUe.s 			page 41


 1596              		.cfi_endproc
 1597              	.LFE367:
 1599              		.section	.rodata.menu_update.str1.4,"aMS",%progbits,1
 1600              		.align	2
 1601              	.LC35:
 1602 0000 486F6D69 		.ascii	"Homing...               \000"
 1602      6E672E2E 
 1602      2E202020 
 1602      20202020 
 1602      20202020 
 1603 0019 000000   		.align	2
 1604              	.LC36:
 1605 001c 486F6D69 		.ascii	"Homing done!            \000"
 1605      6E672064 
 1605      6F6E6521 
 1605      20202020 
 1605      20202020 
 1606 0035 000000   		.align	2
 1607              	.LC37:
 1608 0038 20202020 		.ascii	"                         \000"
 1608      20202020 
 1608      20202020 
 1608      20202020 
 1608      20202020 
 1609 0052 0000     		.align	2
 1610              	.LC38:
 1611 0054 53656C65 		.ascii	"Selected: %-12s  \000"
 1611      63746564 
 1611      3A20252D 
 1611      31327320 
 1611      2000
 1612 0066 0000     		.align	2
 1613              	.LC39:
 1614 0068 50617273 		.ascii	"Parsing song...         \000"
 1614      696E6720 
 1614      736F6E67 
 1614      2E2E2E20 
 1614      20202020 
 1615 0081 000000   		.align	2
 1616              	.LC40:
 1617 0084 536F6E67 		.ascii	"Song ready to play!    \000"
 1617      20726561 
 1617      64792074 
 1617      6F20706C 
 1617      61792120 
 1618              		.align	2
 1619              	.LC41:
 1620 009c 5B446562 		.ascii	"[Debug] :a to go back   \000"
 1620      75675D20 
 1620      3A612074 
 1620      6F20676F 
 1620      20626163 
 1621 00b5 000000   		.align	2
 1622              	.LC42:
 1623 00b8 456E6331 		.ascii	"Enc1: %ld  Enc2: %ld      \000"
 1623      3A20256C 
 1623      64202045 
ARM GAS  C:\Users\Xuleo\AppData\Local\Temp\cc2YNAUe.s 			page 42


 1623      6E63323A 
 1623      20256C64 
 1624 00d3 00       		.align	2
 1625              	.LC43:
 1626 00d4 54617231 		.ascii	"Tar1: %.2f Tar2: %.2f  \000"
 1626      3A20252E 
 1626      32662054 
 1626      6172323A 
 1626      20252E32 
 1627              		.align	2
 1628              	.LC44:
 1629 00ec 506F7331 		.ascii	"Pos1: %.2f Pos2: %.2f  \000"
 1629      3A20252E 
 1629      32662050 
 1629      6F73323A 
 1629      20252E32 
 1630              		.align	2
 1631              	.LC45:
 1632 0104 4C3A2025 		.ascii	"L: %.3f %.3f %.3f  \000"
 1632      2E336620 
 1632      252E3366 
 1632      20252E33 
 1632      66202000 
 1633              		.align	2
 1634              	.LC46:
 1635 0118 523A2025 		.ascii	"R: %.3f %.3f %.3f  \000"
 1635      2E336620 
 1635      252E3366 
 1635      20252E33 
 1635      66202000 
 1636              		.section	.text.menu_update,"ax",%progbits
 1637              		.align	1
 1638              		.global	menu_update
 1639              		.syntax unified
 1640              		.thumb
 1641              		.thumb_func
 1643              	menu_update:
 1644              	.LFB368:
 403:./Application/Src/menu.c **** 
 404:./Application/Src/menu.c **** void menu_update(void)
 405:./Application/Src/menu.c **** {
 1645              		.loc 1 405 1 is_stmt 1 view -0
 1646              		.cfi_startproc
 1647              		@ args = 0, pretend = 0, frame = 32
 1648              		@ frame_needed = 0, uses_anonymous_args = 0
 1649 0000 70B5     		push	{r4, r5, r6, lr}
 1650              	.LCFI25:
 1651              		.cfi_def_cfa_offset 16
 1652              		.cfi_offset 4, -16
 1653              		.cfi_offset 5, -12
 1654              		.cfi_offset 6, -8
 1655              		.cfi_offset 14, -4
 1656 0002 2DED028B 		vpush.64	{d8}
 1657              	.LCFI26:
 1658              		.cfi_def_cfa_offset 24
 1659              		.cfi_offset 80, -24
 1660              		.cfi_offset 81, -20
ARM GAS  C:\Users\Xuleo\AppData\Local\Temp\cc2YNAUe.s 			page 43


 1661 0006 8EB0     		sub	sp, sp, #56
 1662              	.LCFI27:
 1663              		.cfi_def_cfa_offset 80
 406:./Application/Src/menu.c **** 
 407:./Application/Src/menu.c ****     // char line_buf[32];
 408:./Application/Src/menu.c ****     /* ---- Handle BACK in any sub-page ---- */
 409:./Application/Src/menu.c ****     if (menu_back)
 1664              		.loc 1 409 5 view .LVU341
 1665              		.loc 1 409 9 is_stmt 0 view .LVU342
 1666 0008 9B4B     		ldr	r3, .L166
 1667 000a 1B68     		ldr	r3, [r3]
 1668              		.loc 1 409 8 view .LVU343
 1669 000c 3BB1     		cbz	r3, .L122
 410:./Application/Src/menu.c ****     {
 411:./Application/Src/menu.c ****         menu_back = 0;
 1670              		.loc 1 411 9 is_stmt 1 view .LVU344
 1671              		.loc 1 411 19 is_stmt 0 view .LVU345
 1672 000e 9A4B     		ldr	r3, .L166
 1673 0010 0022     		movs	r2, #0
 1674 0012 1A60     		str	r2, [r3]
 412:./Application/Src/menu.c ****         if (menu_state != MENU_STATE_MAIN)
 1675              		.loc 1 412 9 is_stmt 1 view .LVU346
 1676              		.loc 1 412 24 is_stmt 0 view .LVU347
 1677 0014 994B     		ldr	r3, .L166+4
 1678 0016 1B78     		ldrb	r3, [r3]	@ zero_extendqisi2
 1679              		.loc 1 412 12 view .LVU348
 1680 0018 002B     		cmp	r3, #0
 1681 001a 40F09A80 		bne	.L157
 1682              	.L122:
 413:./Application/Src/menu.c ****         {
 414:./Application/Src/menu.c ****             /* If a transfer is in progress, abort it before leaving */
 415:./Application/Src/menu.c ****             if (menu_state == MENU_STATE_TRANSMIT && FT_GetState() == FT_STATE_RECEIVING)
 416:./Application/Src/menu.c ****             {
 417:./Application/Src/menu.c ****                 FT_Abort();
 418:./Application/Src/menu.c ****             }
 419:./Application/Src/menu.c ****             if (menu_state == MENU_STATE_TRANSMIT_RAM)
 420:./Application/Src/menu.c ****             {
 421:./Application/Src/menu.c ****                 ram_rx_started = 0;
 422:./Application/Src/menu.c ****                 ram_rx_complete = 0;
 423:./Application/Src/menu.c ****                 ram_rx_offset = 0;
 424:./Application/Src/menu.c ****                 redirect_to_ram = 0;
 425:./Application/Src/menu.c ****             }
 426:./Application/Src/menu.c ****             uart_binary_mode = 0;
 427:./Application/Src/menu.c ****             menu_state = MENU_STATE_MAIN;
 428:./Application/Src/menu.c ****             menu_index = 0;
 429:./Application/Src/menu.c ****             page_dirty = 1;
 430:./Application/Src/menu.c ****             clear_menu_area();
 431:./Application/Src/menu.c ****             menu_draw_main();
 432:./Application/Src/menu.c ****             /* Consume stale nav flags */
 433:./Application/Src/menu.c ****             menu_move_down = 0;
 434:./Application/Src/menu.c ****             menu_move_up = 0;
 435:./Application/Src/menu.c ****             menu_enter = 0;
 436:./Application/Src/menu.c ****             return;
 437:./Application/Src/menu.c ****         }
 438:./Application/Src/menu.c ****     }
 439:./Application/Src/menu.c **** 
 440:./Application/Src/menu.c ****     /* ---- State-specific update ---- */
ARM GAS  C:\Users\Xuleo\AppData\Local\Temp\cc2YNAUe.s 			page 44


 441:./Application/Src/menu.c ****     switch (menu_state)
 1683              		.loc 1 441 5 is_stmt 1 view .LVU349
 1684 001e 974B     		ldr	r3, .L166+4
 1685 0020 1B78     		ldrb	r3, [r3]	@ zero_extendqisi2
 1686 0022 022B     		cmp	r3, #2
 1687 0024 00F07F81 		beq	.L126
 1688 0028 40F2C080 		bls	.L158
 1689 002c 032B     		cmp	r3, #3
 1690 002e 00F07D81 		beq	.L131
 1691 0032 042B     		cmp	r3, #4
 1692 0034 40F06B81 		bne	.L130
 1693              	.LBB21:
 442:./Application/Src/menu.c ****     {
 443:./Application/Src/menu.c **** 
 444:./Application/Src/menu.c ****     /* ===== MAIN MENU ===== */
 445:./Application/Src/menu.c ****     case MENU_STATE_MAIN:
 446:./Application/Src/menu.c ****         /* Navigation */
 447:./Application/Src/menu.c ****         if (menu_move_down)
 448:./Application/Src/menu.c ****         {
 449:./Application/Src/menu.c ****             menu_index++;
 450:./Application/Src/menu.c ****             if (menu_index > 5)
 451:./Application/Src/menu.c ****                 menu_index = 0;
 452:./Application/Src/menu.c ****         }
 453:./Application/Src/menu.c ****         if (menu_move_up)
 454:./Application/Src/menu.c ****         {
 455:./Application/Src/menu.c ****             menu_index--;
 456:./Application/Src/menu.c ****             if (menu_index < 0)
 457:./Application/Src/menu.c ****                 menu_index = 5;
 458:./Application/Src/menu.c ****         }
 459:./Application/Src/menu.c **** 
 460:./Application/Src/menu.c ****         /* Enter */
 461:./Application/Src/menu.c ****         if (menu_enter)
 462:./Application/Src/menu.c ****         {
 463:./Application/Src/menu.c ****             menu_enter = 0;
 464:./Application/Src/menu.c ****             switch (menu_index)
 465:./Application/Src/menu.c ****             {
 466:./Application/Src/menu.c ****                 case 0: /* Play Song */
 467:./Application/Src/menu.c ****                     traversal(); // just play the song, select and pull song from SD card in handle
 468:./Application/Src/menu.c ****                     break;
 469:./Application/Src/menu.c ****                 case 1: /* Transmit Song to SD card */
 470:./Application/Src/menu.c ****                     menu_state = MENU_STATE_TRANSMIT;
 471:./Application/Src/menu.c ****                     page_dirty = 1;
 472:./Application/Src/menu.c ****                     uart_binary_mode = 1;
 473:./Application/Src/menu.c ****                     FT_Init(); /* Reset transfer state */
 474:./Application/Src/menu.c ****                     break;
 475:./Application/Src/menu.c ****                 case 2: /* Transmit Song to RAM */
 476:./Application/Src/menu.c ****                     menu_state = MENU_STATE_TRANSMIT_RAM;
 477:./Application/Src/menu.c ****                     page_dirty = 1;
 478:./Application/Src/menu.c ****                     uart_binary_mode = 1;
 479:./Application/Src/menu.c ****                     redirect_to_ram = 1;
 480:./Application/Src/menu.c ****                     ram_rx_started = 0;
 481:./Application/Src/menu.c ****                     ram_rx_complete = 0;
 482:./Application/Src/menu.c ****                     ram_rx_offset = 0;
 483:./Application/Src/menu.c ****                     break;
 484:./Application/Src/menu.c ****                 case 3: /* Select Song */
 485:./Application/Src/menu.c ****                     menu_state = MENU_STATE_SELECT;
 486:./Application/Src/menu.c ****                     page_dirty = 1;
ARM GAS  C:\Users\Xuleo\AppData\Local\Temp\cc2YNAUe.s 			page 45


 487:./Application/Src/menu.c ****                     break;
 488:./Application/Src/menu.c ****                 case 4: /* Homing */
 489:./Application/Src/menu.c ****                     LCD_draw_string(0, 9, "Homing...               ", COLOR_BLACK, COLOR_WHITE);
 490:./Application/Src/menu.c ****                     homing_procedure();
 491:./Application/Src/menu.c ****                     LCD_draw_string(0, 9, "Homing done!            ", COLOR_BLACK, COLOR_WHITE);
 492:./Application/Src/menu.c ****                     break;
 493:./Application/Src/menu.c ****                 case 5: /* Debug */
 494:./Application/Src/menu.c ****                     menu_state = MENU_STATE_DEBUG;
 495:./Application/Src/menu.c ****                     page_dirty = 1;
 496:./Application/Src/menu.c ****                     break;
 497:./Application/Src/menu.c ****             }
 498:./Application/Src/menu.c ****         }
 499:./Application/Src/menu.c **** 
 500:./Application/Src/menu.c ****         else{
 501:./Application/Src/menu.c ****             for(int i = 9; i<14; i++)
 502:./Application/Src/menu.c ****                 LCD_draw_string(0, i,  "                         ", COLOR_BLACK, COLOR_WHITE);
 503:./Application/Src/menu.c ****         }
 504:./Application/Src/menu.c **** 
 505:./Application/Src/menu.c ****         menu_draw_main();
 506:./Application/Src/menu.c ****         break;
 507:./Application/Src/menu.c **** 
 508:./Application/Src/menu.c ****     /* ===== TRANSMIT SONG PAGE ===== */
 509:./Application/Src/menu.c ****     case MENU_STATE_TRANSMIT:
 510:./Application/Src/menu.c ****         /* No navigation needed; just show transfer status */
 511:./Application/Src/menu.c ****         menu_draw_transmit();
 512:./Application/Src/menu.c ****         /* Check transfer timeout */
 513:./Application/Src/menu.c ****         FT_TimeoutCheck();
 514:./Application/Src/menu.c ****         break;
 515:./Application/Src/menu.c **** 
 516:./Application/Src/menu.c ****     case MENU_STATE_TRANSMIT_RAM:
 517:./Application/Src/menu.c ****         /* No navigation needed; just show transfer status */
 518:./Application/Src/menu.c ****         menu_draw_transmit_ram();
 519:./Application/Src/menu.c ****         break;
 520:./Application/Src/menu.c **** 
 521:./Application/Src/menu.c ****     /* ===== SELECT SONG PAGE ===== */
 522:./Application/Src/menu.c ****     case MENU_STATE_SELECT:
 523:./Application/Src/menu.c ****         /* Navigation through file list */
 524:./Application/Src/menu.c ****         if (menu_move_down)
 525:./Application/Src/menu.c ****         {
 526:./Application/Src/menu.c ****             select_song_index++;
 527:./Application/Src/menu.c ****             if (select_song_index >= fileCount)
 528:./Application/Src/menu.c ****                 select_song_index = 0;
 529:./Application/Src/menu.c ****             /* Adjust scroll window */
 530:./Application/Src/menu.c ****             if (select_song_index >= select_scroll_offset + 5)
 531:./Application/Src/menu.c ****                 select_scroll_offset = select_song_index - 4;
 532:./Application/Src/menu.c ****             if (select_song_index < select_scroll_offset)
 533:./Application/Src/menu.c ****                 select_scroll_offset = select_song_index;
 534:./Application/Src/menu.c ****             /* Handle wrap-around */
 535:./Application/Src/menu.c ****             if (select_song_index == 0)
 536:./Application/Src/menu.c ****                 select_scroll_offset = 0;
 537:./Application/Src/menu.c ****         }
 538:./Application/Src/menu.c ****         if (menu_move_up)
 539:./Application/Src/menu.c ****         {
 540:./Application/Src/menu.c ****             select_song_index--;
 541:./Application/Src/menu.c ****             if (select_song_index < 0)
 542:./Application/Src/menu.c ****                 select_song_index = fileCount - 1;
 543:./Application/Src/menu.c ****             /* Adjust scroll window */
ARM GAS  C:\Users\Xuleo\AppData\Local\Temp\cc2YNAUe.s 			page 46


 544:./Application/Src/menu.c ****             if (select_song_index < select_scroll_offset)
 545:./Application/Src/menu.c ****                 select_scroll_offset = select_song_index;
 546:./Application/Src/menu.c ****             if (select_song_index >= select_scroll_offset + 5)
 547:./Application/Src/menu.c ****                 select_scroll_offset = select_song_index - 4;
 548:./Application/Src/menu.c ****             /* Handle wrap-around */
 549:./Application/Src/menu.c ****             if (select_song_index == fileCount - 1)
 550:./Application/Src/menu.c ****                 select_scroll_offset = (fileCount > 5) ? fileCount - 5 : 0;
 551:./Application/Src/menu.c ****         }
 552:./Application/Src/menu.c **** 
 553:./Application/Src/menu.c ****         /* Select a song */
 554:./Application/Src/menu.c ****         if (menu_enter)
 555:./Application/Src/menu.c ****         {
 556:./Application/Src/menu.c ****             menu_enter = 0;
 557:./Application/Src/menu.c ****             if (fileCount > 0)
 558:./Application/Src/menu.c ****             {
 559:./Application/Src/menu.c ****                 active_song_index = select_song_index;
 560:./Application/Src/menu.c ****                 char buf[25];
 561:./Application/Src/menu.c ****                 snprintf(buf, sizeof(buf), "Selected: %-12s  ", fileList[active_song_index].name);
 562:./Application/Src/menu.c ****                 LCD_draw_string(0, 9, buf, COLOR_BLACK, COLOR_WHITE);
 563:./Application/Src/menu.c ****                 // block and parse:
 564:./Application/Src/menu.c ****                 LCD_draw_string(0, 10, "Parsing song...         ", COLOR_BLACK, COLOR_WHITE);
 565:./Application/Src/menu.c ****                 sd_parse_array(fileList[active_song_index].name);
 566:./Application/Src/menu.c ****                 LCD_draw_string(0, 10, "Song ready to play!    ", COLOR_BLACK, COLOR_WHITE);
 567:./Application/Src/menu.c ****             }
 568:./Application/Src/menu.c ****         }
 569:./Application/Src/menu.c **** 
 570:./Application/Src/menu.c ****         menu_draw_select();
 571:./Application/Src/menu.c ****         break;
 572:./Application/Src/menu.c **** 
 573:./Application/Src/menu.c ****     /* ===== DEBUG PAGE ===== */
 574:./Application/Src/menu.c ****     case MENU_STATE_DEBUG:
 575:./Application/Src/menu.c ****     {
 576:./Application/Src/menu.c ****         if (page_dirty) {
 1694              		.loc 1 576 9 view .LVU350
 1695              		.loc 1 576 13 is_stmt 0 view .LVU351
 1696 0038 914B     		ldr	r3, .L166+8
 1697 003a 1B68     		ldr	r3, [r3]
 1698              		.loc 1 576 12 view .LVU352
 1699 003c 002B     		cmp	r3, #0
 1700 003e 40F0FB81 		bne	.L159
 1701              	.L154:
 577:./Application/Src/menu.c ****             clear_menu_area();
 578:./Application/Src/menu.c ****             LCD_draw_string(0, 1, "[Debug] :a to go back   ", COLOR_BLACK, COLOR_WHITE);
 579:./Application/Src/menu.c ****             page_dirty = 0;
 580:./Application/Src/menu.c ****         }
 581:./Application/Src/menu.c ****         char dbg[25];
 1702              		.loc 1 581 9 is_stmt 1 view .LVU353
 582:./Application/Src/menu.c ****         snprintf(dbg, sizeof(dbg), "Enc1: %ld  Enc2: %ld      ", left_motor.encoder_cnt, right_moto
 1703              		.loc 1 582 9 view .LVU354
 1704 0042 904C     		ldr	r4, .L166+12
 1705 0044 2369     		ldr	r3, [r4, #16]
 1706 0046 0093     		str	r3, [sp]
 1707 0048 8F4D     		ldr	r5, .L166+16
 1708 004a 2B69     		ldr	r3, [r5, #16]
 1709 004c 8F4A     		ldr	r2, .L166+20
 1710 004e 1921     		movs	r1, #25
 1711 0050 07A8     		add	r0, sp, #28
ARM GAS  C:\Users\Xuleo\AppData\Local\Temp\cc2YNAUe.s 			page 47


 1712 0052 FFF7FEFF 		bl	snprintf
 1713              	.LVL136:
 583:./Application/Src/menu.c ****         LCD_draw_string(0, 2, dbg, COLOR_BLACK, COLOR_WHITE);
 1714              		.loc 1 583 9 view .LVU355
 1715 0056 4FF6FF76 		movw	r6, #65535
 1716 005a 0096     		str	r6, [sp]
 1717 005c 0023     		movs	r3, #0
 1718 005e 07AA     		add	r2, sp, #28
 1719 0060 0221     		movs	r1, #2
 1720 0062 1846     		mov	r0, r3
 1721 0064 FFF7FEFF 		bl	LCD_draw_string
 1722              	.LVL137:
 584:./Application/Src/menu.c ****         snprintf(dbg, sizeof(dbg), "Tar1: %.2f Tar2: %.2f  ", left_motor.target_pos, right_motor.ta
 1723              		.loc 1 584 9 view .LVU356
 1724              		.loc 1 584 73 is_stmt 0 view .LVU357
 1725 0068 95ED058A 		vldr.32	s16, [r5, #20]
 1726              		.loc 1 584 9 view .LVU358
 1727 006c 6069     		ldr	r0, [r4, #20]	@ float
 1728 006e FFF7FEFF 		bl	__aeabi_f2d
 1729              	.LVL138:
 1730 0072 CDE90201 		strd	r0, [sp, #8]
 1731 0076 18EE100A 		vmov	r0, s16
 1732 007a FFF7FEFF 		bl	__aeabi_f2d
 1733              	.LVL139:
 1734 007e CDE90001 		strd	r0, [sp]
 1735 0082 834A     		ldr	r2, .L166+24
 1736 0084 1921     		movs	r1, #25
 1737 0086 07A8     		add	r0, sp, #28
 1738 0088 FFF7FEFF 		bl	snprintf
 1739              	.LVL140:
 585:./Application/Src/menu.c ****         LCD_draw_string(0, 3, dbg, COLOR_BLACK, COLOR_WHITE);
 1740              		.loc 1 585 9 is_stmt 1 view .LVU359
 1741 008c 0096     		str	r6, [sp]
 1742 008e 0023     		movs	r3, #0
 1743 0090 07AA     		add	r2, sp, #28
 1744 0092 0321     		movs	r1, #3
 1745 0094 1846     		mov	r0, r3
 1746 0096 FFF7FEFF 		bl	LCD_draw_string
 1747              	.LVL141:
 586:./Application/Src/menu.c ****         snprintf(dbg, sizeof(dbg), "Pos1: %.2f Pos2: %.2f  ", left_motor.current_pos, right_motor.c
 1748              		.loc 1 586 9 view .LVU360
 1749              		.loc 1 586 73 is_stmt 0 view .LVU361
 1750 009a 95ED068A 		vldr.32	s16, [r5, #24]
 1751              		.loc 1 586 9 view .LVU362
 1752 009e A069     		ldr	r0, [r4, #24]	@ float
 1753 00a0 FFF7FEFF 		bl	__aeabi_f2d
 1754              	.LVL142:
 1755 00a4 CDE90201 		strd	r0, [sp, #8]
 1756 00a8 18EE100A 		vmov	r0, s16
 1757 00ac FFF7FEFF 		bl	__aeabi_f2d
 1758              	.LVL143:
 1759 00b0 CDE90001 		strd	r0, [sp]
 1760 00b4 774A     		ldr	r2, .L166+28
 1761 00b6 1921     		movs	r1, #25
 1762 00b8 07A8     		add	r0, sp, #28
 1763 00ba FFF7FEFF 		bl	snprintf
 1764              	.LVL144:
ARM GAS  C:\Users\Xuleo\AppData\Local\Temp\cc2YNAUe.s 			page 48


 587:./Application/Src/menu.c ****         LCD_draw_string(0, 4, dbg, COLOR_BLACK, COLOR_WHITE);
 1765              		.loc 1 587 9 is_stmt 1 view .LVU363
 1766 00be 0096     		str	r6, [sp]
 1767 00c0 0023     		movs	r3, #0
 1768 00c2 07AA     		add	r2, sp, #28
 1769 00c4 0421     		movs	r1, #4
 1770 00c6 1846     		mov	r0, r3
 1771 00c8 FFF7FEFF 		bl	LCD_draw_string
 1772              	.LVL145:
 588:./Application/Src/menu.c ****         snprintf(dbg, sizeof(dbg), "L: %.3f %.3f %.3f  ", left_motor.Kp, left_motor.Ki, left_motor.
 1773              		.loc 1 588 9 view .LVU364
 1774              		.loc 1 588 69 is_stmt 0 view .LVU365
 1775 00cc 95ED008A 		vldr.32	s16, [r5]
 1776              		.loc 1 588 84 view .LVU366
 1777 00d0 D5ED018A 		vldr.32	s17, [r5, #4]
 1778              		.loc 1 588 9 view .LVU367
 1779 00d4 A868     		ldr	r0, [r5, #8]	@ float
 1780 00d6 FFF7FEFF 		bl	__aeabi_f2d
 1781              	.LVL146:
 1782 00da CDE90401 		strd	r0, [sp, #16]
 1783 00de 18EE900A 		vmov	r0, s17
 1784 00e2 FFF7FEFF 		bl	__aeabi_f2d
 1785              	.LVL147:
 1786 00e6 CDE90201 		strd	r0, [sp, #8]
 1787 00ea 18EE100A 		vmov	r0, s16
 1788 00ee FFF7FEFF 		bl	__aeabi_f2d
 1789              	.LVL148:
 1790 00f2 CDE90001 		strd	r0, [sp]
 1791 00f6 684A     		ldr	r2, .L166+32
 1792 00f8 1921     		movs	r1, #25
 1793 00fa 07A8     		add	r0, sp, #28
 1794 00fc FFF7FEFF 		bl	snprintf
 1795              	.LVL149:
 589:./Application/Src/menu.c ****         LCD_draw_string(0, 5, dbg, COLOR_BLACK, COLOR_WHITE);
 1796              		.loc 1 589 9 is_stmt 1 view .LVU368
 1797 0100 0096     		str	r6, [sp]
 1798 0102 0023     		movs	r3, #0
 1799 0104 07AA     		add	r2, sp, #28
 1800 0106 0521     		movs	r1, #5
 1801 0108 1846     		mov	r0, r3
 1802 010a FFF7FEFF 		bl	LCD_draw_string
 1803              	.LVL150:
 590:./Application/Src/menu.c ****         snprintf(dbg, sizeof(dbg), "R: %.3f %.3f %.3f  ", right_motor.Kp, right_motor.Ki, right_mot
 1804              		.loc 1 590 9 view .LVU369
 1805              		.loc 1 590 70 is_stmt 0 view .LVU370
 1806 010e 94ED008A 		vldr.32	s16, [r4]
 1807              		.loc 1 590 86 view .LVU371
 1808 0112 D4ED018A 		vldr.32	s17, [r4, #4]
 1809              		.loc 1 590 9 view .LVU372
 1810 0116 A068     		ldr	r0, [r4, #8]	@ float
 1811 0118 FFF7FEFF 		bl	__aeabi_f2d
 1812              	.LVL151:
 1813 011c CDE90401 		strd	r0, [sp, #16]
 1814 0120 18EE900A 		vmov	r0, s17
 1815 0124 FFF7FEFF 		bl	__aeabi_f2d
 1816              	.LVL152:
 1817 0128 CDE90201 		strd	r0, [sp, #8]
ARM GAS  C:\Users\Xuleo\AppData\Local\Temp\cc2YNAUe.s 			page 49


 1818 012c 18EE100A 		vmov	r0, s16
 1819 0130 FFF7FEFF 		bl	__aeabi_f2d
 1820              	.LVL153:
 1821 0134 CDE90001 		strd	r0, [sp]
 1822 0138 584A     		ldr	r2, .L166+36
 1823 013a 1921     		movs	r1, #25
 1824 013c 07A8     		add	r0, sp, #28
 1825 013e FFF7FEFF 		bl	snprintf
 1826              	.LVL154:
 591:./Application/Src/menu.c ****         LCD_draw_string(0, 6, dbg, COLOR_BLACK, COLOR_WHITE);
 1827              		.loc 1 591 9 is_stmt 1 view .LVU373
 1828 0142 0096     		str	r6, [sp]
 1829 0144 0023     		movs	r3, #0
 1830 0146 07AA     		add	r2, sp, #28
 1831 0148 0621     		movs	r1, #6
 1832 014a 1846     		mov	r0, r3
 1833 014c FFF7FEFF 		bl	LCD_draw_string
 1834              	.LVL155:
 592:./Application/Src/menu.c ****         break;
 1835              		.loc 1 592 9 view .LVU374
 1836 0150 DDE0     		b	.L130
 1837              	.L157:
 1838              	.LBE21:
 415:./Application/Src/menu.c ****             {
 1839              		.loc 1 415 13 view .LVU375
 415:./Application/Src/menu.c ****             {
 1840              		.loc 1 415 16 is_stmt 0 view .LVU376
 1841 0152 012B     		cmp	r3, #1
 1842 0154 19D0     		beq	.L160
 1843              	.L123:
 419:./Application/Src/menu.c ****             {
 1844              		.loc 1 419 13 is_stmt 1 view .LVU377
 419:./Application/Src/menu.c ****             {
 1845              		.loc 1 419 28 is_stmt 0 view .LVU378
 1846 0156 494B     		ldr	r3, .L166+4
 1847 0158 1B78     		ldrb	r3, [r3]	@ zero_extendqisi2
 419:./Application/Src/menu.c ****             {
 1848              		.loc 1 419 16 view .LVU379
 1849 015a 022B     		cmp	r3, #2
 1850 015c 1CD0     		beq	.L161
 1851              	.L124:
 426:./Application/Src/menu.c ****             menu_state = MENU_STATE_MAIN;
 1852              		.loc 1 426 13 is_stmt 1 view .LVU380
 426:./Application/Src/menu.c ****             menu_state = MENU_STATE_MAIN;
 1853              		.loc 1 426 30 is_stmt 0 view .LVU381
 1854 015e 504B     		ldr	r3, .L166+40
 1855 0160 0022     		movs	r2, #0
 1856 0162 1A60     		str	r2, [r3]
 427:./Application/Src/menu.c ****             menu_index = 0;
 1857              		.loc 1 427 13 is_stmt 1 view .LVU382
 427:./Application/Src/menu.c ****             menu_index = 0;
 1858              		.loc 1 427 24 is_stmt 0 view .LVU383
 1859 0164 454B     		ldr	r3, .L166+4
 1860 0166 1A70     		strb	r2, [r3]
 428:./Application/Src/menu.c ****             page_dirty = 1;
 1861              		.loc 1 428 13 is_stmt 1 view .LVU384
 428:./Application/Src/menu.c ****             page_dirty = 1;
ARM GAS  C:\Users\Xuleo\AppData\Local\Temp\cc2YNAUe.s 			page 50


 1862              		.loc 1 428 24 is_stmt 0 view .LVU385
 1863 0168 4E4B     		ldr	r3, .L166+44
 1864 016a 0024     		movs	r4, #0
 1865 016c 1C60     		str	r4, [r3]
 429:./Application/Src/menu.c ****             clear_menu_area();
 1866              		.loc 1 429 13 is_stmt 1 view .LVU386
 429:./Application/Src/menu.c ****             clear_menu_area();
 1867              		.loc 1 429 24 is_stmt 0 view .LVU387
 1868 016e 444B     		ldr	r3, .L166+8
 1869 0170 0122     		movs	r2, #1
 1870 0172 1A60     		str	r2, [r3]
 430:./Application/Src/menu.c ****             menu_draw_main();
 1871              		.loc 1 430 13 is_stmt 1 view .LVU388
 1872 0174 FFF7FEFF 		bl	clear_menu_area
 1873              	.LVL156:
 431:./Application/Src/menu.c ****             /* Consume stale nav flags */
 1874              		.loc 1 431 13 view .LVU389
 1875 0178 FFF7FEFF 		bl	menu_draw_main
 1876              	.LVL157:
 433:./Application/Src/menu.c ****             menu_move_up = 0;
 1877              		.loc 1 433 13 view .LVU390
 433:./Application/Src/menu.c ****             menu_move_up = 0;
 1878              		.loc 1 433 28 is_stmt 0 view .LVU391
 1879 017c 4A4B     		ldr	r3, .L166+48
 1880 017e 1C60     		str	r4, [r3]
 434:./Application/Src/menu.c ****             menu_enter = 0;
 1881              		.loc 1 434 13 is_stmt 1 view .LVU392
 434:./Application/Src/menu.c ****             menu_enter = 0;
 1882              		.loc 1 434 26 is_stmt 0 view .LVU393
 1883 0180 4A4B     		ldr	r3, .L166+52
 1884 0182 1C60     		str	r4, [r3]
 435:./Application/Src/menu.c ****             return;
 1885              		.loc 1 435 13 is_stmt 1 view .LVU394
 435:./Application/Src/menu.c ****             return;
 1886              		.loc 1 435 24 is_stmt 0 view .LVU395
 1887 0184 4A4B     		ldr	r3, .L166+56
 1888 0186 1C60     		str	r4, [r3]
 436:./Application/Src/menu.c ****         }
 1889              		.loc 1 436 13 is_stmt 1 view .LVU396
 1890 0188 C6E0     		b	.L121
 1891              	.L160:
 415:./Application/Src/menu.c ****             {
 1892              		.loc 1 415 54 is_stmt 0 discriminator 1 view .LVU397
 1893 018a FFF7FEFF 		bl	FT_GetState
 1894              	.LVL158:
 415:./Application/Src/menu.c ****             {
 1895              		.loc 1 415 51 discriminator 2 view .LVU398
 1896 018e 0128     		cmp	r0, #1
 1897 0190 E1D1     		bne	.L123
 417:./Application/Src/menu.c ****             }
 1898              		.loc 1 417 17 is_stmt 1 view .LVU399
 1899 0192 FFF7FEFF 		bl	FT_Abort
 1900              	.LVL159:
 1901 0196 DEE7     		b	.L123
 1902              	.L161:
 421:./Application/Src/menu.c ****                 ram_rx_complete = 0;
 1903              		.loc 1 421 17 view .LVU400
ARM GAS  C:\Users\Xuleo\AppData\Local\Temp\cc2YNAUe.s 			page 51


 421:./Application/Src/menu.c ****                 ram_rx_complete = 0;
 1904              		.loc 1 421 32 is_stmt 0 view .LVU401
 1905 0198 0023     		movs	r3, #0
 1906 019a 464A     		ldr	r2, .L166+60
 1907 019c 1360     		str	r3, [r2]
 422:./Application/Src/menu.c ****                 ram_rx_offset = 0;
 1908              		.loc 1 422 17 is_stmt 1 view .LVU402
 422:./Application/Src/menu.c ****                 ram_rx_offset = 0;
 1909              		.loc 1 422 33 is_stmt 0 view .LVU403
 1910 019e 464A     		ldr	r2, .L166+64
 1911 01a0 1360     		str	r3, [r2]
 423:./Application/Src/menu.c ****                 redirect_to_ram = 0;
 1912              		.loc 1 423 17 is_stmt 1 view .LVU404
 423:./Application/Src/menu.c ****                 redirect_to_ram = 0;
 1913              		.loc 1 423 31 is_stmt 0 view .LVU405
 1914 01a2 464A     		ldr	r2, .L166+68
 1915 01a4 1360     		str	r3, [r2]
 424:./Application/Src/menu.c ****             }
 1916              		.loc 1 424 17 is_stmt 1 view .LVU406
 424:./Application/Src/menu.c ****             }
 1917              		.loc 1 424 33 is_stmt 0 view .LVU407
 1918 01a6 464A     		ldr	r2, .L166+72
 1919 01a8 1360     		str	r3, [r2]
 1920 01aa D8E7     		b	.L124
 1921              	.L158:
 441:./Application/Src/menu.c ****     {
 1922              		.loc 1 441 5 view .LVU408
 1923 01ac 3BB1     		cbz	r3, .L128
 1924 01ae 012B     		cmp	r3, #1
 1925 01b0 40F0AD80 		bne	.L130
 511:./Application/Src/menu.c ****         /* Check transfer timeout */
 1926              		.loc 1 511 9 is_stmt 1 view .LVU409
 1927 01b4 FFF7FEFF 		bl	menu_draw_transmit
 1928              	.LVL160:
 513:./Application/Src/menu.c ****         break;
 1929              		.loc 1 513 9 view .LVU410
 1930 01b8 FFF7FEFF 		bl	FT_TimeoutCheck
 1931              	.LVL161:
 514:./Application/Src/menu.c **** 
 1932              		.loc 1 514 9 view .LVU411
 1933 01bc A7E0     		b	.L130
 1934              	.L128:
 447:./Application/Src/menu.c ****         {
 1935              		.loc 1 447 9 view .LVU412
 447:./Application/Src/menu.c ****         {
 1936              		.loc 1 447 13 is_stmt 0 view .LVU413
 1937 01be 3A4B     		ldr	r3, .L166+48
 1938 01c0 1B68     		ldr	r3, [r3]
 447:./Application/Src/menu.c ****         {
 1939              		.loc 1 447 12 view .LVU414
 1940 01c2 43B1     		cbz	r3, .L133
 449:./Application/Src/menu.c ****             if (menu_index > 5)
 1941              		.loc 1 449 13 is_stmt 1 view .LVU415
 449:./Application/Src/menu.c ****             if (menu_index > 5)
 1942              		.loc 1 449 23 is_stmt 0 view .LVU416
 1943 01c4 374A     		ldr	r2, .L166+44
 1944 01c6 1368     		ldr	r3, [r2]
ARM GAS  C:\Users\Xuleo\AppData\Local\Temp\cc2YNAUe.s 			page 52


 1945 01c8 0133     		adds	r3, r3, #1
 1946 01ca 1360     		str	r3, [r2]
 450:./Application/Src/menu.c ****                 menu_index = 0;
 1947              		.loc 1 450 13 is_stmt 1 view .LVU417
 450:./Application/Src/menu.c ****                 menu_index = 0;
 1948              		.loc 1 450 16 is_stmt 0 view .LVU418
 1949 01cc 052B     		cmp	r3, #5
 1950 01ce 02DD     		ble	.L133
 451:./Application/Src/menu.c ****         }
 1951              		.loc 1 451 17 is_stmt 1 view .LVU419
 451:./Application/Src/menu.c ****         }
 1952              		.loc 1 451 28 is_stmt 0 view .LVU420
 1953 01d0 1346     		mov	r3, r2
 1954 01d2 0022     		movs	r2, #0
 1955 01d4 1A60     		str	r2, [r3]
 1956              	.L133:
 453:./Application/Src/menu.c ****         {
 1957              		.loc 1 453 9 is_stmt 1 view .LVU421
 453:./Application/Src/menu.c ****         {
 1958              		.loc 1 453 13 is_stmt 0 view .LVU422
 1959 01d6 354B     		ldr	r3, .L166+52
 1960 01d8 1B68     		ldr	r3, [r3]
 453:./Application/Src/menu.c ****         {
 1961              		.loc 1 453 12 view .LVU423
 1962 01da 2BB1     		cbz	r3, .L134
 455:./Application/Src/menu.c ****             if (menu_index < 0)
 1963              		.loc 1 455 13 is_stmt 1 view .LVU424
 455:./Application/Src/menu.c ****             if (menu_index < 0)
 1964              		.loc 1 455 23 is_stmt 0 view .LVU425
 1965 01dc 314A     		ldr	r2, .L166+44
 1966 01de 1368     		ldr	r3, [r2]
 1967 01e0 013B     		subs	r3, r3, #1
 1968 01e2 1360     		str	r3, [r2]
 456:./Application/Src/menu.c ****                 menu_index = 5;
 1969              		.loc 1 456 13 is_stmt 1 view .LVU426
 456:./Application/Src/menu.c ****                 menu_index = 5;
 1970              		.loc 1 456 16 is_stmt 0 view .LVU427
 1971 01e4 002B     		cmp	r3, #0
 1972 01e6 15DB     		blt	.L162
 1973              	.L134:
 461:./Application/Src/menu.c ****         {
 1974              		.loc 1 461 9 is_stmt 1 view .LVU428
 461:./Application/Src/menu.c ****         {
 1975              		.loc 1 461 13 is_stmt 0 view .LVU429
 1976 01e8 314B     		ldr	r3, .L166+56
 1977 01ea 1B68     		ldr	r3, [r3]
 461:./Application/Src/menu.c ****         {
 1978              		.loc 1 461 12 view .LVU430
 1979 01ec 002B     		cmp	r3, #0
 1980 01ee 00F09780 		beq	.L155
 463:./Application/Src/menu.c ****             switch (menu_index)
 1981              		.loc 1 463 13 is_stmt 1 view .LVU431
 463:./Application/Src/menu.c ****             switch (menu_index)
 1982              		.loc 1 463 24 is_stmt 0 view .LVU432
 1983 01f2 2F4B     		ldr	r3, .L166+56
 1984 01f4 0022     		movs	r2, #0
 1985 01f6 1A60     		str	r2, [r3]
ARM GAS  C:\Users\Xuleo\AppData\Local\Temp\cc2YNAUe.s 			page 53


 464:./Application/Src/menu.c ****             {
 1986              		.loc 1 464 13 is_stmt 1 view .LVU433
 1987 01f8 2A4B     		ldr	r3, .L166+44
 1988 01fa 1B68     		ldr	r3, [r3]
 1989 01fc 032B     		cmp	r3, #3
 1990 01fe 34D0     		beq	.L136
 1991 0200 0CDC     		bgt	.L137
 1992 0202 012B     		cmp	r3, #1
 1993 0204 15D0     		beq	.L138
 1994 0206 022B     		cmp	r3, #2
 1995 0208 1DD0     		beq	.L139
 1996 020a 002B     		cmp	r3, #0
 1997 020c 7DD1     		bne	.L141
 467:./Application/Src/menu.c ****                     break;
 1998              		.loc 1 467 21 view .LVU434
 1999 020e FFF7FEFF 		bl	traversal
 2000              	.LVL162:
 468:./Application/Src/menu.c ****                 case 1: /* Transmit Song to SD card */
 2001              		.loc 1 468 21 view .LVU435
 2002 0212 7AE0     		b	.L141
 2003              	.L162:
 457:./Application/Src/menu.c ****         }
 2004              		.loc 1 457 17 view .LVU436
 457:./Application/Src/menu.c ****         }
 2005              		.loc 1 457 28 is_stmt 0 view .LVU437
 2006 0214 1346     		mov	r3, r2
 2007 0216 0522     		movs	r2, #5
 2008 0218 1A60     		str	r2, [r3]
 2009 021a E5E7     		b	.L134
 2010              	.L137:
 464:./Application/Src/menu.c ****             {
 2011              		.loc 1 464 13 view .LVU438
 2012 021c 042B     		cmp	r3, #4
 2013 021e 51D0     		beq	.L142
 2014 0220 052B     		cmp	r3, #5
 2015 0222 72D1     		bne	.L141
 494:./Application/Src/menu.c ****                     page_dirty = 1;
 2016              		.loc 1 494 21 is_stmt 1 view .LVU439
 494:./Application/Src/menu.c ****                     page_dirty = 1;
 2017              		.loc 1 494 32 is_stmt 0 view .LVU440
 2018 0224 154B     		ldr	r3, .L166+4
 2019 0226 0422     		movs	r2, #4
 2020 0228 1A70     		strb	r2, [r3]
 495:./Application/Src/menu.c ****                     break;
 2021              		.loc 1 495 21 is_stmt 1 view .LVU441
 495:./Application/Src/menu.c ****                     break;
 2022              		.loc 1 495 32 is_stmt 0 view .LVU442
 2023 022a 154B     		ldr	r3, .L166+8
 2024 022c 0122     		movs	r2, #1
 2025 022e 1A60     		str	r2, [r3]
 496:./Application/Src/menu.c ****             }
 2026              		.loc 1 496 21 is_stmt 1 view .LVU443
 2027 0230 6BE0     		b	.L141
 2028              	.L138:
 470:./Application/Src/menu.c ****                     page_dirty = 1;
 2029              		.loc 1 470 21 view .LVU444
 470:./Application/Src/menu.c ****                     page_dirty = 1;
ARM GAS  C:\Users\Xuleo\AppData\Local\Temp\cc2YNAUe.s 			page 54


 2030              		.loc 1 470 32 is_stmt 0 view .LVU445
 2031 0232 0123     		movs	r3, #1
 2032 0234 114A     		ldr	r2, .L166+4
 2033 0236 1370     		strb	r3, [r2]
 471:./Application/Src/menu.c ****                     uart_binary_mode = 1;
 2034              		.loc 1 471 21 is_stmt 1 view .LVU446
 471:./Application/Src/menu.c ****                     uart_binary_mode = 1;
 2035              		.loc 1 471 32 is_stmt 0 view .LVU447
 2036 0238 114A     		ldr	r2, .L166+8
 2037 023a 1360     		str	r3, [r2]
 472:./Application/Src/menu.c ****                     FT_Init(); /* Reset transfer state */
 2038              		.loc 1 472 21 is_stmt 1 view .LVU448
 472:./Application/Src/menu.c ****                     FT_Init(); /* Reset transfer state */
 2039              		.loc 1 472 38 is_stmt 0 view .LVU449
 2040 023c 184A     		ldr	r2, .L166+40
 2041 023e 1360     		str	r3, [r2]
 473:./Application/Src/menu.c ****                     break;
 2042              		.loc 1 473 21 is_stmt 1 view .LVU450
 2043 0240 FFF7FEFF 		bl	FT_Init
 2044              	.LVL163:
 474:./Application/Src/menu.c ****                 case 2: /* Transmit Song to RAM */
 2045              		.loc 1 474 21 view .LVU451
 2046 0244 61E0     		b	.L141
 2047              	.L139:
 476:./Application/Src/menu.c ****                     page_dirty = 1;
 2048              		.loc 1 476 21 view .LVU452
 476:./Application/Src/menu.c ****                     page_dirty = 1;
 2049              		.loc 1 476 32 is_stmt 0 view .LVU453
 2050 0246 0D4B     		ldr	r3, .L166+4
 2051 0248 0222     		movs	r2, #2
 2052 024a 1A70     		strb	r2, [r3]
 477:./Application/Src/menu.c ****                     uart_binary_mode = 1;
 2053              		.loc 1 477 21 is_stmt 1 view .LVU454
 477:./Application/Src/menu.c ****                     uart_binary_mode = 1;
 2054              		.loc 1 477 32 is_stmt 0 view .LVU455
 2055 024c 0123     		movs	r3, #1
 2056 024e 0C4A     		ldr	r2, .L166+8
 2057 0250 1360     		str	r3, [r2]
 478:./Application/Src/menu.c ****                     redirect_to_ram = 1;
 2058              		.loc 1 478 21 is_stmt 1 view .LVU456
 478:./Application/Src/menu.c ****                     redirect_to_ram = 1;
 2059              		.loc 1 478 38 is_stmt 0 view .LVU457
 2060 0252 134A     		ldr	r2, .L166+40
 2061 0254 1360     		str	r3, [r2]
 479:./Application/Src/menu.c ****                     ram_rx_started = 0;
 2062              		.loc 1 479 21 is_stmt 1 view .LVU458
 479:./Application/Src/menu.c ****                     ram_rx_started = 0;
 2063              		.loc 1 479 37 is_stmt 0 view .LVU459
 2064 0256 1A4A     		ldr	r2, .L166+72
 2065 0258 1360     		str	r3, [r2]
 480:./Application/Src/menu.c ****                     ram_rx_complete = 0;
 2066              		.loc 1 480 21 is_stmt 1 view .LVU460
 480:./Application/Src/menu.c ****                     ram_rx_complete = 0;
 2067              		.loc 1 480 36 is_stmt 0 view .LVU461
 2068 025a 0023     		movs	r3, #0
 2069 025c 154A     		ldr	r2, .L166+60
 2070 025e 1360     		str	r3, [r2]
ARM GAS  C:\Users\Xuleo\AppData\Local\Temp\cc2YNAUe.s 			page 55


 481:./Application/Src/menu.c ****                     ram_rx_offset = 0;
 2071              		.loc 1 481 21 is_stmt 1 view .LVU462
 481:./Application/Src/menu.c ****                     ram_rx_offset = 0;
 2072              		.loc 1 481 37 is_stmt 0 view .LVU463
 2073 0260 154A     		ldr	r2, .L166+64
 2074 0262 1360     		str	r3, [r2]
 482:./Application/Src/menu.c ****                     break;
 2075              		.loc 1 482 21 is_stmt 1 view .LVU464
 482:./Application/Src/menu.c ****                     break;
 2076              		.loc 1 482 35 is_stmt 0 view .LVU465
 2077 0264 154A     		ldr	r2, .L166+68
 2078 0266 1360     		str	r3, [r2]
 483:./Application/Src/menu.c ****                 case 3: /* Select Song */
 2079              		.loc 1 483 21 is_stmt 1 view .LVU466
 2080 0268 4FE0     		b	.L141
 2081              	.L136:
 485:./Application/Src/menu.c ****                     page_dirty = 1;
 2082              		.loc 1 485 21 view .LVU467
 485:./Application/Src/menu.c ****                     page_dirty = 1;
 2083              		.loc 1 485 32 is_stmt 0 view .LVU468
 2084 026a 044B     		ldr	r3, .L166+4
 2085 026c 0322     		movs	r2, #3
 2086 026e 1A70     		strb	r2, [r3]
 486:./Application/Src/menu.c ****                     break;
 2087              		.loc 1 486 21 is_stmt 1 view .LVU469
 486:./Application/Src/menu.c ****                     break;
 2088              		.loc 1 486 32 is_stmt 0 view .LVU470
 2089 0270 034B     		ldr	r3, .L166+8
 2090 0272 0122     		movs	r2, #1
 2091 0274 1A60     		str	r2, [r3]
 487:./Application/Src/menu.c ****                 case 4: /* Homing */
 2092              		.loc 1 487 21 is_stmt 1 view .LVU471
 2093 0276 48E0     		b	.L141
 2094              	.L167:
 2095              		.align	2
 2096              	.L166:
 2097 0278 00000000 		.word	menu_back
 2098 027c 00000000 		.word	menu_state
 2099 0280 00000000 		.word	page_dirty
 2100 0284 00000000 		.word	right_motor
 2101 0288 00000000 		.word	left_motor
 2102 028c B8000000 		.word	.LC42
 2103 0290 D4000000 		.word	.LC43
 2104 0294 EC000000 		.word	.LC44
 2105 0298 04010000 		.word	.LC45
 2106 029c 18010000 		.word	.LC46
 2107 02a0 00000000 		.word	uart_binary_mode
 2108 02a4 00000000 		.word	menu_index
 2109 02a8 00000000 		.word	menu_move_down
 2110 02ac 00000000 		.word	menu_move_up
 2111 02b0 00000000 		.word	menu_enter
 2112 02b4 00000000 		.word	ram_rx_started
 2113 02b8 00000000 		.word	ram_rx_complete
 2114 02bc 00000000 		.word	ram_rx_offset
 2115 02c0 00000000 		.word	redirect_to_ram
 2116              	.L142:
 489:./Application/Src/menu.c ****                     homing_procedure();
ARM GAS  C:\Users\Xuleo\AppData\Local\Temp\cc2YNAUe.s 			page 56


 2117              		.loc 1 489 21 view .LVU472
 2118 02c4 4FF6FF73 		movw	r3, #65535
 2119 02c8 1C46     		mov	r4, r3
 2120 02ca 0093     		str	r3, [sp]
 2121 02cc 0023     		movs	r3, #0
 2122 02ce 624A     		ldr	r2, .L168
 2123 02d0 0921     		movs	r1, #9
 2124 02d2 1846     		mov	r0, r3
 2125 02d4 FFF7FEFF 		bl	LCD_draw_string
 2126              	.LVL164:
 490:./Application/Src/menu.c ****                     LCD_draw_string(0, 9, "Homing done!            ", COLOR_BLACK, COLOR_WHITE);
 2127              		.loc 1 490 21 view .LVU473
 2128 02d8 FFF7FEFF 		bl	homing_procedure
 2129              	.LVL165:
 491:./Application/Src/menu.c ****                     break;
 2130              		.loc 1 491 21 view .LVU474
 2131 02dc 0094     		str	r4, [sp]
 2132 02de 0023     		movs	r3, #0
 2133 02e0 5E4A     		ldr	r2, .L168+4
 2134 02e2 0921     		movs	r1, #9
 2135 02e4 1846     		mov	r0, r3
 2136 02e6 FFF7FEFF 		bl	LCD_draw_string
 2137              	.LVL166:
 492:./Application/Src/menu.c ****                 case 5: /* Debug */
 2138              		.loc 1 492 21 view .LVU475
 2139 02ea 0EE0     		b	.L141
 2140              	.LVL167:
 2141              	.L144:
 2142              	.LBB22:
 502:./Application/Src/menu.c ****         }
 2143              		.loc 1 502 17 view .LVU476
 2144 02ec 4FF6FF73 		movw	r3, #65535
 2145 02f0 0093     		str	r3, [sp]
 2146 02f2 0023     		movs	r3, #0
 2147 02f4 5A4A     		ldr	r2, .L168+8
 2148 02f6 0C46     		mov	r4, r1
 2149 02f8 89B2     		uxth	r1, r1
 2150              	.LVL168:
 502:./Application/Src/menu.c ****         }
 2151              		.loc 1 502 17 is_stmt 0 view .LVU477
 2152 02fa 1846     		mov	r0, r3
 2153 02fc FFF7FEFF 		bl	LCD_draw_string
 2154              	.LVL169:
 501:./Application/Src/menu.c ****                 LCD_draw_string(0, i,  "                         ", COLOR_BLACK, COLOR_WHITE);
 2155              		.loc 1 501 35 is_stmt 1 discriminator 3 view .LVU478
 2156 0300 2346     		mov	r3, r4
 2157 0302 0133     		adds	r3, r3, #1
 2158 0304 1946     		mov	r1, r3
 2159              	.LVL170:
 2160              	.L135:
 501:./Application/Src/menu.c ****                 LCD_draw_string(0, i,  "                         ", COLOR_BLACK, COLOR_WHITE);
 2161              		.loc 1 501 29 discriminator 1 view .LVU479
 2162 0306 0D29     		cmp	r1, #13
 2163 0308 F0DD     		ble	.L144
 2164              	.LVL171:
 2165              	.L141:
 501:./Application/Src/menu.c ****                 LCD_draw_string(0, i,  "                         ", COLOR_BLACK, COLOR_WHITE);
ARM GAS  C:\Users\Xuleo\AppData\Local\Temp\cc2YNAUe.s 			page 57


 2166              		.loc 1 501 29 is_stmt 0 discriminator 1 view .LVU480
 2167              	.LBE22:
 505:./Application/Src/menu.c ****         break;
 2168              		.loc 1 505 9 is_stmt 1 view .LVU481
 2169 030a FFF7FEFF 		bl	menu_draw_main
 2170              	.LVL172:
 506:./Application/Src/menu.c **** 
 2171              		.loc 1 506 9 view .LVU482
 2172              	.L130:
 593:./Application/Src/menu.c ****     }
 594:./Application/Src/menu.c ****     }
 595:./Application/Src/menu.c **** 
 596:./Application/Src/menu.c ****     /* Reset navigation flags */
 597:./Application/Src/menu.c ****     menu_move_down = 0;
 2173              		.loc 1 597 5 view .LVU483
 2174              		.loc 1 597 20 is_stmt 0 view .LVU484
 2175 030e 0023     		movs	r3, #0
 2176 0310 544A     		ldr	r2, .L168+12
 2177 0312 1360     		str	r3, [r2]
 598:./Application/Src/menu.c ****     menu_move_up = 0;
 2178              		.loc 1 598 5 is_stmt 1 view .LVU485
 2179              		.loc 1 598 18 is_stmt 0 view .LVU486
 2180 0314 544A     		ldr	r2, .L168+16
 2181 0316 1360     		str	r3, [r2]
 2182              	.L121:
 599:./Application/Src/menu.c **** }
 2183              		.loc 1 599 1 view .LVU487
 2184 0318 0EB0     		add	sp, sp, #56
 2185              	.LCFI28:
 2186              		.cfi_remember_state
 2187              		.cfi_def_cfa_offset 24
 2188              		@ sp needed
 2189 031a BDEC028B 		vldm	sp!, {d8}
 2190              	.LCFI29:
 2191              		.cfi_restore 80
 2192              		.cfi_restore 81
 2193              		.cfi_def_cfa_offset 16
 2194 031e 70BD     		pop	{r4, r5, r6, pc}
 2195              	.L155:
 2196              	.LCFI30:
 2197              		.cfi_restore_state
 2198              	.LBB23:
 501:./Application/Src/menu.c ****                 LCD_draw_string(0, i,  "                         ", COLOR_BLACK, COLOR_WHITE);
 2199              		.loc 1 501 21 view .LVU488
 2200 0320 0923     		movs	r3, #9
 2201 0322 1946     		mov	r1, r3
 2202 0324 EFE7     		b	.L135
 2203              	.L126:
 2204              	.LBE23:
 518:./Application/Src/menu.c ****         break;
 2205              		.loc 1 518 9 is_stmt 1 view .LVU489
 2206 0326 FFF7FEFF 		bl	menu_draw_transmit_ram
 2207              	.LVL173:
 519:./Application/Src/menu.c **** 
 2208              		.loc 1 519 9 view .LVU490
 2209 032a F0E7     		b	.L130
 2210              	.L131:
ARM GAS  C:\Users\Xuleo\AppData\Local\Temp\cc2YNAUe.s 			page 58


 524:./Application/Src/menu.c ****         {
 2211              		.loc 1 524 9 view .LVU491
 524:./Application/Src/menu.c ****         {
 2212              		.loc 1 524 13 is_stmt 0 view .LVU492
 2213 032c 4D4B     		ldr	r3, .L168+12
 2214 032e 1B68     		ldr	r3, [r3]
 524:./Application/Src/menu.c ****         {
 2215              		.loc 1 524 12 view .LVU493
 2216 0330 F3B1     		cbz	r3, .L145
 526:./Application/Src/menu.c ****             if (select_song_index >= fileCount)
 2217              		.loc 1 526 13 is_stmt 1 view .LVU494
 526:./Application/Src/menu.c ****             if (select_song_index >= fileCount)
 2218              		.loc 1 526 30 is_stmt 0 view .LVU495
 2219 0332 4E4A     		ldr	r2, .L168+20
 2220 0334 1368     		ldr	r3, [r2]
 2221 0336 0133     		adds	r3, r3, #1
 2222 0338 1360     		str	r3, [r2]
 527:./Application/Src/menu.c ****                 select_song_index = 0;
 2223              		.loc 1 527 13 is_stmt 1 view .LVU496
 527:./Application/Src/menu.c ****                 select_song_index = 0;
 2224              		.loc 1 527 35 is_stmt 0 view .LVU497
 2225 033a 4D4A     		ldr	r2, .L168+24
 2226 033c 1268     		ldr	r2, [r2]
 527:./Application/Src/menu.c ****                 select_song_index = 0;
 2227              		.loc 1 527 16 view .LVU498
 2228 033e 9342     		cmp	r3, r2
 2229 0340 02DB     		blt	.L146
 528:./Application/Src/menu.c ****             /* Adjust scroll window */
 2230              		.loc 1 528 17 is_stmt 1 view .LVU499
 528:./Application/Src/menu.c ****             /* Adjust scroll window */
 2231              		.loc 1 528 35 is_stmt 0 view .LVU500
 2232 0342 4A4B     		ldr	r3, .L168+20
 2233 0344 0022     		movs	r2, #0
 2234 0346 1A60     		str	r2, [r3]
 2235              	.L146:
 530:./Application/Src/menu.c ****                 select_scroll_offset = select_song_index - 4;
 2236              		.loc 1 530 13 is_stmt 1 view .LVU501
 530:./Application/Src/menu.c ****                 select_scroll_offset = select_song_index - 4;
 2237              		.loc 1 530 35 is_stmt 0 view .LVU502
 2238 0348 4A4B     		ldr	r3, .L168+28
 2239 034a 1A68     		ldr	r2, [r3]
 2240 034c 0432     		adds	r2, r2, #4
 2241 034e 474B     		ldr	r3, .L168+20
 2242 0350 1B68     		ldr	r3, [r3]
 530:./Application/Src/menu.c ****                 select_scroll_offset = select_song_index - 4;
 2243              		.loc 1 530 16 view .LVU503
 2244 0352 9A42     		cmp	r2, r3
 2245 0354 02DA     		bge	.L147
 531:./Application/Src/menu.c ****             if (select_song_index < select_scroll_offset)
 2246              		.loc 1 531 17 is_stmt 1 view .LVU504
 531:./Application/Src/menu.c ****             if (select_song_index < select_scroll_offset)
 2247              		.loc 1 531 58 is_stmt 0 view .LVU505
 2248 0356 1A1F     		subs	r2, r3, #4
 531:./Application/Src/menu.c ****             if (select_song_index < select_scroll_offset)
 2249              		.loc 1 531 38 view .LVU506
 2250 0358 4649     		ldr	r1, .L168+28
 2251 035a 0A60     		str	r2, [r1]
ARM GAS  C:\Users\Xuleo\AppData\Local\Temp\cc2YNAUe.s 			page 59


 2252              	.L147:
 532:./Application/Src/menu.c ****                 select_scroll_offset = select_song_index;
 2253              		.loc 1 532 13 is_stmt 1 view .LVU507
 532:./Application/Src/menu.c ****                 select_scroll_offset = select_song_index;
 2254              		.loc 1 532 35 is_stmt 0 view .LVU508
 2255 035c 454A     		ldr	r2, .L168+28
 2256 035e 1268     		ldr	r2, [r2]
 532:./Application/Src/menu.c ****                 select_scroll_offset = select_song_index;
 2257              		.loc 1 532 16 view .LVU509
 2258 0360 9342     		cmp	r3, r2
 2259 0362 01DA     		bge	.L148
 533:./Application/Src/menu.c ****             /* Handle wrap-around */
 2260              		.loc 1 533 17 is_stmt 1 view .LVU510
 533:./Application/Src/menu.c ****             /* Handle wrap-around */
 2261              		.loc 1 533 38 is_stmt 0 view .LVU511
 2262 0364 434A     		ldr	r2, .L168+28
 2263 0366 1360     		str	r3, [r2]
 2264              	.L148:
 535:./Application/Src/menu.c ****                 select_scroll_offset = 0;
 2265              		.loc 1 535 13 is_stmt 1 view .LVU512
 535:./Application/Src/menu.c ****                 select_scroll_offset = 0;
 2266              		.loc 1 535 16 is_stmt 0 view .LVU513
 2267 0368 13B9     		cbnz	r3, .L145
 536:./Application/Src/menu.c ****         }
 2268              		.loc 1 536 17 is_stmt 1 view .LVU514
 536:./Application/Src/menu.c ****         }
 2269              		.loc 1 536 38 is_stmt 0 view .LVU515
 2270 036a 424B     		ldr	r3, .L168+28
 2271 036c 0022     		movs	r2, #0
 2272 036e 1A60     		str	r2, [r3]
 2273              	.L145:
 538:./Application/Src/menu.c ****         {
 2274              		.loc 1 538 9 is_stmt 1 view .LVU516
 538:./Application/Src/menu.c ****         {
 2275              		.loc 1 538 13 is_stmt 0 view .LVU517
 2276 0370 3D4B     		ldr	r3, .L168+16
 2277 0372 1B68     		ldr	r3, [r3]
 538:./Application/Src/menu.c ****         {
 2278              		.loc 1 538 12 view .LVU518
 2279 0374 D3B1     		cbz	r3, .L149
 540:./Application/Src/menu.c ****             if (select_song_index < 0)
 2280              		.loc 1 540 13 is_stmt 1 view .LVU519
 540:./Application/Src/menu.c ****             if (select_song_index < 0)
 2281              		.loc 1 540 30 is_stmt 0 view .LVU520
 2282 0376 3D4A     		ldr	r2, .L168+20
 2283 0378 1368     		ldr	r3, [r2]
 2284 037a 013B     		subs	r3, r3, #1
 2285 037c 1360     		str	r3, [r2]
 541:./Application/Src/menu.c ****                 select_song_index = fileCount - 1;
 2286              		.loc 1 541 13 is_stmt 1 view .LVU521
 541:./Application/Src/menu.c ****                 select_song_index = fileCount - 1;
 2287              		.loc 1 541 16 is_stmt 0 view .LVU522
 2288 037e 002B     		cmp	r3, #0
 2289 0380 21DB     		blt	.L163
 2290              	.L150:
 544:./Application/Src/menu.c ****                 select_scroll_offset = select_song_index;
 2291              		.loc 1 544 13 is_stmt 1 view .LVU523
ARM GAS  C:\Users\Xuleo\AppData\Local\Temp\cc2YNAUe.s 			page 60


 544:./Application/Src/menu.c ****                 select_scroll_offset = select_song_index;
 2292              		.loc 1 544 35 is_stmt 0 view .LVU524
 2293 0382 3A4B     		ldr	r3, .L168+20
 2294 0384 1B68     		ldr	r3, [r3]
 2295 0386 3B4A     		ldr	r2, .L168+28
 2296 0388 1268     		ldr	r2, [r2]
 544:./Application/Src/menu.c ****                 select_scroll_offset = select_song_index;
 2297              		.loc 1 544 16 view .LVU525
 2298 038a 9342     		cmp	r3, r2
 2299 038c 01DA     		bge	.L151
 545:./Application/Src/menu.c ****             if (select_song_index >= select_scroll_offset + 5)
 2300              		.loc 1 545 17 is_stmt 1 view .LVU526
 545:./Application/Src/menu.c ****             if (select_song_index >= select_scroll_offset + 5)
 2301              		.loc 1 545 38 is_stmt 0 view .LVU527
 2302 038e 394A     		ldr	r2, .L168+28
 2303 0390 1360     		str	r3, [r2]
 2304              	.L151:
 546:./Application/Src/menu.c ****                 select_scroll_offset = select_song_index - 4;
 2305              		.loc 1 546 13 is_stmt 1 view .LVU528
 546:./Application/Src/menu.c ****                 select_scroll_offset = select_song_index - 4;
 2306              		.loc 1 546 35 is_stmt 0 view .LVU529
 2307 0392 384A     		ldr	r2, .L168+28
 2308 0394 1268     		ldr	r2, [r2]
 2309 0396 0432     		adds	r2, r2, #4
 546:./Application/Src/menu.c ****                 select_scroll_offset = select_song_index - 4;
 2310              		.loc 1 546 16 view .LVU530
 2311 0398 9342     		cmp	r3, r2
 2312 039a 02DD     		ble	.L152
 547:./Application/Src/menu.c ****             /* Handle wrap-around */
 2313              		.loc 1 547 17 is_stmt 1 view .LVU531
 547:./Application/Src/menu.c ****             /* Handle wrap-around */
 2314              		.loc 1 547 58 is_stmt 0 view .LVU532
 2315 039c 1A1F     		subs	r2, r3, #4
 547:./Application/Src/menu.c ****             /* Handle wrap-around */
 2316              		.loc 1 547 38 view .LVU533
 2317 039e 3549     		ldr	r1, .L168+28
 2318 03a0 0A60     		str	r2, [r1]
 2319              	.L152:
 549:./Application/Src/menu.c ****                 select_scroll_offset = (fileCount > 5) ? fileCount - 5 : 0;
 2320              		.loc 1 549 13 is_stmt 1 view .LVU534
 549:./Application/Src/menu.c ****                 select_scroll_offset = (fileCount > 5) ? fileCount - 5 : 0;
 2321              		.loc 1 549 48 is_stmt 0 view .LVU535
 2322 03a2 334A     		ldr	r2, .L168+24
 2323 03a4 1268     		ldr	r2, [r2]
 2324 03a6 511E     		subs	r1, r2, #1
 549:./Application/Src/menu.c ****                 select_scroll_offset = (fileCount > 5) ? fileCount - 5 : 0;
 2325              		.loc 1 549 16 view .LVU536
 2326 03a8 8B42     		cmp	r3, r1
 2327 03aa 11D0     		beq	.L164
 2328              	.L149:
 554:./Application/Src/menu.c ****         {
 2329              		.loc 1 554 9 is_stmt 1 view .LVU537
 554:./Application/Src/menu.c ****         {
 2330              		.loc 1 554 13 is_stmt 0 view .LVU538
 2331 03ac 324B     		ldr	r3, .L168+32
 2332 03ae 1B68     		ldr	r3, [r3]
 554:./Application/Src/menu.c ****         {
ARM GAS  C:\Users\Xuleo\AppData\Local\Temp\cc2YNAUe.s 			page 61


 2333              		.loc 1 554 12 view .LVU539
 2334 03b0 33B1     		cbz	r3, .L153
 556:./Application/Src/menu.c ****             if (fileCount > 0)
 2335              		.loc 1 556 13 is_stmt 1 view .LVU540
 556:./Application/Src/menu.c ****             if (fileCount > 0)
 2336              		.loc 1 556 24 is_stmt 0 view .LVU541
 2337 03b2 314B     		ldr	r3, .L168+32
 2338 03b4 0022     		movs	r2, #0
 2339 03b6 1A60     		str	r2, [r3]
 557:./Application/Src/menu.c ****             {
 2340              		.loc 1 557 13 is_stmt 1 view .LVU542
 557:./Application/Src/menu.c ****             {
 2341              		.loc 1 557 27 is_stmt 0 view .LVU543
 2342 03b8 2D4B     		ldr	r3, .L168+24
 2343 03ba 1B68     		ldr	r3, [r3]
 557:./Application/Src/menu.c ****             {
 2344              		.loc 1 557 16 view .LVU544
 2345 03bc 9342     		cmp	r3, r2
 2346 03be 0EDC     		bgt	.L165
 2347              	.L153:
 570:./Application/Src/menu.c ****         break;
 2348              		.loc 1 570 9 is_stmt 1 view .LVU545
 2349 03c0 FFF7FEFF 		bl	menu_draw_select
 2350              	.LVL174:
 571:./Application/Src/menu.c **** 
 2351              		.loc 1 571 9 view .LVU546
 2352 03c4 A3E7     		b	.L130
 2353              	.L163:
 542:./Application/Src/menu.c ****             /* Adjust scroll window */
 2354              		.loc 1 542 17 view .LVU547
 542:./Application/Src/menu.c ****             /* Adjust scroll window */
 2355              		.loc 1 542 47 is_stmt 0 view .LVU548
 2356 03c6 2A4B     		ldr	r3, .L168+24
 2357 03c8 1B68     		ldr	r3, [r3]
 2358 03ca 013B     		subs	r3, r3, #1
 542:./Application/Src/menu.c ****             /* Adjust scroll window */
 2359              		.loc 1 542 35 view .LVU549
 2360 03cc 1360     		str	r3, [r2]
 2361 03ce D8E7     		b	.L150
 2362              	.L164:
 550:./Application/Src/menu.c ****         }
 2363              		.loc 1 550 17 is_stmt 1 view .LVU550
 550:./Application/Src/menu.c ****         }
 2364              		.loc 1 550 72 is_stmt 0 view .LVU551
 2365 03d0 052A     		cmp	r2, #5
 2366 03d2 B8BF     		it	lt
 2367 03d4 0522     		movlt	r2, #5
 2368 03d6 053A     		subs	r2, r2, #5
 550:./Application/Src/menu.c ****         }
 2369              		.loc 1 550 38 view .LVU552
 2370 03d8 264B     		ldr	r3, .L168+28
 2371 03da 1A60     		str	r2, [r3]
 2372 03dc E6E7     		b	.L149
 2373              	.L165:
 2374              	.LBB24:
 559:./Application/Src/menu.c ****                 char buf[25];
 2375              		.loc 1 559 17 is_stmt 1 view .LVU553
ARM GAS  C:\Users\Xuleo\AppData\Local\Temp\cc2YNAUe.s 			page 62


 559:./Application/Src/menu.c ****                 char buf[25];
 2376              		.loc 1 559 35 is_stmt 0 view .LVU554
 2377 03de 234B     		ldr	r3, .L168+20
 2378 03e0 1B68     		ldr	r3, [r3]
 2379 03e2 264D     		ldr	r5, .L168+36
 2380 03e4 2B60     		str	r3, [r5]
 560:./Application/Src/menu.c ****                 snprintf(buf, sizeof(buf), "Selected: %-12s  ", fileList[active_song_index].name);
 2381              		.loc 1 560 17 is_stmt 1 view .LVU555
 561:./Application/Src/menu.c ****                 LCD_draw_string(0, 9, buf, COLOR_BLACK, COLOR_WHITE);
 2382              		.loc 1 561 17 view .LVU556
 561:./Application/Src/menu.c ****                 LCD_draw_string(0, 9, buf, COLOR_BLACK, COLOR_WHITE);
 2383              		.loc 1 561 92 is_stmt 0 view .LVU557
 2384 03e6 03EB8303 		add	r3, r3, r3, lsl #2
 561:./Application/Src/menu.c ****                 LCD_draw_string(0, 9, buf, COLOR_BLACK, COLOR_WHITE);
 2385              		.loc 1 561 17 view .LVU558
 2386 03ea 254E     		ldr	r6, .L168+40
 2387 03ec 06EB8303 		add	r3, r6, r3, lsl #2
 2388 03f0 244A     		ldr	r2, .L168+44
 2389 03f2 1921     		movs	r1, #25
 2390 03f4 07A8     		add	r0, sp, #28
 2391 03f6 FFF7FEFF 		bl	snprintf
 2392              	.LVL175:
 562:./Application/Src/menu.c ****                 // block and parse:
 2393              		.loc 1 562 17 is_stmt 1 view .LVU559
 2394 03fa 4FF6FF74 		movw	r4, #65535
 2395 03fe 0094     		str	r4, [sp]
 2396 0400 0023     		movs	r3, #0
 2397 0402 07AA     		add	r2, sp, #28
 2398 0404 0921     		movs	r1, #9
 2399 0406 1846     		mov	r0, r3
 2400 0408 FFF7FEFF 		bl	LCD_draw_string
 2401              	.LVL176:
 564:./Application/Src/menu.c ****                 sd_parse_array(fileList[active_song_index].name);
 2402              		.loc 1 564 17 view .LVU560
 2403 040c 0094     		str	r4, [sp]
 2404 040e 0023     		movs	r3, #0
 2405 0410 1D4A     		ldr	r2, .L168+48
 2406 0412 0A21     		movs	r1, #10
 2407 0414 1846     		mov	r0, r3
 2408 0416 FFF7FEFF 		bl	LCD_draw_string
 2409              	.LVL177:
 565:./Application/Src/menu.c ****                 LCD_draw_string(0, 10, "Song ready to play!    ", COLOR_BLACK, COLOR_WHITE);
 2410              		.loc 1 565 17 view .LVU561
 565:./Application/Src/menu.c ****                 LCD_draw_string(0, 10, "Song ready to play!    ", COLOR_BLACK, COLOR_WHITE);
 2411              		.loc 1 565 59 is_stmt 0 view .LVU562
 2412 041a 2868     		ldr	r0, [r5]
 2413 041c 00EB8000 		add	r0, r0, r0, lsl #2
 565:./Application/Src/menu.c ****                 LCD_draw_string(0, 10, "Song ready to play!    ", COLOR_BLACK, COLOR_WHITE);
 2414              		.loc 1 565 17 view .LVU563
 2415 0420 06EB8000 		add	r0, r6, r0, lsl #2
 2416 0424 FFF7FEFF 		bl	sd_parse_array
 2417              	.LVL178:
 566:./Application/Src/menu.c ****             }
 2418              		.loc 1 566 17 is_stmt 1 view .LVU564
 2419 0428 0094     		str	r4, [sp]
 2420 042a 0023     		movs	r3, #0
 2421 042c 174A     		ldr	r2, .L168+52
ARM GAS  C:\Users\Xuleo\AppData\Local\Temp\cc2YNAUe.s 			page 63


 2422 042e 0A21     		movs	r1, #10
 2423 0430 1846     		mov	r0, r3
 2424 0432 FFF7FEFF 		bl	LCD_draw_string
 2425              	.LVL179:
 2426 0436 C3E7     		b	.L153
 2427              	.L159:
 2428              	.LBE24:
 2429              	.LBB25:
 577:./Application/Src/menu.c ****             LCD_draw_string(0, 1, "[Debug] :a to go back   ", COLOR_BLACK, COLOR_WHITE);
 2430              		.loc 1 577 13 view .LVU565
 2431 0438 FFF7FEFF 		bl	clear_menu_area
 2432              	.LVL180:
 578:./Application/Src/menu.c ****             page_dirty = 0;
 2433              		.loc 1 578 13 view .LVU566
 2434 043c 4FF6FF73 		movw	r3, #65535
 2435 0440 0093     		str	r3, [sp]
 2436 0442 0023     		movs	r3, #0
 2437 0444 124A     		ldr	r2, .L168+56
 2438 0446 0121     		movs	r1, #1
 2439 0448 1846     		mov	r0, r3
 2440 044a FFF7FEFF 		bl	LCD_draw_string
 2441              	.LVL181:
 579:./Application/Src/menu.c ****         }
 2442              		.loc 1 579 13 view .LVU567
 579:./Application/Src/menu.c ****         }
 2443              		.loc 1 579 24 is_stmt 0 view .LVU568
 2444 044e 114B     		ldr	r3, .L168+60
 2445 0450 0022     		movs	r2, #0
 2446 0452 1A60     		str	r2, [r3]
 2447 0454 F5E5     		b	.L154
 2448              	.L169:
 2449 0456 00BF     		.align	2
 2450              	.L168:
 2451 0458 00000000 		.word	.LC35
 2452 045c 1C000000 		.word	.LC36
 2453 0460 38000000 		.word	.LC37
 2454 0464 00000000 		.word	menu_move_down
 2455 0468 00000000 		.word	menu_move_up
 2456 046c 00000000 		.word	select_song_index
 2457 0470 00000000 		.word	fileCount
 2458 0474 00000000 		.word	select_scroll_offset
 2459 0478 00000000 		.word	menu_enter
 2460 047c 00000000 		.word	active_song_index
 2461 0480 00000000 		.word	fileList
 2462 0484 54000000 		.word	.LC38
 2463 0488 68000000 		.word	.LC39
 2464 048c 84000000 		.word	.LC40
 2465 0490 9C000000 		.word	.LC41
 2466 0494 00000000 		.word	page_dirty
 2467              	.LBE25:
 2468              		.cfi_endproc
 2469              	.LFE368:
 2471              		.section	.rodata.str1.4,"aMS",%progbits,1
 2472              		.align	2
 2473              	.LC0:
 2474 0000 312E2050 		.ascii	"1. Play Song\000"
 2474      6C617920 
ARM GAS  C:\Users\Xuleo\AppData\Local\Temp\cc2YNAUe.s 			page 64


 2474      536F6E67 
 2474      00
 2475 000d 000000   		.align	2
 2476              	.LC1:
 2477 0010 322E2054 		.ascii	"2. Transmit Song(SD)\000"
 2477      72616E73 
 2477      6D697420 
 2477      536F6E67 
 2477      28534429 
 2478 0025 000000   		.align	2
 2479              	.LC2:
 2480 0028 332E2054 		.ascii	"3. Transmit Song(RAM)\000"
 2480      72616E73 
 2480      6D697420 
 2480      536F6E67 
 2480      2852414D 
 2481 003e 0000     		.align	2
 2482              	.LC3:
 2483 0040 342E2053 		.ascii	"4. Select Song\000"
 2483      656C6563 
 2483      7420536F 
 2483      6E6700
 2484 004f 00       		.align	2
 2485              	.LC4:
 2486 0050 352E2048 		.ascii	"5. Homing\000"
 2486      6F6D696E 
 2486      6700
 2487 005a 0000     		.align	2
 2488              	.LC5:
 2489 005c 362E2044 		.ascii	"6. Debug\000"
 2489      65627567 
 2489      00
 2490              		.section	.data.page_dirty,"aw"
 2491              		.align	2
 2494              	page_dirty:
 2495 0000 01000000 		.word	1
 2496              		.global	active_song_index
 2497              		.section	.data.active_song_index,"aw"
 2498              		.align	2
 2501              	active_song_index:
 2502 0000 FFFFFFFF 		.word	-1
 2503              		.global	select_scroll_offset
 2504              		.section	.bss.select_scroll_offset,"aw",%nobits
 2505              		.align	2
 2508              	select_scroll_offset:
 2509 0000 00000000 		.space	4
 2510              		.global	select_song_index
 2511              		.section	.bss.select_song_index,"aw",%nobits
 2512              		.align	2
 2515              	select_song_index:
 2516 0000 00000000 		.space	4
 2517              		.global	menu_back
 2518              		.section	.bss.menu_back,"aw",%nobits
 2519              		.align	2
 2522              	menu_back:
 2523 0000 00000000 		.space	4
 2524              		.global	menu_enter
ARM GAS  C:\Users\Xuleo\AppData\Local\Temp\cc2YNAUe.s 			page 65


 2525              		.section	.bss.menu_enter,"aw",%nobits
 2526              		.align	2
 2529              	menu_enter:
 2530 0000 00000000 		.space	4
 2531              		.global	menu_move_up
 2532              		.section	.bss.menu_move_up,"aw",%nobits
 2533              		.align	2
 2536              	menu_move_up:
 2537 0000 00000000 		.space	4
 2538              		.global	menu_move_down
 2539              		.section	.bss.menu_move_down,"aw",%nobits
 2540              		.align	2
 2543              	menu_move_down:
 2544 0000 00000000 		.space	4
 2545              		.global	menu_index
 2546              		.section	.bss.menu_index,"aw",%nobits
 2547              		.align	2
 2550              	menu_index:
 2551 0000 00000000 		.space	4
 2552              		.section	.bss.menu_state,"aw",%nobits
 2555              	menu_state:
 2556 0000 00       		.space	1
 2557              		.section	.rodata
 2558              		.align	2
 2559              		.set	.LANCHOR0,. + 0
 2560              	.LC10:
 2561 0000 00000000 		.word	.LC0
 2562 0004 10000000 		.word	.LC1
 2563 0008 28000000 		.word	.LC2
 2564 000c 40000000 		.word	.LC3
 2565 0010 50000000 		.word	.LC4
 2566 0014 5C000000 		.word	.LC5
 2567              		.text
 2568              	.Letext0:
 2569              		.file 2 "C:/thirdpartyLibs/arm-gnu-toolchain-15.2/lib/gcc/arm-none-eabi/15.2.1/include/stddef.h"
 2570              		.file 3 "C:/thirdpartyLibs/arm-gnu-toolchain-15.2/arm-none-eabi/include/machine/_default_types.h"
 2571              		.file 4 "C:/thirdpartyLibs/arm-gnu-toolchain-15.2/arm-none-eabi/include/sys/_stdint.h"
 2572              		.file 5 "Drivers/CMSIS/Device/ST/STM32H5xx/Include/stm32h523xx.h"
 2573              		.file 6 "Application/Inc/sd.h"
 2574              		.file 7 "Application/Inc/file_transfer.h"
 2575              		.file 8 "Application/Inc/application.h"
 2576              		.file 9 "Application/Inc/menu.h"
 2577              		.file 10 "Application/Inc/command.h"
 2578              		.file 11 "Application/Inc/ILI9225.h"
 2579              		.file 12 "C:/thirdpartyLibs/arm-gnu-toolchain-15.2/arm-none-eabi/include/string.h"
 2580              		.file 13 "C:/thirdpartyLibs/arm-gnu-toolchain-15.2/arm-none-eabi/include/stdio.h"
ARM GAS  C:\Users\Xuleo\AppData\Local\Temp\cc2YNAUe.s 			page 66


DEFINED SYMBOLS
                            *ABS*:00000000 menu.c
C:\Users\Xuleo\AppData\Local\Temp\cc2YNAUe.s:22     .rodata.clear_menu_area.str1.4:00000000 $d
C:\Users\Xuleo\AppData\Local\Temp\cc2YNAUe.s:26     .text.clear_menu_area:00000000 $t
C:\Users\Xuleo\AppData\Local\Temp\cc2YNAUe.s:31     .text.clear_menu_area:00000000 clear_menu_area
C:\Users\Xuleo\AppData\Local\Temp\cc2YNAUe.s:83     .text.clear_menu_area:00000024 $d
C:\Users\Xuleo\AppData\Local\Temp\cc2YNAUe.s:88     .rodata.menu_draw_main.str1.4:00000000 $d
C:\Users\Xuleo\AppData\Local\Temp\cc2YNAUe.s:98     .text.menu_draw_main:00000000 $t
C:\Users\Xuleo\AppData\Local\Temp\cc2YNAUe.s:104    .text.menu_draw_main:00000000 menu_draw_main
C:\Users\Xuleo\AppData\Local\Temp\cc2YNAUe.s:226    .text.menu_draw_main:0000007c $d
C:\Users\Xuleo\AppData\Local\Temp\cc2YNAUe.s:2550   .bss.menu_index:00000000 menu_index
C:\Users\Xuleo\AppData\Local\Temp\cc2YNAUe.s:235    .rodata.menu_draw_transmit.str1.4:00000000 $d
C:\Users\Xuleo\AppData\Local\Temp\cc2YNAUe.s:263    .text.menu_draw_transmit:00000000 $t
C:\Users\Xuleo\AppData\Local\Temp\cc2YNAUe.s:269    .text.menu_draw_transmit:00000000 menu_draw_transmit
C:\Users\Xuleo\AppData\Local\Temp\cc2YNAUe.s:516    .text.menu_draw_transmit:0000012c $d
C:\Users\Xuleo\AppData\Local\Temp\cc2YNAUe.s:2494   .data.page_dirty:00000000 page_dirty
C:\Users\Xuleo\AppData\Local\Temp\cc2YNAUe.s:532    .rodata.menu_draw_transmit_ram.str1.4:00000000 $d
C:\Users\Xuleo\AppData\Local\Temp\cc2YNAUe.s:554    .text.menu_draw_transmit_ram:00000000 $t
C:\Users\Xuleo\AppData\Local\Temp\cc2YNAUe.s:560    .text.menu_draw_transmit_ram:00000000 menu_draw_transmit_ram
C:\Users\Xuleo\AppData\Local\Temp\cc2YNAUe.s:752    .text.menu_draw_transmit_ram:000000f0 $d
C:\Users\Xuleo\AppData\Local\Temp\cc2YNAUe.s:769    .rodata.menu_draw_select.str1.4:00000000 $d
C:\Users\Xuleo\AppData\Local\Temp\cc2YNAUe.s:788    .text.menu_draw_select:00000000 $t
C:\Users\Xuleo\AppData\Local\Temp\cc2YNAUe.s:794    .text.menu_draw_select:00000000 menu_draw_select
C:\Users\Xuleo\AppData\Local\Temp\cc2YNAUe.s:1167   .text.menu_draw_select:000001a0 $d
C:\Users\Xuleo\AppData\Local\Temp\cc2YNAUe.s:2515   .bss.select_song_index:00000000 select_song_index
C:\Users\Xuleo\AppData\Local\Temp\cc2YNAUe.s:2508   .bss.select_scroll_offset:00000000 select_scroll_offset
C:\Users\Xuleo\AppData\Local\Temp\cc2YNAUe.s:2501   .data.active_song_index:00000000 active_song_index
C:\Users\Xuleo\AppData\Local\Temp\cc2YNAUe.s:1186   .text.menu_get_state:00000000 $t
C:\Users\Xuleo\AppData\Local\Temp\cc2YNAUe.s:1192   .text.menu_get_state:00000000 menu_get_state
C:\Users\Xuleo\AppData\Local\Temp\cc2YNAUe.s:1207   .text.menu_get_state:00000008 $d
C:\Users\Xuleo\AppData\Local\Temp\cc2YNAUe.s:2555   .bss.menu_state:00000000 menu_state
C:\Users\Xuleo\AppData\Local\Temp\cc2YNAUe.s:1212   .text.menu_process_message:00000000 $t
C:\Users\Xuleo\AppData\Local\Temp\cc2YNAUe.s:1218   .text.menu_process_message:00000000 menu_process_message
C:\Users\Xuleo\AppData\Local\Temp\cc2YNAUe.s:1331   .text.menu_try_dispatch_binary:00000000 $t
C:\Users\Xuleo\AppData\Local\Temp\cc2YNAUe.s:1337   .text.menu_try_dispatch_binary:00000000 menu_try_dispatch_binary
C:\Users\Xuleo\AppData\Local\Temp\cc2YNAUe.s:1534   .rodata.menu_init.str1.4:00000000 $d
C:\Users\Xuleo\AppData\Local\Temp\cc2YNAUe.s:1538   .text.menu_init:00000000 $t
C:\Users\Xuleo\AppData\Local\Temp\cc2YNAUe.s:1544   .text.menu_init:00000000 menu_init
C:\Users\Xuleo\AppData\Local\Temp\cc2YNAUe.s:1592   .text.menu_init:00000030 $d
C:\Users\Xuleo\AppData\Local\Temp\cc2YNAUe.s:1600   .rodata.menu_update.str1.4:00000000 $d
C:\Users\Xuleo\AppData\Local\Temp\cc2YNAUe.s:1637   .text.menu_update:00000000 $t
C:\Users\Xuleo\AppData\Local\Temp\cc2YNAUe.s:1643   .text.menu_update:00000000 menu_update
C:\Users\Xuleo\AppData\Local\Temp\cc2YNAUe.s:2097   .text.menu_update:00000278 $d
C:\Users\Xuleo\AppData\Local\Temp\cc2YNAUe.s:2522   .bss.menu_back:00000000 menu_back
C:\Users\Xuleo\AppData\Local\Temp\cc2YNAUe.s:2543   .bss.menu_move_down:00000000 menu_move_down
C:\Users\Xuleo\AppData\Local\Temp\cc2YNAUe.s:2536   .bss.menu_move_up:00000000 menu_move_up
C:\Users\Xuleo\AppData\Local\Temp\cc2YNAUe.s:2529   .bss.menu_enter:00000000 menu_enter
C:\Users\Xuleo\AppData\Local\Temp\cc2YNAUe.s:2118   .text.menu_update:000002c4 $t
C:\Users\Xuleo\AppData\Local\Temp\cc2YNAUe.s:2451   .text.menu_update:00000458 $d
C:\Users\Xuleo\AppData\Local\Temp\cc2YNAUe.s:2472   .rodata.str1.4:00000000 $d
C:\Users\Xuleo\AppData\Local\Temp\cc2YNAUe.s:2491   .data.page_dirty:00000000 $d
C:\Users\Xuleo\AppData\Local\Temp\cc2YNAUe.s:2498   .data.active_song_index:00000000 $d
C:\Users\Xuleo\AppData\Local\Temp\cc2YNAUe.s:2505   .bss.select_scroll_offset:00000000 $d
C:\Users\Xuleo\AppData\Local\Temp\cc2YNAUe.s:2512   .bss.select_song_index:00000000 $d
C:\Users\Xuleo\AppData\Local\Temp\cc2YNAUe.s:2519   .bss.menu_back:00000000 $d
C:\Users\Xuleo\AppData\Local\Temp\cc2YNAUe.s:2526   .bss.menu_enter:00000000 $d
C:\Users\Xuleo\AppData\Local\Temp\cc2YNAUe.s:2533   .bss.menu_move_up:00000000 $d
ARM GAS  C:\Users\Xuleo\AppData\Local\Temp\cc2YNAUe.s 			page 67


C:\Users\Xuleo\AppData\Local\Temp\cc2YNAUe.s:2540   .bss.menu_move_down:00000000 $d
C:\Users\Xuleo\AppData\Local\Temp\cc2YNAUe.s:2547   .bss.menu_index:00000000 $d
C:\Users\Xuleo\AppData\Local\Temp\cc2YNAUe.s:2556   .bss.menu_state:00000000 $d
C:\Users\Xuleo\AppData\Local\Temp\cc2YNAUe.s:2558   .rodata:00000000 $d

UNDEFINED SYMBOLS
LCD_draw_string
snprintf
strlen
FT_GetState
FT_GetProgress
ram_rx_started
ram_rx_complete
ram_rx_offset
redirect_to_ram
sd_list_txt_files
fileCount
fileList
execute_command
FT_ProcessPacket
RAM_ProcessPacket
__aeabi_f2d
FT_Abort
FT_TimeoutCheck
traversal
FT_Init
right_motor
left_motor
uart_binary_mode
homing_procedure
sd_parse_array
