ARM GAS  C:\Users\Xuleo\AppData\Local\Temp\ccmtyLsy.s 			page 1


   1              		.cpu cortex-m3
   2              		.arch armv7-m
   3              		.fpu softvfp
   4              		.eabi_attribute 20, 1
   5              		.eabi_attribute 21, 1
   6              		.eabi_attribute 23, 3
   7              		.eabi_attribute 24, 1
   8              		.eabi_attribute 25, 1
   9              		.eabi_attribute 26, 1
  10              		.eabi_attribute 30, 1
  11              		.eabi_attribute 34, 1
  12              		.eabi_attribute 18, 4
  13              		.file	"mpu6050sensor.c"
  14              		.text
  15              	.Ltext0:
  16              		.cfi_sections	.debug_frame
  17              		.file 1 "./Application/Src/mpu6050sensor.c"
  18              		.section	.text.checkExist,"ax",%progbits
  19              		.align	1
  20              		.global	checkExist
  21              		.syntax unified
  22              		.thumb
  23              		.thumb_func
  25              	checkExist:
  26              	.LFB65:
   1:./Application/Src/mpu6050sensor.c **** #include <mpu6050sensor.h>
   2:./Application/Src/mpu6050sensor.c **** #include <stdint.h>
   3:./Application/Src/mpu6050sensor.c **** #include "i2c.h"
   4:./Application/Src/mpu6050sensor.c **** 
   5:./Application/Src/mpu6050sensor.c **** float accData[3];
   6:./Application/Src/mpu6050sensor.c **** float gyroData[3];
   7:./Application/Src/mpu6050sensor.c **** 
   8:./Application/Src/mpu6050sensor.c **** int checkExist(){
  27              		.loc 1 8 17 view -0
  28              		.cfi_startproc
  29              		@ args = 0, pretend = 0, frame = 8
  30              		@ frame_needed = 0, uses_anonymous_args = 0
  31 0000 00B5     		push	{lr}
  32              	.LCFI0:
  33              		.cfi_def_cfa_offset 4
  34              		.cfi_offset 14, -4
  35 0002 87B0     		sub	sp, sp, #28
  36              	.LCFI1:
  37              		.cfi_def_cfa_offset 32
   9:./Application/Src/mpu6050sensor.c ****     uint8_t readResult = 0;
  38              		.loc 1 9 5 view .LVU1
  39              		.loc 1 9 13 is_stmt 0 view .LVU2
  40 0004 0023     		movs	r3, #0
  41 0006 8DF81730 		strb	r3, [sp, #23]
  10:./Application/Src/mpu6050sensor.c ****     // read device's who am i register
  11:./Application/Src/mpu6050sensor.c ****     HAL_I2C_Mem_Read(&hi2c2, MPU6050_SLAVE_ADDRESS, MPU6050_WHO_AM_I, I2C_MEMADD_SIZE_8BIT, &readRe
  42              		.loc 1 11 5 is_stmt 1 view .LVU3
  43 000a 6423     		movs	r3, #100
  44 000c 0293     		str	r3, [sp, #8]
  45 000e 0123     		movs	r3, #1
  46 0010 0193     		str	r3, [sp, #4]
  47 0012 0DF11702 		add	r2, sp, #23
ARM GAS  C:\Users\Xuleo\AppData\Local\Temp\ccmtyLsy.s 			page 2


  48 0016 0092     		str	r2, [sp]
  49 0018 7522     		movs	r2, #117
  50 001a D021     		movs	r1, #208
  51 001c 0648     		ldr	r0, .L5
  52 001e FFF7FEFF 		bl	HAL_I2C_Mem_Read
  53              	.LVL0:
  12:./Application/Src/mpu6050sensor.c ****     if (readResult != 0x68){
  54              		.loc 1 12 5 view .LVU4
  55              		.loc 1 12 20 is_stmt 0 view .LVU5
  56 0022 9DF81730 		ldrb	r3, [sp, #23]	@ zero_extendqisi2
  57              		.loc 1 12 8 view .LVU6
  58 0026 682B     		cmp	r3, #104
  59 0028 03D0     		beq	.L3
  13:./Application/Src/mpu6050sensor.c ****         return 1;
  60              		.loc 1 13 16 view .LVU7
  61 002a 0120     		movs	r0, #1
  62              	.L1:
  14:./Application/Src/mpu6050sensor.c ****     } else {
  15:./Application/Src/mpu6050sensor.c ****         return 0;
  16:./Application/Src/mpu6050sensor.c ****     }
  17:./Application/Src/mpu6050sensor.c **** }
  63              		.loc 1 17 1 view .LVU8
  64 002c 07B0     		add	sp, sp, #28
  65              	.LCFI2:
  66              		.cfi_remember_state
  67              		.cfi_def_cfa_offset 4
  68              		@ sp needed
  69 002e 5DF804FB 		ldr	pc, [sp], #4
  70              	.L3:
  71              	.LCFI3:
  72              		.cfi_restore_state
  15:./Application/Src/mpu6050sensor.c ****     }
  73              		.loc 1 15 16 view .LVU9
  74 0032 0020     		movs	r0, #0
  75 0034 FAE7     		b	.L1
  76              	.L6:
  77 0036 00BF     		.align	2
  78              	.L5:
  79 0038 00000000 		.word	hi2c2
  80              		.cfi_endproc
  81              	.LFE65:
  83              		.section	.text.mpu6050Init,"ax",%progbits
  84              		.align	1
  85              		.global	mpu6050Init
  86              		.syntax unified
  87              		.thumb
  88              		.thumb_func
  90              	mpu6050Init:
  91              	.LFB66:
  18:./Application/Src/mpu6050sensor.c **** 
  19:./Application/Src/mpu6050sensor.c **** void mpu6050Init(){
  92              		.loc 1 19 19 is_stmt 1 view -0
  93              		.cfi_startproc
  94              		@ args = 0, pretend = 0, frame = 8
  95              		@ frame_needed = 0, uses_anonymous_args = 0
  96 0000 F0B5     		push	{r4, r5, r6, r7, lr}
  97              	.LCFI4:
ARM GAS  C:\Users\Xuleo\AppData\Local\Temp\ccmtyLsy.s 			page 3


  98              		.cfi_def_cfa_offset 20
  99              		.cfi_offset 4, -20
 100              		.cfi_offset 5, -16
 101              		.cfi_offset 6, -12
 102              		.cfi_offset 7, -8
 103              		.cfi_offset 14, -4
 104 0002 87B0     		sub	sp, sp, #28
 105              	.LCFI5:
 106              		.cfi_def_cfa_offset 48
  20:./Application/Src/mpu6050sensor.c ****     HAL_Delay(100); // wait for power
 107              		.loc 1 20 5 view .LVU11
 108 0004 6420     		movs	r0, #100
 109 0006 FFF7FEFF 		bl	HAL_Delay
 110              	.LVL1:
  21:./Application/Src/mpu6050sensor.c ****     uint8_t data;
 111              		.loc 1 21 5 view .LVU12
  22:./Application/Src/mpu6050sensor.c ****     // wake up 
  23:./Application/Src/mpu6050sensor.c ****     data = 0x00;
 112              		.loc 1 23 5 view .LVU13
 113              		.loc 1 23 10 is_stmt 0 view .LVU14
 114 000a 0023     		movs	r3, #0
 115 000c 8DF81730 		strb	r3, [sp, #23]
  24:./Application/Src/mpu6050sensor.c ****     HAL_I2C_Mem_Write(&hi2c2, MPU6050_SLAVE_ADDRESS, 0x6B, I2C_MEMADD_SIZE_8BIT, &data, 1, 100);
 116              		.loc 1 24 5 is_stmt 1 view .LVU15
 117 0010 1F4D     		ldr	r5, .L9
 118 0012 6427     		movs	r7, #100
 119 0014 0297     		str	r7, [sp, #8]
 120 0016 0124     		movs	r4, #1
 121 0018 0194     		str	r4, [sp, #4]
 122 001a 0DF11706 		add	r6, sp, #23
 123 001e 0096     		str	r6, [sp]
 124 0020 2346     		mov	r3, r4
 125 0022 6B22     		movs	r2, #107
 126 0024 D021     		movs	r1, #208
 127 0026 2846     		mov	r0, r5
 128 0028 FFF7FEFF 		bl	HAL_I2C_Mem_Write
 129              	.LVL2:
  25:./Application/Src/mpu6050sensor.c ****     // sample rate divider
  26:./Application/Src/mpu6050sensor.c ****     data = 0x07;
 130              		.loc 1 26 5 view .LVU16
 131              		.loc 1 26 10 is_stmt 0 view .LVU17
 132 002c 0723     		movs	r3, #7
 133 002e 8DF81730 		strb	r3, [sp, #23]
  27:./Application/Src/mpu6050sensor.c ****     HAL_I2C_Mem_Write(&hi2c2, MPU6050_SLAVE_ADDRESS, 0x19, I2C_MEMADD_SIZE_8BIT, &data, 1, 100);
 134              		.loc 1 27 5 is_stmt 1 view .LVU18
 135 0032 0297     		str	r7, [sp, #8]
 136 0034 0194     		str	r4, [sp, #4]
 137 0036 0096     		str	r6, [sp]
 138 0038 2346     		mov	r3, r4
 139 003a 1922     		movs	r2, #25
 140 003c D021     		movs	r1, #208
 141 003e 2846     		mov	r0, r5
 142 0040 FFF7FEFF 		bl	HAL_I2C_Mem_Write
 143              	.LVL3:
  28:./Application/Src/mpu6050sensor.c ****     // DLPF config
  29:./Application/Src/mpu6050sensor.c ****     data = 0x06;
 144              		.loc 1 29 5 view .LVU19
ARM GAS  C:\Users\Xuleo\AppData\Local\Temp\ccmtyLsy.s 			page 4


 145              		.loc 1 29 10 is_stmt 0 view .LVU20
 146 0044 0623     		movs	r3, #6
 147 0046 8DF81730 		strb	r3, [sp, #23]
  30:./Application/Src/mpu6050sensor.c ****     HAL_I2C_Mem_Write(&hi2c2, MPU6050_SLAVE_ADDRESS, 0x1A, I2C_MEMADD_SIZE_8BIT, &data, 1, 100);
 148              		.loc 1 30 5 is_stmt 1 view .LVU21
 149 004a 0297     		str	r7, [sp, #8]
 150 004c 0194     		str	r4, [sp, #4]
 151 004e 0096     		str	r6, [sp]
 152 0050 2346     		mov	r3, r4
 153 0052 1A22     		movs	r2, #26
 154 0054 D021     		movs	r1, #208
 155 0056 2846     		mov	r0, r5
 156 0058 FFF7FEFF 		bl	HAL_I2C_Mem_Write
 157              	.LVL4:
  31:./Application/Src/mpu6050sensor.c ****     // gyro config
  32:./Application/Src/mpu6050sensor.c ****     data = 0x08;
 158              		.loc 1 32 5 view .LVU22
 159              		.loc 1 32 10 is_stmt 0 view .LVU23
 160 005c 0823     		movs	r3, #8
 161 005e 8DF81730 		strb	r3, [sp, #23]
  33:./Application/Src/mpu6050sensor.c ****     HAL_I2C_Mem_Write(&hi2c2, MPU6050_SLAVE_ADDRESS, 0x1B, I2C_MEMADD_SIZE_8BIT, &data, 1, 100);
 162              		.loc 1 33 5 is_stmt 1 view .LVU24
 163 0062 0297     		str	r7, [sp, #8]
 164 0064 0194     		str	r4, [sp, #4]
 165 0066 0096     		str	r6, [sp]
 166 0068 2346     		mov	r3, r4
 167 006a 1B22     		movs	r2, #27
 168 006c D021     		movs	r1, #208
 169 006e 2846     		mov	r0, r5
 170 0070 FFF7FEFF 		bl	HAL_I2C_Mem_Write
 171              	.LVL5:
  34:./Application/Src/mpu6050sensor.c ****     // cccel config
  35:./Application/Src/mpu6050sensor.c ****     data = 0x18;
 172              		.loc 1 35 5 view .LVU25
 173              		.loc 1 35 10 is_stmt 0 view .LVU26
 174 0074 1823     		movs	r3, #24
 175 0076 8DF81730 		strb	r3, [sp, #23]
  36:./Application/Src/mpu6050sensor.c ****     HAL_I2C_Mem_Write(&hi2c2, MPU6050_SLAVE_ADDRESS, 0x1C, I2C_MEMADD_SIZE_8BIT, &data, 1, 100);
 176              		.loc 1 36 5 is_stmt 1 view .LVU27
 177 007a 0297     		str	r7, [sp, #8]
 178 007c 0194     		str	r4, [sp, #4]
 179 007e 0096     		str	r6, [sp]
 180 0080 2346     		mov	r3, r4
 181 0082 1C22     		movs	r2, #28
 182 0084 D021     		movs	r1, #208
 183 0086 2846     		mov	r0, r5
 184 0088 FFF7FEFF 		bl	HAL_I2C_Mem_Write
 185              	.LVL6:
  37:./Application/Src/mpu6050sensor.c **** }
 186              		.loc 1 37 1 is_stmt 0 view .LVU28
 187 008c 07B0     		add	sp, sp, #28
 188              	.LCFI6:
 189              		.cfi_def_cfa_offset 20
 190              		@ sp needed
 191 008e F0BD     		pop	{r4, r5, r6, r7, pc}
 192              	.L10:
 193              		.align	2
ARM GAS  C:\Users\Xuleo\AppData\Local\Temp\ccmtyLsy.s 			page 5


 194              	.L9:
 195 0090 00000000 		.word	hi2c2
 196              		.cfi_endproc
 197              	.LFE66:
 199              		.global	__aeabi_i2f
 200              		.global	__aeabi_fmul
 201              		.global	__aeabi_fdiv
 202              		.section	.text.readAcc,"ax",%progbits
 203              		.align	1
 204              		.global	readAcc
 205              		.syntax unified
 206              		.thumb
 207              		.thumb_func
 209              	readAcc:
 210              	.LFB67:
  38:./Application/Src/mpu6050sensor.c **** 
  39:./Application/Src/mpu6050sensor.c **** void readAcc(){ // store data in global variable
 211              		.loc 1 39 15 is_stmt 1 view -0
 212              		.cfi_startproc
 213              		@ args = 0, pretend = 0, frame = 8
 214              		@ frame_needed = 0, uses_anonymous_args = 0
 215 0000 2DE9F041 		push	{r4, r5, r6, r7, r8, lr}
 216              	.LCFI7:
 217              		.cfi_def_cfa_offset 24
 218              		.cfi_offset 4, -24
 219              		.cfi_offset 5, -20
 220              		.cfi_offset 6, -16
 221              		.cfi_offset 7, -12
 222              		.cfi_offset 8, -8
 223              		.cfi_offset 14, -4
 224 0004 86B0     		sub	sp, sp, #24
 225              	.LCFI8:
 226              		.cfi_def_cfa_offset 48
  40:./Application/Src/mpu6050sensor.c ****     uint8_t buffer[6]; // buffer to store the acceleration data
 227              		.loc 1 40 5 view .LVU30
  41:./Application/Src/mpu6050sensor.c ****     HAL_I2C_Mem_Read(&hi2c2, MPU6050_SLAVE_ADDRESS, MPU6050_ACC_OUT, I2C_MEMADD_SIZE_8BIT, buffer, 
 228              		.loc 1 41 5 view .LVU31
 229 0006 3C4E     		ldr	r6, .L13
 230 0008 4FF06408 		mov	r8, #100
 231 000c CDF80880 		str	r8, [sp, #8]
 232 0010 0627     		movs	r7, #6
 233 0012 0197     		str	r7, [sp, #4]
 234 0014 04AD     		add	r5, sp, #16
 235 0016 0095     		str	r5, [sp]
 236 0018 0123     		movs	r3, #1
 237 001a 3B22     		movs	r2, #59
 238 001c D021     		movs	r1, #208
 239 001e 3046     		mov	r0, r6
 240 0020 FFF7FEFF 		bl	HAL_I2C_Mem_Read
 241              	.LVL7:
  42:./Application/Src/mpu6050sensor.c ****     // divide 2048 in terms of g, expected: accelZ should show appro 1g
  43:./Application/Src/mpu6050sensor.c ****     accData[0] = (int16_t)((buffer[0] << 8) | buffer[1]) / 2048.0f;
 242              		.loc 1 43 5 view .LVU32
 243              		.loc 1 43 35 is_stmt 0 view .LVU33
 244 0024 9DF81030 		ldrb	r3, [sp, #16]	@ zero_extendqisi2
 245              		.loc 1 43 53 view .LVU34
 246 0028 9DF81100 		ldrb	r0, [sp, #17]	@ zero_extendqisi2
ARM GAS  C:\Users\Xuleo\AppData\Local\Temp\ccmtyLsy.s 			page 6


 247              		.loc 1 43 18 view .LVU35
 248 002c 40EA0320 		orr	r0, r0, r3, lsl #8
 249              		.loc 1 43 58 view .LVU36
 250 0030 00B2     		sxth	r0, r0
 251 0032 FFF7FEFF 		bl	__aeabi_i2f
 252              	.LVL8:
 253 0036 4FF06851 		mov	r1, #973078528
 254 003a FFF7FEFF 		bl	__aeabi_fmul
 255              	.LVL9:
 256              		.loc 1 43 16 view .LVU37
 257 003e 2F4C     		ldr	r4, .L13+4
 258 0040 2060     		str	r0, [r4]	@ float
  44:./Application/Src/mpu6050sensor.c ****     accData[1] = (int16_t)((buffer[2] << 8) | buffer[3]) / 2048.0f;
 259              		.loc 1 44 5 is_stmt 1 view .LVU38
 260              		.loc 1 44 35 is_stmt 0 view .LVU39
 261 0042 9DF81230 		ldrb	r3, [sp, #18]	@ zero_extendqisi2
 262              		.loc 1 44 53 view .LVU40
 263 0046 9DF81300 		ldrb	r0, [sp, #19]	@ zero_extendqisi2
 264              		.loc 1 44 18 view .LVU41
 265 004a 40EA0320 		orr	r0, r0, r3, lsl #8
 266              		.loc 1 44 58 view .LVU42
 267 004e 00B2     		sxth	r0, r0
 268 0050 FFF7FEFF 		bl	__aeabi_i2f
 269              	.LVL10:
 270 0054 4FF06851 		mov	r1, #973078528
 271 0058 FFF7FEFF 		bl	__aeabi_fmul
 272              	.LVL11:
 273              		.loc 1 44 16 view .LVU43
 274 005c 6060     		str	r0, [r4, #4]	@ float
  45:./Application/Src/mpu6050sensor.c ****     accData[2] = (int16_t)((buffer[4] << 8) | buffer[5]) / 2048.0f;
 275              		.loc 1 45 5 is_stmt 1 view .LVU44
 276              		.loc 1 45 35 is_stmt 0 view .LVU45
 277 005e 9DF81430 		ldrb	r3, [sp, #20]	@ zero_extendqisi2
 278              		.loc 1 45 53 view .LVU46
 279 0062 9DF81500 		ldrb	r0, [sp, #21]	@ zero_extendqisi2
 280              		.loc 1 45 18 view .LVU47
 281 0066 40EA0320 		orr	r0, r0, r3, lsl #8
 282              		.loc 1 45 58 view .LVU48
 283 006a 00B2     		sxth	r0, r0
 284 006c FFF7FEFF 		bl	__aeabi_i2f
 285              	.LVL12:
 286 0070 4FF06851 		mov	r1, #973078528
 287 0074 FFF7FEFF 		bl	__aeabi_fmul
 288              	.LVL13:
 289              		.loc 1 45 16 view .LVU49
 290 0078 A060     		str	r0, [r4, #8]	@ float
  46:./Application/Src/mpu6050sensor.c **** 
  47:./Application/Src/mpu6050sensor.c ****     HAL_I2C_Mem_Read(&hi2c2, MPU6050_SLAVE_ADDRESS, MPU6050_GYRO_OUT, I2C_MEMADD_SIZE_8BIT, buffer,
 291              		.loc 1 47 5 is_stmt 1 view .LVU50
 292 007a CDF80880 		str	r8, [sp, #8]
 293 007e 0197     		str	r7, [sp, #4]
 294 0080 0095     		str	r5, [sp]
 295 0082 0123     		movs	r3, #1
 296 0084 4322     		movs	r2, #67
 297 0086 D021     		movs	r1, #208
 298 0088 3046     		mov	r0, r6
 299 008a FFF7FEFF 		bl	HAL_I2C_Mem_Read
ARM GAS  C:\Users\Xuleo\AppData\Local\Temp\ccmtyLsy.s 			page 7


 300              	.LVL14:
  48:./Application/Src/mpu6050sensor.c ****     gyroData[0] = (int16_t)((buffer[0] << 8) | buffer[1]) / 65.5f * 0.0174533f;
 301              		.loc 1 48 5 view .LVU51
 302              		.loc 1 48 36 is_stmt 0 view .LVU52
 303 008e 9DF81030 		ldrb	r3, [sp, #16]	@ zero_extendqisi2
 304              		.loc 1 48 54 view .LVU53
 305 0092 9DF81100 		ldrb	r0, [sp, #17]	@ zero_extendqisi2
 306              		.loc 1 48 19 view .LVU54
 307 0096 40EA0320 		orr	r0, r0, r3, lsl #8
 308              		.loc 1 48 59 view .LVU55
 309 009a 00B2     		sxth	r0, r0
 310 009c FFF7FEFF 		bl	__aeabi_i2f
 311              	.LVL15:
 312 00a0 1749     		ldr	r1, .L13+8
 313 00a2 FFF7FEFF 		bl	__aeabi_fdiv
 314              	.LVL16:
 315              		.loc 1 48 67 view .LVU56
 316 00a6 1749     		ldr	r1, .L13+12
 317 00a8 FFF7FEFF 		bl	__aeabi_fmul
 318              	.LVL17:
 319              		.loc 1 48 17 view .LVU57
 320 00ac 164C     		ldr	r4, .L13+16
 321 00ae 2060     		str	r0, [r4]	@ float
  49:./Application/Src/mpu6050sensor.c ****     gyroData[1] = (int16_t)((buffer[2] << 8) | buffer[3]) / 65.5f * 0.0174533f;
 322              		.loc 1 49 5 is_stmt 1 view .LVU58
 323              		.loc 1 49 36 is_stmt 0 view .LVU59
 324 00b0 9DF81230 		ldrb	r3, [sp, #18]	@ zero_extendqisi2
 325              		.loc 1 49 54 view .LVU60
 326 00b4 9DF81300 		ldrb	r0, [sp, #19]	@ zero_extendqisi2
 327              		.loc 1 49 19 view .LVU61
 328 00b8 40EA0320 		orr	r0, r0, r3, lsl #8
 329              		.loc 1 49 59 view .LVU62
 330 00bc 00B2     		sxth	r0, r0
 331 00be FFF7FEFF 		bl	__aeabi_i2f
 332              	.LVL18:
 333 00c2 0F49     		ldr	r1, .L13+8
 334 00c4 FFF7FEFF 		bl	__aeabi_fdiv
 335              	.LVL19:
 336              		.loc 1 49 67 view .LVU63
 337 00c8 0E49     		ldr	r1, .L13+12
 338 00ca FFF7FEFF 		bl	__aeabi_fmul
 339              	.LVL20:
 340              		.loc 1 49 17 view .LVU64
 341 00ce 6060     		str	r0, [r4, #4]	@ float
  50:./Application/Src/mpu6050sensor.c ****     gyroData[2] = (int16_t)((buffer[4] << 8) | buffer[5]) / 65.5f * 0.0174533f;
 342              		.loc 1 50 5 is_stmt 1 view .LVU65
 343              		.loc 1 50 36 is_stmt 0 view .LVU66
 344 00d0 9DF81430 		ldrb	r3, [sp, #20]	@ zero_extendqisi2
 345              		.loc 1 50 54 view .LVU67
 346 00d4 9DF81500 		ldrb	r0, [sp, #21]	@ zero_extendqisi2
 347              		.loc 1 50 19 view .LVU68
 348 00d8 40EA0320 		orr	r0, r0, r3, lsl #8
 349              		.loc 1 50 59 view .LVU69
 350 00dc 00B2     		sxth	r0, r0
 351 00de FFF7FEFF 		bl	__aeabi_i2f
 352              	.LVL21:
 353 00e2 0749     		ldr	r1, .L13+8
ARM GAS  C:\Users\Xuleo\AppData\Local\Temp\ccmtyLsy.s 			page 8


 354 00e4 FFF7FEFF 		bl	__aeabi_fdiv
 355              	.LVL22:
 356              		.loc 1 50 67 view .LVU70
 357 00e8 0649     		ldr	r1, .L13+12
 358 00ea FFF7FEFF 		bl	__aeabi_fmul
 359              	.LVL23:
 360              		.loc 1 50 17 view .LVU71
 361 00ee A060     		str	r0, [r4, #8]	@ float
  51:./Application/Src/mpu6050sensor.c **** 
  52:./Application/Src/mpu6050sensor.c **** }...
 362              		.loc 1 52 1 view .LVU72
 363 00f0 06B0     		add	sp, sp, #24
 364              	.LCFI9:
 365              		.cfi_def_cfa_offset 24
 366              		@ sp needed
 367 00f2 BDE8F081 		pop	{r4, r5, r6, r7, r8, pc}
 368              	.L14:
 369 00f6 00BF     		.align	2
 370              	.L13:
 371 00f8 00000000 		.word	hi2c2
 372 00fc 00000000 		.word	accData
 373 0100 00008342 		.word	1115881472
 374 0104 39FA8E3C 		.word	1016003129
 375 0108 00000000 		.word	gyroData
 376              		.cfi_endproc
 377              	.LFE67:
 379              		.global	gyroData
 380              		.section	.bss.gyroData,"aw",%nobits
 381              		.align	2
 384              	gyroData:
 385 0000 00000000 		.space	12
 385      00000000 
 385      00000000 
 386              		.global	accData
 387              		.section	.bss.accData,"aw",%nobits
 388              		.align	2
 391              	accData:
 392 0000 00000000 		.space	12
 392      00000000 
 392      00000000 
 393              		.text
 394              	.Letext0:
 395              		.file 2 "C:\\ST\\STM32CubeCLT_1.19.0\\GNU-tools-for-STM32\\bin/../lib/gcc/arm-none-eabi/13.3.1/../
 396              		.file 3 "C:\\ST\\STM32CubeCLT_1.19.0\\GNU-tools-for-STM32\\bin/../lib/gcc/arm-none-eabi/13.3.1/../
 397              		.file 4 "Application/Inc/mpu6050sensor.h"
 398              		.file 5 "Drivers/CMSIS/Device/ST/STM32F1xx/Include/stm32f103xb.h"
 399              		.file 6 "Drivers/STM32F1xx_HAL_Driver/Inc/stm32f1xx_hal_def.h"
 400              		.file 7 "Drivers/STM32F1xx_HAL_Driver/Inc/stm32f1xx_hal_dma.h"
 401              		.file 8 "Drivers/STM32F1xx_HAL_Driver/Inc/stm32f1xx_hal_i2c.h"
 402              		.file 9 "Core/Inc/i2c.h"
 403              		.file 10 "Drivers/STM32F1xx_HAL_Driver/Inc/stm32f1xx_hal.h"
ARM GAS  C:\Users\Xuleo\AppData\Local\Temp\ccmtyLsy.s 			page 9

