ARM GAS  C:\Users\Xuleo\AppData\Local\Temp\ccL4YgGa.s 			page 1


   1              		.cpu cortex-m3
   2              		.arch armv7-m
   3              		.fpu softvfp
   4              		.eabi_attribute 20, 1
   5              		.eabi_attribute 21, 1
   6              		.eabi_attribute 23, 3
   7              		.eabi_attribute 24, 1
   8              		.eabi_attribute 25, 1
   9              		.eabi_attribute 26, 1
  10              		.eabi_attribute 30, 1
  11              		.eabi_attribute 34, 1
  12              		.eabi_attribute 18, 4
  13              		.file	"sdcard.c"
  14              		.text
  15              	.Ltext0:
  16              		.cfi_sections	.debug_frame
  17              		.file 1 "./Application/Src/sdcard.c"
  18              		.section	.text.isMidiFile,"ax",%progbits
  19              		.align	1
  20              		.syntax unified
  21              		.thumb
  22              		.thumb_func
  24              	isMidiFile:
  25              	.LVL0:
  26              	.LFB75:
   1:./Application/Src/sdcard.c **** /*
   2:./Application/Src/sdcard.c ****  * sdcard.c - SD Card operations using FatFs
   3:./Application/Src/sdcard.c ****  */
   4:./Application/Src/sdcard.c **** 
   5:./Application/Src/sdcard.c **** #include <sdcard.h>
   6:./Application/Src/sdcard.c **** #include <oled1315.h>
   7:./Application/Src/sdcard.c **** #include <string.h>
   8:./Application/Src/sdcard.c **** #include <stdio.h>
   9:./Application/Src/sdcard.c **** 
  10:./Application/Src/sdcard.c **** /* Global variables */
  11:./Application/Src/sdcard.c **** FATFS fatFs;
  12:./Application/Src/sdcard.c **** FileEntry fileList[MAX_FILES];
  13:./Application/Src/sdcard.c **** uint8_t fileCount = 0;
  14:./Application/Src/sdcard.c **** 
  15:./Application/Src/sdcard.c **** /* Initialize SD card and mount filesystem */
  16:./Application/Src/sdcard.c **** FRESULT SD_Init(void) {
  17:./Application/Src/sdcard.c ****     FRESULT res;
  18:./Application/Src/sdcard.c **** 
  19:./Application/Src/sdcard.c ****     /* Mount the filesystem */
  20:./Application/Src/sdcard.c ****     res = f_mount(&fatFs, "", 1);  /* 1 = mount now */
  21:./Application/Src/sdcard.c **** 
  22:./Application/Src/sdcard.c ****     return res;
  23:./Application/Src/sdcard.c **** }
  24:./Application/Src/sdcard.c **** 
  25:./Application/Src/sdcard.c **** /* Mount SD card */
  26:./Application/Src/sdcard.c **** FRESULT SD_Mount(void) {
  27:./Application/Src/sdcard.c ****     return f_mount(&fatFs, "", 1);
  28:./Application/Src/sdcard.c **** }
  29:./Application/Src/sdcard.c **** 
  30:./Application/Src/sdcard.c **** /* Unmount SD card */
  31:./Application/Src/sdcard.c **** FRESULT SD_Unmount(void) {
  32:./Application/Src/sdcard.c ****     return f_mount(NULL, "", 0);
ARM GAS  C:\Users\Xuleo\AppData\Local\Temp\ccL4YgGa.s 			page 2


  33:./Application/Src/sdcard.c **** }
  34:./Application/Src/sdcard.c **** 
  35:./Application/Src/sdcard.c **** /* Open file */
  36:./Application/Src/sdcard.c **** FRESULT SD_OpenFile(FIL* file, const char* path, BYTE mode) {
  37:./Application/Src/sdcard.c ****     return f_open(file, path, mode);
  38:./Application/Src/sdcard.c **** }
  39:./Application/Src/sdcard.c **** 
  40:./Application/Src/sdcard.c **** /* Close file */
  41:./Application/Src/sdcard.c **** FRESULT SD_CloseFile(FIL* file) {
  42:./Application/Src/sdcard.c ****     return f_close(file);
  43:./Application/Src/sdcard.c **** }
  44:./Application/Src/sdcard.c **** 
  45:./Application/Src/sdcard.c **** /* Read from file */
  46:./Application/Src/sdcard.c **** FRESULT SD_ReadFile(FIL* file, void* buff, UINT btr, UINT* br) {
  47:./Application/Src/sdcard.c ****     return f_read(file, buff, btr, br);
  48:./Application/Src/sdcard.c **** }
  49:./Application/Src/sdcard.c **** 
  50:./Application/Src/sdcard.c **** /* Write to file */
  51:./Application/Src/sdcard.c **** FRESULT SD_WriteFile(FIL* file, const void* buff, UINT btw, UINT* bw) {
  52:./Application/Src/sdcard.c ****     return f_write(file, buff, btw, bw);
  53:./Application/Src/sdcard.c **** }
  54:./Application/Src/sdcard.c **** 
  55:./Application/Src/sdcard.c **** /* Helper: Check if filename has .MID extension */
  56:./Application/Src/sdcard.c **** static int isMidiFile(const char* name) {
  27              		.loc 1 56 41 view -0
  28              		.cfi_startproc
  29              		@ args = 0, pretend = 0, frame = 0
  30              		@ frame_needed = 0, uses_anonymous_args = 0
  31              		.loc 1 56 41 is_stmt 0 view .LVU1
  32 0000 10B5     		push	{r4, lr}
  33              	.LCFI0:
  34              		.cfi_def_cfa_offset 8
  35              		.cfi_offset 4, -8
  36              		.cfi_offset 14, -4
  37 0002 0446     		mov	r4, r0
  57:./Application/Src/sdcard.c ****     size_t len = strlen(name);
  38              		.loc 1 57 5 is_stmt 1 view .LVU2
  39              		.loc 1 57 18 is_stmt 0 view .LVU3
  40 0004 FFF7FEFF 		bl	strlen
  41              	.LVL1:
  58:./Application/Src/sdcard.c ****     if (len < 4) return 0;
  42              		.loc 1 58 5 is_stmt 1 view .LVU4
  43              		.loc 1 58 8 is_stmt 0 view .LVU5
  44 0008 0328     		cmp	r0, #3
  45 000a 1BD9     		bls	.L5
  59:./Application/Src/sdcard.c **** 
  60:./Application/Src/sdcard.c ****     const char* ext = name + len - 4;
  46              		.loc 1 60 5 is_stmt 1 view .LVU6
  47              		.loc 1 60 34 is_stmt 0 view .LVU7
  48 000c 031F     		subs	r3, r0, #4
  49              		.loc 1 60 17 view .LVU8
  50 000e E218     		adds	r2, r4, r3
  51              	.LVL2:
  61:./Application/Src/sdcard.c ****     return (ext[0] == '.' &&
  52              		.loc 1 61 5 is_stmt 1 view .LVU9
  53              		.loc 1 61 16 is_stmt 0 view .LVU10
  54 0010 E35C     		ldrb	r3, [r4, r3]	@ zero_extendqisi2
ARM GAS  C:\Users\Xuleo\AppData\Local\Temp\ccL4YgGa.s 			page 3


  62:./Application/Src/sdcard.c ****             (ext[1] == 'M' || ext[1] == 'm') &&
  63:./Application/Src/sdcard.c ****             (ext[2] == 'I' || ext[2] == 'i') &&
  55              		.loc 1 63 46 view .LVU11
  56 0012 2E2B     		cmp	r3, #46
  57 0014 01D0     		beq	.L12
  58              		.loc 1 63 46 discriminator 1 view .LVU12
  59 0016 0020     		movs	r0, #0
  60              	.LVL3:
  61              	.L1:
  64:./Application/Src/sdcard.c ****             (ext[3] == 'D' || ext[3] == 'd'));
  65:./Application/Src/sdcard.c **** }
  62              		.loc 1 65 1 view .LVU13
  63 0018 10BD     		pop	{r4, pc}
  64              	.LVL4:
  65              	.L12:
  62:./Application/Src/sdcard.c ****             (ext[1] == 'M' || ext[1] == 'm') &&
  66              		.loc 1 62 17 view .LVU14
  67 001a 5378     		ldrb	r3, [r2, #1]	@ zero_extendqisi2
  61:./Application/Src/sdcard.c ****             (ext[1] == 'M' || ext[1] == 'm') &&
  68              		.loc 1 61 27 view .LVU15
  69 001c 4D2B     		cmp	r3, #77
  70 001e 03D0     		beq	.L3
  62:./Application/Src/sdcard.c ****             (ext[1] == 'M' || ext[1] == 'm') &&
  71              		.loc 1 62 28 view .LVU16
  72 0020 6D2B     		cmp	r3, #109
  73 0022 01D0     		beq	.L3
  63:./Application/Src/sdcard.c ****             (ext[3] == 'D' || ext[3] == 'd'));
  74              		.loc 1 63 46 discriminator 1 view .LVU17
  75 0024 0020     		movs	r0, #0
  76              	.LVL5:
  63:./Application/Src/sdcard.c ****             (ext[3] == 'D' || ext[3] == 'd'));
  77              		.loc 1 63 46 discriminator 1 view .LVU18
  78 0026 F7E7     		b	.L1
  79              	.LVL6:
  80              	.L3:
  63:./Application/Src/sdcard.c ****             (ext[3] == 'D' || ext[3] == 'd'));
  81              		.loc 1 63 17 view .LVU19
  82 0028 9378     		ldrb	r3, [r2, #2]	@ zero_extendqisi2
  62:./Application/Src/sdcard.c ****             (ext[2] == 'I' || ext[2] == 'i') &&
  83              		.loc 1 62 46 discriminator 1 view .LVU20
  84 002a 492B     		cmp	r3, #73
  85 002c 03D0     		beq	.L4
  63:./Application/Src/sdcard.c ****             (ext[3] == 'D' || ext[3] == 'd'));
  86              		.loc 1 63 28 discriminator 3 view .LVU21
  87 002e 692B     		cmp	r3, #105
  88 0030 01D0     		beq	.L4
  63:./Application/Src/sdcard.c ****             (ext[3] == 'D' || ext[3] == 'd'));
  89              		.loc 1 63 46 discriminator 1 view .LVU22
  90 0032 0020     		movs	r0, #0
  91              	.LVL7:
  63:./Application/Src/sdcard.c ****             (ext[3] == 'D' || ext[3] == 'd'));
  92              		.loc 1 63 46 discriminator 1 view .LVU23
  93 0034 F0E7     		b	.L1
  94              	.LVL8:
  95              	.L4:
  64:./Application/Src/sdcard.c **** }
  96              		.loc 1 64 17 view .LVU24
ARM GAS  C:\Users\Xuleo\AppData\Local\Temp\ccL4YgGa.s 			page 4


  97 0036 D378     		ldrb	r3, [r2, #3]	@ zero_extendqisi2
  63:./Application/Src/sdcard.c ****             (ext[3] == 'D' || ext[3] == 'd'));
  98              		.loc 1 63 46 discriminator 2 view .LVU25
  99 0038 442B     		cmp	r3, #68
 100 003a 05D0     		beq	.L9
  64:./Application/Src/sdcard.c **** }
 101              		.loc 1 64 28 view .LVU26
 102 003c 642B     		cmp	r3, #100
 103 003e 05D0     		beq	.L10
  63:./Application/Src/sdcard.c ****             (ext[3] == 'D' || ext[3] == 'd'));
 104              		.loc 1 63 46 discriminator 1 view .LVU27
 105 0040 0020     		movs	r0, #0
 106              	.LVL9:
  63:./Application/Src/sdcard.c ****             (ext[3] == 'D' || ext[3] == 'd'));
 107              		.loc 1 63 46 discriminator 1 view .LVU28
 108 0042 E9E7     		b	.L1
 109              	.LVL10:
 110              	.L5:
  58:./Application/Src/sdcard.c **** 
 111              		.loc 1 58 25 discriminator 1 view .LVU29
 112 0044 0020     		movs	r0, #0
 113              	.LVL11:
  58:./Application/Src/sdcard.c **** 
 114              		.loc 1 58 25 discriminator 1 view .LVU30
 115 0046 E7E7     		b	.L1
 116              	.LVL12:
 117              	.L9:
  63:./Application/Src/sdcard.c ****             (ext[3] == 'D' || ext[3] == 'd'));
 118              		.loc 1 63 46 discriminator 4 view .LVU31
 119 0048 0120     		movs	r0, #1
 120              	.LVL13:
  63:./Application/Src/sdcard.c ****             (ext[3] == 'D' || ext[3] == 'd'));
 121              		.loc 1 63 46 discriminator 4 view .LVU32
 122 004a E5E7     		b	.L1
 123              	.LVL14:
 124              	.L10:
  63:./Application/Src/sdcard.c ****             (ext[3] == 'D' || ext[3] == 'd'));
 125              		.loc 1 63 46 discriminator 4 view .LVU33
 126 004c 0120     		movs	r0, #1
 127              	.LVL15:
  63:./Application/Src/sdcard.c ****             (ext[3] == 'D' || ext[3] == 'd'));
 128              		.loc 1 63 46 discriminator 4 view .LVU34
 129 004e E3E7     		b	.L1
 130              		.cfi_endproc
 131              	.LFE75:
 133              		.section	.rodata.SD_Init.str1.4,"aMS",%progbits,1
 134              		.align	2
 135              	.LC0:
 136 0000 00       		.ascii	"\000"
 137              		.section	.text.SD_Init,"ax",%progbits
 138              		.align	1
 139              		.global	SD_Init
 140              		.syntax unified
 141              		.thumb
 142              		.thumb_func
 144              	SD_Init:
 145              	.LFB68:
ARM GAS  C:\Users\Xuleo\AppData\Local\Temp\ccL4YgGa.s 			page 5


  16:./Application/Src/sdcard.c ****     FRESULT res;
 146              		.loc 1 16 23 is_stmt 1 view -0
 147              		.cfi_startproc
 148              		@ args = 0, pretend = 0, frame = 0
 149              		@ frame_needed = 0, uses_anonymous_args = 0
 150 0000 08B5     		push	{r3, lr}
 151              	.LCFI1:
 152              		.cfi_def_cfa_offset 8
 153              		.cfi_offset 3, -8
 154              		.cfi_offset 14, -4
  17:./Application/Src/sdcard.c **** 
 155              		.loc 1 17 5 view .LVU36
  20:./Application/Src/sdcard.c **** 
 156              		.loc 1 20 5 view .LVU37
  20:./Application/Src/sdcard.c **** 
 157              		.loc 1 20 11 is_stmt 0 view .LVU38
 158 0002 0122     		movs	r2, #1
 159 0004 0249     		ldr	r1, .L15
 160 0006 0348     		ldr	r0, .L15+4
 161 0008 FFF7FEFF 		bl	f_mount
 162              	.LVL16:
  22:./Application/Src/sdcard.c **** }
 163              		.loc 1 22 5 is_stmt 1 view .LVU39
  23:./Application/Src/sdcard.c **** 
 164              		.loc 1 23 1 is_stmt 0 view .LVU40
 165 000c 08BD     		pop	{r3, pc}
 166              	.L16:
 167 000e 00BF     		.align	2
 168              	.L15:
 169 0010 00000000 		.word	.LC0
 170 0014 00000000 		.word	fatFs
 171              		.cfi_endproc
 172              	.LFE68:
 174              		.section	.text.SD_Mount,"ax",%progbits
 175              		.align	1
 176              		.global	SD_Mount
 177              		.syntax unified
 178              		.thumb
 179              		.thumb_func
 181              	SD_Mount:
 182              	.LFB69:
  26:./Application/Src/sdcard.c ****     return f_mount(&fatFs, "", 1);
 183              		.loc 1 26 24 is_stmt 1 view -0
 184              		.cfi_startproc
 185              		@ args = 0, pretend = 0, frame = 0
 186              		@ frame_needed = 0, uses_anonymous_args = 0
 187 0000 08B5     		push	{r3, lr}
 188              	.LCFI2:
 189              		.cfi_def_cfa_offset 8
 190              		.cfi_offset 3, -8
 191              		.cfi_offset 14, -4
  27:./Application/Src/sdcard.c **** }
 192              		.loc 1 27 5 view .LVU42
  27:./Application/Src/sdcard.c **** }
 193              		.loc 1 27 12 is_stmt 0 view .LVU43
 194 0002 0122     		movs	r2, #1
 195 0004 0249     		ldr	r1, .L19
ARM GAS  C:\Users\Xuleo\AppData\Local\Temp\ccL4YgGa.s 			page 6


 196 0006 0348     		ldr	r0, .L19+4
 197 0008 FFF7FEFF 		bl	f_mount
 198              	.LVL17:
  28:./Application/Src/sdcard.c **** 
 199              		.loc 1 28 1 view .LVU44
 200 000c 08BD     		pop	{r3, pc}
 201              	.L20:
 202 000e 00BF     		.align	2
 203              	.L19:
 204 0010 00000000 		.word	.LC0
 205 0014 00000000 		.word	fatFs
 206              		.cfi_endproc
 207              	.LFE69:
 209              		.section	.text.SD_Unmount,"ax",%progbits
 210              		.align	1
 211              		.global	SD_Unmount
 212              		.syntax unified
 213              		.thumb
 214              		.thumb_func
 216              	SD_Unmount:
 217              	.LFB70:
  31:./Application/Src/sdcard.c ****     return f_mount(NULL, "", 0);
 218              		.loc 1 31 26 is_stmt 1 view -0
 219              		.cfi_startproc
 220              		@ args = 0, pretend = 0, frame = 0
 221              		@ frame_needed = 0, uses_anonymous_args = 0
 222 0000 08B5     		push	{r3, lr}
 223              	.LCFI3:
 224              		.cfi_def_cfa_offset 8
 225              		.cfi_offset 3, -8
 226              		.cfi_offset 14, -4
  32:./Application/Src/sdcard.c **** }
 227              		.loc 1 32 5 view .LVU46
  32:./Application/Src/sdcard.c **** }
 228              		.loc 1 32 12 is_stmt 0 view .LVU47
 229 0002 0022     		movs	r2, #0
 230 0004 0249     		ldr	r1, .L23
 231 0006 1046     		mov	r0, r2
 232 0008 FFF7FEFF 		bl	f_mount
 233              	.LVL18:
  33:./Application/Src/sdcard.c **** 
 234              		.loc 1 33 1 view .LVU48
 235 000c 08BD     		pop	{r3, pc}
 236              	.L24:
 237 000e 00BF     		.align	2
 238              	.L23:
 239 0010 00000000 		.word	.LC0
 240              		.cfi_endproc
 241              	.LFE70:
 243              		.section	.text.SD_OpenFile,"ax",%progbits
 244              		.align	1
 245              		.global	SD_OpenFile
 246              		.syntax unified
 247              		.thumb
 248              		.thumb_func
 250              	SD_OpenFile:
 251              	.LVL19:
ARM GAS  C:\Users\Xuleo\AppData\Local\Temp\ccL4YgGa.s 			page 7


 252              	.LFB71:
  36:./Application/Src/sdcard.c ****     return f_open(file, path, mode);
 253              		.loc 1 36 61 is_stmt 1 view -0
 254              		.cfi_startproc
 255              		@ args = 0, pretend = 0, frame = 0
 256              		@ frame_needed = 0, uses_anonymous_args = 0
  36:./Application/Src/sdcard.c ****     return f_open(file, path, mode);
 257              		.loc 1 36 61 is_stmt 0 view .LVU50
 258 0000 08B5     		push	{r3, lr}
 259              	.LCFI4:
 260              		.cfi_def_cfa_offset 8
 261              		.cfi_offset 3, -8
 262              		.cfi_offset 14, -4
  37:./Application/Src/sdcard.c **** }
 263              		.loc 1 37 5 is_stmt 1 view .LVU51
  37:./Application/Src/sdcard.c **** }
 264              		.loc 1 37 12 is_stmt 0 view .LVU52
 265 0002 FFF7FEFF 		bl	f_open
 266              	.LVL20:
  38:./Application/Src/sdcard.c **** 
 267              		.loc 1 38 1 view .LVU53
 268 0006 08BD     		pop	{r3, pc}
 269              		.cfi_endproc
 270              	.LFE71:
 272              		.section	.text.SD_CloseFile,"ax",%progbits
 273              		.align	1
 274              		.global	SD_CloseFile
 275              		.syntax unified
 276              		.thumb
 277              		.thumb_func
 279              	SD_CloseFile:
 280              	.LVL21:
 281              	.LFB72:
  41:./Application/Src/sdcard.c ****     return f_close(file);
 282              		.loc 1 41 33 is_stmt 1 view -0
 283              		.cfi_startproc
 284              		@ args = 0, pretend = 0, frame = 0
 285              		@ frame_needed = 0, uses_anonymous_args = 0
  41:./Application/Src/sdcard.c ****     return f_close(file);
 286              		.loc 1 41 33 is_stmt 0 view .LVU55
 287 0000 08B5     		push	{r3, lr}
 288              	.LCFI5:
 289              		.cfi_def_cfa_offset 8
 290              		.cfi_offset 3, -8
 291              		.cfi_offset 14, -4
  42:./Application/Src/sdcard.c **** }
 292              		.loc 1 42 5 is_stmt 1 view .LVU56
  42:./Application/Src/sdcard.c **** }
 293              		.loc 1 42 12 is_stmt 0 view .LVU57
 294 0002 FFF7FEFF 		bl	f_close
 295              	.LVL22:
  43:./Application/Src/sdcard.c **** 
 296              		.loc 1 43 1 view .LVU58
 297 0006 08BD     		pop	{r3, pc}
 298              		.cfi_endproc
 299              	.LFE72:
 301              		.section	.text.SD_ReadFile,"ax",%progbits
ARM GAS  C:\Users\Xuleo\AppData\Local\Temp\ccL4YgGa.s 			page 8


 302              		.align	1
 303              		.global	SD_ReadFile
 304              		.syntax unified
 305              		.thumb
 306              		.thumb_func
 308              	SD_ReadFile:
 309              	.LVL23:
 310              	.LFB73:
  46:./Application/Src/sdcard.c ****     return f_read(file, buff, btr, br);
 311              		.loc 1 46 64 is_stmt 1 view -0
 312              		.cfi_startproc
 313              		@ args = 0, pretend = 0, frame = 0
 314              		@ frame_needed = 0, uses_anonymous_args = 0
  46:./Application/Src/sdcard.c ****     return f_read(file, buff, btr, br);
 315              		.loc 1 46 64 is_stmt 0 view .LVU60
 316 0000 08B5     		push	{r3, lr}
 317              	.LCFI6:
 318              		.cfi_def_cfa_offset 8
 319              		.cfi_offset 3, -8
 320              		.cfi_offset 14, -4
  47:./Application/Src/sdcard.c **** }
 321              		.loc 1 47 5 is_stmt 1 view .LVU61
  47:./Application/Src/sdcard.c **** }
 322              		.loc 1 47 12 is_stmt 0 view .LVU62
 323 0002 FFF7FEFF 		bl	f_read
 324              	.LVL24:
  48:./Application/Src/sdcard.c **** 
 325              		.loc 1 48 1 view .LVU63
 326 0006 08BD     		pop	{r3, pc}
 327              		.cfi_endproc
 328              	.LFE73:
 330              		.section	.text.SD_WriteFile,"ax",%progbits
 331              		.align	1
 332              		.global	SD_WriteFile
 333              		.syntax unified
 334              		.thumb
 335              		.thumb_func
 337              	SD_WriteFile:
 338              	.LVL25:
 339              	.LFB74:
  51:./Application/Src/sdcard.c ****     return f_write(file, buff, btw, bw);
 340              		.loc 1 51 71 is_stmt 1 view -0
 341              		.cfi_startproc
 342              		@ args = 0, pretend = 0, frame = 0
 343              		@ frame_needed = 0, uses_anonymous_args = 0
  51:./Application/Src/sdcard.c ****     return f_write(file, buff, btw, bw);
 344              		.loc 1 51 71 is_stmt 0 view .LVU65
 345 0000 08B5     		push	{r3, lr}
 346              	.LCFI7:
 347              		.cfi_def_cfa_offset 8
 348              		.cfi_offset 3, -8
 349              		.cfi_offset 14, -4
  52:./Application/Src/sdcard.c **** }
 350              		.loc 1 52 5 is_stmt 1 view .LVU66
  52:./Application/Src/sdcard.c **** }
 351              		.loc 1 52 12 is_stmt 0 view .LVU67
 352 0002 FFF7FEFF 		bl	f_write
ARM GAS  C:\Users\Xuleo\AppData\Local\Temp\ccL4YgGa.s 			page 9


 353              	.LVL26:
  53:./Application/Src/sdcard.c **** 
 354              		.loc 1 53 1 view .LVU68
 355 0006 08BD     		pop	{r3, pc}
 356              		.cfi_endproc
 357              	.LFE74:
 359              		.section	.rodata.SD_ListMidiFiles.str1.4,"aMS",%progbits,1
 360              		.align	2
 361              	.LC1:
 362 0000 2F00     		.ascii	"/\000"
 363              		.section	.text.SD_ListMidiFiles,"ax",%progbits
 364              		.align	1
 365              		.global	SD_ListMidiFiles
 366              		.syntax unified
 367              		.thumb
 368              		.thumb_func
 370              	SD_ListMidiFiles:
 371              	.LFB76:
  66:./Application/Src/sdcard.c **** 
  67:./Application/Src/sdcard.c **** /* List all MIDI files in root directory */
  68:./Application/Src/sdcard.c **** int SD_ListMidiFiles(void) {
 372              		.loc 1 68 28 is_stmt 1 view -0
 373              		.cfi_startproc
 374              		@ args = 0, pretend = 0, frame = 568
 375              		@ frame_needed = 0, uses_anonymous_args = 0
 376 0000 2DE9F041 		push	{r4, r5, r6, r7, r8, lr}
 377              	.LCFI8:
 378              		.cfi_def_cfa_offset 24
 379              		.cfi_offset 4, -24
 380              		.cfi_offset 5, -20
 381              		.cfi_offset 6, -16
 382              		.cfi_offset 7, -12
 383              		.cfi_offset 8, -8
 384              		.cfi_offset 14, -4
 385 0004 ADF50E7D 		sub	sp, sp, #568
 386              	.LCFI9:
 387              		.cfi_def_cfa_offset 592
  69:./Application/Src/sdcard.c ****     FRESULT res;
 388              		.loc 1 69 5 view .LVU70
  70:./Application/Src/sdcard.c ****     DIR dir;
 389              		.loc 1 70 5 view .LVU71
  71:./Application/Src/sdcard.c ****     FILINFO fno;
 390              		.loc 1 71 5 view .LVU72
  72:./Application/Src/sdcard.c **** 
  73:./Application/Src/sdcard.c ****     fileCount = 0;
 391              		.loc 1 73 5 view .LVU73
 392              		.loc 1 73 15 is_stmt 0 view .LVU74
 393 0008 204B     		ldr	r3, .L42
 394 000a 0022     		movs	r2, #0
 395 000c 1A70     		strb	r2, [r3]
  74:./Application/Src/sdcard.c **** 
  75:./Application/Src/sdcard.c ****     res = f_opendir(&dir, "/");
 396              		.loc 1 75 5 is_stmt 1 view .LVU75
 397              		.loc 1 75 11 is_stmt 0 view .LVU76
 398 000e 2049     		ldr	r1, .L42+4
 399 0010 07A8     		add	r0, sp, #28
 400 0012 FFF7FEFF 		bl	f_opendir
ARM GAS  C:\Users\Xuleo\AppData\Local\Temp\ccL4YgGa.s 			page 10


 401              	.LVL27:
  76:./Application/Src/sdcard.c ****     if (res != FR_OK) {
 402              		.loc 1 76 5 is_stmt 1 view .LVU77
 403              		.loc 1 76 8 is_stmt 0 view .LVU78
 404 0016 0028     		cmp	r0, #0
 405 0018 36D1     		bne	.L41
 406              	.LVL28:
 407              	.L35:
  77:./Application/Src/sdcard.c ****         return 0;
  78:./Application/Src/sdcard.c ****     }
  79:./Application/Src/sdcard.c **** 
  80:./Application/Src/sdcard.c ****     while (fileCount < MAX_FILES) {
 408              		.loc 1 80 22 is_stmt 1 view .LVU79
 409 001a 1C4B     		ldr	r3, .L42
 410 001c 1B78     		ldrb	r3, [r3]	@ zero_extendqisi2
 411 001e 632B     		cmp	r3, #99
 412 0020 29D8     		bhi	.L36
  81:./Application/Src/sdcard.c ****         res = f_readdir(&dir, &fno);
 413              		.loc 1 81 9 view .LVU80
 414              		.loc 1 81 15 is_stmt 0 view .LVU81
 415 0022 01A9     		add	r1, sp, #4
 416 0024 07A8     		add	r0, sp, #28
 417 0026 FFF7FEFF 		bl	f_readdir
 418              	.LVL29:
  82:./Application/Src/sdcard.c ****         if (res != FR_OK || fno.fname[0] == 0) {
 419              		.loc 1 82 9 is_stmt 1 view .LVU82
 420              		.loc 1 82 12 is_stmt 0 view .LVU83
 421 002a 20BB     		cbnz	r0, .L36
 422              		.loc 1 82 38 discriminator 1 view .LVU84
 423 002c 9DF80D30 		ldrb	r3, [sp, #13]	@ zero_extendqisi2
 424              		.loc 1 82 26 discriminator 1 view .LVU85
 425 0030 0BB3     		cbz	r3, .L36
  83:./Application/Src/sdcard.c ****             break;  /* Error or end of directory */
  84:./Application/Src/sdcard.c ****         }
  85:./Application/Src/sdcard.c **** 
  86:./Application/Src/sdcard.c ****         /* Skip directories and hidden/system files */
  87:./Application/Src/sdcard.c ****         if (fno.fattrib & (AM_DIR | AM_HID | AM_SYS)) {
 426              		.loc 1 87 9 is_stmt 1 view .LVU86
 427              		.loc 1 87 16 is_stmt 0 view .LVU87
 428 0032 9DF80C30 		ldrb	r3, [sp, #12]	@ zero_extendqisi2
 429              		.loc 1 87 12 view .LVU88
 430 0036 13F0160F 		tst	r3, #22
 431 003a EED1     		bne	.L35
  88:./Application/Src/sdcard.c ****             continue;
  89:./Application/Src/sdcard.c ****         }
  90:./Application/Src/sdcard.c **** 
  91:./Application/Src/sdcard.c ****         /* Check if it's a .MID file */
  92:./Application/Src/sdcard.c ****         if (isMidiFile(fno.fname)) {
 432              		.loc 1 92 9 is_stmt 1 view .LVU89
 433              		.loc 1 92 13 is_stmt 0 view .LVU90
 434 003c 0DF10D00 		add	r0, sp, #13
 435              	.LVL30:
 436              		.loc 1 92 13 view .LVU91
 437 0040 FFF7FEFF 		bl	isMidiFile
 438              	.LVL31:
 439              		.loc 1 92 12 discriminator 1 view .LVU92
 440 0044 0028     		cmp	r0, #0
ARM GAS  C:\Users\Xuleo\AppData\Local\Temp\ccL4YgGa.s 			page 11


 441 0046 E8D0     		beq	.L35
  93:./Application/Src/sdcard.c ****             /* Copy filename (truncate if needed) */
  94:./Application/Src/sdcard.c ****             strncpy(fileList[fileCount].name, fno.fname, MAX_FILENAME_LEN - 1);
 442              		.loc 1 94 13 is_stmt 1 view .LVU93
 443              		.loc 1 94 40 is_stmt 0 view .LVU94
 444 0048 DFF84080 		ldr	r8, .L42
 445 004c 98F80040 		ldrb	r4, [r8]	@ zero_extendqisi2
 446 0050 04EB8406 		add	r6, r4, r4, lsl #2
 447 0054 0F4D     		ldr	r5, .L42+8
 448 0056 05EB8606 		add	r6, r5, r6, lsl #2
 449              		.loc 1 94 13 view .LVU95
 450 005a 0C22     		movs	r2, #12
 451 005c 0DF10D01 		add	r1, sp, #13
 452 0060 3046     		mov	r0, r6
 453 0062 FFF7FEFF 		bl	strncpy
 454              	.LVL32:
  95:./Application/Src/sdcard.c ****             fileList[fileCount].name[MAX_FILENAME_LEN - 1] = '\0';
 455              		.loc 1 95 13 is_stmt 1 view .LVU96
 456              		.loc 1 95 60 is_stmt 0 view .LVU97
 457 0066 0023     		movs	r3, #0
 458 0068 3373     		strb	r3, [r6, #12]
  96:./Application/Src/sdcard.c ****             fileList[fileCount].size = fno.fsize;
 459              		.loc 1 96 13 is_stmt 1 view .LVU98
 460              		.loc 1 96 43 is_stmt 0 view .LVU99
 461 006a 019B     		ldr	r3, [sp, #4]
 462              		.loc 1 96 38 view .LVU100
 463 006c 3361     		str	r3, [r6, #16]
  97:./Application/Src/sdcard.c ****             fileCount++;
 464              		.loc 1 97 13 is_stmt 1 view .LVU101
 465              		.loc 1 97 22 is_stmt 0 view .LVU102
 466 006e 0134     		adds	r4, r4, #1
 467 0070 88F80040 		strb	r4, [r8]
 468 0074 D1E7     		b	.L35
 469              	.LVL33:
 470              	.L36:
  98:./Application/Src/sdcard.c ****         }
  99:./Application/Src/sdcard.c ****     }
 100:./Application/Src/sdcard.c **** 
 101:./Application/Src/sdcard.c ****     f_closedir(&dir);
 471              		.loc 1 101 5 is_stmt 1 view .LVU103
 472 0076 07A8     		add	r0, sp, #28
 473 0078 FFF7FEFF 		bl	f_closedir
 474              	.LVL34:
 102:./Application/Src/sdcard.c ****     return fileCount;
 475              		.loc 1 102 5 view .LVU104
 476              		.loc 1 102 12 is_stmt 0 view .LVU105
 477 007c 034B     		ldr	r3, .L42
 478 007e 1878     		ldrb	r0, [r3]	@ zero_extendqisi2
 479              	.L33:
 103:./Application/Src/sdcard.c **** }
 480              		.loc 1 103 1 view .LVU106
 481 0080 0DF50E7D 		add	sp, sp, #568
 482              	.LCFI10:
 483              		.cfi_remember_state
 484              		.cfi_def_cfa_offset 24
 485              		@ sp needed
 486 0084 BDE8F081 		pop	{r4, r5, r6, r7, r8, pc}
ARM GAS  C:\Users\Xuleo\AppData\Local\Temp\ccL4YgGa.s 			page 12


 487              	.LVL35:
 488              	.L41:
 489              	.LCFI11:
 490              		.cfi_restore_state
  77:./Application/Src/sdcard.c ****     }
 491              		.loc 1 77 16 view .LVU107
 492 0088 0020     		movs	r0, #0
 493              	.LVL36:
  77:./Application/Src/sdcard.c ****     }
 494              		.loc 1 77 16 view .LVU108
 495 008a F9E7     		b	.L33
 496              	.L43:
 497              		.align	2
 498              	.L42:
 499 008c 00000000 		.word	fileCount
 500 0090 00000000 		.word	.LC1
 501 0094 00000000 		.word	fileList
 502              		.cfi_endproc
 503              	.LFE76:
 505              		.section	.text.SD_ReadMidiFile,"ax",%progbits
 506              		.align	1
 507              		.global	SD_ReadMidiFile
 508              		.syntax unified
 509              		.thumb
 510              		.thumb_func
 512              	SD_ReadMidiFile:
 513              	.LVL37:
 514              	.LFB77:
 104:./Application/Src/sdcard.c **** 
 105:./Application/Src/sdcard.c **** /* Read MIDI file into buffer */
 106:./Application/Src/sdcard.c **** int SD_ReadMidiFile(uint8_t fileIndex, uint8_t* buffer, uint32_t maxSize) {
 515              		.loc 1 106 75 is_stmt 1 view -0
 516              		.cfi_startproc
 517              		@ args = 0, pretend = 0, frame = 552
 518              		@ frame_needed = 0, uses_anonymous_args = 0
 107:./Application/Src/sdcard.c ****     if (fileIndex >= fileCount) {
 519              		.loc 1 107 5 view .LVU110
 520              		.loc 1 107 19 is_stmt 0 view .LVU111
 521 0000 1A4B     		ldr	r3, .L53
 522 0002 1B78     		ldrb	r3, [r3]	@ zero_extendqisi2
 523              		.loc 1 107 8 view .LVU112
 524 0004 8342     		cmp	r3, r0
 525 0006 27D9     		bls	.L46
 106:./Application/Src/sdcard.c ****     if (fileIndex >= fileCount) {
 526              		.loc 1 106 75 view .LVU113
 527 0008 F0B5     		push	{r4, r5, r6, r7, lr}
 528              	.LCFI12:
 529              		.cfi_def_cfa_offset 20
 530              		.cfi_offset 4, -20
 531              		.cfi_offset 5, -16
 532              		.cfi_offset 6, -12
 533              		.cfi_offset 7, -8
 534              		.cfi_offset 14, -4
 535 000a ADF50B7D 		sub	sp, sp, #556
 536              	.LCFI13:
 537              		.cfi_def_cfa_offset 576
 538 000e 0446     		mov	r4, r0
ARM GAS  C:\Users\Xuleo\AppData\Local\Temp\ccL4YgGa.s 			page 13


 539 0010 0F46     		mov	r7, r1
 540 0012 1646     		mov	r6, r2
 108:./Application/Src/sdcard.c ****         return -1;
 109:./Application/Src/sdcard.c ****     }
 110:./Application/Src/sdcard.c **** 
 111:./Application/Src/sdcard.c ****     FIL file;
 541              		.loc 1 111 5 is_stmt 1 view .LVU114
 112:./Application/Src/sdcard.c ****     FRESULT res;
 542              		.loc 1 112 5 view .LVU115
 113:./Application/Src/sdcard.c ****     UINT bytesRead;
 543              		.loc 1 113 5 view .LVU116
 114:./Application/Src/sdcard.c **** 
 115:./Application/Src/sdcard.c ****     res = f_open(&file, fileList[fileIndex].name, FA_READ);
 544              		.loc 1 115 5 view .LVU117
 545              		.loc 1 115 44 is_stmt 0 view .LVU118
 546 0014 00EB8001 		add	r1, r0, r0, lsl #2
 547              	.LVL38:
 548              		.loc 1 115 11 view .LVU119
 549 0018 0122     		movs	r2, #1
 550              	.LVL39:
 551              		.loc 1 115 11 view .LVU120
 552 001a 154B     		ldr	r3, .L53+4
 553 001c 03EB8101 		add	r1, r3, r1, lsl #2
 554 0020 01A8     		add	r0, sp, #4
 555              	.LVL40:
 556              		.loc 1 115 11 view .LVU121
 557 0022 FFF7FEFF 		bl	f_open
 558              	.LVL41:
 116:./Application/Src/sdcard.c ****     if (res != FR_OK) {
 559              		.loc 1 116 5 is_stmt 1 view .LVU122
 560              		.loc 1 116 8 is_stmt 0 view .LVU123
 561 0026 D0B9     		cbnz	r0, .L47
 117:./Application/Src/sdcard.c ****         return -1;
 118:./Application/Src/sdcard.c ****     }
 119:./Application/Src/sdcard.c **** 
 120:./Application/Src/sdcard.c ****     uint32_t readSize = (fileList[fileIndex].size < maxSize) ?
 562              		.loc 1 120 5 is_stmt 1 view .LVU124
 563              		.loc 1 120 45 is_stmt 0 view .LVU125
 564 0028 04EB8404 		add	r4, r4, r4, lsl #2
 565              	.LVL42:
 566              		.loc 1 120 45 view .LVU126
 567 002c 104B     		ldr	r3, .L53+4
 568 002e 03EB8403 		add	r3, r3, r4, lsl #2
 569 0032 1A69     		ldr	r2, [r3, #16]
 570              	.LVL43:
 121:./Application/Src/sdcard.c ****                          fileList[fileIndex].size : maxSize;
 122:./Application/Src/sdcard.c **** 
 123:./Application/Src/sdcard.c ****     res = f_read(&file, buffer, readSize, &bytesRead);
 571              		.loc 1 123 5 is_stmt 1 view .LVU127
 572              		.loc 1 123 11 is_stmt 0 view .LVU128
 573 0034 01AD     		add	r5, sp, #4
 574 0036 6B46     		mov	r3, sp
 575 0038 B242     		cmp	r2, r6
 576 003a 28BF     		it	cs
 577 003c 3246     		movcs	r2, r6
 578              	.LVL44:
 579              		.loc 1 123 11 view .LVU129
ARM GAS  C:\Users\Xuleo\AppData\Local\Temp\ccL4YgGa.s 			page 14


 580 003e 3946     		mov	r1, r7
 581 0040 2846     		mov	r0, r5
 582              	.LVL45:
 583              		.loc 1 123 11 view .LVU130
 584 0042 FFF7FEFF 		bl	f_read
 585              	.LVL46:
 586              		.loc 1 123 11 view .LVU131
 587 0046 0446     		mov	r4, r0
 588              	.LVL47:
 124:./Application/Src/sdcard.c ****     f_close(&file);
 589              		.loc 1 124 5 is_stmt 1 view .LVU132
 590 0048 2846     		mov	r0, r5
 591 004a FFF7FEFF 		bl	f_close
 592              	.LVL48:
 125:./Application/Src/sdcard.c **** 
 126:./Application/Src/sdcard.c ****     if (res != FR_OK) {
 593              		.loc 1 126 5 view .LVU133
 594              		.loc 1 126 8 is_stmt 0 view .LVU134
 595 004e 4CB9     		cbnz	r4, .L48
 127:./Application/Src/sdcard.c ****         return -1;
 128:./Application/Src/sdcard.c ****     }
 129:./Application/Src/sdcard.c **** 
 130:./Application/Src/sdcard.c ****     return (int)bytesRead;
 596              		.loc 1 130 5 is_stmt 1 view .LVU135
 597              		.loc 1 130 12 is_stmt 0 view .LVU136
 598 0050 0098     		ldr	r0, [sp]
 599              	.LVL49:
 600              	.L44:
 131:./Application/Src/sdcard.c **** }
 601              		.loc 1 131 1 view .LVU137
 602 0052 0DF50B7D 		add	sp, sp, #556
 603              	.LCFI14:
 604              		.cfi_def_cfa_offset 20
 605              		@ sp needed
 606 0056 F0BD     		pop	{r4, r5, r6, r7, pc}
 607              	.LVL50:
 608              	.L46:
 609              	.LCFI15:
 610              		.cfi_def_cfa_offset 0
 611              		.cfi_restore 4
 612              		.cfi_restore 5
 613              		.cfi_restore 6
 614              		.cfi_restore 7
 615              		.cfi_restore 14
 108:./Application/Src/sdcard.c ****     }
 616              		.loc 1 108 16 view .LVU138
 617 0058 4FF0FF30 		mov	r0, #-1
 618              	.LVL51:
 619              		.loc 1 131 1 view .LVU139
 620 005c 7047     		bx	lr
 621              	.LVL52:
 622              	.L47:
 623              	.LCFI16:
 624              		.cfi_def_cfa_offset 576
 625              		.cfi_offset 4, -20
 626              		.cfi_offset 5, -16
 627              		.cfi_offset 6, -12
ARM GAS  C:\Users\Xuleo\AppData\Local\Temp\ccL4YgGa.s 			page 15


 628              		.cfi_offset 7, -8
 629              		.cfi_offset 14, -4
 117:./Application/Src/sdcard.c ****     }
 630              		.loc 1 117 16 view .LVU140
 631 005e 4FF0FF30 		mov	r0, #-1
 632              	.LVL53:
 117:./Application/Src/sdcard.c ****     }
 633              		.loc 1 117 16 view .LVU141
 634 0062 F6E7     		b	.L44
 635              	.LVL54:
 636              	.L48:
 127:./Application/Src/sdcard.c ****     }
 637              		.loc 1 127 16 view .LVU142
 638 0064 4FF0FF30 		mov	r0, #-1
 639 0068 F3E7     		b	.L44
 640              	.L54:
 641 006a 00BF     		.align	2
 642              	.L53:
 643 006c 00000000 		.word	fileCount
 644 0070 00000000 		.word	fileList
 645              		.cfi_endproc
 646              	.LFE77:
 648              		.section	.text.SD_DisplaySongList,"ax",%progbits
 649              		.align	1
 650              		.global	SD_DisplaySongList
 651              		.syntax unified
 652              		.thumb
 653              		.thumb_func
 655              	SD_DisplaySongList:
 656              	.LVL55:
 657              	.LFB78:
 132:./Application/Src/sdcard.c **** 
 133:./Application/Src/sdcard.c **** /* Display song list on OLED */
 134:./Application/Src/sdcard.c **** void SD_DisplaySongList(uint8_t startIndex, uint8_t selectedIndex) {
 658              		.loc 1 134 68 is_stmt 1 view -0
 659              		.cfi_startproc
 660              		@ args = 0, pretend = 0, frame = 24
 661              		@ frame_needed = 0, uses_anonymous_args = 0
 662              		.loc 1 134 68 is_stmt 0 view .LVU144
 663 0000 2DE9F041 		push	{r4, r5, r6, r7, r8, lr}
 664              	.LCFI17:
 665              		.cfi_def_cfa_offset 24
 666              		.cfi_offset 4, -24
 667              		.cfi_offset 5, -20
 668              		.cfi_offset 6, -16
 669              		.cfi_offset 7, -12
 670              		.cfi_offset 8, -8
 671              		.cfi_offset 14, -4
 672 0004 86B0     		sub	sp, sp, #24
 673              	.LCFI18:
 674              		.cfi_def_cfa_offset 48
 675 0006 0646     		mov	r6, r0
 676 0008 0F46     		mov	r7, r1
 135:./Application/Src/sdcard.c ****     char displayName[20];
 677              		.loc 1 135 5 is_stmt 1 view .LVU145
 136:./Application/Src/sdcard.c **** 
 137:./Application/Src/sdcard.c ****     /* Display up to 5 songs on OLED pages 3-7 */
ARM GAS  C:\Users\Xuleo\AppData\Local\Temp\ccL4YgGa.s 			page 16


 138:./Application/Src/sdcard.c ****     for (uint8_t i = 0; i < 5; i++) {
 678              		.loc 1 138 5 view .LVU146
 679              	.LBB2:
 680              		.loc 1 138 10 view .LVU147
 681              	.LVL56:
 682              		.loc 1 138 18 is_stmt 0 view .LVU148
 683 000a 0025     		movs	r5, #0
 684              		.loc 1 138 5 view .LVU149
 685 000c 0CE0     		b	.L56
 686              	.LVL57:
 687              	.L68:
 688              	.LBB3:
 689              	.LBB4:
 139:./Application/Src/sdcard.c ****         uint8_t fileIdx = startIndex + i;
 140:./Application/Src/sdcard.c ****         uint8_t page = 3 + i;
 141:./Application/Src/sdcard.c **** 
 142:./Application/Src/sdcard.c ****         OLED_SetCursor(0, page);
 143:./Application/Src/sdcard.c **** 
 144:./Application/Src/sdcard.c ****         if (fileIdx < fileCount) {
 145:./Application/Src/sdcard.c ****             /* Show selection indicator */
 146:./Application/Src/sdcard.c ****             if (fileIdx == selectedIndex) {
 147:./Application/Src/sdcard.c ****                 OLED_WriteChar('>');
 690              		.loc 1 147 17 is_stmt 1 view .LVU150
 691 000e 3E20     		movs	r0, #62
 692 0010 FFF7FEFF 		bl	OLED_WriteChar
 693              	.LVL58:
 694 0014 1AE0     		b	.L59
 695              	.LVL59:
 696              	.L61:
 697              	.LBB5:
 148:./Application/Src/sdcard.c ****             } else {
 149:./Application/Src/sdcard.c ****                 OLED_WriteChar(' ');
 150:./Application/Src/sdcard.c ****             }
 151:./Application/Src/sdcard.c **** 
 152:./Application/Src/sdcard.c ****             /* Display filename (truncate if needed) */
 153:./Application/Src/sdcard.c ****             strncpy(displayName, fileList[fileIdx].name, 19);
 154:./Application/Src/sdcard.c ****             displayName[19] = '\0';
 155:./Application/Src/sdcard.c ****             OLED_WriteString(displayName);
 156:./Application/Src/sdcard.c **** 
 157:./Application/Src/sdcard.c ****             /* Clear rest of line */
 158:./Application/Src/sdcard.c ****             uint8_t nameLen = strlen(displayName) + 1;
 159:./Application/Src/sdcard.c ****             for (uint8_t j = nameLen; j < 21; j++) {
 160:./Application/Src/sdcard.c ****                 OLED_WriteChar(' ');
 698              		.loc 1 160 17 view .LVU151
 699 0016 2020     		movs	r0, #32
 700 0018 FFF7FEFF 		bl	OLED_WriteChar
 701              	.LVL60:
 159:./Application/Src/sdcard.c ****                 OLED_WriteChar(' ');
 702              		.loc 1 159 48 discriminator 3 view .LVU152
 703 001c 0134     		adds	r4, r4, #1
 704              	.LVL61:
 159:./Application/Src/sdcard.c ****                 OLED_WriteChar(' ');
 705              		.loc 1 159 48 is_stmt 0 discriminator 3 view .LVU153
 706 001e E4B2     		uxtb	r4, r4
 707              	.LVL62:
 708              	.L60:
 159:./Application/Src/sdcard.c ****                 OLED_WriteChar(' ');
ARM GAS  C:\Users\Xuleo\AppData\Local\Temp\ccL4YgGa.s 			page 17


 709              		.loc 1 159 41 is_stmt 1 discriminator 1 view .LVU154
 710 0020 142C     		cmp	r4, #20
 711 0022 F8D9     		bls	.L61
 712              	.LVL63:
 713              	.L62:
 159:./Application/Src/sdcard.c ****                 OLED_WriteChar(' ');
 714              		.loc 1 159 41 is_stmt 0 discriminator 1 view .LVU155
 715              	.LBE5:
 716              	.LBE4:
 717              	.LBE3:
 138:./Application/Src/sdcard.c ****         uint8_t fileIdx = startIndex + i;
 718              		.loc 1 138 33 is_stmt 1 discriminator 2 view .LVU156
 719 0024 0135     		adds	r5, r5, #1
 720              	.LVL64:
 138:./Application/Src/sdcard.c ****         uint8_t fileIdx = startIndex + i;
 721              		.loc 1 138 33 is_stmt 0 discriminator 2 view .LVU157
 722 0026 EDB2     		uxtb	r5, r5
 723              	.LVL65:
 724              	.L56:
 138:./Application/Src/sdcard.c ****         uint8_t fileIdx = startIndex + i;
 725              		.loc 1 138 27 is_stmt 1 discriminator 1 view .LVU158
 726 0028 042D     		cmp	r5, #4
 727 002a 30D8     		bhi	.L67
 728              	.LBB9:
 139:./Application/Src/sdcard.c ****         uint8_t page = 3 + i;
 729              		.loc 1 139 9 view .LVU159
 139:./Application/Src/sdcard.c ****         uint8_t page = 3 + i;
 730              		.loc 1 139 17 is_stmt 0 view .LVU160
 731 002c AC19     		adds	r4, r5, r6
 732 002e E4B2     		uxtb	r4, r4
 733              	.LVL66:
 140:./Application/Src/sdcard.c **** 
 734              		.loc 1 140 9 is_stmt 1 view .LVU161
 140:./Application/Src/sdcard.c **** 
 735              		.loc 1 140 17 is_stmt 0 view .LVU162
 736 0030 E91C     		adds	r1, r5, #3
 737              	.LVL67:
 142:./Application/Src/sdcard.c **** 
 738              		.loc 1 142 9 is_stmt 1 view .LVU163
 739 0032 C9B2     		uxtb	r1, r1
 142:./Application/Src/sdcard.c **** 
 740              		.loc 1 142 9 is_stmt 0 view .LVU164
 741 0034 0020     		movs	r0, #0
 742 0036 FFF7FEFF 		bl	OLED_SetCursor
 743              	.LVL68:
 144:./Application/Src/sdcard.c ****             /* Show selection indicator */
 744              		.loc 1 144 9 is_stmt 1 view .LVU165
 144:./Application/Src/sdcard.c ****             /* Show selection indicator */
 745              		.loc 1 144 21 is_stmt 0 view .LVU166
 746 003a 164B     		ldr	r3, .L69
 747 003c 1B78     		ldrb	r3, [r3]	@ zero_extendqisi2
 144:./Application/Src/sdcard.c ****             /* Show selection indicator */
 748              		.loc 1 144 12 view .LVU167
 749 003e A342     		cmp	r3, r4
 750 0040 1CD9     		bls	.L65
 751              	.LBB7:
 146:./Application/Src/sdcard.c ****                 OLED_WriteChar('>');
ARM GAS  C:\Users\Xuleo\AppData\Local\Temp\ccL4YgGa.s 			page 18


 752              		.loc 1 146 13 is_stmt 1 view .LVU168
 146:./Application/Src/sdcard.c ****                 OLED_WriteChar('>');
 753              		.loc 1 146 16 is_stmt 0 view .LVU169
 754 0042 BC42     		cmp	r4, r7
 755 0044 E3D0     		beq	.L68
 149:./Application/Src/sdcard.c ****             }
 756              		.loc 1 149 17 is_stmt 1 view .LVU170
 757 0046 2020     		movs	r0, #32
 758 0048 FFF7FEFF 		bl	OLED_WriteChar
 759              	.LVL69:
 760              	.L59:
 153:./Application/Src/sdcard.c ****             displayName[19] = '\0';
 761              		.loc 1 153 13 view .LVU171
 153:./Application/Src/sdcard.c ****             displayName[19] = '\0';
 762              		.loc 1 153 51 is_stmt 0 view .LVU172
 763 004c 04EB8404 		add	r4, r4, r4, lsl #2
 764              	.LVL70:
 153:./Application/Src/sdcard.c ****             displayName[19] = '\0';
 765              		.loc 1 153 13 view .LVU173
 766 0050 0DF10408 		add	r8, sp, #4
 767 0054 1322     		movs	r2, #19
 768 0056 1049     		ldr	r1, .L69+4
 769 0058 01EB8401 		add	r1, r1, r4, lsl #2
 770 005c 4046     		mov	r0, r8
 771 005e FFF7FEFF 		bl	strncpy
 772              	.LVL71:
 154:./Application/Src/sdcard.c ****             OLED_WriteString(displayName);
 773              		.loc 1 154 13 is_stmt 1 view .LVU174
 154:./Application/Src/sdcard.c ****             OLED_WriteString(displayName);
 774              		.loc 1 154 29 is_stmt 0 view .LVU175
 775 0062 0023     		movs	r3, #0
 776 0064 8DF81730 		strb	r3, [sp, #23]
 155:./Application/Src/sdcard.c **** 
 777              		.loc 1 155 13 is_stmt 1 view .LVU176
 778 0068 4046     		mov	r0, r8
 779 006a FFF7FEFF 		bl	OLED_WriteString
 780              	.LVL72:
 158:./Application/Src/sdcard.c ****             for (uint8_t j = nameLen; j < 21; j++) {
 781              		.loc 1 158 13 view .LVU177
 158:./Application/Src/sdcard.c ****             for (uint8_t j = nameLen; j < 21; j++) {
 782              		.loc 1 158 31 is_stmt 0 view .LVU178
 783 006e 4046     		mov	r0, r8
 784 0070 FFF7FEFF 		bl	strlen
 785              	.LVL73:
 158:./Application/Src/sdcard.c ****             for (uint8_t j = nameLen; j < 21; j++) {
 786              		.loc 1 158 51 discriminator 1 view .LVU179
 787 0074 C4B2     		uxtb	r4, r0
 158:./Application/Src/sdcard.c ****             for (uint8_t j = nameLen; j < 21; j++) {
 788              		.loc 1 158 21 discriminator 1 view .LVU180
 789 0076 0134     		adds	r4, r4, #1
 790 0078 E4B2     		uxtb	r4, r4
 791              	.LVL74:
 159:./Application/Src/sdcard.c ****                 OLED_WriteChar(' ');
 792              		.loc 1 159 13 is_stmt 1 view .LVU181
 793              	.LBB6:
 159:./Application/Src/sdcard.c ****                 OLED_WriteChar(' ');
 794              		.loc 1 159 18 view .LVU182
ARM GAS  C:\Users\Xuleo\AppData\Local\Temp\ccL4YgGa.s 			page 19


 159:./Application/Src/sdcard.c ****                 OLED_WriteChar(' ');
 795              		.loc 1 159 13 is_stmt 0 view .LVU183
 796 007a D1E7     		b	.L60
 797              	.LVL75:
 798              	.L65:
 159:./Application/Src/sdcard.c ****                 OLED_WriteChar(' ');
 799              		.loc 1 159 13 view .LVU184
 800              	.LBE6:
 801              	.LBE7:
 802              	.LBB8:
 161:./Application/Src/sdcard.c ****             }
 162:./Application/Src/sdcard.c ****         } else {
 163:./Application/Src/sdcard.c ****             /* Clear empty line */
 164:./Application/Src/sdcard.c ****             for (uint8_t j = 0; j < 21; j++) {
 803              		.loc 1 164 26 view .LVU185
 804 007c 0024     		movs	r4, #0
 805              	.LVL76:
 806              	.L57:
 807              		.loc 1 164 35 is_stmt 1 discriminator 1 view .LVU186
 808 007e 142C     		cmp	r4, #20
 809 0080 D0D8     		bhi	.L62
 165:./Application/Src/sdcard.c ****                 OLED_WriteChar(' ');
 810              		.loc 1 165 17 view .LVU187
 811 0082 2020     		movs	r0, #32
 812 0084 FFF7FEFF 		bl	OLED_WriteChar
 813              	.LVL77:
 164:./Application/Src/sdcard.c ****                 OLED_WriteChar(' ');
 814              		.loc 1 164 42 discriminator 3 view .LVU188
 815 0088 0134     		adds	r4, r4, #1
 816              	.LVL78:
 164:./Application/Src/sdcard.c ****                 OLED_WriteChar(' ');
 817              		.loc 1 164 42 is_stmt 0 discriminator 3 view .LVU189
 818 008a E4B2     		uxtb	r4, r4
 819              	.LVL79:
 164:./Application/Src/sdcard.c ****                 OLED_WriteChar(' ');
 820              		.loc 1 164 42 discriminator 3 view .LVU190
 821 008c F7E7     		b	.L57
 822              	.LVL80:
 823              	.L67:
 164:./Application/Src/sdcard.c ****                 OLED_WriteChar(' ');
 824              		.loc 1 164 42 discriminator 3 view .LVU191
 825              	.LBE8:
 826              	.LBE9:
 827              	.LBE2:
 166:./Application/Src/sdcard.c ****             }
 167:./Application/Src/sdcard.c ****         }
 168:./Application/Src/sdcard.c ****     }
 169:./Application/Src/sdcard.c **** }
 828              		.loc 1 169 1 view .LVU192
 829 008e 06B0     		add	sp, sp, #24
 830              	.LCFI19:
 831              		.cfi_def_cfa_offset 24
 832              		@ sp needed
 833 0090 BDE8F081 		pop	{r4, r5, r6, r7, r8, pc}
 834              	.LVL81:
 835              	.L70:
 836              		.loc 1 169 1 view .LVU193
ARM GAS  C:\Users\Xuleo\AppData\Local\Temp\ccL4YgGa.s 			page 20


 837              		.align	2
 838              	.L69:
 839 0094 00000000 		.word	fileCount
 840 0098 00000000 		.word	fileList
 841              		.cfi_endproc
 842              	.LFE78:
 844              		.section	.text.SD_GetStorageInfo,"ax",%progbits
 845              		.align	1
 846              		.global	SD_GetStorageInfo
 847              		.syntax unified
 848              		.thumb
 849              		.thumb_func
 851              	SD_GetStorageInfo:
 852              	.LVL82:
 853              	.LFB79:
 170:./Application/Src/sdcard.c **** 
 171:./Application/Src/sdcard.c **** /* Get storage info */
 172:./Application/Src/sdcard.c **** FRESULT SD_GetStorageInfo(SD_StorageInfo* info) {
 854              		.loc 1 172 49 is_stmt 1 view -0
 855              		.cfi_startproc
 856              		@ args = 0, pretend = 0, frame = 8
 857              		@ frame_needed = 0, uses_anonymous_args = 0
 858              		.loc 1 172 49 is_stmt 0 view .LVU195
 859 0000 10B5     		push	{r4, lr}
 860              	.LCFI20:
 861              		.cfi_def_cfa_offset 8
 862              		.cfi_offset 4, -8
 863              		.cfi_offset 14, -4
 864 0002 82B0     		sub	sp, sp, #8
 865              	.LCFI21:
 866              		.cfi_def_cfa_offset 16
 867 0004 0446     		mov	r4, r0
 173:./Application/Src/sdcard.c ****     FATFS* fs;
 868              		.loc 1 173 5 is_stmt 1 view .LVU196
 174:./Application/Src/sdcard.c ****     DWORD freeClusters;
 869              		.loc 1 174 5 view .LVU197
 175:./Application/Src/sdcard.c ****     FRESULT res;
 870              		.loc 1 175 5 view .LVU198
 176:./Application/Src/sdcard.c **** 
 177:./Application/Src/sdcard.c ****     res = f_getfree("", &freeClusters, &fs);
 871              		.loc 1 177 5 view .LVU199
 872              		.loc 1 177 11 is_stmt 0 view .LVU200
 873 0006 01AA     		add	r2, sp, #4
 874 0008 6946     		mov	r1, sp
 875 000a 0A48     		ldr	r0, .L74
 876              	.LVL83:
 877              		.loc 1 177 11 view .LVU201
 878 000c FFF7FEFF 		bl	f_getfree
 879              	.LVL84:
 178:./Application/Src/sdcard.c ****     if (res != FR_OK) {
 880              		.loc 1 178 5 is_stmt 1 view .LVU202
 881              		.loc 1 178 8 is_stmt 0 view .LVU203
 882 0010 70B9     		cbnz	r0, .L72
 179:./Application/Src/sdcard.c ****         return res;
 180:./Application/Src/sdcard.c ****     }
 181:./Application/Src/sdcard.c **** 
 182:./Application/Src/sdcard.c ****     /* Calculate sizes in KB */
ARM GAS  C:\Users\Xuleo\AppData\Local\Temp\ccL4YgGa.s 			page 21


 183:./Application/Src/sdcard.c ****     DWORD totalSectors = (fs->n_fatent - 2) * fs->csize;
 883              		.loc 1 183 5 is_stmt 1 view .LVU204
 884              		.loc 1 183 29 is_stmt 0 view .LVU205
 885 0012 019A     		ldr	r2, [sp, #4]
 886 0014 D2F81432 		ldr	r3, [r2, #532]
 887              		.loc 1 183 40 view .LVU206
 888 0018 023B     		subs	r3, r3, #2
 889              		.loc 1 183 49 view .LVU207
 890 001a 92F80222 		ldrb	r2, [r2, #514]	@ zero_extendqisi2
 891              		.loc 1 183 11 view .LVU208
 892 001e 02FB03F3 		mul	r3, r2, r3
 893              	.LVL85:
 184:./Application/Src/sdcard.c ****     DWORD freeSectors = freeClusters * fs->csize;
 894              		.loc 1 184 5 is_stmt 1 view .LVU209
 895              		.loc 1 184 38 is_stmt 0 view .LVU210
 896 0022 0099     		ldr	r1, [sp]
 897              		.loc 1 184 11 view .LVU211
 898 0024 01FB02F2 		mul	r2, r1, r2
 899              	.LVL86:
 185:./Application/Src/sdcard.c **** 
 186:./Application/Src/sdcard.c ****     info->totalKB = totalSectors / 2;  /* 512 bytes per sector, /2 = KB */
 900              		.loc 1 186 5 is_stmt 1 view .LVU212
 901              		.loc 1 186 34 is_stmt 0 view .LVU213
 902 0028 5B08     		lsrs	r3, r3, #1
 903              	.LVL87:
 904              		.loc 1 186 19 view .LVU214
 905 002a 2360     		str	r3, [r4]
 906              	.LVL88:
 187:./Application/Src/sdcard.c ****     info->freeKB = freeSectors / 2;
 907              		.loc 1 187 5 is_stmt 1 view .LVU215
 908              		.loc 1 187 32 is_stmt 0 view .LVU216
 909 002c 5208     		lsrs	r2, r2, #1
 910              	.LVL89:
 911              		.loc 1 187 18 view .LVU217
 912 002e 6260     		str	r2, [r4, #4]
 188:./Application/Src/sdcard.c **** 
 189:./Application/Src/sdcard.c ****     return FR_OK;
 913              		.loc 1 189 5 is_stmt 1 view .LVU218
 914              	.LVL90:
 915              	.L72:
 190:./Application/Src/sdcard.c **** }
 916              		.loc 1 190 1 is_stmt 0 view .LVU219
 917 0030 02B0     		add	sp, sp, #8
 918              	.LCFI22:
 919              		.cfi_def_cfa_offset 8
 920              		@ sp needed
 921 0032 10BD     		pop	{r4, pc}
 922              	.LVL91:
 923              	.L75:
 924              		.loc 1 190 1 view .LVU220
 925              		.align	2
 926              	.L74:
 927 0034 00000000 		.word	.LC0
 928              		.cfi_endproc
 929              	.LFE79:
 931              		.global	fileCount
 932              		.section	.bss.fileCount,"aw",%nobits
ARM GAS  C:\Users\Xuleo\AppData\Local\Temp\ccL4YgGa.s 			page 22


 935              	fileCount:
 936 0000 00       		.space	1
 937              		.global	fileList
 938              		.section	.bss.fileList,"aw",%nobits
 939              		.align	2
 942              	fileList:
 943 0000 00000000 		.space	2000
 943      00000000 
 943      00000000 
 943      00000000 
 943      00000000 
 944              		.global	fatFs
 945              		.section	.bss.fatFs,"aw",%nobits
 946              		.align	2
 949              	fatFs:
 950 0000 00000000 		.space	560
 950      00000000 
 950      00000000 
 950      00000000 
 950      00000000 
 951              		.text
 952              	.Letext0:
 953              		.file 2 "C:/thirdpartyLibs/arm-gnu-toolchain-15.2/arm-none-eabi/include/machine/_default_types.h"
 954              		.file 3 "C:/thirdpartyLibs/arm-gnu-toolchain-15.2/arm-none-eabi/include/sys/_stdint.h"
 955              		.file 4 "C:/thirdpartyLibs/arm-gnu-toolchain-15.2/lib/gcc/arm-none-eabi/15.2.1/include/stddef.h"
 956              		.file 5 "Application/FatFs/integer.h"
 957              		.file 6 "Application/FatFs/ff.h"
 958              		.file 7 "Application/Inc/sdcard.h"
 959              		.file 8 "Application/Inc/oled1315.h"
 960              		.file 9 "C:/thirdpartyLibs/arm-gnu-toolchain-15.2/arm-none-eabi/include/string.h"
ARM GAS  C:\Users\Xuleo\AppData\Local\Temp\ccL4YgGa.s 			page 23


DEFINED SYMBOLS
                            *ABS*:00000000 sdcard.c
C:\Users\Xuleo\AppData\Local\Temp\ccL4YgGa.s:19     .text.isMidiFile:00000000 $t
C:\Users\Xuleo\AppData\Local\Temp\ccL4YgGa.s:24     .text.isMidiFile:00000000 isMidiFile
C:\Users\Xuleo\AppData\Local\Temp\ccL4YgGa.s:134    .rodata.SD_Init.str1.4:00000000 $d
C:\Users\Xuleo\AppData\Local\Temp\ccL4YgGa.s:138    .text.SD_Init:00000000 $t
C:\Users\Xuleo\AppData\Local\Temp\ccL4YgGa.s:144    .text.SD_Init:00000000 SD_Init
C:\Users\Xuleo\AppData\Local\Temp\ccL4YgGa.s:169    .text.SD_Init:00000010 $d
C:\Users\Xuleo\AppData\Local\Temp\ccL4YgGa.s:949    .bss.fatFs:00000000 fatFs
C:\Users\Xuleo\AppData\Local\Temp\ccL4YgGa.s:175    .text.SD_Mount:00000000 $t
C:\Users\Xuleo\AppData\Local\Temp\ccL4YgGa.s:181    .text.SD_Mount:00000000 SD_Mount
C:\Users\Xuleo\AppData\Local\Temp\ccL4YgGa.s:204    .text.SD_Mount:00000010 $d
C:\Users\Xuleo\AppData\Local\Temp\ccL4YgGa.s:210    .text.SD_Unmount:00000000 $t
C:\Users\Xuleo\AppData\Local\Temp\ccL4YgGa.s:216    .text.SD_Unmount:00000000 SD_Unmount
C:\Users\Xuleo\AppData\Local\Temp\ccL4YgGa.s:239    .text.SD_Unmount:00000010 $d
C:\Users\Xuleo\AppData\Local\Temp\ccL4YgGa.s:244    .text.SD_OpenFile:00000000 $t
C:\Users\Xuleo\AppData\Local\Temp\ccL4YgGa.s:250    .text.SD_OpenFile:00000000 SD_OpenFile
C:\Users\Xuleo\AppData\Local\Temp\ccL4YgGa.s:273    .text.SD_CloseFile:00000000 $t
C:\Users\Xuleo\AppData\Local\Temp\ccL4YgGa.s:279    .text.SD_CloseFile:00000000 SD_CloseFile
C:\Users\Xuleo\AppData\Local\Temp\ccL4YgGa.s:302    .text.SD_ReadFile:00000000 $t
C:\Users\Xuleo\AppData\Local\Temp\ccL4YgGa.s:308    .text.SD_ReadFile:00000000 SD_ReadFile
C:\Users\Xuleo\AppData\Local\Temp\ccL4YgGa.s:331    .text.SD_WriteFile:00000000 $t
C:\Users\Xuleo\AppData\Local\Temp\ccL4YgGa.s:337    .text.SD_WriteFile:00000000 SD_WriteFile
C:\Users\Xuleo\AppData\Local\Temp\ccL4YgGa.s:360    .rodata.SD_ListMidiFiles.str1.4:00000000 $d
C:\Users\Xuleo\AppData\Local\Temp\ccL4YgGa.s:364    .text.SD_ListMidiFiles:00000000 $t
C:\Users\Xuleo\AppData\Local\Temp\ccL4YgGa.s:370    .text.SD_ListMidiFiles:00000000 SD_ListMidiFiles
C:\Users\Xuleo\AppData\Local\Temp\ccL4YgGa.s:499    .text.SD_ListMidiFiles:0000008c $d
C:\Users\Xuleo\AppData\Local\Temp\ccL4YgGa.s:935    .bss.fileCount:00000000 fileCount
C:\Users\Xuleo\AppData\Local\Temp\ccL4YgGa.s:942    .bss.fileList:00000000 fileList
C:\Users\Xuleo\AppData\Local\Temp\ccL4YgGa.s:506    .text.SD_ReadMidiFile:00000000 $t
C:\Users\Xuleo\AppData\Local\Temp\ccL4YgGa.s:512    .text.SD_ReadMidiFile:00000000 SD_ReadMidiFile
C:\Users\Xuleo\AppData\Local\Temp\ccL4YgGa.s:643    .text.SD_ReadMidiFile:0000006c $d
C:\Users\Xuleo\AppData\Local\Temp\ccL4YgGa.s:649    .text.SD_DisplaySongList:00000000 $t
C:\Users\Xuleo\AppData\Local\Temp\ccL4YgGa.s:655    .text.SD_DisplaySongList:00000000 SD_DisplaySongList
C:\Users\Xuleo\AppData\Local\Temp\ccL4YgGa.s:839    .text.SD_DisplaySongList:00000094 $d
C:\Users\Xuleo\AppData\Local\Temp\ccL4YgGa.s:845    .text.SD_GetStorageInfo:00000000 $t
C:\Users\Xuleo\AppData\Local\Temp\ccL4YgGa.s:851    .text.SD_GetStorageInfo:00000000 SD_GetStorageInfo
C:\Users\Xuleo\AppData\Local\Temp\ccL4YgGa.s:927    .text.SD_GetStorageInfo:00000034 $d
C:\Users\Xuleo\AppData\Local\Temp\ccL4YgGa.s:936    .bss.fileCount:00000000 $d
C:\Users\Xuleo\AppData\Local\Temp\ccL4YgGa.s:939    .bss.fileList:00000000 $d
C:\Users\Xuleo\AppData\Local\Temp\ccL4YgGa.s:946    .bss.fatFs:00000000 $d

UNDEFINED SYMBOLS
strlen
f_mount
f_open
f_close
f_read
f_write
f_opendir
f_readdir
strncpy
f_closedir
OLED_WriteChar
OLED_SetCursor
OLED_WriteString
f_getfree
ARM GAS  C:\Users\Xuleo\AppData\Local\Temp\ccL4YgGa.s 			page 24


