ARM GAS  C:\Users\Xuleo\AppData\Local\Temp\cczbeMDw.s 			page 1


   1              		.cpu cortex-m33
   2              		.arch armv8-m.main
   3              		.fpu fpv4-sp-d16
   4              		.arch_extension dsp
   5              		.eabi_attribute 27, 1
   6              		.eabi_attribute 28, 1
   7              		.eabi_attribute 20, 1
   8              		.eabi_attribute 21, 1
   9              		.eabi_attribute 23, 3
  10              		.eabi_attribute 24, 1
  11              		.eabi_attribute 25, 1
  12              		.eabi_attribute 26, 1
  13              		.eabi_attribute 30, 1
  14              		.eabi_attribute 34, 1
  15              		.eabi_attribute 18, 4
  16              		.file	"spi.c"
  17              		.text
  18              	.Ltext0:
  19              		.cfi_sections	.debug_frame
  20              		.file 1 "Core/Src/spi.c"
  21              		.section	.text.MX_SPI2_Init,"ax",%progbits
  22              		.align	1
  23              		.global	MX_SPI2_Init
  24              		.syntax unified
  25              		.thumb
  26              		.thumb_func
  28              	MX_SPI2_Init:
  29              	.LFB160:
   1:Core/Src/spi.c **** /* USER CODE BEGIN Header */
   2:Core/Src/spi.c **** /**
   3:Core/Src/spi.c ****   ******************************************************************************
   4:Core/Src/spi.c ****   * @file    spi.c
   5:Core/Src/spi.c ****   * @brief   This file provides code for the configuration
   6:Core/Src/spi.c ****   *          of the SPI instances.
   7:Core/Src/spi.c ****   ******************************************************************************
   8:Core/Src/spi.c ****   * @attention
   9:Core/Src/spi.c ****   *
  10:Core/Src/spi.c ****   * Copyright (c) 2026 STMicroelectronics.
  11:Core/Src/spi.c ****   * All rights reserved.
  12:Core/Src/spi.c ****   *
  13:Core/Src/spi.c ****   * This software is licensed under terms that can be found in the LICENSE file
  14:Core/Src/spi.c ****   * in the root directory of this software component.
  15:Core/Src/spi.c ****   * If no LICENSE file comes with this software, it is provided AS-IS.
  16:Core/Src/spi.c ****   *
  17:Core/Src/spi.c ****   ******************************************************************************
  18:Core/Src/spi.c ****   */
  19:Core/Src/spi.c **** /* USER CODE END Header */
  20:Core/Src/spi.c **** /* Includes ------------------------------------------------------------------*/
  21:Core/Src/spi.c **** #include "spi.h"
  22:Core/Src/spi.c **** 
  23:Core/Src/spi.c **** /* USER CODE BEGIN 0 */
  24:Core/Src/spi.c **** 
  25:Core/Src/spi.c **** /* USER CODE END 0 */
  26:Core/Src/spi.c **** 
  27:Core/Src/spi.c **** SPI_HandleTypeDef hspi2;
  28:Core/Src/spi.c **** SPI_HandleTypeDef hspi3;
  29:Core/Src/spi.c **** 
ARM GAS  C:\Users\Xuleo\AppData\Local\Temp\cczbeMDw.s 			page 2


  30:Core/Src/spi.c **** /* SPI2 init function */
  31:Core/Src/spi.c **** void MX_SPI2_Init(void)
  32:Core/Src/spi.c **** {
  30              		.loc 1 32 1 view -0
  31              		.cfi_startproc
  32              		@ args = 0, pretend = 0, frame = 0
  33              		@ frame_needed = 0, uses_anonymous_args = 0
  34 0000 08B5     		push	{r3, lr}
  35              	.LCFI0:
  36              		.cfi_def_cfa_offset 8
  37              		.cfi_offset 3, -8
  38              		.cfi_offset 14, -4
  33:Core/Src/spi.c **** 
  34:Core/Src/spi.c ****   /* USER CODE BEGIN SPI2_Init 0 */
  35:Core/Src/spi.c **** 
  36:Core/Src/spi.c ****   /* USER CODE END SPI2_Init 0 */
  37:Core/Src/spi.c **** 
  38:Core/Src/spi.c ****   /* USER CODE BEGIN SPI2_Init 1 */
  39:Core/Src/spi.c **** 
  40:Core/Src/spi.c ****   /* USER CODE END SPI2_Init 1 */
  41:Core/Src/spi.c ****   hspi2.Instance = SPI2;
  39              		.loc 1 41 3 view .LVU1
  40              		.loc 1 41 18 is_stmt 0 view .LVU2
  41 0002 1448     		ldr	r0, .L5
  42 0004 144B     		ldr	r3, .L5+4
  43 0006 0360     		str	r3, [r0]
  42:Core/Src/spi.c ****   hspi2.Init.Mode = SPI_MODE_MASTER;
  44              		.loc 1 42 3 is_stmt 1 view .LVU3
  45              		.loc 1 42 19 is_stmt 0 view .LVU4
  46 0008 4FF48003 		mov	r3, #4194304
  47 000c 4360     		str	r3, [r0, #4]
  43:Core/Src/spi.c ****   hspi2.Init.Direction = SPI_DIRECTION_2LINES;
  48              		.loc 1 43 3 is_stmt 1 view .LVU5
  49              		.loc 1 43 24 is_stmt 0 view .LVU6
  50 000e 0023     		movs	r3, #0
  51 0010 8360     		str	r3, [r0, #8]
  44:Core/Src/spi.c ****   hspi2.Init.DataSize = SPI_DATASIZE_8BIT;
  52              		.loc 1 44 3 is_stmt 1 view .LVU7
  53              		.loc 1 44 23 is_stmt 0 view .LVU8
  54 0012 0722     		movs	r2, #7
  55 0014 C260     		str	r2, [r0, #12]
  45:Core/Src/spi.c ****   hspi2.Init.CLKPolarity = SPI_POLARITY_LOW;
  56              		.loc 1 45 3 is_stmt 1 view .LVU9
  57              		.loc 1 45 26 is_stmt 0 view .LVU10
  58 0016 0361     		str	r3, [r0, #16]
  46:Core/Src/spi.c ****   hspi2.Init.CLKPhase = SPI_PHASE_1EDGE;
  59              		.loc 1 46 3 is_stmt 1 view .LVU11
  60              		.loc 1 46 23 is_stmt 0 view .LVU12
  61 0018 4361     		str	r3, [r0, #20]
  47:Core/Src/spi.c ****   hspi2.Init.NSS = SPI_NSS_SOFT;
  62              		.loc 1 47 3 is_stmt 1 view .LVU13
  63              		.loc 1 47 18 is_stmt 0 view .LVU14
  64 001a 4FF08061 		mov	r1, #67108864
  65 001e 8161     		str	r1, [r0, #24]
  48:Core/Src/spi.c ****   hspi2.Init.BaudRatePrescaler = SPI_BAUDRATEPRESCALER_16;
  66              		.loc 1 48 3 is_stmt 1 view .LVU15
  67              		.loc 1 48 32 is_stmt 0 view .LVU16
ARM GAS  C:\Users\Xuleo\AppData\Local\Temp\cczbeMDw.s 			page 3


  68 0020 4FF04051 		mov	r1, #805306368
  69 0024 C161     		str	r1, [r0, #28]
  49:Core/Src/spi.c ****   hspi2.Init.FirstBit = SPI_FIRSTBIT_MSB;
  70              		.loc 1 49 3 is_stmt 1 view .LVU17
  71              		.loc 1 49 23 is_stmt 0 view .LVU18
  72 0026 0362     		str	r3, [r0, #32]
  50:Core/Src/spi.c ****   hspi2.Init.TIMode = SPI_TIMODE_DISABLE;
  73              		.loc 1 50 3 is_stmt 1 view .LVU19
  74              		.loc 1 50 21 is_stmt 0 view .LVU20
  75 0028 4362     		str	r3, [r0, #36]
  51:Core/Src/spi.c ****   hspi2.Init.CRCCalculation = SPI_CRCCALCULATION_DISABLE;
  76              		.loc 1 51 3 is_stmt 1 view .LVU21
  77              		.loc 1 51 29 is_stmt 0 view .LVU22
  78 002a 8362     		str	r3, [r0, #40]
  52:Core/Src/spi.c ****   hspi2.Init.CRCPolynomial = 0x7;
  79              		.loc 1 52 3 is_stmt 1 view .LVU23
  80              		.loc 1 52 28 is_stmt 0 view .LVU24
  81 002c C262     		str	r2, [r0, #44]
  53:Core/Src/spi.c ****   hspi2.Init.NSSPMode = SPI_NSS_PULSE_ENABLE;
  82              		.loc 1 53 3 is_stmt 1 view .LVU25
  83              		.loc 1 53 23 is_stmt 0 view .LVU26
  84 002e 4FF08042 		mov	r2, #1073741824
  85 0032 4263     		str	r2, [r0, #52]
  54:Core/Src/spi.c ****   hspi2.Init.NSSPolarity = SPI_NSS_POLARITY_LOW;
  86              		.loc 1 54 3 is_stmt 1 view .LVU27
  87              		.loc 1 54 26 is_stmt 0 view .LVU28
  88 0034 8363     		str	r3, [r0, #56]
  55:Core/Src/spi.c ****   hspi2.Init.FifoThreshold = SPI_FIFO_THRESHOLD_01DATA;
  89              		.loc 1 55 3 is_stmt 1 view .LVU29
  90              		.loc 1 55 28 is_stmt 0 view .LVU30
  91 0036 C363     		str	r3, [r0, #60]
  56:Core/Src/spi.c ****   hspi2.Init.MasterSSIdleness = SPI_MASTER_SS_IDLENESS_00CYCLE;
  92              		.loc 1 56 3 is_stmt 1 view .LVU31
  93              		.loc 1 56 31 is_stmt 0 view .LVU32
  94 0038 8364     		str	r3, [r0, #72]
  57:Core/Src/spi.c ****   hspi2.Init.MasterInterDataIdleness = SPI_MASTER_INTERDATA_IDLENESS_00CYCLE;
  95              		.loc 1 57 3 is_stmt 1 view .LVU33
  96              		.loc 1 57 38 is_stmt 0 view .LVU34
  97 003a C364     		str	r3, [r0, #76]
  58:Core/Src/spi.c ****   hspi2.Init.MasterReceiverAutoSusp = SPI_MASTER_RX_AUTOSUSP_DISABLE;
  98              		.loc 1 58 3 is_stmt 1 view .LVU35
  99              		.loc 1 58 37 is_stmt 0 view .LVU36
 100 003c 0365     		str	r3, [r0, #80]
  59:Core/Src/spi.c ****   hspi2.Init.MasterKeepIOState = SPI_MASTER_KEEP_IO_STATE_DISABLE;
 101              		.loc 1 59 3 is_stmt 1 view .LVU37
 102              		.loc 1 59 32 is_stmt 0 view .LVU38
 103 003e 4365     		str	r3, [r0, #84]
  60:Core/Src/spi.c ****   hspi2.Init.IOSwap = SPI_IO_SWAP_DISABLE;
 104              		.loc 1 60 3 is_stmt 1 view .LVU39
 105              		.loc 1 60 21 is_stmt 0 view .LVU40
 106 0040 8365     		str	r3, [r0, #88]
  61:Core/Src/spi.c ****   hspi2.Init.ReadyMasterManagement = SPI_RDY_MASTER_MANAGEMENT_INTERNALLY;
 107              		.loc 1 61 3 is_stmt 1 view .LVU41
 108              		.loc 1 61 36 is_stmt 0 view .LVU42
 109 0042 C365     		str	r3, [r0, #92]
  62:Core/Src/spi.c ****   hspi2.Init.ReadyPolarity = SPI_RDY_POLARITY_HIGH;
 110              		.loc 1 62 3 is_stmt 1 view .LVU43
ARM GAS  C:\Users\Xuleo\AppData\Local\Temp\cczbeMDw.s 			page 4


 111              		.loc 1 62 28 is_stmt 0 view .LVU44
 112 0044 0366     		str	r3, [r0, #96]
  63:Core/Src/spi.c ****   if (HAL_SPI_Init(&hspi2) != HAL_OK)
 113              		.loc 1 63 3 is_stmt 1 view .LVU45
 114              		.loc 1 63 7 is_stmt 0 view .LVU46
 115 0046 FFF7FEFF 		bl	HAL_SPI_Init
 116              	.LVL0:
 117              		.loc 1 63 6 discriminator 1 view .LVU47
 118 004a 00B9     		cbnz	r0, .L4
 119              	.L1:
  64:Core/Src/spi.c ****   {
  65:Core/Src/spi.c ****     Error_Handler();
  66:Core/Src/spi.c ****   }
  67:Core/Src/spi.c ****   /* USER CODE BEGIN SPI2_Init 2 */
  68:Core/Src/spi.c **** 
  69:Core/Src/spi.c ****   /* USER CODE END SPI2_Init 2 */
  70:Core/Src/spi.c **** 
  71:Core/Src/spi.c **** }
 120              		.loc 1 71 1 view .LVU48
 121 004c 08BD     		pop	{r3, pc}
 122              	.L4:
  65:Core/Src/spi.c ****   }
 123              		.loc 1 65 5 is_stmt 1 view .LVU49
 124 004e FFF7FEFF 		bl	Error_Handler
 125              	.LVL1:
 126              		.loc 1 71 1 is_stmt 0 view .LVU50
 127 0052 FBE7     		b	.L1
 128              	.L6:
 129              		.align	2
 130              	.L5:
 131 0054 00000000 		.word	hspi2
 132 0058 00380040 		.word	1073756160
 133              		.cfi_endproc
 134              	.LFE160:
 136              		.section	.text.MX_SPI3_Init,"ax",%progbits
 137              		.align	1
 138              		.global	MX_SPI3_Init
 139              		.syntax unified
 140              		.thumb
 141              		.thumb_func
 143              	MX_SPI3_Init:
 144              	.LFB161:
  72:Core/Src/spi.c **** /* SPI3 init function */
  73:Core/Src/spi.c **** void MX_SPI3_Init(void)
  74:Core/Src/spi.c **** {
 145              		.loc 1 74 1 is_stmt 1 view -0
 146              		.cfi_startproc
 147              		@ args = 0, pretend = 0, frame = 0
 148              		@ frame_needed = 0, uses_anonymous_args = 0
 149 0000 08B5     		push	{r3, lr}
 150              	.LCFI1:
 151              		.cfi_def_cfa_offset 8
 152              		.cfi_offset 3, -8
 153              		.cfi_offset 14, -4
  75:Core/Src/spi.c **** 
  76:Core/Src/spi.c ****   /* USER CODE BEGIN SPI3_Init 0 */
  77:Core/Src/spi.c **** 
ARM GAS  C:\Users\Xuleo\AppData\Local\Temp\cczbeMDw.s 			page 5


  78:Core/Src/spi.c ****   /* USER CODE END SPI3_Init 0 */
  79:Core/Src/spi.c **** 
  80:Core/Src/spi.c ****   /* USER CODE BEGIN SPI3_Init 1 */
  81:Core/Src/spi.c **** 
  82:Core/Src/spi.c ****   /* USER CODE END SPI3_Init 1 */
  83:Core/Src/spi.c ****   hspi3.Instance = SPI3;
 154              		.loc 1 83 3 view .LVU52
 155              		.loc 1 83 18 is_stmt 0 view .LVU53
 156 0002 1348     		ldr	r0, .L11
 157 0004 134B     		ldr	r3, .L11+4
 158 0006 0360     		str	r3, [r0]
  84:Core/Src/spi.c ****   hspi3.Init.Mode = SPI_MODE_MASTER;
 159              		.loc 1 84 3 is_stmt 1 view .LVU54
 160              		.loc 1 84 19 is_stmt 0 view .LVU55
 161 0008 4FF48003 		mov	r3, #4194304
 162 000c 4360     		str	r3, [r0, #4]
  85:Core/Src/spi.c ****   hspi3.Init.Direction = SPI_DIRECTION_2LINES;
 163              		.loc 1 85 3 is_stmt 1 view .LVU56
 164              		.loc 1 85 24 is_stmt 0 view .LVU57
 165 000e 0023     		movs	r3, #0
 166 0010 8360     		str	r3, [r0, #8]
  86:Core/Src/spi.c ****   hspi3.Init.DataSize = SPI_DATASIZE_8BIT;
 167              		.loc 1 86 3 is_stmt 1 view .LVU58
 168              		.loc 1 86 23 is_stmt 0 view .LVU59
 169 0012 0722     		movs	r2, #7
 170 0014 C260     		str	r2, [r0, #12]
  87:Core/Src/spi.c ****   hspi3.Init.CLKPolarity = SPI_POLARITY_LOW;
 171              		.loc 1 87 3 is_stmt 1 view .LVU60
 172              		.loc 1 87 26 is_stmt 0 view .LVU61
 173 0016 0361     		str	r3, [r0, #16]
  88:Core/Src/spi.c ****   hspi3.Init.CLKPhase = SPI_PHASE_1EDGE;
 174              		.loc 1 88 3 is_stmt 1 view .LVU62
 175              		.loc 1 88 23 is_stmt 0 view .LVU63
 176 0018 4361     		str	r3, [r0, #20]
  89:Core/Src/spi.c ****   hspi3.Init.NSS = SPI_NSS_SOFT;
 177              		.loc 1 89 3 is_stmt 1 view .LVU64
 178              		.loc 1 89 18 is_stmt 0 view .LVU65
 179 001a 4FF08061 		mov	r1, #67108864
 180 001e 8161     		str	r1, [r0, #24]
  90:Core/Src/spi.c ****   hspi3.Init.BaudRatePrescaler = SPI_BAUDRATEPRESCALER_128;
 181              		.loc 1 90 3 is_stmt 1 view .LVU66
 182              		.loc 1 90 32 is_stmt 0 view .LVU67
 183 0020 4FF0C041 		mov	r1, #1610612736
 184 0024 C161     		str	r1, [r0, #28]
  91:Core/Src/spi.c ****   hspi3.Init.FirstBit = SPI_FIRSTBIT_MSB;
 185              		.loc 1 91 3 is_stmt 1 view .LVU68
 186              		.loc 1 91 23 is_stmt 0 view .LVU69
 187 0026 0362     		str	r3, [r0, #32]
  92:Core/Src/spi.c ****   hspi3.Init.TIMode = SPI_TIMODE_DISABLE;
 188              		.loc 1 92 3 is_stmt 1 view .LVU70
 189              		.loc 1 92 21 is_stmt 0 view .LVU71
 190 0028 4362     		str	r3, [r0, #36]
  93:Core/Src/spi.c ****   hspi3.Init.CRCCalculation = SPI_CRCCALCULATION_DISABLE;
 191              		.loc 1 93 3 is_stmt 1 view .LVU72
 192              		.loc 1 93 29 is_stmt 0 view .LVU73
 193 002a 8362     		str	r3, [r0, #40]
  94:Core/Src/spi.c ****   hspi3.Init.CRCPolynomial = 0x7;
ARM GAS  C:\Users\Xuleo\AppData\Local\Temp\cczbeMDw.s 			page 6


 194              		.loc 1 94 3 is_stmt 1 view .LVU74
 195              		.loc 1 94 28 is_stmt 0 view .LVU75
 196 002c C262     		str	r2, [r0, #44]
  95:Core/Src/spi.c ****   hspi3.Init.NSSPMode = SPI_NSS_PULSE_DISABLE;
 197              		.loc 1 95 3 is_stmt 1 view .LVU76
 198              		.loc 1 95 23 is_stmt 0 view .LVU77
 199 002e 4363     		str	r3, [r0, #52]
  96:Core/Src/spi.c ****   hspi3.Init.NSSPolarity = SPI_NSS_POLARITY_LOW;
 200              		.loc 1 96 3 is_stmt 1 view .LVU78
 201              		.loc 1 96 26 is_stmt 0 view .LVU79
 202 0030 8363     		str	r3, [r0, #56]
  97:Core/Src/spi.c ****   hspi3.Init.FifoThreshold = SPI_FIFO_THRESHOLD_01DATA;
 203              		.loc 1 97 3 is_stmt 1 view .LVU80
 204              		.loc 1 97 28 is_stmt 0 view .LVU81
 205 0032 C363     		str	r3, [r0, #60]
  98:Core/Src/spi.c ****   hspi3.Init.MasterSSIdleness = SPI_MASTER_SS_IDLENESS_00CYCLE;
 206              		.loc 1 98 3 is_stmt 1 view .LVU82
 207              		.loc 1 98 31 is_stmt 0 view .LVU83
 208 0034 8364     		str	r3, [r0, #72]
  99:Core/Src/spi.c ****   hspi3.Init.MasterInterDataIdleness = SPI_MASTER_INTERDATA_IDLENESS_00CYCLE;
 209              		.loc 1 99 3 is_stmt 1 view .LVU84
 210              		.loc 1 99 38 is_stmt 0 view .LVU85
 211 0036 C364     		str	r3, [r0, #76]
 100:Core/Src/spi.c ****   hspi3.Init.MasterReceiverAutoSusp = SPI_MASTER_RX_AUTOSUSP_DISABLE;
 212              		.loc 1 100 3 is_stmt 1 view .LVU86
 213              		.loc 1 100 37 is_stmt 0 view .LVU87
 214 0038 0365     		str	r3, [r0, #80]
 101:Core/Src/spi.c ****   hspi3.Init.MasterKeepIOState = SPI_MASTER_KEEP_IO_STATE_DISABLE;
 215              		.loc 1 101 3 is_stmt 1 view .LVU88
 216              		.loc 1 101 32 is_stmt 0 view .LVU89
 217 003a 4365     		str	r3, [r0, #84]
 102:Core/Src/spi.c ****   hspi3.Init.IOSwap = SPI_IO_SWAP_DISABLE;
 218              		.loc 1 102 3 is_stmt 1 view .LVU90
 219              		.loc 1 102 21 is_stmt 0 view .LVU91
 220 003c 8365     		str	r3, [r0, #88]
 103:Core/Src/spi.c ****   hspi3.Init.ReadyMasterManagement = SPI_RDY_MASTER_MANAGEMENT_INTERNALLY;
 221              		.loc 1 103 3 is_stmt 1 view .LVU92
 222              		.loc 1 103 36 is_stmt 0 view .LVU93
 223 003e C365     		str	r3, [r0, #92]
 104:Core/Src/spi.c ****   hspi3.Init.ReadyPolarity = SPI_RDY_POLARITY_HIGH;
 224              		.loc 1 104 3 is_stmt 1 view .LVU94
 225              		.loc 1 104 28 is_stmt 0 view .LVU95
 226 0040 0366     		str	r3, [r0, #96]
 105:Core/Src/spi.c ****   if (HAL_SPI_Init(&hspi3) != HAL_OK)
 227              		.loc 1 105 3 is_stmt 1 view .LVU96
 228              		.loc 1 105 7 is_stmt 0 view .LVU97
 229 0042 FFF7FEFF 		bl	HAL_SPI_Init
 230              	.LVL2:
 231              		.loc 1 105 6 discriminator 1 view .LVU98
 232 0046 00B9     		cbnz	r0, .L10
 233              	.L7:
 106:Core/Src/spi.c ****   {
 107:Core/Src/spi.c ****     Error_Handler();
 108:Core/Src/spi.c ****   }
 109:Core/Src/spi.c ****   /* USER CODE BEGIN SPI3_Init 2 */
 110:Core/Src/spi.c **** 
 111:Core/Src/spi.c ****   /* USER CODE END SPI3_Init 2 */
ARM GAS  C:\Users\Xuleo\AppData\Local\Temp\cczbeMDw.s 			page 7


 112:Core/Src/spi.c **** 
 113:Core/Src/spi.c **** }
 234              		.loc 1 113 1 view .LVU99
 235 0048 08BD     		pop	{r3, pc}
 236              	.L10:
 107:Core/Src/spi.c ****   }
 237              		.loc 1 107 5 is_stmt 1 view .LVU100
 238 004a FFF7FEFF 		bl	Error_Handler
 239              	.LVL3:
 240              		.loc 1 113 1 is_stmt 0 view .LVU101
 241 004e FBE7     		b	.L7
 242              	.L12:
 243              		.align	2
 244              	.L11:
 245 0050 00000000 		.word	hspi3
 246 0054 003C0040 		.word	1073757184
 247              		.cfi_endproc
 248              	.LFE161:
 250              		.section	.text.HAL_SPI_MspInit,"ax",%progbits
 251              		.align	1
 252              		.global	HAL_SPI_MspInit
 253              		.syntax unified
 254              		.thumb
 255              		.thumb_func
 257              	HAL_SPI_MspInit:
 258              	.LVL4:
 259              	.LFB162:
 114:Core/Src/spi.c **** 
 115:Core/Src/spi.c **** void HAL_SPI_MspInit(SPI_HandleTypeDef* spiHandle)
 116:Core/Src/spi.c **** {
 260              		.loc 1 116 1 is_stmt 1 view -0
 261              		.cfi_startproc
 262              		@ args = 0, pretend = 0, frame = 256
 263              		@ frame_needed = 0, uses_anonymous_args = 0
 264              		.loc 1 116 1 is_stmt 0 view .LVU103
 265 0000 70B5     		push	{r4, r5, r6, lr}
 266              	.LCFI2:
 267              		.cfi_def_cfa_offset 16
 268              		.cfi_offset 4, -16
 269              		.cfi_offset 5, -12
 270              		.cfi_offset 6, -8
 271              		.cfi_offset 14, -4
 272 0002 C0B0     		sub	sp, sp, #256
 273              	.LCFI3:
 274              		.cfi_def_cfa_offset 272
 275 0004 0446     		mov	r4, r0
 117:Core/Src/spi.c **** 
 118:Core/Src/spi.c ****   GPIO_InitTypeDef GPIO_InitStruct = {0};
 276              		.loc 1 118 3 is_stmt 1 view .LVU104
 277              		.loc 1 118 20 is_stmt 0 view .LVU105
 278 0006 0021     		movs	r1, #0
 279 0008 3B91     		str	r1, [sp, #236]
 280 000a 3C91     		str	r1, [sp, #240]
 281 000c 3D91     		str	r1, [sp, #244]
 282 000e 3E91     		str	r1, [sp, #248]
 283 0010 3F91     		str	r1, [sp, #252]
 119:Core/Src/spi.c ****   RCC_PeriphCLKInitTypeDef PeriphClkInitStruct = {0};
ARM GAS  C:\Users\Xuleo\AppData\Local\Temp\cczbeMDw.s 			page 8


 284              		.loc 1 119 3 is_stmt 1 view .LVU106
 285              		.loc 1 119 28 is_stmt 0 view .LVU107
 286 0012 D022     		movs	r2, #208
 287 0014 06A8     		add	r0, sp, #24
 288              	.LVL5:
 289              		.loc 1 119 28 view .LVU108
 290 0016 FFF7FEFF 		bl	memset
 291              	.LVL6:
 120:Core/Src/spi.c ****   if(spiHandle->Instance==SPI2)
 292              		.loc 1 120 3 is_stmt 1 view .LVU109
 293              		.loc 1 120 15 is_stmt 0 view .LVU110
 294 001a 2368     		ldr	r3, [r4]
 295              		.loc 1 120 5 view .LVU111
 296 001c 554A     		ldr	r2, .L23
 297 001e 9342     		cmp	r3, r2
 298 0020 04D0     		beq	.L19
 121:Core/Src/spi.c ****   {
 122:Core/Src/spi.c ****   /* USER CODE BEGIN SPI2_MspInit 0 */
 123:Core/Src/spi.c **** 
 124:Core/Src/spi.c ****   /* USER CODE END SPI2_MspInit 0 */
 125:Core/Src/spi.c **** 
 126:Core/Src/spi.c ****   /** Initializes the peripherals clock
 127:Core/Src/spi.c ****   */
 128:Core/Src/spi.c ****     PeriphClkInitStruct.PeriphClockSelection = RCC_PERIPHCLK_SPI2;
 129:Core/Src/spi.c ****     PeriphClkInitStruct.Spi2ClockSelection = RCC_SPI2CLKSOURCE_PLL1Q;
 130:Core/Src/spi.c ****     if (HAL_RCCEx_PeriphCLKConfig(&PeriphClkInitStruct) != HAL_OK)
 131:Core/Src/spi.c ****     {
 132:Core/Src/spi.c ****       Error_Handler();
 133:Core/Src/spi.c ****     }
 134:Core/Src/spi.c **** 
 135:Core/Src/spi.c ****     /* SPI2 clock enable */
 136:Core/Src/spi.c ****     __HAL_RCC_SPI2_CLK_ENABLE();
 137:Core/Src/spi.c **** 
 138:Core/Src/spi.c ****     __HAL_RCC_GPIOC_CLK_ENABLE();
 139:Core/Src/spi.c ****     __HAL_RCC_GPIOB_CLK_ENABLE();
 140:Core/Src/spi.c ****     /**SPI2 GPIO Configuration
 141:Core/Src/spi.c ****     PC1     ------> SPI2_MOSI
 142:Core/Src/spi.c ****     PC2     ------> SPI2_MISO
 143:Core/Src/spi.c ****     PB2     ------> SPI2_SCK
 144:Core/Src/spi.c ****     */
 145:Core/Src/spi.c ****     GPIO_InitStruct.Pin = GPIO_PIN_1|GPIO_PIN_2;
 146:Core/Src/spi.c ****     GPIO_InitStruct.Mode = GPIO_MODE_AF_PP;
 147:Core/Src/spi.c ****     GPIO_InitStruct.Pull = GPIO_NOPULL;
 148:Core/Src/spi.c ****     GPIO_InitStruct.Speed = GPIO_SPEED_FREQ_LOW;
 149:Core/Src/spi.c ****     GPIO_InitStruct.Alternate = GPIO_AF5_SPI2;
 150:Core/Src/spi.c ****     HAL_GPIO_Init(GPIOC, &GPIO_InitStruct);
 151:Core/Src/spi.c **** 
 152:Core/Src/spi.c ****     GPIO_InitStruct.Pin = GPIO_PIN_2;
 153:Core/Src/spi.c ****     GPIO_InitStruct.Mode = GPIO_MODE_AF_PP;
 154:Core/Src/spi.c ****     GPIO_InitStruct.Pull = GPIO_NOPULL;
 155:Core/Src/spi.c ****     GPIO_InitStruct.Speed = GPIO_SPEED_FREQ_LOW;
 156:Core/Src/spi.c ****     GPIO_InitStruct.Alternate = GPIO_AF6_SPI2;
 157:Core/Src/spi.c ****     HAL_GPIO_Init(GPIOB, &GPIO_InitStruct);
 158:Core/Src/spi.c **** 
 159:Core/Src/spi.c ****   /* USER CODE BEGIN SPI2_MspInit 1 */
 160:Core/Src/spi.c **** 
 161:Core/Src/spi.c ****   /* USER CODE END SPI2_MspInit 1 */
ARM GAS  C:\Users\Xuleo\AppData\Local\Temp\cczbeMDw.s 			page 9


 162:Core/Src/spi.c ****   }
 163:Core/Src/spi.c ****   else if(spiHandle->Instance==SPI3)
 299              		.loc 1 163 8 is_stmt 1 view .LVU112
 300              		.loc 1 163 10 is_stmt 0 view .LVU113
 301 0022 554A     		ldr	r2, .L23+4
 302 0024 9342     		cmp	r3, r2
 303 0026 4BD0     		beq	.L20
 304              	.LVL7:
 305              	.L13:
 164:Core/Src/spi.c ****   {
 165:Core/Src/spi.c ****   /* USER CODE BEGIN SPI3_MspInit 0 */
 166:Core/Src/spi.c **** 
 167:Core/Src/spi.c ****   /* USER CODE END SPI3_MspInit 0 */
 168:Core/Src/spi.c **** 
 169:Core/Src/spi.c ****   /** Initializes the peripherals clock
 170:Core/Src/spi.c ****   */
 171:Core/Src/spi.c ****     PeriphClkInitStruct.PeriphClockSelection = RCC_PERIPHCLK_SPI3;
 172:Core/Src/spi.c ****     PeriphClkInitStruct.Spi3ClockSelection = RCC_SPI3CLKSOURCE_CLKP;
 173:Core/Src/spi.c ****     if (HAL_RCCEx_PeriphCLKConfig(&PeriphClkInitStruct) != HAL_OK)
 174:Core/Src/spi.c ****     {
 175:Core/Src/spi.c ****       Error_Handler();
 176:Core/Src/spi.c ****     }
 177:Core/Src/spi.c **** 
 178:Core/Src/spi.c ****     /* SPI3 clock enable */
 179:Core/Src/spi.c ****     __HAL_RCC_SPI3_CLK_ENABLE();
 180:Core/Src/spi.c **** 
 181:Core/Src/spi.c ****     __HAL_RCC_GPIOB_CLK_ENABLE();
 182:Core/Src/spi.c ****     __HAL_RCC_GPIOC_CLK_ENABLE();
 183:Core/Src/spi.c ****     /**SPI3 GPIO Configuration
 184:Core/Src/spi.c ****     PB0     ------> SPI3_MISO
 185:Core/Src/spi.c ****     PB1     ------> SPI3_SCK
 186:Core/Src/spi.c ****     PC12     ------> SPI3_MOSI
 187:Core/Src/spi.c ****     */
 188:Core/Src/spi.c ****     GPIO_InitStruct.Pin = GPIO_PIN_0;
 189:Core/Src/spi.c ****     GPIO_InitStruct.Mode = GPIO_MODE_AF_PP;
 190:Core/Src/spi.c ****     GPIO_InitStruct.Pull = GPIO_PULLUP;
 191:Core/Src/spi.c ****     GPIO_InitStruct.Speed = GPIO_SPEED_FREQ_HIGH;
 192:Core/Src/spi.c ****     GPIO_InitStruct.Alternate = GPIO_AF5_SPI3;
 193:Core/Src/spi.c ****     HAL_GPIO_Init(GPIOB, &GPIO_InitStruct);
 194:Core/Src/spi.c **** 
 195:Core/Src/spi.c ****     GPIO_InitStruct.Pin = GPIO_PIN_1;
 196:Core/Src/spi.c ****     GPIO_InitStruct.Mode = GPIO_MODE_AF_PP;
 197:Core/Src/spi.c ****     GPIO_InitStruct.Pull = GPIO_NOPULL;
 198:Core/Src/spi.c ****     GPIO_InitStruct.Speed = GPIO_SPEED_FREQ_HIGH;
 199:Core/Src/spi.c ****     GPIO_InitStruct.Alternate = GPIO_AF4_SPI3;
 200:Core/Src/spi.c ****     HAL_GPIO_Init(GPIOB, &GPIO_InitStruct);
 201:Core/Src/spi.c **** 
 202:Core/Src/spi.c ****     GPIO_InitStruct.Pin = GPIO_PIN_12;
 203:Core/Src/spi.c ****     GPIO_InitStruct.Mode = GPIO_MODE_AF_PP;
 204:Core/Src/spi.c ****     GPIO_InitStruct.Pull = GPIO_NOPULL;
 205:Core/Src/spi.c ****     GPIO_InitStruct.Speed = GPIO_SPEED_FREQ_HIGH;
 206:Core/Src/spi.c ****     GPIO_InitStruct.Alternate = GPIO_AF6_SPI3;
 207:Core/Src/spi.c ****     HAL_GPIO_Init(GPIOC, &GPIO_InitStruct);
 208:Core/Src/spi.c **** 
 209:Core/Src/spi.c ****   /* USER CODE BEGIN SPI3_MspInit 1 */
 210:Core/Src/spi.c **** 
 211:Core/Src/spi.c ****   /* USER CODE END SPI3_MspInit 1 */
ARM GAS  C:\Users\Xuleo\AppData\Local\Temp\cczbeMDw.s 			page 10


 212:Core/Src/spi.c ****   }
 213:Core/Src/spi.c **** }
 306              		.loc 1 213 1 view .LVU114
 307 0028 40B0     		add	sp, sp, #256
 308              	.LCFI4:
 309              		.cfi_remember_state
 310              		.cfi_def_cfa_offset 16
 311              		@ sp needed
 312 002a 70BD     		pop	{r4, r5, r6, pc}
 313              	.LVL8:
 314              	.L19:
 315              	.LCFI5:
 316              		.cfi_restore_state
 128:Core/Src/spi.c ****     PeriphClkInitStruct.Spi2ClockSelection = RCC_SPI2CLKSOURCE_PLL1Q;
 317              		.loc 1 128 5 is_stmt 1 view .LVU115
 128:Core/Src/spi.c ****     PeriphClkInitStruct.Spi2ClockSelection = RCC_SPI2CLKSOURCE_PLL1Q;
 318              		.loc 1 128 46 is_stmt 0 view .LVU116
 319 002c 4FF08052 		mov	r2, #268435456
 320 0030 0023     		movs	r3, #0
 321 0032 CDE90623 		strd	r2, [sp, #24]
 129:Core/Src/spi.c ****     if (HAL_RCCEx_PeriphCLKConfig(&PeriphClkInitStruct) != HAL_OK)
 322              		.loc 1 129 5 is_stmt 1 view .LVU117
 130:Core/Src/spi.c ****     {
 323              		.loc 1 130 5 view .LVU118
 130:Core/Src/spi.c ****     {
 324              		.loc 1 130 9 is_stmt 0 view .LVU119
 325 0036 06A8     		add	r0, sp, #24
 326 0038 FFF7FEFF 		bl	HAL_RCCEx_PeriphCLKConfig
 327              	.LVL9:
 130:Core/Src/spi.c ****     {
 328              		.loc 1 130 8 discriminator 1 view .LVU120
 329 003c 0028     		cmp	r0, #0
 330 003e 3CD1     		bne	.L21
 331              	.L15:
 136:Core/Src/spi.c **** 
 332              		.loc 1 136 5 is_stmt 1 view .LVU121
 333              	.LBB2:
 136:Core/Src/spi.c **** 
 334              		.loc 1 136 5 view .LVU122
 136:Core/Src/spi.c **** 
 335              		.loc 1 136 5 view .LVU123
 336 0040 4E4B     		ldr	r3, .L23+8
 337 0042 D3F89C20 		ldr	r2, [r3, #156]
 338 0046 42F48042 		orr	r2, r2, #16384
 339 004a C3F89C20 		str	r2, [r3, #156]
 136:Core/Src/spi.c **** 
 340              		.loc 1 136 5 view .LVU124
 341 004e D3F89C20 		ldr	r2, [r3, #156]
 342 0052 02F48042 		and	r2, r2, #16384
 343 0056 0092     		str	r2, [sp]
 136:Core/Src/spi.c **** 
 344              		.loc 1 136 5 view .LVU125
 345 0058 009A     		ldr	r2, [sp]
 346              	.LBE2:
 136:Core/Src/spi.c **** 
 347              		.loc 1 136 5 view .LVU126
 138:Core/Src/spi.c ****     __HAL_RCC_GPIOB_CLK_ENABLE();
ARM GAS  C:\Users\Xuleo\AppData\Local\Temp\cczbeMDw.s 			page 11


 348              		.loc 1 138 5 view .LVU127
 349              	.LBB3:
 138:Core/Src/spi.c ****     __HAL_RCC_GPIOB_CLK_ENABLE();
 350              		.loc 1 138 5 view .LVU128
 138:Core/Src/spi.c ****     __HAL_RCC_GPIOB_CLK_ENABLE();
 351              		.loc 1 138 5 view .LVU129
 352 005a D3F88C20 		ldr	r2, [r3, #140]
 353 005e 42F00402 		orr	r2, r2, #4
 354 0062 C3F88C20 		str	r2, [r3, #140]
 138:Core/Src/spi.c ****     __HAL_RCC_GPIOB_CLK_ENABLE();
 355              		.loc 1 138 5 view .LVU130
 356 0066 D3F88C20 		ldr	r2, [r3, #140]
 357 006a 02F00402 		and	r2, r2, #4
 358 006e 0192     		str	r2, [sp, #4]
 138:Core/Src/spi.c ****     __HAL_RCC_GPIOB_CLK_ENABLE();
 359              		.loc 1 138 5 view .LVU131
 360 0070 019A     		ldr	r2, [sp, #4]
 361              	.LBE3:
 138:Core/Src/spi.c ****     __HAL_RCC_GPIOB_CLK_ENABLE();
 362              		.loc 1 138 5 view .LVU132
 139:Core/Src/spi.c ****     /**SPI2 GPIO Configuration
 363              		.loc 1 139 5 view .LVU133
 364              	.LBB4:
 139:Core/Src/spi.c ****     /**SPI2 GPIO Configuration
 365              		.loc 1 139 5 view .LVU134
 139:Core/Src/spi.c ****     /**SPI2 GPIO Configuration
 366              		.loc 1 139 5 view .LVU135
 367 0072 D3F88C20 		ldr	r2, [r3, #140]
 368 0076 42F00202 		orr	r2, r2, #2
 369 007a C3F88C20 		str	r2, [r3, #140]
 139:Core/Src/spi.c ****     /**SPI2 GPIO Configuration
 370              		.loc 1 139 5 view .LVU136
 371 007e D3F88C30 		ldr	r3, [r3, #140]
 372 0082 03F00203 		and	r3, r3, #2
 373 0086 0293     		str	r3, [sp, #8]
 139:Core/Src/spi.c ****     /**SPI2 GPIO Configuration
 374              		.loc 1 139 5 view .LVU137
 375 0088 029B     		ldr	r3, [sp, #8]
 376              	.LBE4:
 139:Core/Src/spi.c ****     /**SPI2 GPIO Configuration
 377              		.loc 1 139 5 view .LVU138
 145:Core/Src/spi.c ****     GPIO_InitStruct.Mode = GPIO_MODE_AF_PP;
 378              		.loc 1 145 5 view .LVU139
 145:Core/Src/spi.c ****     GPIO_InitStruct.Mode = GPIO_MODE_AF_PP;
 379              		.loc 1 145 25 is_stmt 0 view .LVU140
 380 008a 0625     		movs	r5, #6
 381 008c 3B95     		str	r5, [sp, #236]
 146:Core/Src/spi.c ****     GPIO_InitStruct.Pull = GPIO_NOPULL;
 382              		.loc 1 146 5 is_stmt 1 view .LVU141
 146:Core/Src/spi.c ****     GPIO_InitStruct.Pull = GPIO_NOPULL;
 383              		.loc 1 146 26 is_stmt 0 view .LVU142
 384 008e 0226     		movs	r6, #2
 385 0090 3C96     		str	r6, [sp, #240]
 147:Core/Src/spi.c ****     GPIO_InitStruct.Speed = GPIO_SPEED_FREQ_LOW;
 386              		.loc 1 147 5 is_stmt 1 view .LVU143
 147:Core/Src/spi.c ****     GPIO_InitStruct.Speed = GPIO_SPEED_FREQ_LOW;
 387              		.loc 1 147 26 is_stmt 0 view .LVU144
ARM GAS  C:\Users\Xuleo\AppData\Local\Temp\cczbeMDw.s 			page 12


 388 0092 0024     		movs	r4, #0
 389              	.LVL10:
 147:Core/Src/spi.c ****     GPIO_InitStruct.Speed = GPIO_SPEED_FREQ_LOW;
 390              		.loc 1 147 26 view .LVU145
 391 0094 3D94     		str	r4, [sp, #244]
 148:Core/Src/spi.c ****     GPIO_InitStruct.Alternate = GPIO_AF5_SPI2;
 392              		.loc 1 148 5 is_stmt 1 view .LVU146
 148:Core/Src/spi.c ****     GPIO_InitStruct.Alternate = GPIO_AF5_SPI2;
 393              		.loc 1 148 27 is_stmt 0 view .LVU147
 394 0096 3E94     		str	r4, [sp, #248]
 149:Core/Src/spi.c ****     HAL_GPIO_Init(GPIOC, &GPIO_InitStruct);
 395              		.loc 1 149 5 is_stmt 1 view .LVU148
 149:Core/Src/spi.c ****     HAL_GPIO_Init(GPIOC, &GPIO_InitStruct);
 396              		.loc 1 149 31 is_stmt 0 view .LVU149
 397 0098 0523     		movs	r3, #5
 398 009a 3F93     		str	r3, [sp, #252]
 150:Core/Src/spi.c **** 
 399              		.loc 1 150 5 is_stmt 1 view .LVU150
 400 009c 3BA9     		add	r1, sp, #236
 401 009e 3848     		ldr	r0, .L23+12
 402 00a0 FFF7FEFF 		bl	HAL_GPIO_Init
 403              	.LVL11:
 152:Core/Src/spi.c ****     GPIO_InitStruct.Mode = GPIO_MODE_AF_PP;
 404              		.loc 1 152 5 view .LVU151
 152:Core/Src/spi.c ****     GPIO_InitStruct.Mode = GPIO_MODE_AF_PP;
 405              		.loc 1 152 25 is_stmt 0 view .LVU152
 406 00a4 0423     		movs	r3, #4
 407 00a6 3B93     		str	r3, [sp, #236]
 153:Core/Src/spi.c ****     GPIO_InitStruct.Pull = GPIO_NOPULL;
 408              		.loc 1 153 5 is_stmt 1 view .LVU153
 153:Core/Src/spi.c ****     GPIO_InitStruct.Pull = GPIO_NOPULL;
 409              		.loc 1 153 26 is_stmt 0 view .LVU154
 410 00a8 3C96     		str	r6, [sp, #240]
 154:Core/Src/spi.c ****     GPIO_InitStruct.Speed = GPIO_SPEED_FREQ_LOW;
 411              		.loc 1 154 5 is_stmt 1 view .LVU155
 154:Core/Src/spi.c ****     GPIO_InitStruct.Speed = GPIO_SPEED_FREQ_LOW;
 412              		.loc 1 154 26 is_stmt 0 view .LVU156
 413 00aa 3D94     		str	r4, [sp, #244]
 155:Core/Src/spi.c ****     GPIO_InitStruct.Alternate = GPIO_AF6_SPI2;
 414              		.loc 1 155 5 is_stmt 1 view .LVU157
 155:Core/Src/spi.c ****     GPIO_InitStruct.Alternate = GPIO_AF6_SPI2;
 415              		.loc 1 155 27 is_stmt 0 view .LVU158
 416 00ac 3E94     		str	r4, [sp, #248]
 156:Core/Src/spi.c ****     HAL_GPIO_Init(GPIOB, &GPIO_InitStruct);
 417              		.loc 1 156 5 is_stmt 1 view .LVU159
 156:Core/Src/spi.c ****     HAL_GPIO_Init(GPIOB, &GPIO_InitStruct);
 418              		.loc 1 156 31 is_stmt 0 view .LVU160
 419 00ae 3F95     		str	r5, [sp, #252]
 157:Core/Src/spi.c **** 
 420              		.loc 1 157 5 is_stmt 1 view .LVU161
 421 00b0 3BA9     		add	r1, sp, #236
 422 00b2 3448     		ldr	r0, .L23+16
 423 00b4 FFF7FEFF 		bl	HAL_GPIO_Init
 424              	.LVL12:
 425 00b8 B6E7     		b	.L13
 426              	.LVL13:
 427              	.L21:
ARM GAS  C:\Users\Xuleo\AppData\Local\Temp\cczbeMDw.s 			page 13


 132:Core/Src/spi.c ****     }
 428              		.loc 1 132 7 view .LVU162
 429 00ba FFF7FEFF 		bl	Error_Handler
 430              	.LVL14:
 431 00be BFE7     		b	.L15
 432              	.L20:
 171:Core/Src/spi.c ****     PeriphClkInitStruct.Spi3ClockSelection = RCC_SPI3CLKSOURCE_CLKP;
 433              		.loc 1 171 5 view .LVU163
 171:Core/Src/spi.c ****     PeriphClkInitStruct.Spi3ClockSelection = RCC_SPI3CLKSOURCE_CLKP;
 434              		.loc 1 171 46 is_stmt 0 view .LVU164
 435 00c0 4FF00052 		mov	r2, #536870912
 436 00c4 0023     		movs	r3, #0
 437 00c6 CDE90623 		strd	r2, [sp, #24]
 172:Core/Src/spi.c ****     if (HAL_RCCEx_PeriphCLKConfig(&PeriphClkInitStruct) != HAL_OK)
 438              		.loc 1 172 5 is_stmt 1 view .LVU165
 172:Core/Src/spi.c ****     if (HAL_RCCEx_PeriphCLKConfig(&PeriphClkInitStruct) != HAL_OK)
 439              		.loc 1 172 44 is_stmt 0 view .LVU166
 440 00ca 4FF48073 		mov	r3, #256
 441 00ce 3393     		str	r3, [sp, #204]
 173:Core/Src/spi.c ****     {
 442              		.loc 1 173 5 is_stmt 1 view .LVU167
 173:Core/Src/spi.c ****     {
 443              		.loc 1 173 9 is_stmt 0 view .LVU168
 444 00d0 06A8     		add	r0, sp, #24
 445 00d2 FFF7FEFF 		bl	HAL_RCCEx_PeriphCLKConfig
 446              	.LVL15:
 173:Core/Src/spi.c ****     {
 447              		.loc 1 173 8 discriminator 1 view .LVU169
 448 00d6 0028     		cmp	r0, #0
 449 00d8 48D1     		bne	.L22
 450              	.L17:
 179:Core/Src/spi.c **** 
 451              		.loc 1 179 5 is_stmt 1 view .LVU170
 452              	.LBB5:
 179:Core/Src/spi.c **** 
 453              		.loc 1 179 5 view .LVU171
 179:Core/Src/spi.c **** 
 454              		.loc 1 179 5 view .LVU172
 455 00da 284B     		ldr	r3, .L23+8
 456 00dc D3F89C20 		ldr	r2, [r3, #156]
 457 00e0 42F40042 		orr	r2, r2, #32768
 458 00e4 C3F89C20 		str	r2, [r3, #156]
 179:Core/Src/spi.c **** 
 459              		.loc 1 179 5 view .LVU173
 460 00e8 D3F89C20 		ldr	r2, [r3, #156]
 461 00ec 02F40042 		and	r2, r2, #32768
 462 00f0 0392     		str	r2, [sp, #12]
 179:Core/Src/spi.c **** 
 463              		.loc 1 179 5 view .LVU174
 464 00f2 039A     		ldr	r2, [sp, #12]
 465              	.LBE5:
 179:Core/Src/spi.c **** 
 466              		.loc 1 179 5 view .LVU175
 181:Core/Src/spi.c ****     __HAL_RCC_GPIOC_CLK_ENABLE();
 467              		.loc 1 181 5 view .LVU176
 468              	.LBB6:
 181:Core/Src/spi.c ****     __HAL_RCC_GPIOC_CLK_ENABLE();
ARM GAS  C:\Users\Xuleo\AppData\Local\Temp\cczbeMDw.s 			page 14


 469              		.loc 1 181 5 view .LVU177
 181:Core/Src/spi.c ****     __HAL_RCC_GPIOC_CLK_ENABLE();
 470              		.loc 1 181 5 view .LVU178
 471 00f4 D3F88C20 		ldr	r2, [r3, #140]
 472 00f8 42F00202 		orr	r2, r2, #2
 473 00fc C3F88C20 		str	r2, [r3, #140]
 181:Core/Src/spi.c ****     __HAL_RCC_GPIOC_CLK_ENABLE();
 474              		.loc 1 181 5 view .LVU179
 475 0100 D3F88C20 		ldr	r2, [r3, #140]
 476 0104 02F00202 		and	r2, r2, #2
 477 0108 0492     		str	r2, [sp, #16]
 181:Core/Src/spi.c ****     __HAL_RCC_GPIOC_CLK_ENABLE();
 478              		.loc 1 181 5 view .LVU180
 479 010a 049A     		ldr	r2, [sp, #16]
 480              	.LBE6:
 181:Core/Src/spi.c ****     __HAL_RCC_GPIOC_CLK_ENABLE();
 481              		.loc 1 181 5 view .LVU181
 182:Core/Src/spi.c ****     /**SPI3 GPIO Configuration
 482              		.loc 1 182 5 view .LVU182
 483              	.LBB7:
 182:Core/Src/spi.c ****     /**SPI3 GPIO Configuration
 484              		.loc 1 182 5 view .LVU183
 182:Core/Src/spi.c ****     /**SPI3 GPIO Configuration
 485              		.loc 1 182 5 view .LVU184
 486 010c D3F88C20 		ldr	r2, [r3, #140]
 487 0110 42F00402 		orr	r2, r2, #4
 488 0114 C3F88C20 		str	r2, [r3, #140]
 182:Core/Src/spi.c ****     /**SPI3 GPIO Configuration
 489              		.loc 1 182 5 view .LVU185
 490 0118 D3F88C30 		ldr	r3, [r3, #140]
 491 011c 03F00403 		and	r3, r3, #4
 492 0120 0593     		str	r3, [sp, #20]
 182:Core/Src/spi.c ****     /**SPI3 GPIO Configuration
 493              		.loc 1 182 5 view .LVU186
 494 0122 059B     		ldr	r3, [sp, #20]
 495              	.LBE7:
 182:Core/Src/spi.c ****     /**SPI3 GPIO Configuration
 496              		.loc 1 182 5 view .LVU187
 188:Core/Src/spi.c ****     GPIO_InitStruct.Mode = GPIO_MODE_AF_PP;
 497              		.loc 1 188 5 view .LVU188
 188:Core/Src/spi.c ****     GPIO_InitStruct.Mode = GPIO_MODE_AF_PP;
 498              		.loc 1 188 25 is_stmt 0 view .LVU189
 499 0124 0123     		movs	r3, #1
 500 0126 3B93     		str	r3, [sp, #236]
 189:Core/Src/spi.c ****     GPIO_InitStruct.Pull = GPIO_PULLUP;
 501              		.loc 1 189 5 is_stmt 1 view .LVU190
 189:Core/Src/spi.c ****     GPIO_InitStruct.Pull = GPIO_PULLUP;
 502              		.loc 1 189 26 is_stmt 0 view .LVU191
 503 0128 0224     		movs	r4, #2
 504              	.LVL16:
 189:Core/Src/spi.c ****     GPIO_InitStruct.Pull = GPIO_PULLUP;
 505              		.loc 1 189 26 view .LVU192
 506 012a 3C94     		str	r4, [sp, #240]
 190:Core/Src/spi.c ****     GPIO_InitStruct.Speed = GPIO_SPEED_FREQ_HIGH;
 507              		.loc 1 190 5 is_stmt 1 view .LVU193
 190:Core/Src/spi.c ****     GPIO_InitStruct.Speed = GPIO_SPEED_FREQ_HIGH;
 508              		.loc 1 190 26 is_stmt 0 view .LVU194
ARM GAS  C:\Users\Xuleo\AppData\Local\Temp\cczbeMDw.s 			page 15


 509 012c 3D93     		str	r3, [sp, #244]
 191:Core/Src/spi.c ****     GPIO_InitStruct.Alternate = GPIO_AF5_SPI3;
 510              		.loc 1 191 5 is_stmt 1 view .LVU195
 191:Core/Src/spi.c ****     GPIO_InitStruct.Alternate = GPIO_AF5_SPI3;
 511              		.loc 1 191 27 is_stmt 0 view .LVU196
 512 012e 3E94     		str	r4, [sp, #248]
 192:Core/Src/spi.c ****     HAL_GPIO_Init(GPIOB, &GPIO_InitStruct);
 513              		.loc 1 192 5 is_stmt 1 view .LVU197
 192:Core/Src/spi.c ****     HAL_GPIO_Init(GPIOB, &GPIO_InitStruct);
 514              		.loc 1 192 31 is_stmt 0 view .LVU198
 515 0130 0523     		movs	r3, #5
 516 0132 3F93     		str	r3, [sp, #252]
 193:Core/Src/spi.c **** 
 517              		.loc 1 193 5 is_stmt 1 view .LVU199
 518 0134 3BA9     		add	r1, sp, #236
 519 0136 1348     		ldr	r0, .L23+16
 520 0138 FFF7FEFF 		bl	HAL_GPIO_Init
 521              	.LVL17:
 195:Core/Src/spi.c ****     GPIO_InitStruct.Mode = GPIO_MODE_AF_PP;
 522              		.loc 1 195 5 view .LVU200
 195:Core/Src/spi.c ****     GPIO_InitStruct.Mode = GPIO_MODE_AF_PP;
 523              		.loc 1 195 25 is_stmt 0 view .LVU201
 524 013c 3B94     		str	r4, [sp, #236]
 196:Core/Src/spi.c ****     GPIO_InitStruct.Pull = GPIO_NOPULL;
 525              		.loc 1 196 5 is_stmt 1 view .LVU202
 196:Core/Src/spi.c ****     GPIO_InitStruct.Pull = GPIO_NOPULL;
 526              		.loc 1 196 26 is_stmt 0 view .LVU203
 527 013e 3C94     		str	r4, [sp, #240]
 197:Core/Src/spi.c ****     GPIO_InitStruct.Speed = GPIO_SPEED_FREQ_HIGH;
 528              		.loc 1 197 5 is_stmt 1 view .LVU204
 197:Core/Src/spi.c ****     GPIO_InitStruct.Speed = GPIO_SPEED_FREQ_HIGH;
 529              		.loc 1 197 26 is_stmt 0 view .LVU205
 530 0140 0025     		movs	r5, #0
 531 0142 3D95     		str	r5, [sp, #244]
 198:Core/Src/spi.c ****     GPIO_InitStruct.Alternate = GPIO_AF4_SPI3;
 532              		.loc 1 198 5 is_stmt 1 view .LVU206
 198:Core/Src/spi.c ****     GPIO_InitStruct.Alternate = GPIO_AF4_SPI3;
 533              		.loc 1 198 27 is_stmt 0 view .LVU207
 534 0144 3E94     		str	r4, [sp, #248]
 199:Core/Src/spi.c ****     HAL_GPIO_Init(GPIOB, &GPIO_InitStruct);
 535              		.loc 1 199 5 is_stmt 1 view .LVU208
 199:Core/Src/spi.c ****     HAL_GPIO_Init(GPIOB, &GPIO_InitStruct);
 536              		.loc 1 199 31 is_stmt 0 view .LVU209
 537 0146 0423     		movs	r3, #4
 538 0148 3F93     		str	r3, [sp, #252]
 200:Core/Src/spi.c **** 
 539              		.loc 1 200 5 is_stmt 1 view .LVU210
 540 014a 3BA9     		add	r1, sp, #236
 541 014c 0D48     		ldr	r0, .L23+16
 542 014e FFF7FEFF 		bl	HAL_GPIO_Init
 543              	.LVL18:
 202:Core/Src/spi.c ****     GPIO_InitStruct.Mode = GPIO_MODE_AF_PP;
 544              		.loc 1 202 5 view .LVU211
 202:Core/Src/spi.c ****     GPIO_InitStruct.Mode = GPIO_MODE_AF_PP;
 545              		.loc 1 202 25 is_stmt 0 view .LVU212
 546 0152 4FF48053 		mov	r3, #4096
 547 0156 3B93     		str	r3, [sp, #236]
ARM GAS  C:\Users\Xuleo\AppData\Local\Temp\cczbeMDw.s 			page 16


 203:Core/Src/spi.c ****     GPIO_InitStruct.Pull = GPIO_NOPULL;
 548              		.loc 1 203 5 is_stmt 1 view .LVU213
 203:Core/Src/spi.c ****     GPIO_InitStruct.Pull = GPIO_NOPULL;
 549              		.loc 1 203 26 is_stmt 0 view .LVU214
 550 0158 3C94     		str	r4, [sp, #240]
 204:Core/Src/spi.c ****     GPIO_InitStruct.Speed = GPIO_SPEED_FREQ_HIGH;
 551              		.loc 1 204 5 is_stmt 1 view .LVU215
 204:Core/Src/spi.c ****     GPIO_InitStruct.Speed = GPIO_SPEED_FREQ_HIGH;
 552              		.loc 1 204 26 is_stmt 0 view .LVU216
 553 015a 3D95     		str	r5, [sp, #244]
 205:Core/Src/spi.c ****     GPIO_InitStruct.Alternate = GPIO_AF6_SPI3;
 554              		.loc 1 205 5 is_stmt 1 view .LVU217
 205:Core/Src/spi.c ****     GPIO_InitStruct.Alternate = GPIO_AF6_SPI3;
 555              		.loc 1 205 27 is_stmt 0 view .LVU218
 556 015c 3E94     		str	r4, [sp, #248]
 206:Core/Src/spi.c ****     HAL_GPIO_Init(GPIOC, &GPIO_InitStruct);
 557              		.loc 1 206 5 is_stmt 1 view .LVU219
 206:Core/Src/spi.c ****     HAL_GPIO_Init(GPIOC, &GPIO_InitStruct);
 558              		.loc 1 206 31 is_stmt 0 view .LVU220
 559 015e 0623     		movs	r3, #6
 560 0160 3F93     		str	r3, [sp, #252]
 207:Core/Src/spi.c **** 
 561              		.loc 1 207 5 is_stmt 1 view .LVU221
 562 0162 3BA9     		add	r1, sp, #236
 563 0164 0648     		ldr	r0, .L23+12
 564 0166 FFF7FEFF 		bl	HAL_GPIO_Init
 565              	.LVL19:
 566              		.loc 1 213 1 is_stmt 0 view .LVU222
 567 016a 5DE7     		b	.L13
 568              	.LVL20:
 569              	.L22:
 175:Core/Src/spi.c ****     }
 570              		.loc 1 175 7 is_stmt 1 view .LVU223
 571 016c FFF7FEFF 		bl	Error_Handler
 572              	.LVL21:
 573 0170 B3E7     		b	.L17
 574              	.L24:
 575 0172 00BF     		.align	2
 576              	.L23:
 577 0174 00380040 		.word	1073756160
 578 0178 003C0040 		.word	1073757184
 579 017c 000C0244 		.word	1140984832
 580 0180 00080242 		.word	1107429376
 581 0184 00040242 		.word	1107428352
 582              		.cfi_endproc
 583              	.LFE162:
 585              		.section	.text.HAL_SPI_MspDeInit,"ax",%progbits
 586              		.align	1
 587              		.global	HAL_SPI_MspDeInit
 588              		.syntax unified
 589              		.thumb
 590              		.thumb_func
 592              	HAL_SPI_MspDeInit:
 593              	.LVL22:
 594              	.LFB163:
 214:Core/Src/spi.c **** 
 215:Core/Src/spi.c **** void HAL_SPI_MspDeInit(SPI_HandleTypeDef* spiHandle)
ARM GAS  C:\Users\Xuleo\AppData\Local\Temp\cczbeMDw.s 			page 17


 216:Core/Src/spi.c **** {
 595              		.loc 1 216 1 view -0
 596              		.cfi_startproc
 597              		@ args = 0, pretend = 0, frame = 0
 598              		@ frame_needed = 0, uses_anonymous_args = 0
 599              		.loc 1 216 1 is_stmt 0 view .LVU225
 600 0000 08B5     		push	{r3, lr}
 601              	.LCFI6:
 602              		.cfi_def_cfa_offset 8
 603              		.cfi_offset 3, -8
 604              		.cfi_offset 14, -4
 217:Core/Src/spi.c **** 
 218:Core/Src/spi.c ****   if(spiHandle->Instance==SPI2)
 605              		.loc 1 218 3 is_stmt 1 view .LVU226
 606              		.loc 1 218 15 is_stmt 0 view .LVU227
 607 0002 0368     		ldr	r3, [r0]
 608              		.loc 1 218 5 view .LVU228
 609 0004 134A     		ldr	r2, .L31
 610 0006 9342     		cmp	r3, r2
 611 0008 03D0     		beq	.L29
 219:Core/Src/spi.c ****   {
 220:Core/Src/spi.c ****   /* USER CODE BEGIN SPI2_MspDeInit 0 */
 221:Core/Src/spi.c **** 
 222:Core/Src/spi.c ****   /* USER CODE END SPI2_MspDeInit 0 */
 223:Core/Src/spi.c ****     /* Peripheral clock disable */
 224:Core/Src/spi.c ****     __HAL_RCC_SPI2_CLK_DISABLE();
 225:Core/Src/spi.c **** 
 226:Core/Src/spi.c ****     /**SPI2 GPIO Configuration
 227:Core/Src/spi.c ****     PC1     ------> SPI2_MOSI
 228:Core/Src/spi.c ****     PC2     ------> SPI2_MISO
 229:Core/Src/spi.c ****     PB2     ------> SPI2_SCK
 230:Core/Src/spi.c ****     */
 231:Core/Src/spi.c ****     HAL_GPIO_DeInit(GPIOC, GPIO_PIN_1|GPIO_PIN_2);
 232:Core/Src/spi.c **** 
 233:Core/Src/spi.c ****     HAL_GPIO_DeInit(GPIOB, GPIO_PIN_2);
 234:Core/Src/spi.c **** 
 235:Core/Src/spi.c ****   /* USER CODE BEGIN SPI2_MspDeInit 1 */
 236:Core/Src/spi.c **** 
 237:Core/Src/spi.c ****   /* USER CODE END SPI2_MspDeInit 1 */
 238:Core/Src/spi.c ****   }
 239:Core/Src/spi.c ****   else if(spiHandle->Instance==SPI3)
 612              		.loc 1 239 8 is_stmt 1 view .LVU229
 613              		.loc 1 239 10 is_stmt 0 view .LVU230
 614 000a 134A     		ldr	r2, .L31+4
 615 000c 9342     		cmp	r3, r2
 616 000e 10D0     		beq	.L30
 617              	.LVL23:
 618              	.L25:
 240:Core/Src/spi.c ****   {
 241:Core/Src/spi.c ****   /* USER CODE BEGIN SPI3_MspDeInit 0 */
 242:Core/Src/spi.c **** 
 243:Core/Src/spi.c ****   /* USER CODE END SPI3_MspDeInit 0 */
 244:Core/Src/spi.c ****     /* Peripheral clock disable */
 245:Core/Src/spi.c ****     __HAL_RCC_SPI3_CLK_DISABLE();
 246:Core/Src/spi.c **** 
 247:Core/Src/spi.c ****     /**SPI3 GPIO Configuration
 248:Core/Src/spi.c ****     PB0     ------> SPI3_MISO
ARM GAS  C:\Users\Xuleo\AppData\Local\Temp\cczbeMDw.s 			page 18


 249:Core/Src/spi.c ****     PB1     ------> SPI3_SCK
 250:Core/Src/spi.c ****     PC12     ------> SPI3_MOSI
 251:Core/Src/spi.c ****     */
 252:Core/Src/spi.c ****     HAL_GPIO_DeInit(GPIOB, GPIO_PIN_0|GPIO_PIN_1);
 253:Core/Src/spi.c **** 
 254:Core/Src/spi.c ****     HAL_GPIO_DeInit(GPIOC, GPIO_PIN_12);
 255:Core/Src/spi.c **** 
 256:Core/Src/spi.c ****   /* USER CODE BEGIN SPI3_MspDeInit 1 */
 257:Core/Src/spi.c **** 
 258:Core/Src/spi.c ****   /* USER CODE END SPI3_MspDeInit 1 */
 259:Core/Src/spi.c ****   }
 260:Core/Src/spi.c **** }
 619              		.loc 1 260 1 view .LVU231
 620 0010 08BD     		pop	{r3, pc}
 621              	.LVL24:
 622              	.L29:
 224:Core/Src/spi.c **** 
 623              		.loc 1 224 5 is_stmt 1 view .LVU232
 624 0012 124A     		ldr	r2, .L31+8
 625 0014 D2F89C30 		ldr	r3, [r2, #156]
 626 0018 23F48043 		bic	r3, r3, #16384
 627 001c C2F89C30 		str	r3, [r2, #156]
 231:Core/Src/spi.c **** 
 628              		.loc 1 231 5 view .LVU233
 629 0020 0621     		movs	r1, #6
 630 0022 0F48     		ldr	r0, .L31+12
 631              	.LVL25:
 231:Core/Src/spi.c **** 
 632              		.loc 1 231 5 is_stmt 0 view .LVU234
 633 0024 FFF7FEFF 		bl	HAL_GPIO_DeInit
 634              	.LVL26:
 233:Core/Src/spi.c **** 
 635              		.loc 1 233 5 is_stmt 1 view .LVU235
 636 0028 0421     		movs	r1, #4
 637 002a 0E48     		ldr	r0, .L31+16
 638 002c FFF7FEFF 		bl	HAL_GPIO_DeInit
 639              	.LVL27:
 640 0030 EEE7     		b	.L25
 641              	.LVL28:
 642              	.L30:
 245:Core/Src/spi.c **** 
 643              		.loc 1 245 5 view .LVU236
 644 0032 0A4A     		ldr	r2, .L31+8
 645 0034 D2F89C30 		ldr	r3, [r2, #156]
 646 0038 23F40043 		bic	r3, r3, #32768
 647 003c C2F89C30 		str	r3, [r2, #156]
 252:Core/Src/spi.c **** 
 648              		.loc 1 252 5 view .LVU237
 649 0040 0321     		movs	r1, #3
 650 0042 0848     		ldr	r0, .L31+16
 651              	.LVL29:
 252:Core/Src/spi.c **** 
 652              		.loc 1 252 5 is_stmt 0 view .LVU238
 653 0044 FFF7FEFF 		bl	HAL_GPIO_DeInit
 654              	.LVL30:
 254:Core/Src/spi.c **** 
 655              		.loc 1 254 5 is_stmt 1 view .LVU239
ARM GAS  C:\Users\Xuleo\AppData\Local\Temp\cczbeMDw.s 			page 19


 656 0048 4FF48051 		mov	r1, #4096
 657 004c 0448     		ldr	r0, .L31+12
 658 004e FFF7FEFF 		bl	HAL_GPIO_DeInit
 659              	.LVL31:
 660              		.loc 1 260 1 is_stmt 0 view .LVU240
 661 0052 DDE7     		b	.L25
 662              	.L32:
 663              		.align	2
 664              	.L31:
 665 0054 00380040 		.word	1073756160
 666 0058 003C0040 		.word	1073757184
 667 005c 000C0244 		.word	1140984832
 668 0060 00080242 		.word	1107429376
 669 0064 00040242 		.word	1107428352
 670              		.cfi_endproc
 671              	.LFE163:
 673              		.global	hspi3
 674              		.section	.bss.hspi3,"aw",%nobits
 675              		.align	2
 678              	hspi3:
 679 0000 00000000 		.space	144
 679      00000000 
 679      00000000 
 679      00000000 
 679      00000000 
 680              		.global	hspi2
 681              		.section	.bss.hspi2,"aw",%nobits
 682              		.align	2
 685              	hspi2:
 686 0000 00000000 		.space	144
 686      00000000 
 686      00000000 
 686      00000000 
 686      00000000 
 687              		.text
 688              	.Letext0:
 689              		.file 2 "C:/thirdpartyLibs/arm-gnu-toolchain-15.2/arm-none-eabi/include/machine/_default_types.h"
 690              		.file 3 "C:/thirdpartyLibs/arm-gnu-toolchain-15.2/arm-none-eabi/include/sys/_stdint.h"
 691              		.file 4 "Drivers/CMSIS/Device/ST/STM32H5xx/Include/stm32h533xx.h"
 692              		.file 5 "Drivers/STM32H5xx_HAL_Driver/Inc/stm32h5xx_hal_def.h"
 693              		.file 6 "Drivers/STM32H5xx_HAL_Driver/Inc/stm32h5xx_hal_rcc_ex.h"
 694              		.file 7 "Drivers/STM32H5xx_HAL_Driver/Inc/stm32h5xx_hal_gpio.h"
 695              		.file 8 "Drivers/STM32H5xx_HAL_Driver/Inc/stm32h5xx_hal_dma.h"
 696              		.file 9 "Drivers/STM32H5xx_HAL_Driver/Inc/stm32h5xx_hal_dma_ex.h"
 697              		.file 10 "Drivers/STM32H5xx_HAL_Driver/Inc/stm32h5xx_hal_spi.h"
 698              		.file 11 "Core/Inc/spi.h"
 699              		.file 12 "Core/Inc/main.h"
 700              		.file 13 "<built-in>"
ARM GAS  C:\Users\Xuleo\AppData\Local\Temp\cczbeMDw.s 			page 20

