ARM GAS  C:\Users\admin\AppData\Local\Temp\ccKOQBsb.s 			page 1


   1              		.cpu cortex-m33
   2              		.arch armv8-m.main
   3              		.fpu fpv5-sp-d16
   4              		.arch_extension dsp
   5              		.eabi_attribute 27, 1
   6              		.eabi_attribute 28, 1
   7              		.eabi_attribute 20, 1
   8              		.eabi_attribute 21, 1
   9              		.eabi_attribute 23, 3
  10              		.eabi_attribute 24, 1
  11              		.eabi_attribute 25, 1
  12              		.eabi_attribute 26, 1
  13              		.eabi_attribute 30, 1
  14              		.eabi_attribute 34, 1
  15              		.eabi_attribute 18, 4
  16              		.file	"spi.c"
  17              		.text
  18              	.Ltext0:
  19              		.cfi_sections	.debug_frame
  20              		.file 1 "Core/Src/spi.c"
  21              		.section	.text.MX_SPI2_Init,"ax",%progbits
  22              		.align	1
  23              		.global	MX_SPI2_Init
  24              		.syntax unified
  25              		.thumb
  26              		.thumb_func
  28              	MX_SPI2_Init:
  29              	.LFB356:
   1:Core/Src/spi.c **** /* USER CODE BEGIN Header */
   2:Core/Src/spi.c **** /**
   3:Core/Src/spi.c ****   ******************************************************************************
   4:Core/Src/spi.c ****   * @file    spi.c
   5:Core/Src/spi.c ****   * @brief   This file provides code for the configuration
   6:Core/Src/spi.c ****   *          of the SPI instances.
   7:Core/Src/spi.c ****   ******************************************************************************
   8:Core/Src/spi.c ****   * @attention
   9:Core/Src/spi.c ****   *
  10:Core/Src/spi.c ****   * Copyright (c) 2026 STMicroelectronics.
  11:Core/Src/spi.c ****   * All rights reserved.
  12:Core/Src/spi.c ****   *
  13:Core/Src/spi.c ****   * This software is licensed under terms that can be found in the LICENSE file
  14:Core/Src/spi.c ****   * in the root directory of this software component.
  15:Core/Src/spi.c ****   * If no LICENSE file comes with this software, it is provided AS-IS.
  16:Core/Src/spi.c ****   *
  17:Core/Src/spi.c ****   ******************************************************************************
  18:Core/Src/spi.c ****   */
  19:Core/Src/spi.c **** /* USER CODE END Header */
  20:Core/Src/spi.c **** /* Includes ------------------------------------------------------------------*/
  21:Core/Src/spi.c **** #include "spi.h"
  22:Core/Src/spi.c **** 
  23:Core/Src/spi.c **** /* USER CODE BEGIN 0 */
  24:Core/Src/spi.c **** 
  25:Core/Src/spi.c **** /* USER CODE END 0 */
  26:Core/Src/spi.c **** 
  27:Core/Src/spi.c **** SPI_HandleTypeDef hspi2;
  28:Core/Src/spi.c **** SPI_HandleTypeDef hspi3;
  29:Core/Src/spi.c **** SPI_HandleTypeDef hspi4;
ARM GAS  C:\Users\admin\AppData\Local\Temp\ccKOQBsb.s 			page 2


  30:Core/Src/spi.c **** 
  31:Core/Src/spi.c **** /* SPI2 init function */
  32:Core/Src/spi.c **** void MX_SPI2_Init(void)
  33:Core/Src/spi.c **** {
  30              		.loc 1 33 1 view -0
  31              		.cfi_startproc
  32              		@ args = 0, pretend = 0, frame = 0
  33              		@ frame_needed = 0, uses_anonymous_args = 0
  34 0000 08B5     		push	{r3, lr}
  35              	.LCFI0:
  36              		.cfi_def_cfa_offset 8
  37              		.cfi_offset 3, -8
  38              		.cfi_offset 14, -4
  34:Core/Src/spi.c **** 
  35:Core/Src/spi.c ****   /* USER CODE BEGIN SPI2_Init 0 */
  36:Core/Src/spi.c **** 
  37:Core/Src/spi.c ****   /* USER CODE END SPI2_Init 0 */
  38:Core/Src/spi.c **** 
  39:Core/Src/spi.c ****   /* USER CODE BEGIN SPI2_Init 1 */
  40:Core/Src/spi.c **** 
  41:Core/Src/spi.c ****   /* USER CODE END SPI2_Init 1 */
  42:Core/Src/spi.c ****   hspi2.Instance = SPI2;
  39              		.loc 1 42 3 view .LVU1
  40              		.loc 1 42 18 is_stmt 0 view .LVU2
  41 0002 1548     		ldr	r0, .L5
  42 0004 154B     		ldr	r3, .L5+4
  43 0006 0360     		str	r3, [r0]
  43:Core/Src/spi.c ****   hspi2.Init.Mode = SPI_MODE_MASTER;
  44              		.loc 1 43 3 is_stmt 1 view .LVU3
  45              		.loc 1 43 19 is_stmt 0 view .LVU4
  46 0008 4FF48003 		mov	r3, #4194304
  47 000c 4360     		str	r3, [r0, #4]
  44:Core/Src/spi.c ****   hspi2.Init.Direction = SPI_DIRECTION_2LINES_TXONLY;
  48              		.loc 1 44 3 is_stmt 1 view .LVU5
  49              		.loc 1 44 24 is_stmt 0 view .LVU6
  50 000e 4FF40033 		mov	r3, #131072
  51 0012 8360     		str	r3, [r0, #8]
  45:Core/Src/spi.c ****   hspi2.Init.DataSize = SPI_DATASIZE_8BIT;
  52              		.loc 1 45 3 is_stmt 1 view .LVU7
  53              		.loc 1 45 23 is_stmt 0 view .LVU8
  54 0014 0722     		movs	r2, #7
  55 0016 C260     		str	r2, [r0, #12]
  46:Core/Src/spi.c ****   hspi2.Init.CLKPolarity = SPI_POLARITY_LOW;
  56              		.loc 1 46 3 is_stmt 1 view .LVU9
  57              		.loc 1 46 26 is_stmt 0 view .LVU10
  58 0018 0023     		movs	r3, #0
  59 001a 0361     		str	r3, [r0, #16]
  47:Core/Src/spi.c ****   hspi2.Init.CLKPhase = SPI_PHASE_1EDGE;
  60              		.loc 1 47 3 is_stmt 1 view .LVU11
  61              		.loc 1 47 23 is_stmt 0 view .LVU12
  62 001c 4361     		str	r3, [r0, #20]
  48:Core/Src/spi.c ****   hspi2.Init.NSS = SPI_NSS_SOFT;
  63              		.loc 1 48 3 is_stmt 1 view .LVU13
  64              		.loc 1 48 18 is_stmt 0 view .LVU14
  65 001e 4FF08061 		mov	r1, #67108864
  66 0022 8161     		str	r1, [r0, #24]
  49:Core/Src/spi.c ****   hspi2.Init.BaudRatePrescaler = SPI_BAUDRATEPRESCALER_16;
ARM GAS  C:\Users\admin\AppData\Local\Temp\ccKOQBsb.s 			page 3


  67              		.loc 1 49 3 is_stmt 1 view .LVU15
  68              		.loc 1 49 32 is_stmt 0 view .LVU16
  69 0024 4FF04051 		mov	r1, #805306368
  70 0028 C161     		str	r1, [r0, #28]
  50:Core/Src/spi.c ****   hspi2.Init.FirstBit = SPI_FIRSTBIT_MSB;
  71              		.loc 1 50 3 is_stmt 1 view .LVU17
  72              		.loc 1 50 23 is_stmt 0 view .LVU18
  73 002a 0362     		str	r3, [r0, #32]
  51:Core/Src/spi.c ****   hspi2.Init.TIMode = SPI_TIMODE_DISABLE;
  74              		.loc 1 51 3 is_stmt 1 view .LVU19
  75              		.loc 1 51 21 is_stmt 0 view .LVU20
  76 002c 4362     		str	r3, [r0, #36]
  52:Core/Src/spi.c ****   hspi2.Init.CRCCalculation = SPI_CRCCALCULATION_DISABLE;
  77              		.loc 1 52 3 is_stmt 1 view .LVU21
  78              		.loc 1 52 29 is_stmt 0 view .LVU22
  79 002e 8362     		str	r3, [r0, #40]
  53:Core/Src/spi.c ****   hspi2.Init.CRCPolynomial = 0x7;
  80              		.loc 1 53 3 is_stmt 1 view .LVU23
  81              		.loc 1 53 28 is_stmt 0 view .LVU24
  82 0030 C262     		str	r2, [r0, #44]
  54:Core/Src/spi.c ****   hspi2.Init.NSSPMode = SPI_NSS_PULSE_ENABLE;
  83              		.loc 1 54 3 is_stmt 1 view .LVU25
  84              		.loc 1 54 23 is_stmt 0 view .LVU26
  85 0032 4FF08042 		mov	r2, #1073741824
  86 0036 4263     		str	r2, [r0, #52]
  55:Core/Src/spi.c ****   hspi2.Init.NSSPolarity = SPI_NSS_POLARITY_LOW;
  87              		.loc 1 55 3 is_stmt 1 view .LVU27
  88              		.loc 1 55 26 is_stmt 0 view .LVU28
  89 0038 8363     		str	r3, [r0, #56]
  56:Core/Src/spi.c ****   hspi2.Init.FifoThreshold = SPI_FIFO_THRESHOLD_01DATA;
  90              		.loc 1 56 3 is_stmt 1 view .LVU29
  91              		.loc 1 56 28 is_stmt 0 view .LVU30
  92 003a C363     		str	r3, [r0, #60]
  57:Core/Src/spi.c ****   hspi2.Init.MasterSSIdleness = SPI_MASTER_SS_IDLENESS_00CYCLE;
  93              		.loc 1 57 3 is_stmt 1 view .LVU31
  94              		.loc 1 57 31 is_stmt 0 view .LVU32
  95 003c 8364     		str	r3, [r0, #72]
  58:Core/Src/spi.c ****   hspi2.Init.MasterInterDataIdleness = SPI_MASTER_INTERDATA_IDLENESS_00CYCLE;
  96              		.loc 1 58 3 is_stmt 1 view .LVU33
  97              		.loc 1 58 38 is_stmt 0 view .LVU34
  98 003e C364     		str	r3, [r0, #76]
  59:Core/Src/spi.c ****   hspi2.Init.MasterReceiverAutoSusp = SPI_MASTER_RX_AUTOSUSP_DISABLE;
  99              		.loc 1 59 3 is_stmt 1 view .LVU35
 100              		.loc 1 59 37 is_stmt 0 view .LVU36
 101 0040 0365     		str	r3, [r0, #80]
  60:Core/Src/spi.c ****   hspi2.Init.MasterKeepIOState = SPI_MASTER_KEEP_IO_STATE_DISABLE;
 102              		.loc 1 60 3 is_stmt 1 view .LVU37
 103              		.loc 1 60 32 is_stmt 0 view .LVU38
 104 0042 4365     		str	r3, [r0, #84]
  61:Core/Src/spi.c ****   hspi2.Init.IOSwap = SPI_IO_SWAP_DISABLE;
 105              		.loc 1 61 3 is_stmt 1 view .LVU39
 106              		.loc 1 61 21 is_stmt 0 view .LVU40
 107 0044 8365     		str	r3, [r0, #88]
  62:Core/Src/spi.c ****   hspi2.Init.ReadyMasterManagement = SPI_RDY_MASTER_MANAGEMENT_INTERNALLY;
 108              		.loc 1 62 3 is_stmt 1 view .LVU41
 109              		.loc 1 62 36 is_stmt 0 view .LVU42
 110 0046 C365     		str	r3, [r0, #92]
ARM GAS  C:\Users\admin\AppData\Local\Temp\ccKOQBsb.s 			page 4


  63:Core/Src/spi.c ****   hspi2.Init.ReadyPolarity = SPI_RDY_POLARITY_HIGH;
 111              		.loc 1 63 3 is_stmt 1 view .LVU43
 112              		.loc 1 63 28 is_stmt 0 view .LVU44
 113 0048 0366     		str	r3, [r0, #96]
  64:Core/Src/spi.c ****   if (HAL_SPI_Init(&hspi2) != HAL_OK)
 114              		.loc 1 64 3 is_stmt 1 view .LVU45
 115              		.loc 1 64 7 is_stmt 0 view .LVU46
 116 004a FFF7FEFF 		bl	HAL_SPI_Init
 117              	.LVL0:
 118              		.loc 1 64 6 discriminator 1 view .LVU47
 119 004e 00B9     		cbnz	r0, .L4
 120              	.L1:
  65:Core/Src/spi.c ****   {
  66:Core/Src/spi.c ****     Error_Handler();
  67:Core/Src/spi.c ****   }
  68:Core/Src/spi.c ****   /* USER CODE BEGIN SPI2_Init 2 */
  69:Core/Src/spi.c **** 
  70:Core/Src/spi.c ****   /* USER CODE END SPI2_Init 2 */
  71:Core/Src/spi.c **** 
  72:Core/Src/spi.c **** }
 121              		.loc 1 72 1 view .LVU48
 122 0050 08BD     		pop	{r3, pc}
 123              	.L4:
  66:Core/Src/spi.c ****   }
 124              		.loc 1 66 5 is_stmt 1 view .LVU49
 125 0052 FFF7FEFF 		bl	Error_Handler
 126              	.LVL1:
 127              		.loc 1 72 1 is_stmt 0 view .LVU50
 128 0056 FBE7     		b	.L1
 129              	.L6:
 130              		.align	2
 131              	.L5:
 132 0058 00000000 		.word	hspi2
 133 005c 00380040 		.word	1073756160
 134              		.cfi_endproc
 135              	.LFE356:
 137              		.section	.text.MX_SPI3_Init,"ax",%progbits
 138              		.align	1
 139              		.global	MX_SPI3_Init
 140              		.syntax unified
 141              		.thumb
 142              		.thumb_func
 144              	MX_SPI3_Init:
 145              	.LFB357:
  73:Core/Src/spi.c **** /* SPI3 init function */
  74:Core/Src/spi.c **** void MX_SPI3_Init(void)
  75:Core/Src/spi.c **** {
 146              		.loc 1 75 1 is_stmt 1 view -0
 147              		.cfi_startproc
 148              		@ args = 0, pretend = 0, frame = 0
 149              		@ frame_needed = 0, uses_anonymous_args = 0
 150 0000 08B5     		push	{r3, lr}
 151              	.LCFI1:
 152              		.cfi_def_cfa_offset 8
 153              		.cfi_offset 3, -8
 154              		.cfi_offset 14, -4
  76:Core/Src/spi.c **** 
ARM GAS  C:\Users\admin\AppData\Local\Temp\ccKOQBsb.s 			page 5


  77:Core/Src/spi.c ****   /* USER CODE BEGIN SPI3_Init 0 */
  78:Core/Src/spi.c **** 
  79:Core/Src/spi.c ****   /* USER CODE END SPI3_Init 0 */
  80:Core/Src/spi.c **** 
  81:Core/Src/spi.c ****   /* USER CODE BEGIN SPI3_Init 1 */
  82:Core/Src/spi.c **** 
  83:Core/Src/spi.c ****   /* USER CODE END SPI3_Init 1 */
  84:Core/Src/spi.c ****   hspi3.Instance = SPI3;
 155              		.loc 1 84 3 view .LVU52
 156              		.loc 1 84 18 is_stmt 0 view .LVU53
 157 0002 1448     		ldr	r0, .L11
 158 0004 144B     		ldr	r3, .L11+4
 159 0006 0360     		str	r3, [r0]
  85:Core/Src/spi.c ****   hspi3.Init.Mode = SPI_MODE_MASTER;
 160              		.loc 1 85 3 is_stmt 1 view .LVU54
 161              		.loc 1 85 19 is_stmt 0 view .LVU55
 162 0008 4FF48003 		mov	r3, #4194304
 163 000c 4360     		str	r3, [r0, #4]
  86:Core/Src/spi.c ****   hspi3.Init.Direction = SPI_DIRECTION_2LINES;
 164              		.loc 1 86 3 is_stmt 1 view .LVU56
 165              		.loc 1 86 24 is_stmt 0 view .LVU57
 166 000e 0023     		movs	r3, #0
 167 0010 8360     		str	r3, [r0, #8]
  87:Core/Src/spi.c ****   hspi3.Init.DataSize = SPI_DATASIZE_4BIT;
 168              		.loc 1 87 3 is_stmt 1 view .LVU58
 169              		.loc 1 87 23 is_stmt 0 view .LVU59
 170 0012 0322     		movs	r2, #3
 171 0014 C260     		str	r2, [r0, #12]
  88:Core/Src/spi.c ****   hspi3.Init.CLKPolarity = SPI_POLARITY_LOW;
 172              		.loc 1 88 3 is_stmt 1 view .LVU60
 173              		.loc 1 88 26 is_stmt 0 view .LVU61
 174 0016 0361     		str	r3, [r0, #16]
  89:Core/Src/spi.c ****   hspi3.Init.CLKPhase = SPI_PHASE_1EDGE;
 175              		.loc 1 89 3 is_stmt 1 view .LVU62
 176              		.loc 1 89 23 is_stmt 0 view .LVU63
 177 0018 4361     		str	r3, [r0, #20]
  90:Core/Src/spi.c ****   hspi3.Init.NSS = SPI_NSS_SOFT;
 178              		.loc 1 90 3 is_stmt 1 view .LVU64
 179              		.loc 1 90 18 is_stmt 0 view .LVU65
 180 001a 4FF08062 		mov	r2, #67108864
 181 001e 8261     		str	r2, [r0, #24]
  91:Core/Src/spi.c ****   hspi3.Init.BaudRatePrescaler = SPI_BAUDRATEPRESCALER_2;
 182              		.loc 1 91 3 is_stmt 1 view .LVU66
 183              		.loc 1 91 32 is_stmt 0 view .LVU67
 184 0020 C361     		str	r3, [r0, #28]
  92:Core/Src/spi.c ****   hspi3.Init.FirstBit = SPI_FIRSTBIT_MSB;
 185              		.loc 1 92 3 is_stmt 1 view .LVU68
 186              		.loc 1 92 23 is_stmt 0 view .LVU69
 187 0022 0362     		str	r3, [r0, #32]
  93:Core/Src/spi.c ****   hspi3.Init.TIMode = SPI_TIMODE_DISABLE;
 188              		.loc 1 93 3 is_stmt 1 view .LVU70
 189              		.loc 1 93 21 is_stmt 0 view .LVU71
 190 0024 4362     		str	r3, [r0, #36]
  94:Core/Src/spi.c ****   hspi3.Init.CRCCalculation = SPI_CRCCALCULATION_DISABLE;
 191              		.loc 1 94 3 is_stmt 1 view .LVU72
 192              		.loc 1 94 29 is_stmt 0 view .LVU73
 193 0026 8362     		str	r3, [r0, #40]
ARM GAS  C:\Users\admin\AppData\Local\Temp\ccKOQBsb.s 			page 6


  95:Core/Src/spi.c ****   hspi3.Init.CRCPolynomial = 0x7;
 194              		.loc 1 95 3 is_stmt 1 view .LVU74
 195              		.loc 1 95 28 is_stmt 0 view .LVU75
 196 0028 0722     		movs	r2, #7
 197 002a C262     		str	r2, [r0, #44]
  96:Core/Src/spi.c ****   hspi3.Init.NSSPMode = SPI_NSS_PULSE_ENABLE;
 198              		.loc 1 96 3 is_stmt 1 view .LVU76
 199              		.loc 1 96 23 is_stmt 0 view .LVU77
 200 002c 4FF08042 		mov	r2, #1073741824
 201 0030 4263     		str	r2, [r0, #52]
  97:Core/Src/spi.c ****   hspi3.Init.NSSPolarity = SPI_NSS_POLARITY_LOW;
 202              		.loc 1 97 3 is_stmt 1 view .LVU78
 203              		.loc 1 97 26 is_stmt 0 view .LVU79
 204 0032 8363     		str	r3, [r0, #56]
  98:Core/Src/spi.c ****   hspi3.Init.FifoThreshold = SPI_FIFO_THRESHOLD_01DATA;
 205              		.loc 1 98 3 is_stmt 1 view .LVU80
 206              		.loc 1 98 28 is_stmt 0 view .LVU81
 207 0034 C363     		str	r3, [r0, #60]
  99:Core/Src/spi.c ****   hspi3.Init.MasterSSIdleness = SPI_MASTER_SS_IDLENESS_00CYCLE;
 208              		.loc 1 99 3 is_stmt 1 view .LVU82
 209              		.loc 1 99 31 is_stmt 0 view .LVU83
 210 0036 8364     		str	r3, [r0, #72]
 100:Core/Src/spi.c ****   hspi3.Init.MasterInterDataIdleness = SPI_MASTER_INTERDATA_IDLENESS_00CYCLE;
 211              		.loc 1 100 3 is_stmt 1 view .LVU84
 212              		.loc 1 100 38 is_stmt 0 view .LVU85
 213 0038 C364     		str	r3, [r0, #76]
 101:Core/Src/spi.c ****   hspi3.Init.MasterReceiverAutoSusp = SPI_MASTER_RX_AUTOSUSP_DISABLE;
 214              		.loc 1 101 3 is_stmt 1 view .LVU86
 215              		.loc 1 101 37 is_stmt 0 view .LVU87
 216 003a 0365     		str	r3, [r0, #80]
 102:Core/Src/spi.c ****   hspi3.Init.MasterKeepIOState = SPI_MASTER_KEEP_IO_STATE_DISABLE;
 217              		.loc 1 102 3 is_stmt 1 view .LVU88
 218              		.loc 1 102 32 is_stmt 0 view .LVU89
 219 003c 4365     		str	r3, [r0, #84]
 103:Core/Src/spi.c ****   hspi3.Init.IOSwap = SPI_IO_SWAP_DISABLE;
 220              		.loc 1 103 3 is_stmt 1 view .LVU90
 221              		.loc 1 103 21 is_stmt 0 view .LVU91
 222 003e 8365     		str	r3, [r0, #88]
 104:Core/Src/spi.c ****   hspi3.Init.ReadyMasterManagement = SPI_RDY_MASTER_MANAGEMENT_INTERNALLY;
 223              		.loc 1 104 3 is_stmt 1 view .LVU92
 224              		.loc 1 104 36 is_stmt 0 view .LVU93
 225 0040 C365     		str	r3, [r0, #92]
 105:Core/Src/spi.c ****   hspi3.Init.ReadyPolarity = SPI_RDY_POLARITY_HIGH;
 226              		.loc 1 105 3 is_stmt 1 view .LVU94
 227              		.loc 1 105 28 is_stmt 0 view .LVU95
 228 0042 0366     		str	r3, [r0, #96]
 106:Core/Src/spi.c ****   if (HAL_SPI_Init(&hspi3) != HAL_OK)
 229              		.loc 1 106 3 is_stmt 1 view .LVU96
 230              		.loc 1 106 7 is_stmt 0 view .LVU97
 231 0044 FFF7FEFF 		bl	HAL_SPI_Init
 232              	.LVL2:
 233              		.loc 1 106 6 discriminator 1 view .LVU98
 234 0048 00B9     		cbnz	r0, .L10
 235              	.L7:
 107:Core/Src/spi.c ****   {
 108:Core/Src/spi.c ****     Error_Handler();
 109:Core/Src/spi.c ****   }
ARM GAS  C:\Users\admin\AppData\Local\Temp\ccKOQBsb.s 			page 7


 110:Core/Src/spi.c ****   /* USER CODE BEGIN SPI3_Init 2 */
 111:Core/Src/spi.c **** 
 112:Core/Src/spi.c ****   /* USER CODE END SPI3_Init 2 */
 113:Core/Src/spi.c **** 
 114:Core/Src/spi.c **** }
 236              		.loc 1 114 1 view .LVU99
 237 004a 08BD     		pop	{r3, pc}
 238              	.L10:
 108:Core/Src/spi.c ****   }
 239              		.loc 1 108 5 is_stmt 1 view .LVU100
 240 004c FFF7FEFF 		bl	Error_Handler
 241              	.LVL3:
 242              		.loc 1 114 1 is_stmt 0 view .LVU101
 243 0050 FBE7     		b	.L7
 244              	.L12:
 245 0052 00BF     		.align	2
 246              	.L11:
 247 0054 00000000 		.word	hspi3
 248 0058 003C0040 		.word	1073757184
 249              		.cfi_endproc
 250              	.LFE357:
 252              		.section	.text.MX_SPI4_Init,"ax",%progbits
 253              		.align	1
 254              		.global	MX_SPI4_Init
 255              		.syntax unified
 256              		.thumb
 257              		.thumb_func
 259              	MX_SPI4_Init:
 260              	.LFB358:
 115:Core/Src/spi.c **** /* SPI4 init function */
 116:Core/Src/spi.c **** void MX_SPI4_Init(void)
 117:Core/Src/spi.c **** {
 261              		.loc 1 117 1 is_stmt 1 view -0
 262              		.cfi_startproc
 263              		@ args = 0, pretend = 0, frame = 0
 264              		@ frame_needed = 0, uses_anonymous_args = 0
 265 0000 08B5     		push	{r3, lr}
 266              	.LCFI2:
 267              		.cfi_def_cfa_offset 8
 268              		.cfi_offset 3, -8
 269              		.cfi_offset 14, -4
 118:Core/Src/spi.c **** 
 119:Core/Src/spi.c ****   /* USER CODE BEGIN SPI4_Init 0 */
 120:Core/Src/spi.c **** 
 121:Core/Src/spi.c ****   /* USER CODE END SPI4_Init 0 */
 122:Core/Src/spi.c **** 
 123:Core/Src/spi.c ****   /* USER CODE BEGIN SPI4_Init 1 */
 124:Core/Src/spi.c **** 
 125:Core/Src/spi.c ****   /* USER CODE END SPI4_Init 1 */
 126:Core/Src/spi.c ****   hspi4.Instance = SPI4;
 270              		.loc 1 126 3 view .LVU103
 271              		.loc 1 126 18 is_stmt 0 view .LVU104
 272 0002 1348     		ldr	r0, .L17
 273 0004 134B     		ldr	r3, .L17+4
 274 0006 0360     		str	r3, [r0]
 127:Core/Src/spi.c ****   hspi4.Init.Mode = SPI_MODE_MASTER;
 275              		.loc 1 127 3 is_stmt 1 view .LVU105
ARM GAS  C:\Users\admin\AppData\Local\Temp\ccKOQBsb.s 			page 8


 276              		.loc 1 127 19 is_stmt 0 view .LVU106
 277 0008 4FF48003 		mov	r3, #4194304
 278 000c 4360     		str	r3, [r0, #4]
 128:Core/Src/spi.c ****   hspi4.Init.Direction = SPI_DIRECTION_2LINES;
 279              		.loc 1 128 3 is_stmt 1 view .LVU107
 280              		.loc 1 128 24 is_stmt 0 view .LVU108
 281 000e 0023     		movs	r3, #0
 282 0010 8360     		str	r3, [r0, #8]
 129:Core/Src/spi.c ****   hspi4.Init.DataSize = SPI_DATASIZE_8BIT;
 283              		.loc 1 129 3 is_stmt 1 view .LVU109
 284              		.loc 1 129 23 is_stmt 0 view .LVU110
 285 0012 0721     		movs	r1, #7
 286 0014 C160     		str	r1, [r0, #12]
 130:Core/Src/spi.c ****   hspi4.Init.CLKPolarity = SPI_POLARITY_LOW;
 287              		.loc 1 130 3 is_stmt 1 view .LVU111
 288              		.loc 1 130 26 is_stmt 0 view .LVU112
 289 0016 0361     		str	r3, [r0, #16]
 131:Core/Src/spi.c ****   hspi4.Init.CLKPhase = SPI_PHASE_1EDGE;
 290              		.loc 1 131 3 is_stmt 1 view .LVU113
 291              		.loc 1 131 23 is_stmt 0 view .LVU114
 292 0018 4361     		str	r3, [r0, #20]
 132:Core/Src/spi.c ****   hspi4.Init.NSS = SPI_NSS_SOFT;
 293              		.loc 1 132 3 is_stmt 1 view .LVU115
 294              		.loc 1 132 18 is_stmt 0 view .LVU116
 295 001a 4FF08062 		mov	r2, #67108864
 296 001e 8261     		str	r2, [r0, #24]
 133:Core/Src/spi.c ****   hspi4.Init.BaudRatePrescaler = SPI_BAUDRATEPRESCALER_32;
 297              		.loc 1 133 3 is_stmt 1 view .LVU117
 298              		.loc 1 133 32 is_stmt 0 view .LVU118
 299 0020 4FF08042 		mov	r2, #1073741824
 300 0024 C261     		str	r2, [r0, #28]
 134:Core/Src/spi.c ****   hspi4.Init.FirstBit = SPI_FIRSTBIT_MSB;
 301              		.loc 1 134 3 is_stmt 1 view .LVU119
 302              		.loc 1 134 23 is_stmt 0 view .LVU120
 303 0026 0362     		str	r3, [r0, #32]
 135:Core/Src/spi.c ****   hspi4.Init.TIMode = SPI_TIMODE_DISABLE;
 304              		.loc 1 135 3 is_stmt 1 view .LVU121
 305              		.loc 1 135 21 is_stmt 0 view .LVU122
 306 0028 4362     		str	r3, [r0, #36]
 136:Core/Src/spi.c ****   hspi4.Init.CRCCalculation = SPI_CRCCALCULATION_DISABLE;
 307              		.loc 1 136 3 is_stmt 1 view .LVU123
 308              		.loc 1 136 29 is_stmt 0 view .LVU124
 309 002a 8362     		str	r3, [r0, #40]
 137:Core/Src/spi.c ****   hspi4.Init.CRCPolynomial = 0x7;
 310              		.loc 1 137 3 is_stmt 1 view .LVU125
 311              		.loc 1 137 28 is_stmt 0 view .LVU126
 312 002c C162     		str	r1, [r0, #44]
 138:Core/Src/spi.c ****   hspi4.Init.NSSPMode = SPI_NSS_PULSE_ENABLE;
 313              		.loc 1 138 3 is_stmt 1 view .LVU127
 314              		.loc 1 138 23 is_stmt 0 view .LVU128
 315 002e 4263     		str	r2, [r0, #52]
 139:Core/Src/spi.c ****   hspi4.Init.NSSPolarity = SPI_NSS_POLARITY_LOW;
 316              		.loc 1 139 3 is_stmt 1 view .LVU129
 317              		.loc 1 139 26 is_stmt 0 view .LVU130
 318 0030 8363     		str	r3, [r0, #56]
 140:Core/Src/spi.c ****   hspi4.Init.FifoThreshold = SPI_FIFO_THRESHOLD_01DATA;
 319              		.loc 1 140 3 is_stmt 1 view .LVU131
ARM GAS  C:\Users\admin\AppData\Local\Temp\ccKOQBsb.s 			page 9


 320              		.loc 1 140 28 is_stmt 0 view .LVU132
 321 0032 C363     		str	r3, [r0, #60]
 141:Core/Src/spi.c ****   hspi4.Init.MasterSSIdleness = SPI_MASTER_SS_IDLENESS_00CYCLE;
 322              		.loc 1 141 3 is_stmt 1 view .LVU133
 323              		.loc 1 141 31 is_stmt 0 view .LVU134
 324 0034 8364     		str	r3, [r0, #72]
 142:Core/Src/spi.c ****   hspi4.Init.MasterInterDataIdleness = SPI_MASTER_INTERDATA_IDLENESS_00CYCLE;
 325              		.loc 1 142 3 is_stmt 1 view .LVU135
 326              		.loc 1 142 38 is_stmt 0 view .LVU136
 327 0036 C364     		str	r3, [r0, #76]
 143:Core/Src/spi.c ****   hspi4.Init.MasterReceiverAutoSusp = SPI_MASTER_RX_AUTOSUSP_DISABLE;
 328              		.loc 1 143 3 is_stmt 1 view .LVU137
 329              		.loc 1 143 37 is_stmt 0 view .LVU138
 330 0038 0365     		str	r3, [r0, #80]
 144:Core/Src/spi.c ****   hspi4.Init.MasterKeepIOState = SPI_MASTER_KEEP_IO_STATE_DISABLE;
 331              		.loc 1 144 3 is_stmt 1 view .LVU139
 332              		.loc 1 144 32 is_stmt 0 view .LVU140
 333 003a 4365     		str	r3, [r0, #84]
 145:Core/Src/spi.c ****   hspi4.Init.IOSwap = SPI_IO_SWAP_DISABLE;
 334              		.loc 1 145 3 is_stmt 1 view .LVU141
 335              		.loc 1 145 21 is_stmt 0 view .LVU142
 336 003c 8365     		str	r3, [r0, #88]
 146:Core/Src/spi.c ****   hspi4.Init.ReadyMasterManagement = SPI_RDY_MASTER_MANAGEMENT_INTERNALLY;
 337              		.loc 1 146 3 is_stmt 1 view .LVU143
 338              		.loc 1 146 36 is_stmt 0 view .LVU144
 339 003e C365     		str	r3, [r0, #92]
 147:Core/Src/spi.c ****   hspi4.Init.ReadyPolarity = SPI_RDY_POLARITY_HIGH;
 340              		.loc 1 147 3 is_stmt 1 view .LVU145
 341              		.loc 1 147 28 is_stmt 0 view .LVU146
 342 0040 0366     		str	r3, [r0, #96]
 148:Core/Src/spi.c ****   if (HAL_SPI_Init(&hspi4) != HAL_OK)
 343              		.loc 1 148 3 is_stmt 1 view .LVU147
 344              		.loc 1 148 7 is_stmt 0 view .LVU148
 345 0042 FFF7FEFF 		bl	HAL_SPI_Init
 346              	.LVL4:
 347              		.loc 1 148 6 discriminator 1 view .LVU149
 348 0046 00B9     		cbnz	r0, .L16
 349              	.L13:
 149:Core/Src/spi.c ****   {
 150:Core/Src/spi.c ****     Error_Handler();
 151:Core/Src/spi.c ****   }
 152:Core/Src/spi.c ****   /* USER CODE BEGIN SPI4_Init 2 */
 153:Core/Src/spi.c **** 
 154:Core/Src/spi.c ****   /* USER CODE END SPI4_Init 2 */
 155:Core/Src/spi.c **** 
 156:Core/Src/spi.c **** }
 350              		.loc 1 156 1 view .LVU150
 351 0048 08BD     		pop	{r3, pc}
 352              	.L16:
 150:Core/Src/spi.c ****   }
 353              		.loc 1 150 5 is_stmt 1 view .LVU151
 354 004a FFF7FEFF 		bl	Error_Handler
 355              	.LVL5:
 356              		.loc 1 156 1 is_stmt 0 view .LVU152
 357 004e FBE7     		b	.L13
 358              	.L18:
 359              		.align	2
ARM GAS  C:\Users\admin\AppData\Local\Temp\ccKOQBsb.s 			page 10


 360              	.L17:
 361 0050 00000000 		.word	hspi4
 362 0054 004C0140 		.word	1073826816
 363              		.cfi_endproc
 364              	.LFE358:
 366              		.section	.text.HAL_SPI_MspInit,"ax",%progbits
 367              		.align	1
 368              		.global	HAL_SPI_MspInit
 369              		.syntax unified
 370              		.thumb
 371              		.thumb_func
 373              	HAL_SPI_MspInit:
 374              	.LVL6:
 375              	.LFB359:
 157:Core/Src/spi.c **** 
 158:Core/Src/spi.c **** void HAL_SPI_MspInit(SPI_HandleTypeDef* spiHandle)
 159:Core/Src/spi.c **** {
 376              		.loc 1 159 1 is_stmt 1 view -0
 377              		.cfi_startproc
 378              		@ args = 0, pretend = 0, frame = 264
 379              		@ frame_needed = 0, uses_anonymous_args = 0
 380              		.loc 1 159 1 is_stmt 0 view .LVU154
 381 0000 30B5     		push	{r4, r5, lr}
 382              	.LCFI3:
 383              		.cfi_def_cfa_offset 12
 384              		.cfi_offset 4, -12
 385              		.cfi_offset 5, -8
 386              		.cfi_offset 14, -4
 387 0002 C3B0     		sub	sp, sp, #268
 388              	.LCFI4:
 389              		.cfi_def_cfa_offset 280
 390 0004 0446     		mov	r4, r0
 160:Core/Src/spi.c **** 
 161:Core/Src/spi.c ****   GPIO_InitTypeDef GPIO_InitStruct = {0};
 391              		.loc 1 161 3 is_stmt 1 view .LVU155
 392              		.loc 1 161 20 is_stmt 0 view .LVU156
 393 0006 0021     		movs	r1, #0
 394 0008 3D91     		str	r1, [sp, #244]
 395 000a 3E91     		str	r1, [sp, #248]
 396 000c 3F91     		str	r1, [sp, #252]
 397 000e 4091     		str	r1, [sp, #256]
 398 0010 4191     		str	r1, [sp, #260]
 162:Core/Src/spi.c ****   RCC_PeriphCLKInitTypeDef PeriphClkInitStruct = {0};
 399              		.loc 1 162 3 is_stmt 1 view .LVU157
 400              		.loc 1 162 28 is_stmt 0 view .LVU158
 401 0012 D022     		movs	r2, #208
 402 0014 08A8     		add	r0, sp, #32
 403              	.LVL7:
 404              		.loc 1 162 28 view .LVU159
 405 0016 FFF7FEFF 		bl	memset
 406              	.LVL8:
 163:Core/Src/spi.c ****   if(spiHandle->Instance==SPI2)
 407              		.loc 1 163 3 is_stmt 1 view .LVU160
 408              		.loc 1 163 15 is_stmt 0 view .LVU161
 409 001a 2368     		ldr	r3, [r4]
 410              		.loc 1 163 5 view .LVU162
 411 001c 734A     		ldr	r2, .L33
ARM GAS  C:\Users\admin\AppData\Local\Temp\ccKOQBsb.s 			page 11


 412 001e 9342     		cmp	r3, r2
 413 0020 08D0     		beq	.L27
 164:Core/Src/spi.c ****   {
 165:Core/Src/spi.c ****   /* USER CODE BEGIN SPI2_MspInit 0 */
 166:Core/Src/spi.c **** 
 167:Core/Src/spi.c ****   /* USER CODE END SPI2_MspInit 0 */
 168:Core/Src/spi.c **** 
 169:Core/Src/spi.c ****   /** Initializes the peripherals clock
 170:Core/Src/spi.c ****   */
 171:Core/Src/spi.c ****     PeriphClkInitStruct.PeriphClockSelection = RCC_PERIPHCLK_SPI2;
 172:Core/Src/spi.c ****     PeriphClkInitStruct.Spi2ClockSelection = RCC_SPI2CLKSOURCE_CLKP;
 173:Core/Src/spi.c ****     if (HAL_RCCEx_PeriphCLKConfig(&PeriphClkInitStruct) != HAL_OK)
 174:Core/Src/spi.c ****     {
 175:Core/Src/spi.c ****       Error_Handler();
 176:Core/Src/spi.c ****     }
 177:Core/Src/spi.c **** 
 178:Core/Src/spi.c ****     /* SPI2 clock enable */
 179:Core/Src/spi.c ****     __HAL_RCC_SPI2_CLK_ENABLE();
 180:Core/Src/spi.c **** 
 181:Core/Src/spi.c ****     __HAL_RCC_GPIOC_CLK_ENABLE();
 182:Core/Src/spi.c ****     __HAL_RCC_GPIOB_CLK_ENABLE();
 183:Core/Src/spi.c ****     /**SPI2 GPIO Configuration
 184:Core/Src/spi.c ****     PC1     ------> SPI2_MOSI
 185:Core/Src/spi.c ****     PB2     ------> SPI2_SCK
 186:Core/Src/spi.c ****     */
 187:Core/Src/spi.c ****     GPIO_InitStruct.Pin = LCD_MOSI_Pin;
 188:Core/Src/spi.c ****     GPIO_InitStruct.Mode = GPIO_MODE_AF_PP;
 189:Core/Src/spi.c ****     GPIO_InitStruct.Pull = GPIO_NOPULL;
 190:Core/Src/spi.c ****     GPIO_InitStruct.Speed = GPIO_SPEED_FREQ_LOW;
 191:Core/Src/spi.c ****     GPIO_InitStruct.Alternate = GPIO_AF5_SPI2;
 192:Core/Src/spi.c ****     HAL_GPIO_Init(LCD_MOSI_GPIO_Port, &GPIO_InitStruct);
 193:Core/Src/spi.c **** 
 194:Core/Src/spi.c ****     GPIO_InitStruct.Pin = LCD_SCK_Pin;
 195:Core/Src/spi.c ****     GPIO_InitStruct.Mode = GPIO_MODE_AF_PP;
 196:Core/Src/spi.c ****     GPIO_InitStruct.Pull = GPIO_NOPULL;
 197:Core/Src/spi.c ****     GPIO_InitStruct.Speed = GPIO_SPEED_FREQ_LOW;
 198:Core/Src/spi.c ****     GPIO_InitStruct.Alternate = GPIO_AF6_SPI2;
 199:Core/Src/spi.c ****     HAL_GPIO_Init(LCD_SCK_GPIO_Port, &GPIO_InitStruct);
 200:Core/Src/spi.c **** 
 201:Core/Src/spi.c ****   /* USER CODE BEGIN SPI2_MspInit 1 */
 202:Core/Src/spi.c **** 
 203:Core/Src/spi.c ****   /* USER CODE END SPI2_MspInit 1 */
 204:Core/Src/spi.c ****   }
 205:Core/Src/spi.c ****   else if(spiHandle->Instance==SPI3)
 414              		.loc 1 205 8 is_stmt 1 view .LVU163
 415              		.loc 1 205 10 is_stmt 0 view .LVU164
 416 0022 734A     		ldr	r2, .L33+4
 417 0024 9342     		cmp	r3, r2
 418 0026 52D0     		beq	.L28
 206:Core/Src/spi.c ****   {
 207:Core/Src/spi.c ****   /* USER CODE BEGIN SPI3_MspInit 0 */
 208:Core/Src/spi.c **** 
 209:Core/Src/spi.c ****   /* USER CODE END SPI3_MspInit 0 */
 210:Core/Src/spi.c **** 
 211:Core/Src/spi.c ****   /** Initializes the peripherals clock
 212:Core/Src/spi.c ****   */
 213:Core/Src/spi.c ****     PeriphClkInitStruct.PeriphClockSelection = RCC_PERIPHCLK_SPI3;
ARM GAS  C:\Users\admin\AppData\Local\Temp\ccKOQBsb.s 			page 12


 214:Core/Src/spi.c ****     PeriphClkInitStruct.Spi3ClockSelection = RCC_SPI3CLKSOURCE_CLKP;
 215:Core/Src/spi.c ****     if (HAL_RCCEx_PeriphCLKConfig(&PeriphClkInitStruct) != HAL_OK)
 216:Core/Src/spi.c ****     {
 217:Core/Src/spi.c ****       Error_Handler();
 218:Core/Src/spi.c ****     }
 219:Core/Src/spi.c **** 
 220:Core/Src/spi.c ****     /* SPI3 clock enable */
 221:Core/Src/spi.c ****     __HAL_RCC_SPI3_CLK_ENABLE();
 222:Core/Src/spi.c **** 
 223:Core/Src/spi.c ****     __HAL_RCC_GPIOA_CLK_ENABLE();
 224:Core/Src/spi.c ****     __HAL_RCC_GPIOB_CLK_ENABLE();
 225:Core/Src/spi.c ****     /**SPI3 GPIO Configuration
 226:Core/Src/spi.c ****     PA3     ------> SPI3_MOSI
 227:Core/Src/spi.c ****     PB0     ------> SPI3_MISO
 228:Core/Src/spi.c ****     PB1     ------> SPI3_SCK
 229:Core/Src/spi.c ****     */
 230:Core/Src/spi.c ****     GPIO_InitStruct.Pin = GPIO_PIN_3;
 231:Core/Src/spi.c ****     GPIO_InitStruct.Mode = GPIO_MODE_AF_PP;
 232:Core/Src/spi.c ****     GPIO_InitStruct.Pull = GPIO_NOPULL;
 233:Core/Src/spi.c ****     GPIO_InitStruct.Speed = GPIO_SPEED_FREQ_LOW;
 234:Core/Src/spi.c ****     GPIO_InitStruct.Alternate = GPIO_AF6_SPI3;
 235:Core/Src/spi.c ****     HAL_GPIO_Init(GPIOA, &GPIO_InitStruct);
 236:Core/Src/spi.c **** 
 237:Core/Src/spi.c ****     GPIO_InitStruct.Pin = GPIO_PIN_0;
 238:Core/Src/spi.c ****     GPIO_InitStruct.Mode = GPIO_MODE_AF_PP;
 239:Core/Src/spi.c ****     GPIO_InitStruct.Pull = GPIO_NOPULL;
 240:Core/Src/spi.c ****     GPIO_InitStruct.Speed = GPIO_SPEED_FREQ_LOW;
 241:Core/Src/spi.c ****     GPIO_InitStruct.Alternate = GPIO_AF5_SPI3;
 242:Core/Src/spi.c ****     HAL_GPIO_Init(GPIOB, &GPIO_InitStruct);
 243:Core/Src/spi.c **** 
 244:Core/Src/spi.c ****     GPIO_InitStruct.Pin = GPIO_PIN_1;
 245:Core/Src/spi.c ****     GPIO_InitStruct.Mode = GPIO_MODE_AF_PP;
 246:Core/Src/spi.c ****     GPIO_InitStruct.Pull = GPIO_NOPULL;
 247:Core/Src/spi.c ****     GPIO_InitStruct.Speed = GPIO_SPEED_FREQ_LOW;
 248:Core/Src/spi.c ****     GPIO_InitStruct.Alternate = GPIO_AF4_SPI3;
 249:Core/Src/spi.c ****     HAL_GPIO_Init(GPIOB, &GPIO_InitStruct);
 250:Core/Src/spi.c **** 
 251:Core/Src/spi.c ****   /* USER CODE BEGIN SPI3_MspInit 1 */
 252:Core/Src/spi.c **** 
 253:Core/Src/spi.c ****   /* USER CODE END SPI3_MspInit 1 */
 254:Core/Src/spi.c ****   }
 255:Core/Src/spi.c ****   else if(spiHandle->Instance==SPI4)
 419              		.loc 1 255 8 is_stmt 1 view .LVU165
 420              		.loc 1 255 10 is_stmt 0 view .LVU166
 421 0028 724A     		ldr	r2, .L33+8
 422 002a 9342     		cmp	r3, r2
 423 002c 00F0A780 		beq	.L29
 424              	.LVL9:
 425              	.L19:
 256:Core/Src/spi.c ****   {
 257:Core/Src/spi.c ****   /* USER CODE BEGIN SPI4_MspInit 0 */
 258:Core/Src/spi.c **** 
 259:Core/Src/spi.c ****   /* USER CODE END SPI4_MspInit 0 */
 260:Core/Src/spi.c **** 
 261:Core/Src/spi.c ****   /** Initializes the peripherals clock
 262:Core/Src/spi.c ****   */
 263:Core/Src/spi.c ****     PeriphClkInitStruct.PeriphClockSelection = RCC_PERIPHCLK_SPI4;
ARM GAS  C:\Users\admin\AppData\Local\Temp\ccKOQBsb.s 			page 13


 264:Core/Src/spi.c ****     PeriphClkInitStruct.Spi4ClockSelection = RCC_SPI4CLKSOURCE_HSE;
 265:Core/Src/spi.c ****     if (HAL_RCCEx_PeriphCLKConfig(&PeriphClkInitStruct) != HAL_OK)
 266:Core/Src/spi.c ****     {
 267:Core/Src/spi.c ****       Error_Handler();
 268:Core/Src/spi.c ****     }
 269:Core/Src/spi.c **** 
 270:Core/Src/spi.c ****     /* SPI4 clock enable */
 271:Core/Src/spi.c ****     __HAL_RCC_SPI4_CLK_ENABLE();
 272:Core/Src/spi.c **** 
 273:Core/Src/spi.c ****     __HAL_RCC_GPIOE_CLK_ENABLE();
 274:Core/Src/spi.c ****     /**SPI4 GPIO Configuration
 275:Core/Src/spi.c ****     PE2     ------> SPI4_SCK
 276:Core/Src/spi.c ****     PE5     ------> SPI4_MISO
 277:Core/Src/spi.c ****     PE6     ------> SPI4_MOSI
 278:Core/Src/spi.c ****     */
 279:Core/Src/spi.c ****     GPIO_InitStruct.Pin = SD_SCK_Pin|SD_MISO_Pin|SD_MOSI_Pin;
 280:Core/Src/spi.c ****     GPIO_InitStruct.Mode = GPIO_MODE_AF_PP;
 281:Core/Src/spi.c ****     GPIO_InitStruct.Pull = GPIO_NOPULL;
 282:Core/Src/spi.c ****     GPIO_InitStruct.Speed = GPIO_SPEED_FREQ_LOW;
 283:Core/Src/spi.c ****     GPIO_InitStruct.Alternate = GPIO_AF5_SPI4;
 284:Core/Src/spi.c ****     HAL_GPIO_Init(GPIOE, &GPIO_InitStruct);
 285:Core/Src/spi.c **** 
 286:Core/Src/spi.c ****   /* USER CODE BEGIN SPI4_MspInit 1 */
 287:Core/Src/spi.c **** 
 288:Core/Src/spi.c ****   /* USER CODE END SPI4_MspInit 1 */
 289:Core/Src/spi.c ****   }
 290:Core/Src/spi.c **** }
 426              		.loc 1 290 1 view .LVU167
 427 0030 43B0     		add	sp, sp, #268
 428              	.LCFI5:
 429              		.cfi_remember_state
 430              		.cfi_def_cfa_offset 12
 431              		@ sp needed
 432 0032 30BD     		pop	{r4, r5, pc}
 433              	.LVL10:
 434              	.L27:
 435              	.LCFI6:
 436              		.cfi_restore_state
 171:Core/Src/spi.c ****     PeriphClkInitStruct.Spi2ClockSelection = RCC_SPI2CLKSOURCE_CLKP;
 437              		.loc 1 171 5 is_stmt 1 view .LVU168
 171:Core/Src/spi.c ****     PeriphClkInitStruct.Spi2ClockSelection = RCC_SPI2CLKSOURCE_CLKP;
 438              		.loc 1 171 46 is_stmt 0 view .LVU169
 439 0034 4FF08052 		mov	r2, #268435456
 440 0038 0023     		movs	r3, #0
 441 003a CDE90823 		strd	r2, [sp, #32]
 172:Core/Src/spi.c ****     if (HAL_RCCEx_PeriphCLKConfig(&PeriphClkInitStruct) != HAL_OK)
 442              		.loc 1 172 5 is_stmt 1 view .LVU170
 172:Core/Src/spi.c ****     if (HAL_RCCEx_PeriphCLKConfig(&PeriphClkInitStruct) != HAL_OK)
 443              		.loc 1 172 44 is_stmt 0 view .LVU171
 444 003e 2023     		movs	r3, #32
 445 0040 3493     		str	r3, [sp, #208]
 173:Core/Src/spi.c ****     {
 446              		.loc 1 173 5 is_stmt 1 view .LVU172
 173:Core/Src/spi.c ****     {
 447              		.loc 1 173 9 is_stmt 0 view .LVU173
 448 0042 0DEB0300 		add	r0, sp, r3
 449 0046 FFF7FEFF 		bl	HAL_RCCEx_PeriphCLKConfig
ARM GAS  C:\Users\admin\AppData\Local\Temp\ccKOQBsb.s 			page 14


 450              	.LVL11:
 173:Core/Src/spi.c ****     {
 451              		.loc 1 173 8 discriminator 1 view .LVU174
 452 004a 0028     		cmp	r0, #0
 453 004c 3CD1     		bne	.L30
 454              	.L21:
 179:Core/Src/spi.c **** 
 455              		.loc 1 179 5 is_stmt 1 view .LVU175
 456              	.LBB2:
 179:Core/Src/spi.c **** 
 457              		.loc 1 179 5 view .LVU176
 179:Core/Src/spi.c **** 
 458              		.loc 1 179 5 view .LVU177
 459 004e 6A4B     		ldr	r3, .L33+12
 460 0050 D3F89C20 		ldr	r2, [r3, #156]
 461 0054 42F48042 		orr	r2, r2, #16384
 462 0058 C3F89C20 		str	r2, [r3, #156]
 179:Core/Src/spi.c **** 
 463              		.loc 1 179 5 view .LVU178
 464 005c D3F89C20 		ldr	r2, [r3, #156]
 465 0060 02F48042 		and	r2, r2, #16384
 466 0064 0092     		str	r2, [sp]
 179:Core/Src/spi.c **** 
 467              		.loc 1 179 5 view .LVU179
 468 0066 009A     		ldr	r2, [sp]
 469              	.LBE2:
 179:Core/Src/spi.c **** 
 470              		.loc 1 179 5 view .LVU180
 181:Core/Src/spi.c ****     __HAL_RCC_GPIOB_CLK_ENABLE();
 471              		.loc 1 181 5 view .LVU181
 472              	.LBB3:
 181:Core/Src/spi.c ****     __HAL_RCC_GPIOB_CLK_ENABLE();
 473              		.loc 1 181 5 view .LVU182
 181:Core/Src/spi.c ****     __HAL_RCC_GPIOB_CLK_ENABLE();
 474              		.loc 1 181 5 view .LVU183
 475 0068 D3F88C20 		ldr	r2, [r3, #140]
 476 006c 42F00402 		orr	r2, r2, #4
 477 0070 C3F88C20 		str	r2, [r3, #140]
 181:Core/Src/spi.c ****     __HAL_RCC_GPIOB_CLK_ENABLE();
 478              		.loc 1 181 5 view .LVU184
 479 0074 D3F88C20 		ldr	r2, [r3, #140]
 480 0078 02F00402 		and	r2, r2, #4
 481 007c 0192     		str	r2, [sp, #4]
 181:Core/Src/spi.c ****     __HAL_RCC_GPIOB_CLK_ENABLE();
 482              		.loc 1 181 5 view .LVU185
 483 007e 019A     		ldr	r2, [sp, #4]
 484              	.LBE3:
 181:Core/Src/spi.c ****     __HAL_RCC_GPIOB_CLK_ENABLE();
 485              		.loc 1 181 5 view .LVU186
 182:Core/Src/spi.c ****     /**SPI2 GPIO Configuration
 486              		.loc 1 182 5 view .LVU187
 487              	.LBB4:
 182:Core/Src/spi.c ****     /**SPI2 GPIO Configuration
 488              		.loc 1 182 5 view .LVU188
 182:Core/Src/spi.c ****     /**SPI2 GPIO Configuration
 489              		.loc 1 182 5 view .LVU189
 490 0080 D3F88C20 		ldr	r2, [r3, #140]
ARM GAS  C:\Users\admin\AppData\Local\Temp\ccKOQBsb.s 			page 15


 491 0084 42F00202 		orr	r2, r2, #2
 492 0088 C3F88C20 		str	r2, [r3, #140]
 182:Core/Src/spi.c ****     /**SPI2 GPIO Configuration
 493              		.loc 1 182 5 view .LVU190
 494 008c D3F88C30 		ldr	r3, [r3, #140]
 495 0090 03F00203 		and	r3, r3, #2
 496 0094 0293     		str	r3, [sp, #8]
 182:Core/Src/spi.c ****     /**SPI2 GPIO Configuration
 497              		.loc 1 182 5 view .LVU191
 498 0096 029B     		ldr	r3, [sp, #8]
 499              	.LBE4:
 182:Core/Src/spi.c ****     /**SPI2 GPIO Configuration
 500              		.loc 1 182 5 view .LVU192
 187:Core/Src/spi.c ****     GPIO_InitStruct.Mode = GPIO_MODE_AF_PP;
 501              		.loc 1 187 5 view .LVU193
 187:Core/Src/spi.c ****     GPIO_InitStruct.Mode = GPIO_MODE_AF_PP;
 502              		.loc 1 187 25 is_stmt 0 view .LVU194
 503 0098 0225     		movs	r5, #2
 504 009a 3D95     		str	r5, [sp, #244]
 188:Core/Src/spi.c ****     GPIO_InitStruct.Pull = GPIO_NOPULL;
 505              		.loc 1 188 5 is_stmt 1 view .LVU195
 188:Core/Src/spi.c ****     GPIO_InitStruct.Pull = GPIO_NOPULL;
 506              		.loc 1 188 26 is_stmt 0 view .LVU196
 507 009c 3E95     		str	r5, [sp, #248]
 189:Core/Src/spi.c ****     GPIO_InitStruct.Speed = GPIO_SPEED_FREQ_LOW;
 508              		.loc 1 189 5 is_stmt 1 view .LVU197
 189:Core/Src/spi.c ****     GPIO_InitStruct.Speed = GPIO_SPEED_FREQ_LOW;
 509              		.loc 1 189 26 is_stmt 0 view .LVU198
 510 009e 0024     		movs	r4, #0
 511              	.LVL12:
 189:Core/Src/spi.c ****     GPIO_InitStruct.Speed = GPIO_SPEED_FREQ_LOW;
 512              		.loc 1 189 26 view .LVU199
 513 00a0 3F94     		str	r4, [sp, #252]
 190:Core/Src/spi.c ****     GPIO_InitStruct.Alternate = GPIO_AF5_SPI2;
 514              		.loc 1 190 5 is_stmt 1 view .LVU200
 190:Core/Src/spi.c ****     GPIO_InitStruct.Alternate = GPIO_AF5_SPI2;
 515              		.loc 1 190 27 is_stmt 0 view .LVU201
 516 00a2 4094     		str	r4, [sp, #256]
 191:Core/Src/spi.c ****     HAL_GPIO_Init(LCD_MOSI_GPIO_Port, &GPIO_InitStruct);
 517              		.loc 1 191 5 is_stmt 1 view .LVU202
 191:Core/Src/spi.c ****     HAL_GPIO_Init(LCD_MOSI_GPIO_Port, &GPIO_InitStruct);
 518              		.loc 1 191 31 is_stmt 0 view .LVU203
 519 00a4 0523     		movs	r3, #5
 520 00a6 4193     		str	r3, [sp, #260]
 192:Core/Src/spi.c **** 
 521              		.loc 1 192 5 is_stmt 1 view .LVU204
 522 00a8 3DA9     		add	r1, sp, #244
 523 00aa 5448     		ldr	r0, .L33+16
 524 00ac FFF7FEFF 		bl	HAL_GPIO_Init
 525              	.LVL13:
 194:Core/Src/spi.c ****     GPIO_InitStruct.Mode = GPIO_MODE_AF_PP;
 526              		.loc 1 194 5 view .LVU205
 194:Core/Src/spi.c ****     GPIO_InitStruct.Mode = GPIO_MODE_AF_PP;
 527              		.loc 1 194 25 is_stmt 0 view .LVU206
 528 00b0 0423     		movs	r3, #4
 529 00b2 3D93     		str	r3, [sp, #244]
 195:Core/Src/spi.c ****     GPIO_InitStruct.Pull = GPIO_NOPULL;
ARM GAS  C:\Users\admin\AppData\Local\Temp\ccKOQBsb.s 			page 16


 530              		.loc 1 195 5 is_stmt 1 view .LVU207
 195:Core/Src/spi.c ****     GPIO_InitStruct.Pull = GPIO_NOPULL;
 531              		.loc 1 195 26 is_stmt 0 view .LVU208
 532 00b4 3E95     		str	r5, [sp, #248]
 196:Core/Src/spi.c ****     GPIO_InitStruct.Speed = GPIO_SPEED_FREQ_LOW;
 533              		.loc 1 196 5 is_stmt 1 view .LVU209
 196:Core/Src/spi.c ****     GPIO_InitStruct.Speed = GPIO_SPEED_FREQ_LOW;
 534              		.loc 1 196 26 is_stmt 0 view .LVU210
 535 00b6 3F94     		str	r4, [sp, #252]
 197:Core/Src/spi.c ****     GPIO_InitStruct.Alternate = GPIO_AF6_SPI2;
 536              		.loc 1 197 5 is_stmt 1 view .LVU211
 197:Core/Src/spi.c ****     GPIO_InitStruct.Alternate = GPIO_AF6_SPI2;
 537              		.loc 1 197 27 is_stmt 0 view .LVU212
 538 00b8 4094     		str	r4, [sp, #256]
 198:Core/Src/spi.c ****     HAL_GPIO_Init(LCD_SCK_GPIO_Port, &GPIO_InitStruct);
 539              		.loc 1 198 5 is_stmt 1 view .LVU213
 198:Core/Src/spi.c ****     HAL_GPIO_Init(LCD_SCK_GPIO_Port, &GPIO_InitStruct);
 540              		.loc 1 198 31 is_stmt 0 view .LVU214
 541 00ba 0623     		movs	r3, #6
 542 00bc 4193     		str	r3, [sp, #260]
 199:Core/Src/spi.c **** 
 543              		.loc 1 199 5 is_stmt 1 view .LVU215
 544 00be 3DA9     		add	r1, sp, #244
 545 00c0 4F48     		ldr	r0, .L33+20
 546 00c2 FFF7FEFF 		bl	HAL_GPIO_Init
 547              	.LVL14:
 548 00c6 B3E7     		b	.L19
 549              	.LVL15:
 550              	.L30:
 175:Core/Src/spi.c ****     }
 551              		.loc 1 175 7 view .LVU216
 552 00c8 FFF7FEFF 		bl	Error_Handler
 553              	.LVL16:
 554 00cc BFE7     		b	.L21
 555              	.L28:
 213:Core/Src/spi.c ****     PeriphClkInitStruct.Spi3ClockSelection = RCC_SPI3CLKSOURCE_CLKP;
 556              		.loc 1 213 5 view .LVU217
 213:Core/Src/spi.c ****     PeriphClkInitStruct.Spi3ClockSelection = RCC_SPI3CLKSOURCE_CLKP;
 557              		.loc 1 213 46 is_stmt 0 view .LVU218
 558 00ce 4FF00052 		mov	r2, #536870912
 559 00d2 0023     		movs	r3, #0
 560 00d4 CDE90823 		strd	r2, [sp, #32]
 214:Core/Src/spi.c ****     if (HAL_RCCEx_PeriphCLKConfig(&PeriphClkInitStruct) != HAL_OK)
 561              		.loc 1 214 5 is_stmt 1 view .LVU219
 214:Core/Src/spi.c ****     if (HAL_RCCEx_PeriphCLKConfig(&PeriphClkInitStruct) != HAL_OK)
 562              		.loc 1 214 44 is_stmt 0 view .LVU220
 563 00d8 4FF48073 		mov	r3, #256
 564 00dc 3593     		str	r3, [sp, #212]
 215:Core/Src/spi.c ****     {
 565              		.loc 1 215 5 is_stmt 1 view .LVU221
 215:Core/Src/spi.c ****     {
 566              		.loc 1 215 9 is_stmt 0 view .LVU222
 567 00de 08A8     		add	r0, sp, #32
 568 00e0 FFF7FEFF 		bl	HAL_RCCEx_PeriphCLKConfig
 569              	.LVL17:
 215:Core/Src/spi.c ****     {
 570              		.loc 1 215 8 discriminator 1 view .LVU223
ARM GAS  C:\Users\admin\AppData\Local\Temp\ccKOQBsb.s 			page 17


 571 00e4 0028     		cmp	r0, #0
 572 00e6 47D1     		bne	.L31
 573              	.L24:
 221:Core/Src/spi.c **** 
 574              		.loc 1 221 5 is_stmt 1 view .LVU224
 575              	.LBB5:
 221:Core/Src/spi.c **** 
 576              		.loc 1 221 5 view .LVU225
 221:Core/Src/spi.c **** 
 577              		.loc 1 221 5 view .LVU226
 578 00e8 434B     		ldr	r3, .L33+12
 579 00ea D3F89C20 		ldr	r2, [r3, #156]
 580 00ee 42F40042 		orr	r2, r2, #32768
 581 00f2 C3F89C20 		str	r2, [r3, #156]
 221:Core/Src/spi.c **** 
 582              		.loc 1 221 5 view .LVU227
 583 00f6 D3F89C20 		ldr	r2, [r3, #156]
 584 00fa 02F40042 		and	r2, r2, #32768
 585 00fe 0392     		str	r2, [sp, #12]
 221:Core/Src/spi.c **** 
 586              		.loc 1 221 5 view .LVU228
 587 0100 039A     		ldr	r2, [sp, #12]
 588              	.LBE5:
 221:Core/Src/spi.c **** 
 589              		.loc 1 221 5 view .LVU229
 223:Core/Src/spi.c ****     __HAL_RCC_GPIOB_CLK_ENABLE();
 590              		.loc 1 223 5 view .LVU230
 591              	.LBB6:
 223:Core/Src/spi.c ****     __HAL_RCC_GPIOB_CLK_ENABLE();
 592              		.loc 1 223 5 view .LVU231
 223:Core/Src/spi.c ****     __HAL_RCC_GPIOB_CLK_ENABLE();
 593              		.loc 1 223 5 view .LVU232
 594 0102 D3F88C20 		ldr	r2, [r3, #140]
 595 0106 42F00102 		orr	r2, r2, #1
 596 010a C3F88C20 		str	r2, [r3, #140]
 223:Core/Src/spi.c ****     __HAL_RCC_GPIOB_CLK_ENABLE();
 597              		.loc 1 223 5 view .LVU233
 598 010e D3F88C20 		ldr	r2, [r3, #140]
 599 0112 02F00102 		and	r2, r2, #1
 600 0116 0492     		str	r2, [sp, #16]
 223:Core/Src/spi.c ****     __HAL_RCC_GPIOB_CLK_ENABLE();
 601              		.loc 1 223 5 view .LVU234
 602 0118 049A     		ldr	r2, [sp, #16]
 603              	.LBE6:
 223:Core/Src/spi.c ****     __HAL_RCC_GPIOB_CLK_ENABLE();
 604              		.loc 1 223 5 view .LVU235
 224:Core/Src/spi.c ****     /**SPI3 GPIO Configuration
 605              		.loc 1 224 5 view .LVU236
 606              	.LBB7:
 224:Core/Src/spi.c ****     /**SPI3 GPIO Configuration
 607              		.loc 1 224 5 view .LVU237
 224:Core/Src/spi.c ****     /**SPI3 GPIO Configuration
 608              		.loc 1 224 5 view .LVU238
 609 011a D3F88C20 		ldr	r2, [r3, #140]
 610 011e 42F00202 		orr	r2, r2, #2
 611 0122 C3F88C20 		str	r2, [r3, #140]
 224:Core/Src/spi.c ****     /**SPI3 GPIO Configuration
ARM GAS  C:\Users\admin\AppData\Local\Temp\ccKOQBsb.s 			page 18


 612              		.loc 1 224 5 view .LVU239
 613 0126 D3F88C30 		ldr	r3, [r3, #140]
 614 012a 03F00203 		and	r3, r3, #2
 615 012e 0593     		str	r3, [sp, #20]
 224:Core/Src/spi.c ****     /**SPI3 GPIO Configuration
 616              		.loc 1 224 5 view .LVU240
 617 0130 059B     		ldr	r3, [sp, #20]
 618              	.LBE7:
 224:Core/Src/spi.c ****     /**SPI3 GPIO Configuration
 619              		.loc 1 224 5 view .LVU241
 230:Core/Src/spi.c ****     GPIO_InitStruct.Mode = GPIO_MODE_AF_PP;
 620              		.loc 1 230 5 view .LVU242
 230:Core/Src/spi.c ****     GPIO_InitStruct.Mode = GPIO_MODE_AF_PP;
 621              		.loc 1 230 25 is_stmt 0 view .LVU243
 622 0132 0823     		movs	r3, #8
 623 0134 3D93     		str	r3, [sp, #244]
 231:Core/Src/spi.c ****     GPIO_InitStruct.Pull = GPIO_NOPULL;
 624              		.loc 1 231 5 is_stmt 1 view .LVU244
 231:Core/Src/spi.c ****     GPIO_InitStruct.Pull = GPIO_NOPULL;
 625              		.loc 1 231 26 is_stmt 0 view .LVU245
 626 0136 0225     		movs	r5, #2
 627 0138 3E95     		str	r5, [sp, #248]
 232:Core/Src/spi.c ****     GPIO_InitStruct.Speed = GPIO_SPEED_FREQ_LOW;
 628              		.loc 1 232 5 is_stmt 1 view .LVU246
 232:Core/Src/spi.c ****     GPIO_InitStruct.Speed = GPIO_SPEED_FREQ_LOW;
 629              		.loc 1 232 26 is_stmt 0 view .LVU247
 630 013a 0024     		movs	r4, #0
 631              	.LVL18:
 232:Core/Src/spi.c ****     GPIO_InitStruct.Speed = GPIO_SPEED_FREQ_LOW;
 632              		.loc 1 232 26 view .LVU248
 633 013c 3F94     		str	r4, [sp, #252]
 233:Core/Src/spi.c ****     GPIO_InitStruct.Alternate = GPIO_AF6_SPI3;
 634              		.loc 1 233 5 is_stmt 1 view .LVU249
 233:Core/Src/spi.c ****     GPIO_InitStruct.Alternate = GPIO_AF6_SPI3;
 635              		.loc 1 233 27 is_stmt 0 view .LVU250
 636 013e 4094     		str	r4, [sp, #256]
 234:Core/Src/spi.c ****     HAL_GPIO_Init(GPIOA, &GPIO_InitStruct);
 637              		.loc 1 234 5 is_stmt 1 view .LVU251
 234:Core/Src/spi.c ****     HAL_GPIO_Init(GPIOA, &GPIO_InitStruct);
 638              		.loc 1 234 31 is_stmt 0 view .LVU252
 639 0140 0623     		movs	r3, #6
 640 0142 4193     		str	r3, [sp, #260]
 235:Core/Src/spi.c **** 
 641              		.loc 1 235 5 is_stmt 1 view .LVU253
 642 0144 3DA9     		add	r1, sp, #244
 643 0146 2F48     		ldr	r0, .L33+24
 644 0148 FFF7FEFF 		bl	HAL_GPIO_Init
 645              	.LVL19:
 237:Core/Src/spi.c ****     GPIO_InitStruct.Mode = GPIO_MODE_AF_PP;
 646              		.loc 1 237 5 view .LVU254
 237:Core/Src/spi.c ****     GPIO_InitStruct.Mode = GPIO_MODE_AF_PP;
 647              		.loc 1 237 25 is_stmt 0 view .LVU255
 648 014c 0123     		movs	r3, #1
 649 014e 3D93     		str	r3, [sp, #244]
 238:Core/Src/spi.c ****     GPIO_InitStruct.Pull = GPIO_NOPULL;
 650              		.loc 1 238 5 is_stmt 1 view .LVU256
 238:Core/Src/spi.c ****     GPIO_InitStruct.Pull = GPIO_NOPULL;
ARM GAS  C:\Users\admin\AppData\Local\Temp\ccKOQBsb.s 			page 19


 651              		.loc 1 238 26 is_stmt 0 view .LVU257
 652 0150 3E95     		str	r5, [sp, #248]
 239:Core/Src/spi.c ****     GPIO_InitStruct.Speed = GPIO_SPEED_FREQ_LOW;
 653              		.loc 1 239 5 is_stmt 1 view .LVU258
 239:Core/Src/spi.c ****     GPIO_InitStruct.Speed = GPIO_SPEED_FREQ_LOW;
 654              		.loc 1 239 26 is_stmt 0 view .LVU259
 655 0152 3F94     		str	r4, [sp, #252]
 240:Core/Src/spi.c ****     GPIO_InitStruct.Alternate = GPIO_AF5_SPI3;
 656              		.loc 1 240 5 is_stmt 1 view .LVU260
 240:Core/Src/spi.c ****     GPIO_InitStruct.Alternate = GPIO_AF5_SPI3;
 657              		.loc 1 240 27 is_stmt 0 view .LVU261
 658 0154 4094     		str	r4, [sp, #256]
 241:Core/Src/spi.c ****     HAL_GPIO_Init(GPIOB, &GPIO_InitStruct);
 659              		.loc 1 241 5 is_stmt 1 view .LVU262
 241:Core/Src/spi.c ****     HAL_GPIO_Init(GPIOB, &GPIO_InitStruct);
 660              		.loc 1 241 31 is_stmt 0 view .LVU263
 661 0156 0523     		movs	r3, #5
 662 0158 4193     		str	r3, [sp, #260]
 242:Core/Src/spi.c **** 
 663              		.loc 1 242 5 is_stmt 1 view .LVU264
 664 015a 3DA9     		add	r1, sp, #244
 665 015c 2848     		ldr	r0, .L33+20
 666 015e FFF7FEFF 		bl	HAL_GPIO_Init
 667              	.LVL20:
 244:Core/Src/spi.c ****     GPIO_InitStruct.Mode = GPIO_MODE_AF_PP;
 668              		.loc 1 244 5 view .LVU265
 244:Core/Src/spi.c ****     GPIO_InitStruct.Mode = GPIO_MODE_AF_PP;
 669              		.loc 1 244 25 is_stmt 0 view .LVU266
 670 0162 3D95     		str	r5, [sp, #244]
 245:Core/Src/spi.c ****     GPIO_InitStruct.Pull = GPIO_NOPULL;
 671              		.loc 1 245 5 is_stmt 1 view .LVU267
 245:Core/Src/spi.c ****     GPIO_InitStruct.Pull = GPIO_NOPULL;
 672              		.loc 1 245 26 is_stmt 0 view .LVU268
 673 0164 3E95     		str	r5, [sp, #248]
 246:Core/Src/spi.c ****     GPIO_InitStruct.Speed = GPIO_SPEED_FREQ_LOW;
 674              		.loc 1 246 5 is_stmt 1 view .LVU269
 246:Core/Src/spi.c ****     GPIO_InitStruct.Speed = GPIO_SPEED_FREQ_LOW;
 675              		.loc 1 246 26 is_stmt 0 view .LVU270
 676 0166 3F94     		str	r4, [sp, #252]
 247:Core/Src/spi.c ****     GPIO_InitStruct.Alternate = GPIO_AF4_SPI3;
 677              		.loc 1 247 5 is_stmt 1 view .LVU271
 247:Core/Src/spi.c ****     GPIO_InitStruct.Alternate = GPIO_AF4_SPI3;
 678              		.loc 1 247 27 is_stmt 0 view .LVU272
 679 0168 4094     		str	r4, [sp, #256]
 248:Core/Src/spi.c ****     HAL_GPIO_Init(GPIOB, &GPIO_InitStruct);
 680              		.loc 1 248 5 is_stmt 1 view .LVU273
 248:Core/Src/spi.c ****     HAL_GPIO_Init(GPIOB, &GPIO_InitStruct);
 681              		.loc 1 248 31 is_stmt 0 view .LVU274
 682 016a 0423     		movs	r3, #4
 683 016c 4193     		str	r3, [sp, #260]
 249:Core/Src/spi.c **** 
 684              		.loc 1 249 5 is_stmt 1 view .LVU275
 685 016e 3DA9     		add	r1, sp, #244
 686 0170 2348     		ldr	r0, .L33+20
 687 0172 FFF7FEFF 		bl	HAL_GPIO_Init
 688              	.LVL21:
 689 0176 5BE7     		b	.L19
ARM GAS  C:\Users\admin\AppData\Local\Temp\ccKOQBsb.s 			page 20


 690              	.LVL22:
 691              	.L31:
 217:Core/Src/spi.c ****     }
 692              		.loc 1 217 7 view .LVU276
 693 0178 FFF7FEFF 		bl	Error_Handler
 694              	.LVL23:
 695 017c B4E7     		b	.L24
 696              	.L29:
 263:Core/Src/spi.c ****     PeriphClkInitStruct.Spi4ClockSelection = RCC_SPI4CLKSOURCE_HSE;
 697              		.loc 1 263 5 view .LVU277
 263:Core/Src/spi.c ****     PeriphClkInitStruct.Spi4ClockSelection = RCC_SPI4CLKSOURCE_HSE;
 698              		.loc 1 263 46 is_stmt 0 view .LVU278
 699 017e 4FF08042 		mov	r2, #1073741824
 700 0182 0023     		movs	r3, #0
 701 0184 CDE90823 		strd	r2, [sp, #32]
 264:Core/Src/spi.c ****     if (HAL_RCCEx_PeriphCLKConfig(&PeriphClkInitStruct) != HAL_OK)
 702              		.loc 1 264 5 is_stmt 1 view .LVU279
 264:Core/Src/spi.c ****     if (HAL_RCCEx_PeriphCLKConfig(&PeriphClkInitStruct) != HAL_OK)
 703              		.loc 1 264 44 is_stmt 0 view .LVU280
 704 0188 4FF42063 		mov	r3, #2560
 705 018c 3693     		str	r3, [sp, #216]
 265:Core/Src/spi.c ****     {
 706              		.loc 1 265 5 is_stmt 1 view .LVU281
 265:Core/Src/spi.c ****     {
 707              		.loc 1 265 9 is_stmt 0 view .LVU282
 708 018e 08A8     		add	r0, sp, #32
 709 0190 FFF7FEFF 		bl	HAL_RCCEx_PeriphCLKConfig
 710              	.LVL24:
 265:Core/Src/spi.c ****     {
 711              		.loc 1 265 8 discriminator 1 view .LVU283
 712 0194 30BB     		cbnz	r0, .L32
 713              	.L25:
 271:Core/Src/spi.c **** 
 714              		.loc 1 271 5 is_stmt 1 view .LVU284
 715              	.LBB8:
 271:Core/Src/spi.c **** 
 716              		.loc 1 271 5 view .LVU285
 271:Core/Src/spi.c **** 
 717              		.loc 1 271 5 view .LVU286
 718 0196 184B     		ldr	r3, .L33+12
 719 0198 D3F8A420 		ldr	r2, [r3, #164]
 720 019c 42F40022 		orr	r2, r2, #524288
 721 01a0 C3F8A420 		str	r2, [r3, #164]
 271:Core/Src/spi.c **** 
 722              		.loc 1 271 5 view .LVU287
 723 01a4 D3F8A420 		ldr	r2, [r3, #164]
 724 01a8 02F40022 		and	r2, r2, #524288
 725 01ac 0692     		str	r2, [sp, #24]
 271:Core/Src/spi.c **** 
 726              		.loc 1 271 5 view .LVU288
 727 01ae 069A     		ldr	r2, [sp, #24]
 728              	.LBE8:
 271:Core/Src/spi.c **** 
 729              		.loc 1 271 5 view .LVU289
 273:Core/Src/spi.c ****     /**SPI4 GPIO Configuration
 730              		.loc 1 273 5 view .LVU290
 731              	.LBB9:
ARM GAS  C:\Users\admin\AppData\Local\Temp\ccKOQBsb.s 			page 21


 273:Core/Src/spi.c ****     /**SPI4 GPIO Configuration
 732              		.loc 1 273 5 view .LVU291
 273:Core/Src/spi.c ****     /**SPI4 GPIO Configuration
 733              		.loc 1 273 5 view .LVU292
 734 01b0 D3F88C20 		ldr	r2, [r3, #140]
 735 01b4 42F01002 		orr	r2, r2, #16
 736 01b8 C3F88C20 		str	r2, [r3, #140]
 273:Core/Src/spi.c ****     /**SPI4 GPIO Configuration
 737              		.loc 1 273 5 view .LVU293
 738 01bc D3F88C30 		ldr	r3, [r3, #140]
 739 01c0 03F01003 		and	r3, r3, #16
 740 01c4 0793     		str	r3, [sp, #28]
 273:Core/Src/spi.c ****     /**SPI4 GPIO Configuration
 741              		.loc 1 273 5 view .LVU294
 742 01c6 079B     		ldr	r3, [sp, #28]
 743              	.LBE9:
 273:Core/Src/spi.c ****     /**SPI4 GPIO Configuration
 744              		.loc 1 273 5 view .LVU295
 279:Core/Src/spi.c ****     GPIO_InitStruct.Mode = GPIO_MODE_AF_PP;
 745              		.loc 1 279 5 view .LVU296
 279:Core/Src/spi.c ****     GPIO_InitStruct.Mode = GPIO_MODE_AF_PP;
 746              		.loc 1 279 25 is_stmt 0 view .LVU297
 747 01c8 6423     		movs	r3, #100
 748 01ca 3D93     		str	r3, [sp, #244]
 280:Core/Src/spi.c ****     GPIO_InitStruct.Pull = GPIO_NOPULL;
 749              		.loc 1 280 5 is_stmt 1 view .LVU298
 280:Core/Src/spi.c ****     GPIO_InitStruct.Pull = GPIO_NOPULL;
 750              		.loc 1 280 26 is_stmt 0 view .LVU299
 751 01cc 0223     		movs	r3, #2
 752 01ce 3E93     		str	r3, [sp, #248]
 281:Core/Src/spi.c ****     GPIO_InitStruct.Speed = GPIO_SPEED_FREQ_LOW;
 753              		.loc 1 281 5 is_stmt 1 view .LVU300
 281:Core/Src/spi.c ****     GPIO_InitStruct.Speed = GPIO_SPEED_FREQ_LOW;
 754              		.loc 1 281 26 is_stmt 0 view .LVU301
 755 01d0 0023     		movs	r3, #0
 756 01d2 3F93     		str	r3, [sp, #252]
 282:Core/Src/spi.c ****     GPIO_InitStruct.Alternate = GPIO_AF5_SPI4;
 757              		.loc 1 282 5 is_stmt 1 view .LVU302
 282:Core/Src/spi.c ****     GPIO_InitStruct.Alternate = GPIO_AF5_SPI4;
 758              		.loc 1 282 27 is_stmt 0 view .LVU303
 759 01d4 4093     		str	r3, [sp, #256]
 283:Core/Src/spi.c ****     HAL_GPIO_Init(GPIOE, &GPIO_InitStruct);
 760              		.loc 1 283 5 is_stmt 1 view .LVU304
 283:Core/Src/spi.c ****     HAL_GPIO_Init(GPIOE, &GPIO_InitStruct);
 761              		.loc 1 283 31 is_stmt 0 view .LVU305
 762 01d6 0523     		movs	r3, #5
 763 01d8 4193     		str	r3, [sp, #260]
 284:Core/Src/spi.c **** 
 764              		.loc 1 284 5 is_stmt 1 view .LVU306
 765 01da 3DA9     		add	r1, sp, #244
 766 01dc 0A48     		ldr	r0, .L33+28
 767 01de FFF7FEFF 		bl	HAL_GPIO_Init
 768              	.LVL25:
 769              		.loc 1 290 1 is_stmt 0 view .LVU307
 770 01e2 25E7     		b	.L19
 771              	.L32:
 267:Core/Src/spi.c ****     }
ARM GAS  C:\Users\admin\AppData\Local\Temp\ccKOQBsb.s 			page 22


 772              		.loc 1 267 7 is_stmt 1 view .LVU308
 773 01e4 FFF7FEFF 		bl	Error_Handler
 774              	.LVL26:
 775 01e8 D5E7     		b	.L25
 776              	.L34:
 777 01ea 00BF     		.align	2
 778              	.L33:
 779 01ec 00380040 		.word	1073756160
 780 01f0 003C0040 		.word	1073757184
 781 01f4 004C0140 		.word	1073826816
 782 01f8 000C0244 		.word	1140984832
 783 01fc 00080242 		.word	1107429376
 784 0200 00040242 		.word	1107428352
 785 0204 00000242 		.word	1107427328
 786 0208 00100242 		.word	1107431424
 787              		.cfi_endproc
 788              	.LFE359:
 790              		.section	.text.HAL_SPI_MspDeInit,"ax",%progbits
 791              		.align	1
 792              		.global	HAL_SPI_MspDeInit
 793              		.syntax unified
 794              		.thumb
 795              		.thumb_func
 797              	HAL_SPI_MspDeInit:
 798              	.LVL27:
 799              	.LFB360:
 291:Core/Src/spi.c **** 
 292:Core/Src/spi.c **** void HAL_SPI_MspDeInit(SPI_HandleTypeDef* spiHandle)
 293:Core/Src/spi.c **** {
 800              		.loc 1 293 1 view -0
 801              		.cfi_startproc
 802              		@ args = 0, pretend = 0, frame = 0
 803              		@ frame_needed = 0, uses_anonymous_args = 0
 804              		.loc 1 293 1 is_stmt 0 view .LVU310
 805 0000 08B5     		push	{r3, lr}
 806              	.LCFI7:
 807              		.cfi_def_cfa_offset 8
 808              		.cfi_offset 3, -8
 809              		.cfi_offset 14, -4
 294:Core/Src/spi.c **** 
 295:Core/Src/spi.c ****   if(spiHandle->Instance==SPI2)
 810              		.loc 1 295 3 is_stmt 1 view .LVU311
 811              		.loc 1 295 15 is_stmt 0 view .LVU312
 812 0002 0368     		ldr	r3, [r0]
 813              		.loc 1 295 5 view .LVU313
 814 0004 1A4A     		ldr	r2, .L43
 815 0006 9342     		cmp	r3, r2
 816 0008 06D0     		beq	.L40
 296:Core/Src/spi.c ****   {
 297:Core/Src/spi.c ****   /* USER CODE BEGIN SPI2_MspDeInit 0 */
 298:Core/Src/spi.c **** 
 299:Core/Src/spi.c ****   /* USER CODE END SPI2_MspDeInit 0 */
 300:Core/Src/spi.c ****     /* Peripheral clock disable */
 301:Core/Src/spi.c ****     __HAL_RCC_SPI2_CLK_DISABLE();
 302:Core/Src/spi.c **** 
 303:Core/Src/spi.c ****     /**SPI2 GPIO Configuration
 304:Core/Src/spi.c ****     PC1     ------> SPI2_MOSI
ARM GAS  C:\Users\admin\AppData\Local\Temp\ccKOQBsb.s 			page 23


 305:Core/Src/spi.c ****     PB2     ------> SPI2_SCK
 306:Core/Src/spi.c ****     */
 307:Core/Src/spi.c ****     HAL_GPIO_DeInit(LCD_MOSI_GPIO_Port, LCD_MOSI_Pin);
 308:Core/Src/spi.c **** 
 309:Core/Src/spi.c ****     HAL_GPIO_DeInit(LCD_SCK_GPIO_Port, LCD_SCK_Pin);
 310:Core/Src/spi.c **** 
 311:Core/Src/spi.c ****   /* USER CODE BEGIN SPI2_MspDeInit 1 */
 312:Core/Src/spi.c **** 
 313:Core/Src/spi.c ****   /* USER CODE END SPI2_MspDeInit 1 */
 314:Core/Src/spi.c ****   }
 315:Core/Src/spi.c ****   else if(spiHandle->Instance==SPI3)
 817              		.loc 1 315 8 is_stmt 1 view .LVU314
 818              		.loc 1 315 10 is_stmt 0 view .LVU315
 819 000a 1A4A     		ldr	r2, .L43+4
 820 000c 9342     		cmp	r3, r2
 821 000e 13D0     		beq	.L41
 316:Core/Src/spi.c ****   {
 317:Core/Src/spi.c ****   /* USER CODE BEGIN SPI3_MspDeInit 0 */
 318:Core/Src/spi.c **** 
 319:Core/Src/spi.c ****   /* USER CODE END SPI3_MspDeInit 0 */
 320:Core/Src/spi.c ****     /* Peripheral clock disable */
 321:Core/Src/spi.c ****     __HAL_RCC_SPI3_CLK_DISABLE();
 322:Core/Src/spi.c **** 
 323:Core/Src/spi.c ****     /**SPI3 GPIO Configuration
 324:Core/Src/spi.c ****     PA3     ------> SPI3_MOSI
 325:Core/Src/spi.c ****     PB0     ------> SPI3_MISO
 326:Core/Src/spi.c ****     PB1     ------> SPI3_SCK
 327:Core/Src/spi.c ****     */
 328:Core/Src/spi.c ****     HAL_GPIO_DeInit(GPIOA, GPIO_PIN_3);
 329:Core/Src/spi.c **** 
 330:Core/Src/spi.c ****     HAL_GPIO_DeInit(GPIOB, GPIO_PIN_0|GPIO_PIN_1);
 331:Core/Src/spi.c **** 
 332:Core/Src/spi.c ****   /* USER CODE BEGIN SPI3_MspDeInit 1 */
 333:Core/Src/spi.c **** 
 334:Core/Src/spi.c ****   /* USER CODE END SPI3_MspDeInit 1 */
 335:Core/Src/spi.c ****   }
 336:Core/Src/spi.c ****   else if(spiHandle->Instance==SPI4)
 822              		.loc 1 336 8 is_stmt 1 view .LVU316
 823              		.loc 1 336 10 is_stmt 0 view .LVU317
 824 0010 194A     		ldr	r2, .L43+8
 825 0012 9342     		cmp	r3, r2
 826 0014 20D0     		beq	.L42
 827              	.LVL28:
 828              	.L35:
 337:Core/Src/spi.c ****   {
 338:Core/Src/spi.c ****   /* USER CODE BEGIN SPI4_MspDeInit 0 */
 339:Core/Src/spi.c **** 
 340:Core/Src/spi.c ****   /* USER CODE END SPI4_MspDeInit 0 */
 341:Core/Src/spi.c ****     /* Peripheral clock disable */
 342:Core/Src/spi.c ****     __HAL_RCC_SPI4_CLK_DISABLE();
 343:Core/Src/spi.c **** 
 344:Core/Src/spi.c ****     /**SPI4 GPIO Configuration
 345:Core/Src/spi.c ****     PE2     ------> SPI4_SCK
 346:Core/Src/spi.c ****     PE5     ------> SPI4_MISO
 347:Core/Src/spi.c ****     PE6     ------> SPI4_MOSI
 348:Core/Src/spi.c ****     */
 349:Core/Src/spi.c ****     HAL_GPIO_DeInit(GPIOE, SD_SCK_Pin|SD_MISO_Pin|SD_MOSI_Pin);
ARM GAS  C:\Users\admin\AppData\Local\Temp\ccKOQBsb.s 			page 24


 350:Core/Src/spi.c **** 
 351:Core/Src/spi.c ****   /* USER CODE BEGIN SPI4_MspDeInit 1 */
 352:Core/Src/spi.c **** 
 353:Core/Src/spi.c ****   /* USER CODE END SPI4_MspDeInit 1 */
 354:Core/Src/spi.c ****   }
 355:Core/Src/spi.c **** }
 829              		.loc 1 355 1 view .LVU318
 830 0016 08BD     		pop	{r3, pc}
 831              	.LVL29:
 832              	.L40:
 301:Core/Src/spi.c **** 
 833              		.loc 1 301 5 is_stmt 1 view .LVU319
 834 0018 184A     		ldr	r2, .L43+12
 835 001a D2F89C30 		ldr	r3, [r2, #156]
 836 001e 23F48043 		bic	r3, r3, #16384
 837 0022 C2F89C30 		str	r3, [r2, #156]
 307:Core/Src/spi.c **** 
 838              		.loc 1 307 5 view .LVU320
 839 0026 0221     		movs	r1, #2
 840 0028 1548     		ldr	r0, .L43+16
 841              	.LVL30:
 307:Core/Src/spi.c **** 
 842              		.loc 1 307 5 is_stmt 0 view .LVU321
 843 002a FFF7FEFF 		bl	HAL_GPIO_DeInit
 844              	.LVL31:
 309:Core/Src/spi.c **** 
 845              		.loc 1 309 5 is_stmt 1 view .LVU322
 846 002e 0421     		movs	r1, #4
 847 0030 1448     		ldr	r0, .L43+20
 848 0032 FFF7FEFF 		bl	HAL_GPIO_DeInit
 849              	.LVL32:
 850 0036 EEE7     		b	.L35
 851              	.LVL33:
 852              	.L41:
 321:Core/Src/spi.c **** 
 853              		.loc 1 321 5 view .LVU323
 854 0038 104A     		ldr	r2, .L43+12
 855 003a D2F89C30 		ldr	r3, [r2, #156]
 856 003e 23F40043 		bic	r3, r3, #32768
 857 0042 C2F89C30 		str	r3, [r2, #156]
 328:Core/Src/spi.c **** 
 858              		.loc 1 328 5 view .LVU324
 859 0046 0821     		movs	r1, #8
 860 0048 0F48     		ldr	r0, .L43+24
 861              	.LVL34:
 328:Core/Src/spi.c **** 
 862              		.loc 1 328 5 is_stmt 0 view .LVU325
 863 004a FFF7FEFF 		bl	HAL_GPIO_DeInit
 864              	.LVL35:
 330:Core/Src/spi.c **** 
 865              		.loc 1 330 5 is_stmt 1 view .LVU326
 866 004e 0321     		movs	r1, #3
 867 0050 0C48     		ldr	r0, .L43+20
 868 0052 FFF7FEFF 		bl	HAL_GPIO_DeInit
 869              	.LVL36:
 870 0056 DEE7     		b	.L35
 871              	.LVL37:
ARM GAS  C:\Users\admin\AppData\Local\Temp\ccKOQBsb.s 			page 25


 872              	.L42:
 342:Core/Src/spi.c **** 
 873              		.loc 1 342 5 view .LVU327
 874 0058 084A     		ldr	r2, .L43+12
 875 005a D2F8A430 		ldr	r3, [r2, #164]
 876 005e 23F40023 		bic	r3, r3, #524288
 877 0062 C2F8A430 		str	r3, [r2, #164]
 349:Core/Src/spi.c **** 
 878              		.loc 1 349 5 view .LVU328
 879 0066 6421     		movs	r1, #100
 880 0068 0848     		ldr	r0, .L43+28
 881              	.LVL38:
 349:Core/Src/spi.c **** 
 882              		.loc 1 349 5 is_stmt 0 view .LVU329
 883 006a FFF7FEFF 		bl	HAL_GPIO_DeInit
 884              	.LVL39:
 885              		.loc 1 355 1 view .LVU330
 886 006e D2E7     		b	.L35
 887              	.L44:
 888              		.align	2
 889              	.L43:
 890 0070 00380040 		.word	1073756160
 891 0074 003C0040 		.word	1073757184
 892 0078 004C0140 		.word	1073826816
 893 007c 000C0244 		.word	1140984832
 894 0080 00080242 		.word	1107429376
 895 0084 00040242 		.word	1107428352
 896 0088 00000242 		.word	1107427328
 897 008c 00100242 		.word	1107431424
 898              		.cfi_endproc
 899              	.LFE360:
 901              		.global	hspi4
 902              		.section	.bss.hspi4,"aw",%nobits
 903              		.align	2
 906              	hspi4:
 907 0000 00000000 		.space	144
 907      00000000 
 907      00000000 
 907      00000000 
 907      00000000 
 908              		.global	hspi3
 909              		.section	.bss.hspi3,"aw",%nobits
 910              		.align	2
 913              	hspi3:
 914 0000 00000000 		.space	144
 914      00000000 
 914      00000000 
 914      00000000 
 914      00000000 
 915              		.global	hspi2
 916              		.section	.bss.hspi2,"aw",%nobits
 917              		.align	2
 920              	hspi2:
 921 0000 00000000 		.space	144
 921      00000000 
 921      00000000 
 921      00000000 
ARM GAS  C:\Users\admin\AppData\Local\Temp\ccKOQBsb.s 			page 26


 921      00000000 
 922              		.text
 923              	.Letext0:
 924              		.file 2 "C:/arm-bare-metal/arm-none-eabi/include/machine/_default_types.h"
 925              		.file 3 "C:/arm-bare-metal/arm-none-eabi/include/sys/_stdint.h"
 926              		.file 4 "Drivers/CMSIS/Device/ST/STM32H5xx/Include/stm32h523xx.h"
 927              		.file 5 "Drivers/STM32H5xx_HAL_Driver/Inc/stm32h5xx_hal_def.h"
 928              		.file 6 "Drivers/STM32H5xx_HAL_Driver/Inc/stm32h5xx_hal_rcc_ex.h"
 929              		.file 7 "Drivers/STM32H5xx_HAL_Driver/Inc/stm32h5xx_hal_gpio.h"
 930              		.file 8 "Drivers/STM32H5xx_HAL_Driver/Inc/stm32h5xx_hal_dma.h"
 931              		.file 9 "Drivers/STM32H5xx_HAL_Driver/Inc/stm32h5xx_hal_dma_ex.h"
 932              		.file 10 "Drivers/STM32H5xx_HAL_Driver/Inc/stm32h5xx_hal_spi.h"
 933              		.file 11 "Core/Inc/spi.h"
 934              		.file 12 "Core/Inc/main.h"
 935              		.file 13 "<built-in>"
ARM GAS  C:\Users\admin\AppData\Local\Temp\ccKOQBsb.s 			page 27


DEFINED SYMBOLS
                            *ABS*:00000000 spi.c
C:\Users\admin\AppData\Local\Temp\ccKOQBsb.s:22     .text.MX_SPI2_Init:00000000 $t
C:\Users\admin\AppData\Local\Temp\ccKOQBsb.s:28     .text.MX_SPI2_Init:00000000 MX_SPI2_Init
C:\Users\admin\AppData\Local\Temp\ccKOQBsb.s:132    .text.MX_SPI2_Init:00000058 $d
C:\Users\admin\AppData\Local\Temp\ccKOQBsb.s:920    .bss.hspi2:00000000 hspi2
C:\Users\admin\AppData\Local\Temp\ccKOQBsb.s:138    .text.MX_SPI3_Init:00000000 $t
C:\Users\admin\AppData\Local\Temp\ccKOQBsb.s:144    .text.MX_SPI3_Init:00000000 MX_SPI3_Init
C:\Users\admin\AppData\Local\Temp\ccKOQBsb.s:247    .text.MX_SPI3_Init:00000054 $d
C:\Users\admin\AppData\Local\Temp\ccKOQBsb.s:913    .bss.hspi3:00000000 hspi3
C:\Users\admin\AppData\Local\Temp\ccKOQBsb.s:253    .text.MX_SPI4_Init:00000000 $t
C:\Users\admin\AppData\Local\Temp\ccKOQBsb.s:259    .text.MX_SPI4_Init:00000000 MX_SPI4_Init
C:\Users\admin\AppData\Local\Temp\ccKOQBsb.s:361    .text.MX_SPI4_Init:00000050 $d
C:\Users\admin\AppData\Local\Temp\ccKOQBsb.s:906    .bss.hspi4:00000000 hspi4
C:\Users\admin\AppData\Local\Temp\ccKOQBsb.s:367    .text.HAL_SPI_MspInit:00000000 $t
C:\Users\admin\AppData\Local\Temp\ccKOQBsb.s:373    .text.HAL_SPI_MspInit:00000000 HAL_SPI_MspInit
C:\Users\admin\AppData\Local\Temp\ccKOQBsb.s:779    .text.HAL_SPI_MspInit:000001ec $d
C:\Users\admin\AppData\Local\Temp\ccKOQBsb.s:791    .text.HAL_SPI_MspDeInit:00000000 $t
C:\Users\admin\AppData\Local\Temp\ccKOQBsb.s:797    .text.HAL_SPI_MspDeInit:00000000 HAL_SPI_MspDeInit
C:\Users\admin\AppData\Local\Temp\ccKOQBsb.s:890    .text.HAL_SPI_MspDeInit:00000070 $d
C:\Users\admin\AppData\Local\Temp\ccKOQBsb.s:903    .bss.hspi4:00000000 $d
C:\Users\admin\AppData\Local\Temp\ccKOQBsb.s:910    .bss.hspi3:00000000 $d
C:\Users\admin\AppData\Local\Temp\ccKOQBsb.s:917    .bss.hspi2:00000000 $d

UNDEFINED SYMBOLS
HAL_SPI_Init
Error_Handler
memset
HAL_RCCEx_PeriphCLKConfig
HAL_GPIO_Init
HAL_GPIO_DeInit
