ARM GAS  C:\Users\Xuleo\AppData\Local\Temp\cciO7v5X.s 			page 1


   1              		.cpu cortex-m33
   2              		.arch armv8-m.main
   3              		.fpu fpv4-sp-d16
   4              		.arch_extension dsp
   5              		.eabi_attribute 27, 1
   6              		.eabi_attribute 28, 1
   7              		.eabi_attribute 20, 1
   8              		.eabi_attribute 21, 1
   9              		.eabi_attribute 23, 3
  10              		.eabi_attribute 24, 1
  11              		.eabi_attribute 25, 1
  12              		.eabi_attribute 26, 1
  13              		.eabi_attribute 30, 1
  14              		.eabi_attribute 34, 1
  15              		.eabi_attribute 18, 4
  16              		.file	"stm32h5xx_hal_gpio.c"
  17              		.text
  18              	.Ltext0:
  19              		.cfi_sections	.debug_frame
  20              		.file 1 "Drivers/STM32H5xx_HAL_Driver/Src/stm32h5xx_hal_gpio.c"
  21              		.section	.text.HAL_GPIO_Init,"ax",%progbits
  22              		.align	1
  23              		.global	HAL_GPIO_Init
  24              		.syntax unified
  25              		.thumb
  26              		.thumb_func
  28              	HAL_GPIO_Init:
  29              	.LVL0:
  30              	.LFB157:
   1:Drivers/STM32H5xx_HAL_Driver/Src/stm32h5xx_hal_gpio.c **** /**
   2:Drivers/STM32H5xx_HAL_Driver/Src/stm32h5xx_hal_gpio.c ****   ******************************************************************************
   3:Drivers/STM32H5xx_HAL_Driver/Src/stm32h5xx_hal_gpio.c ****   * @file    stm32h5xx_hal_gpio.c
   4:Drivers/STM32H5xx_HAL_Driver/Src/stm32h5xx_hal_gpio.c ****   * @author  MCD Application Team
   5:Drivers/STM32H5xx_HAL_Driver/Src/stm32h5xx_hal_gpio.c ****   * @brief   GPIO HAL module driver.
   6:Drivers/STM32H5xx_HAL_Driver/Src/stm32h5xx_hal_gpio.c ****   *          This file provides firmware functions to manage the following
   7:Drivers/STM32H5xx_HAL_Driver/Src/stm32h5xx_hal_gpio.c ****   *          functionalities of the General Purpose Input/Output (GPIO) peripheral:
   8:Drivers/STM32H5xx_HAL_Driver/Src/stm32h5xx_hal_gpio.c ****   *           + Initialization and de-initialization functions
   9:Drivers/STM32H5xx_HAL_Driver/Src/stm32h5xx_hal_gpio.c ****   *           + IO operation functions
  10:Drivers/STM32H5xx_HAL_Driver/Src/stm32h5xx_hal_gpio.c ****   ******************************************************************************
  11:Drivers/STM32H5xx_HAL_Driver/Src/stm32h5xx_hal_gpio.c ****   * @attention
  12:Drivers/STM32H5xx_HAL_Driver/Src/stm32h5xx_hal_gpio.c ****   *
  13:Drivers/STM32H5xx_HAL_Driver/Src/stm32h5xx_hal_gpio.c ****   * Copyright (c) 2023 STMicroelectronics.
  14:Drivers/STM32H5xx_HAL_Driver/Src/stm32h5xx_hal_gpio.c ****   * All rights reserved.
  15:Drivers/STM32H5xx_HAL_Driver/Src/stm32h5xx_hal_gpio.c ****   *
  16:Drivers/STM32H5xx_HAL_Driver/Src/stm32h5xx_hal_gpio.c ****   * This software is licensed under terms that can be found in the LICENSE file
  17:Drivers/STM32H5xx_HAL_Driver/Src/stm32h5xx_hal_gpio.c ****   * in the root directory of this software component.
  18:Drivers/STM32H5xx_HAL_Driver/Src/stm32h5xx_hal_gpio.c ****   * If no LICENSE file comes with this software, it is provided AS-IS.
  19:Drivers/STM32H5xx_HAL_Driver/Src/stm32h5xx_hal_gpio.c ****   *
  20:Drivers/STM32H5xx_HAL_Driver/Src/stm32h5xx_hal_gpio.c ****   ******************************************************************************
  21:Drivers/STM32H5xx_HAL_Driver/Src/stm32h5xx_hal_gpio.c ****   @verbatim
  22:Drivers/STM32H5xx_HAL_Driver/Src/stm32h5xx_hal_gpio.c ****   ==============================================================================
  23:Drivers/STM32H5xx_HAL_Driver/Src/stm32h5xx_hal_gpio.c ****                     ##### GPIO Peripheral features #####
  24:Drivers/STM32H5xx_HAL_Driver/Src/stm32h5xx_hal_gpio.c ****   ==============================================================================
  25:Drivers/STM32H5xx_HAL_Driver/Src/stm32h5xx_hal_gpio.c ****   [..]
  26:Drivers/STM32H5xx_HAL_Driver/Src/stm32h5xx_hal_gpio.c ****     (+) Each port bit of the general-purpose I/O (GPIO) ports can be individually
  27:Drivers/STM32H5xx_HAL_Driver/Src/stm32h5xx_hal_gpio.c ****         configured by software in several modes:
  28:Drivers/STM32H5xx_HAL_Driver/Src/stm32h5xx_hal_gpio.c ****         (++) Input mode
ARM GAS  C:\Users\Xuleo\AppData\Local\Temp\cciO7v5X.s 			page 2


  29:Drivers/STM32H5xx_HAL_Driver/Src/stm32h5xx_hal_gpio.c ****         (++) Analog mode
  30:Drivers/STM32H5xx_HAL_Driver/Src/stm32h5xx_hal_gpio.c ****         (++) Output mode
  31:Drivers/STM32H5xx_HAL_Driver/Src/stm32h5xx_hal_gpio.c ****         (++) Alternate function mode
  32:Drivers/STM32H5xx_HAL_Driver/Src/stm32h5xx_hal_gpio.c ****         (++) External interrupt/event lines
  33:Drivers/STM32H5xx_HAL_Driver/Src/stm32h5xx_hal_gpio.c **** 
  34:Drivers/STM32H5xx_HAL_Driver/Src/stm32h5xx_hal_gpio.c ****     (+) During and just after reset, the alternate functions and external interrupt
  35:Drivers/STM32H5xx_HAL_Driver/Src/stm32h5xx_hal_gpio.c ****         lines are not active and the I/O ports are configured in input floating mode.
  36:Drivers/STM32H5xx_HAL_Driver/Src/stm32h5xx_hal_gpio.c **** 
  37:Drivers/STM32H5xx_HAL_Driver/Src/stm32h5xx_hal_gpio.c ****     (+) All GPIO pins have weak internal pull-up and pull-down resistors, which can be
  38:Drivers/STM32H5xx_HAL_Driver/Src/stm32h5xx_hal_gpio.c ****         activated or not.
  39:Drivers/STM32H5xx_HAL_Driver/Src/stm32h5xx_hal_gpio.c **** 
  40:Drivers/STM32H5xx_HAL_Driver/Src/stm32h5xx_hal_gpio.c ****     (+) In Output or Alternate mode, each IO can be configured on open-drain or push-pull
  41:Drivers/STM32H5xx_HAL_Driver/Src/stm32h5xx_hal_gpio.c ****         type and the IO speed can be selected depending on the VDD value.
  42:Drivers/STM32H5xx_HAL_Driver/Src/stm32h5xx_hal_gpio.c **** 
  43:Drivers/STM32H5xx_HAL_Driver/Src/stm32h5xx_hal_gpio.c ****     (+) The microcontroller IO pins are connected to onboard peripherals/modules through a
  44:Drivers/STM32H5xx_HAL_Driver/Src/stm32h5xx_hal_gpio.c ****         multiplexer that allows only one peripheral alternate function (AF) connected
  45:Drivers/STM32H5xx_HAL_Driver/Src/stm32h5xx_hal_gpio.c ****        to an IO pin at a time. In this way, there can be no conflict between peripherals
  46:Drivers/STM32H5xx_HAL_Driver/Src/stm32h5xx_hal_gpio.c ****        sharing the same IO pin.
  47:Drivers/STM32H5xx_HAL_Driver/Src/stm32h5xx_hal_gpio.c **** 
  48:Drivers/STM32H5xx_HAL_Driver/Src/stm32h5xx_hal_gpio.c ****     (+) All ports have external interrupt/event capability. To use external interrupt
  49:Drivers/STM32H5xx_HAL_Driver/Src/stm32h5xx_hal_gpio.c ****         lines, the port must be configured in input mode. All available GPIO pins are
  50:Drivers/STM32H5xx_HAL_Driver/Src/stm32h5xx_hal_gpio.c ****         connected to the 16 external interrupt/event lines from EXTI0 to EXTI15.
  51:Drivers/STM32H5xx_HAL_Driver/Src/stm32h5xx_hal_gpio.c **** 
  52:Drivers/STM32H5xx_HAL_Driver/Src/stm32h5xx_hal_gpio.c ****     (+) The external interrupt/event controller consists of up to 39 edge detectors
  53:Drivers/STM32H5xx_HAL_Driver/Src/stm32h5xx_hal_gpio.c ****         (16 lines are connected to GPIO) for generating event/interrupt requests (each
  54:Drivers/STM32H5xx_HAL_Driver/Src/stm32h5xx_hal_gpio.c ****         input line can be independently configured to select the type (interrupt or event)
  55:Drivers/STM32H5xx_HAL_Driver/Src/stm32h5xx_hal_gpio.c ****         and the corresponding trigger event (rising or falling or both). Each line can
  56:Drivers/STM32H5xx_HAL_Driver/Src/stm32h5xx_hal_gpio.c ****         also be masked independently.
  57:Drivers/STM32H5xx_HAL_Driver/Src/stm32h5xx_hal_gpio.c **** 
  58:Drivers/STM32H5xx_HAL_Driver/Src/stm32h5xx_hal_gpio.c ****                      ##### How to use this driver #####
  59:Drivers/STM32H5xx_HAL_Driver/Src/stm32h5xx_hal_gpio.c ****   ==============================================================================
  60:Drivers/STM32H5xx_HAL_Driver/Src/stm32h5xx_hal_gpio.c ****   [..]
  61:Drivers/STM32H5xx_HAL_Driver/Src/stm32h5xx_hal_gpio.c ****     (#) Enable the GPIO AHB clock using the following function: __HAL_RCC_GPIOx_CLK_ENABLE().
  62:Drivers/STM32H5xx_HAL_Driver/Src/stm32h5xx_hal_gpio.c **** 
  63:Drivers/STM32H5xx_HAL_Driver/Src/stm32h5xx_hal_gpio.c ****     (#) Configure the GPIO pin(s) using HAL_GPIO_Init().
  64:Drivers/STM32H5xx_HAL_Driver/Src/stm32h5xx_hal_gpio.c ****         (++) Configure the IO mode using "Mode" member from GPIO_InitTypeDef structure
  65:Drivers/STM32H5xx_HAL_Driver/Src/stm32h5xx_hal_gpio.c ****         (++) Activate Pull-up, Pull-down resistor using "Pull" member from GPIO_InitTypeDef
  66:Drivers/STM32H5xx_HAL_Driver/Src/stm32h5xx_hal_gpio.c ****              structure.
  67:Drivers/STM32H5xx_HAL_Driver/Src/stm32h5xx_hal_gpio.c ****         (++) In case of Output or alternate function mode selection: the speed is
  68:Drivers/STM32H5xx_HAL_Driver/Src/stm32h5xx_hal_gpio.c ****              configured through "Speed" member from GPIO_InitTypeDef structure.
  69:Drivers/STM32H5xx_HAL_Driver/Src/stm32h5xx_hal_gpio.c ****         (++) In alternate mode is selection, the alternate function connected to the IO
  70:Drivers/STM32H5xx_HAL_Driver/Src/stm32h5xx_hal_gpio.c ****              is configured through "Alternate" member from GPIO_InitTypeDef structure.
  71:Drivers/STM32H5xx_HAL_Driver/Src/stm32h5xx_hal_gpio.c ****         (++) Analog mode is required when a pin is to be used as ADC channel
  72:Drivers/STM32H5xx_HAL_Driver/Src/stm32h5xx_hal_gpio.c ****              or DAC output.
  73:Drivers/STM32H5xx_HAL_Driver/Src/stm32h5xx_hal_gpio.c ****         (++) In case of external interrupt/event selection the "Mode" member from
  74:Drivers/STM32H5xx_HAL_Driver/Src/stm32h5xx_hal_gpio.c ****              GPIO_InitTypeDef structure select the type (interrupt or event) and
  75:Drivers/STM32H5xx_HAL_Driver/Src/stm32h5xx_hal_gpio.c ****              the corresponding trigger event (rising or falling or both).
  76:Drivers/STM32H5xx_HAL_Driver/Src/stm32h5xx_hal_gpio.c **** 
  77:Drivers/STM32H5xx_HAL_Driver/Src/stm32h5xx_hal_gpio.c ****     (#) In case of external interrupt/event mode selection, configure NVIC IRQ priority
  78:Drivers/STM32H5xx_HAL_Driver/Src/stm32h5xx_hal_gpio.c ****         mapped to the EXTI line using HAL_NVIC_SetPriority() and enable it using
  79:Drivers/STM32H5xx_HAL_Driver/Src/stm32h5xx_hal_gpio.c ****         HAL_NVIC_EnableIRQ().
  80:Drivers/STM32H5xx_HAL_Driver/Src/stm32h5xx_hal_gpio.c **** 
  81:Drivers/STM32H5xx_HAL_Driver/Src/stm32h5xx_hal_gpio.c ****     (#) To get the level of a pin configured in input mode use HAL_GPIO_ReadPin().
  82:Drivers/STM32H5xx_HAL_Driver/Src/stm32h5xx_hal_gpio.c **** 
  83:Drivers/STM32H5xx_HAL_Driver/Src/stm32h5xx_hal_gpio.c ****     (#) To set/reset the level of a pin configured in output mode use
  84:Drivers/STM32H5xx_HAL_Driver/Src/stm32h5xx_hal_gpio.c ****         HAL_GPIO_WritePin()/HAL_GPIO_TogglePin().
  85:Drivers/STM32H5xx_HAL_Driver/Src/stm32h5xx_hal_gpio.c **** 
ARM GAS  C:\Users\Xuleo\AppData\Local\Temp\cciO7v5X.s 			page 3


  86:Drivers/STM32H5xx_HAL_Driver/Src/stm32h5xx_hal_gpio.c ****     (#) To set the level of several pins and reset level of several other pins in
  87:Drivers/STM32H5xx_HAL_Driver/Src/stm32h5xx_hal_gpio.c ****         same cycle, use HAL_GPIO_WriteMultipleStatePin().
  88:Drivers/STM32H5xx_HAL_Driver/Src/stm32h5xx_hal_gpio.c **** 
  89:Drivers/STM32H5xx_HAL_Driver/Src/stm32h5xx_hal_gpio.c ****    (#) To lock pin configuration until next reset use HAL_GPIO_LockPin().
  90:Drivers/STM32H5xx_HAL_Driver/Src/stm32h5xx_hal_gpio.c **** 
  91:Drivers/STM32H5xx_HAL_Driver/Src/stm32h5xx_hal_gpio.c ****     (#) During and just after reset, the alternate functions are not
  92:Drivers/STM32H5xx_HAL_Driver/Src/stm32h5xx_hal_gpio.c ****         active and the GPIO pins are configured in input floating mode (except JTAG
  93:Drivers/STM32H5xx_HAL_Driver/Src/stm32h5xx_hal_gpio.c ****         pins).
  94:Drivers/STM32H5xx_HAL_Driver/Src/stm32h5xx_hal_gpio.c **** 
  95:Drivers/STM32H5xx_HAL_Driver/Src/stm32h5xx_hal_gpio.c ****     (#) The LSE oscillator pins OSC32_IN and OSC32_OUT can be used as general purpose
  96:Drivers/STM32H5xx_HAL_Driver/Src/stm32h5xx_hal_gpio.c ****         (PC14 and PC15, respectively) when the LSE oscillator is off. The LSE has
  97:Drivers/STM32H5xx_HAL_Driver/Src/stm32h5xx_hal_gpio.c ****         priority over the GPIO function.
  98:Drivers/STM32H5xx_HAL_Driver/Src/stm32h5xx_hal_gpio.c **** 
  99:Drivers/STM32H5xx_HAL_Driver/Src/stm32h5xx_hal_gpio.c ****     (#) The HSE oscillator pins OSC_IN/OSC_OUT can be used as
 100:Drivers/STM32H5xx_HAL_Driver/Src/stm32h5xx_hal_gpio.c ****         general purpose PH0 and PH1, respectively, when the HSE oscillator is off.
 101:Drivers/STM32H5xx_HAL_Driver/Src/stm32h5xx_hal_gpio.c ****         The HSE has priority over the GPIO function.
 102:Drivers/STM32H5xx_HAL_Driver/Src/stm32h5xx_hal_gpio.c **** 
 103:Drivers/STM32H5xx_HAL_Driver/Src/stm32h5xx_hal_gpio.c ****   @endverbatim
 104:Drivers/STM32H5xx_HAL_Driver/Src/stm32h5xx_hal_gpio.c ****   ******************************************************************************
 105:Drivers/STM32H5xx_HAL_Driver/Src/stm32h5xx_hal_gpio.c ****   */
 106:Drivers/STM32H5xx_HAL_Driver/Src/stm32h5xx_hal_gpio.c **** 
 107:Drivers/STM32H5xx_HAL_Driver/Src/stm32h5xx_hal_gpio.c **** /* Includes ------------------------------------------------------------------*/
 108:Drivers/STM32H5xx_HAL_Driver/Src/stm32h5xx_hal_gpio.c **** #include "stm32h5xx_hal.h"
 109:Drivers/STM32H5xx_HAL_Driver/Src/stm32h5xx_hal_gpio.c **** 
 110:Drivers/STM32H5xx_HAL_Driver/Src/stm32h5xx_hal_gpio.c **** /** @addtogroup STM32H5xx_HAL_Driver
 111:Drivers/STM32H5xx_HAL_Driver/Src/stm32h5xx_hal_gpio.c ****   * @{
 112:Drivers/STM32H5xx_HAL_Driver/Src/stm32h5xx_hal_gpio.c ****   */
 113:Drivers/STM32H5xx_HAL_Driver/Src/stm32h5xx_hal_gpio.c **** 
 114:Drivers/STM32H5xx_HAL_Driver/Src/stm32h5xx_hal_gpio.c **** /** @defgroup GPIO GPIO
 115:Drivers/STM32H5xx_HAL_Driver/Src/stm32h5xx_hal_gpio.c ****   * @brief GPIO HAL module driver
 116:Drivers/STM32H5xx_HAL_Driver/Src/stm32h5xx_hal_gpio.c ****   * @{
 117:Drivers/STM32H5xx_HAL_Driver/Src/stm32h5xx_hal_gpio.c ****   */
 118:Drivers/STM32H5xx_HAL_Driver/Src/stm32h5xx_hal_gpio.c **** 
 119:Drivers/STM32H5xx_HAL_Driver/Src/stm32h5xx_hal_gpio.c **** #ifdef HAL_GPIO_MODULE_ENABLED
 120:Drivers/STM32H5xx_HAL_Driver/Src/stm32h5xx_hal_gpio.c **** 
 121:Drivers/STM32H5xx_HAL_Driver/Src/stm32h5xx_hal_gpio.c **** /* Private typedef -----------------------------------------------------------*/
 122:Drivers/STM32H5xx_HAL_Driver/Src/stm32h5xx_hal_gpio.c **** /* Private defines -----------------------------------------------------------*/
 123:Drivers/STM32H5xx_HAL_Driver/Src/stm32h5xx_hal_gpio.c **** /** @defgroup GPIO_Private_Defines GPIO Private Defines
 124:Drivers/STM32H5xx_HAL_Driver/Src/stm32h5xx_hal_gpio.c ****   * @{
 125:Drivers/STM32H5xx_HAL_Driver/Src/stm32h5xx_hal_gpio.c ****   */
 126:Drivers/STM32H5xx_HAL_Driver/Src/stm32h5xx_hal_gpio.c **** #define GPIO_MODE             (0x00000003U)
 127:Drivers/STM32H5xx_HAL_Driver/Src/stm32h5xx_hal_gpio.c **** #define EXTI_MODE             (0x10000000U)
 128:Drivers/STM32H5xx_HAL_Driver/Src/stm32h5xx_hal_gpio.c **** #define GPIO_MODE_IT          (0x00010000U)
 129:Drivers/STM32H5xx_HAL_Driver/Src/stm32h5xx_hal_gpio.c **** #define GPIO_MODE_EVT         (0x00020000U)
 130:Drivers/STM32H5xx_HAL_Driver/Src/stm32h5xx_hal_gpio.c **** #define RISING_EDGE           (0x00100000U)
 131:Drivers/STM32H5xx_HAL_Driver/Src/stm32h5xx_hal_gpio.c **** #define FALLING_EDGE          (0x00200000U)
 132:Drivers/STM32H5xx_HAL_Driver/Src/stm32h5xx_hal_gpio.c **** #define GPIO_OUTPUT_TYPE      (0x00000010U)
 133:Drivers/STM32H5xx_HAL_Driver/Src/stm32h5xx_hal_gpio.c **** #define GPIO_NUMBER           (16U)
 134:Drivers/STM32H5xx_HAL_Driver/Src/stm32h5xx_hal_gpio.c **** 
 135:Drivers/STM32H5xx_HAL_Driver/Src/stm32h5xx_hal_gpio.c **** /**
 136:Drivers/STM32H5xx_HAL_Driver/Src/stm32h5xx_hal_gpio.c ****   * @}
 137:Drivers/STM32H5xx_HAL_Driver/Src/stm32h5xx_hal_gpio.c ****   */
 138:Drivers/STM32H5xx_HAL_Driver/Src/stm32h5xx_hal_gpio.c **** 
 139:Drivers/STM32H5xx_HAL_Driver/Src/stm32h5xx_hal_gpio.c **** /* Private macros ------------------------------------------------------------*/
 140:Drivers/STM32H5xx_HAL_Driver/Src/stm32h5xx_hal_gpio.c **** /* Private variables ---------------------------------------------------------*/
 141:Drivers/STM32H5xx_HAL_Driver/Src/stm32h5xx_hal_gpio.c **** /** @defgroup GPIO_Private_Macros GPIO Private Macros
 142:Drivers/STM32H5xx_HAL_Driver/Src/stm32h5xx_hal_gpio.c ****   * @{
ARM GAS  C:\Users\Xuleo\AppData\Local\Temp\cciO7v5X.s 			page 4


 143:Drivers/STM32H5xx_HAL_Driver/Src/stm32h5xx_hal_gpio.c ****   */
 144:Drivers/STM32H5xx_HAL_Driver/Src/stm32h5xx_hal_gpio.c **** /**
 145:Drivers/STM32H5xx_HAL_Driver/Src/stm32h5xx_hal_gpio.c ****   * @}
 146:Drivers/STM32H5xx_HAL_Driver/Src/stm32h5xx_hal_gpio.c ****   */
 147:Drivers/STM32H5xx_HAL_Driver/Src/stm32h5xx_hal_gpio.c **** 
 148:Drivers/STM32H5xx_HAL_Driver/Src/stm32h5xx_hal_gpio.c **** /* Private function prototypes -----------------------------------------------*/
 149:Drivers/STM32H5xx_HAL_Driver/Src/stm32h5xx_hal_gpio.c **** /* Exported functions --------------------------------------------------------*/
 150:Drivers/STM32H5xx_HAL_Driver/Src/stm32h5xx_hal_gpio.c **** 
 151:Drivers/STM32H5xx_HAL_Driver/Src/stm32h5xx_hal_gpio.c **** /** @defgroup GPIO_Exported_Functions GPIO Exported Functions
 152:Drivers/STM32H5xx_HAL_Driver/Src/stm32h5xx_hal_gpio.c ****   * @{
 153:Drivers/STM32H5xx_HAL_Driver/Src/stm32h5xx_hal_gpio.c ****   */
 154:Drivers/STM32H5xx_HAL_Driver/Src/stm32h5xx_hal_gpio.c **** 
 155:Drivers/STM32H5xx_HAL_Driver/Src/stm32h5xx_hal_gpio.c **** /** @defgroup GPIO_Exported_Functions_Group1 Initialization/de-initialization functions
 156:Drivers/STM32H5xx_HAL_Driver/Src/stm32h5xx_hal_gpio.c ****   *  @brief    Initialization and Configuration functions
 157:Drivers/STM32H5xx_HAL_Driver/Src/stm32h5xx_hal_gpio.c ****   *
 158:Drivers/STM32H5xx_HAL_Driver/Src/stm32h5xx_hal_gpio.c **** @verbatim
 159:Drivers/STM32H5xx_HAL_Driver/Src/stm32h5xx_hal_gpio.c ****  ===============================================================================
 160:Drivers/STM32H5xx_HAL_Driver/Src/stm32h5xx_hal_gpio.c ****               ##### Initialization and de-initialization functions #####
 161:Drivers/STM32H5xx_HAL_Driver/Src/stm32h5xx_hal_gpio.c ****  ===============================================================================
 162:Drivers/STM32H5xx_HAL_Driver/Src/stm32h5xx_hal_gpio.c **** 
 163:Drivers/STM32H5xx_HAL_Driver/Src/stm32h5xx_hal_gpio.c **** @endverbatim
 164:Drivers/STM32H5xx_HAL_Driver/Src/stm32h5xx_hal_gpio.c ****   * @{
 165:Drivers/STM32H5xx_HAL_Driver/Src/stm32h5xx_hal_gpio.c ****   */
 166:Drivers/STM32H5xx_HAL_Driver/Src/stm32h5xx_hal_gpio.c **** 
 167:Drivers/STM32H5xx_HAL_Driver/Src/stm32h5xx_hal_gpio.c **** /**
 168:Drivers/STM32H5xx_HAL_Driver/Src/stm32h5xx_hal_gpio.c ****   * @brief  Initialize the GPIOx peripheral according to the specified parameters in the pGPIO_Init
 169:Drivers/STM32H5xx_HAL_Driver/Src/stm32h5xx_hal_gpio.c ****   * @note   If GPIOx peripheral pin is used in EXTI_MODE and the pin is secure in case
 170:Drivers/STM32H5xx_HAL_Driver/Src/stm32h5xx_hal_gpio.c ****   *         the system implements the security (TZEN=1), it is up to the secure application to
 171:Drivers/STM32H5xx_HAL_Driver/Src/stm32h5xx_hal_gpio.c ****   *         insure that the corresponding EXTI line is set secure.
 172:Drivers/STM32H5xx_HAL_Driver/Src/stm32h5xx_hal_gpio.c ****   * @param  GPIOx: where x can be (A..I) for stm32h56xxx and stm32h57xxx family lines and
 173:Drivers/STM32H5xx_HAL_Driver/Src/stm32h5xx_hal_gpio.c ****   *         (A..D or H) for stm32h503xx family line to select the GPIO peripheral for STM32H5 famil
 174:Drivers/STM32H5xx_HAL_Driver/Src/stm32h5xx_hal_gpio.c ****   * @param  pGPIO_Init: pointer to a GPIO_InitTypeDef structure that contains
 175:Drivers/STM32H5xx_HAL_Driver/Src/stm32h5xx_hal_gpio.c ****   *         the configuration information for the specified GPIO peripheral.
 176:Drivers/STM32H5xx_HAL_Driver/Src/stm32h5xx_hal_gpio.c ****   * @retval None
 177:Drivers/STM32H5xx_HAL_Driver/Src/stm32h5xx_hal_gpio.c ****   */
 178:Drivers/STM32H5xx_HAL_Driver/Src/stm32h5xx_hal_gpio.c **** void HAL_GPIO_Init(GPIO_TypeDef  *GPIOx, const GPIO_InitTypeDef *pGPIO_Init)
 179:Drivers/STM32H5xx_HAL_Driver/Src/stm32h5xx_hal_gpio.c **** {
  31              		.loc 1 179 1 view -0
  32              		.cfi_startproc
  33              		@ args = 0, pretend = 0, frame = 0
  34              		@ frame_needed = 0, uses_anonymous_args = 0
  35              		.loc 1 179 1 is_stmt 0 view .LVU1
  36 0000 F0B5     		push	{r4, r5, r6, r7, lr}
  37              	.LCFI0:
  38              		.cfi_def_cfa_offset 20
  39              		.cfi_offset 4, -20
  40              		.cfi_offset 5, -16
  41              		.cfi_offset 6, -12
  42              		.cfi_offset 7, -8
  43              		.cfi_offset 14, -4
 180:Drivers/STM32H5xx_HAL_Driver/Src/stm32h5xx_hal_gpio.c ****   uint32_t tmp;
  44              		.loc 1 180 3 is_stmt 1 view .LVU2
 181:Drivers/STM32H5xx_HAL_Driver/Src/stm32h5xx_hal_gpio.c ****   uint32_t iocurrent;
  45              		.loc 1 181 3 view .LVU3
 182:Drivers/STM32H5xx_HAL_Driver/Src/stm32h5xx_hal_gpio.c ****   uint32_t position = 0U;
  46              		.loc 1 182 3 view .LVU4
  47              	.LVL1:
ARM GAS  C:\Users\Xuleo\AppData\Local\Temp\cciO7v5X.s 			page 5


 183:Drivers/STM32H5xx_HAL_Driver/Src/stm32h5xx_hal_gpio.c **** 
 184:Drivers/STM32H5xx_HAL_Driver/Src/stm32h5xx_hal_gpio.c **** 
 185:Drivers/STM32H5xx_HAL_Driver/Src/stm32h5xx_hal_gpio.c ****   /* Check the parameters */
 186:Drivers/STM32H5xx_HAL_Driver/Src/stm32h5xx_hal_gpio.c ****   assert_param(IS_GPIO_ALL_INSTANCE(GPIOx));
  48              		.loc 1 186 3 view .LVU5
 187:Drivers/STM32H5xx_HAL_Driver/Src/stm32h5xx_hal_gpio.c ****   assert_param(IS_GPIO_PIN(pGPIO_Init->Pin));
  49              		.loc 1 187 3 view .LVU6
 188:Drivers/STM32H5xx_HAL_Driver/Src/stm32h5xx_hal_gpio.c ****   assert_param(IS_GPIO_MODE(pGPIO_Init->Mode));
  50              		.loc 1 188 3 view .LVU7
 189:Drivers/STM32H5xx_HAL_Driver/Src/stm32h5xx_hal_gpio.c ****   assert_param(IS_GPIO_PULL(pGPIO_Init->Pull));
  51              		.loc 1 189 3 view .LVU8
 190:Drivers/STM32H5xx_HAL_Driver/Src/stm32h5xx_hal_gpio.c **** 
 191:Drivers/STM32H5xx_HAL_Driver/Src/stm32h5xx_hal_gpio.c ****   /* Configure the port pins */
 192:Drivers/STM32H5xx_HAL_Driver/Src/stm32h5xx_hal_gpio.c ****   while (((pGPIO_Init->Pin) >> position) != 0U)
  52              		.loc 1 192 3 view .LVU9
 182:Drivers/STM32H5xx_HAL_Driver/Src/stm32h5xx_hal_gpio.c **** 
  53              		.loc 1 182 12 is_stmt 0 view .LVU10
  54 0002 0022     		movs	r2, #0
  55              		.loc 1 192 9 view .LVU11
  56 0004 6DE0     		b	.L2
  57              	.LVL2:
  58              	.L6:
 193:Drivers/STM32H5xx_HAL_Driver/Src/stm32h5xx_hal_gpio.c ****   {
 194:Drivers/STM32H5xx_HAL_Driver/Src/stm32h5xx_hal_gpio.c ****     /* Get current io position */
 195:Drivers/STM32H5xx_HAL_Driver/Src/stm32h5xx_hal_gpio.c ****     iocurrent = (pGPIO_Init->Pin) & (1UL << position);
 196:Drivers/STM32H5xx_HAL_Driver/Src/stm32h5xx_hal_gpio.c **** 
 197:Drivers/STM32H5xx_HAL_Driver/Src/stm32h5xx_hal_gpio.c ****     if (iocurrent != 0U)
 198:Drivers/STM32H5xx_HAL_Driver/Src/stm32h5xx_hal_gpio.c ****     {
 199:Drivers/STM32H5xx_HAL_Driver/Src/stm32h5xx_hal_gpio.c ****       /*--------------------- GPIO Mode Configuration ------------------------*/
 200:Drivers/STM32H5xx_HAL_Driver/Src/stm32h5xx_hal_gpio.c ****       /* In case of Alternate function mode selection */
 201:Drivers/STM32H5xx_HAL_Driver/Src/stm32h5xx_hal_gpio.c ****       if ((pGPIO_Init->Mode == GPIO_MODE_AF_PP) || (pGPIO_Init->Mode == GPIO_MODE_AF_OD))
 202:Drivers/STM32H5xx_HAL_Driver/Src/stm32h5xx_hal_gpio.c ****       {
 203:Drivers/STM32H5xx_HAL_Driver/Src/stm32h5xx_hal_gpio.c ****         /* Check the Alternate function parameters */
 204:Drivers/STM32H5xx_HAL_Driver/Src/stm32h5xx_hal_gpio.c ****         assert_param(IS_GPIO_AF_INSTANCE(GPIOx));
 205:Drivers/STM32H5xx_HAL_Driver/Src/stm32h5xx_hal_gpio.c ****         assert_param(IS_GPIO_AF(pGPIO_Init->Alternate));
 206:Drivers/STM32H5xx_HAL_Driver/Src/stm32h5xx_hal_gpio.c **** 
 207:Drivers/STM32H5xx_HAL_Driver/Src/stm32h5xx_hal_gpio.c ****         /* Configure Alternate function mapped with the current IO */
 208:Drivers/STM32H5xx_HAL_Driver/Src/stm32h5xx_hal_gpio.c ****         tmp = GPIOx->AFR[position >> 3U];
 209:Drivers/STM32H5xx_HAL_Driver/Src/stm32h5xx_hal_gpio.c ****         tmp &= ~(0x0FUL << ((position & 0x07U) * GPIO_AFRL_AFSEL1_Pos));
 210:Drivers/STM32H5xx_HAL_Driver/Src/stm32h5xx_hal_gpio.c ****         tmp |= ((pGPIO_Init->Alternate & 0x0FUL) << ((position & 0x07U) * GPIO_AFRL_AFSEL1_Pos));
 211:Drivers/STM32H5xx_HAL_Driver/Src/stm32h5xx_hal_gpio.c ****         GPIOx->AFR[position >> 3U] = tmp;
 212:Drivers/STM32H5xx_HAL_Driver/Src/stm32h5xx_hal_gpio.c ****       }
 213:Drivers/STM32H5xx_HAL_Driver/Src/stm32h5xx_hal_gpio.c **** 
 214:Drivers/STM32H5xx_HAL_Driver/Src/stm32h5xx_hal_gpio.c ****       /* Configure IO Direction mode (Input, Output, Alternate or Analog) */
 215:Drivers/STM32H5xx_HAL_Driver/Src/stm32h5xx_hal_gpio.c ****       tmp = GPIOx->MODER;
 216:Drivers/STM32H5xx_HAL_Driver/Src/stm32h5xx_hal_gpio.c ****       tmp &= ~(GPIO_MODER_MODE0 << (position * GPIO_MODER_MODE1_Pos));
 217:Drivers/STM32H5xx_HAL_Driver/Src/stm32h5xx_hal_gpio.c ****       tmp |= ((pGPIO_Init->Mode & GPIO_MODE) << (position * GPIO_MODER_MODE1_Pos));
 218:Drivers/STM32H5xx_HAL_Driver/Src/stm32h5xx_hal_gpio.c ****       GPIOx->MODER = tmp;
 219:Drivers/STM32H5xx_HAL_Driver/Src/stm32h5xx_hal_gpio.c **** 
 220:Drivers/STM32H5xx_HAL_Driver/Src/stm32h5xx_hal_gpio.c ****       /* In case of Output or Alternate function mode selection */
 221:Drivers/STM32H5xx_HAL_Driver/Src/stm32h5xx_hal_gpio.c ****       if ((pGPIO_Init->Mode == GPIO_MODE_OUTPUT_PP) || (pGPIO_Init->Mode == GPIO_MODE_AF_PP) ||
 222:Drivers/STM32H5xx_HAL_Driver/Src/stm32h5xx_hal_gpio.c ****           (pGPIO_Init->Mode == GPIO_MODE_OUTPUT_OD) || (pGPIO_Init->Mode == GPIO_MODE_AF_OD))
 223:Drivers/STM32H5xx_HAL_Driver/Src/stm32h5xx_hal_gpio.c ****       {
 224:Drivers/STM32H5xx_HAL_Driver/Src/stm32h5xx_hal_gpio.c ****         /* Check the Speed parameter */
 225:Drivers/STM32H5xx_HAL_Driver/Src/stm32h5xx_hal_gpio.c ****         assert_param(IS_GPIO_SPEED(pGPIO_Init->Speed));
  59              		.loc 1 225 9 is_stmt 1 view .LVU12
 226:Drivers/STM32H5xx_HAL_Driver/Src/stm32h5xx_hal_gpio.c **** 
ARM GAS  C:\Users\Xuleo\AppData\Local\Temp\cciO7v5X.s 			page 6


 227:Drivers/STM32H5xx_HAL_Driver/Src/stm32h5xx_hal_gpio.c ****         /* Configure the IO Speed */
 228:Drivers/STM32H5xx_HAL_Driver/Src/stm32h5xx_hal_gpio.c ****         tmp = GPIOx->OSPEEDR;
  60              		.loc 1 228 9 view .LVU13
  61              		.loc 1 228 13 is_stmt 0 view .LVU14
  62 0006 8668     		ldr	r6, [r0, #8]
  63              	.LVL3:
 229:Drivers/STM32H5xx_HAL_Driver/Src/stm32h5xx_hal_gpio.c ****         tmp &= ~(GPIO_OSPEEDR_OSPEED0 << (position * GPIO_OSPEEDR_OSPEED1_Pos));
  64              		.loc 1 229 9 is_stmt 1 view .LVU15
  65              		.loc 1 229 13 is_stmt 0 view .LVU16
  66 0008 2E40     		ands	r6, r6, r5
  67              	.LVL4:
 230:Drivers/STM32H5xx_HAL_Driver/Src/stm32h5xx_hal_gpio.c ****         tmp |= (pGPIO_Init->Speed << (position * GPIO_OSPEEDR_OSPEED1_Pos));
  68              		.loc 1 230 9 is_stmt 1 view .LVU17
  69              		.loc 1 230 35 is_stmt 0 view .LVU18
  70 000a CF68     		ldr	r7, [r1, #12]
  71 000c 07FA04FE 		lsl	lr, r7, r4
  72              		.loc 1 230 13 view .LVU19
  73 0010 4EEA0606 		orr	r6, lr, r6
  74              	.LVL5:
 231:Drivers/STM32H5xx_HAL_Driver/Src/stm32h5xx_hal_gpio.c ****         GPIOx->OSPEEDR = tmp;
  75              		.loc 1 231 9 is_stmt 1 view .LVU20
  76              		.loc 1 231 24 is_stmt 0 view .LVU21
  77 0014 8660     		str	r6, [r0, #8]
 232:Drivers/STM32H5xx_HAL_Driver/Src/stm32h5xx_hal_gpio.c **** 
 233:Drivers/STM32H5xx_HAL_Driver/Src/stm32h5xx_hal_gpio.c ****         /* Configure the IO Output Type */
 234:Drivers/STM32H5xx_HAL_Driver/Src/stm32h5xx_hal_gpio.c ****         tmp = GPIOx->OTYPER;
  78              		.loc 1 234 9 is_stmt 1 view .LVU22
  79              		.loc 1 234 13 is_stmt 0 view .LVU23
  80 0016 4668     		ldr	r6, [r0, #4]
  81              	.LVL6:
 235:Drivers/STM32H5xx_HAL_Driver/Src/stm32h5xx_hal_gpio.c ****         tmp &= ~(GPIO_OTYPER_OT0 << position) ;
  82              		.loc 1 235 9 is_stmt 1 view .LVU24
  83              		.loc 1 235 13 is_stmt 0 view .LVU25
  84 0018 26EA0C06 		bic	r6, r6, ip
  85              	.LVL7:
 236:Drivers/STM32H5xx_HAL_Driver/Src/stm32h5xx_hal_gpio.c ****         tmp |= (((pGPIO_Init->Mode & GPIO_OUTPUT_TYPE) >> 4U) << position);
  86              		.loc 1 236 9 is_stmt 1 view .LVU26
  87              		.loc 1 236 56 is_stmt 0 view .LVU27
  88 001c 4F68     		ldr	r7, [r1, #4]
  89 001e C7F3001C 		ubfx	ip, r7, #4, #1
  90              		.loc 1 236 63 view .LVU28
  91 0022 0CFA02FC 		lsl	ip, ip, r2
  92              		.loc 1 236 13 view .LVU29
  93 0026 4CEA0606 		orr	r6, ip, r6
  94              	.LVL8:
 237:Drivers/STM32H5xx_HAL_Driver/Src/stm32h5xx_hal_gpio.c ****         GPIOx->OTYPER = tmp;
  95              		.loc 1 237 9 is_stmt 1 view .LVU30
  96              		.loc 1 237 23 is_stmt 0 view .LVU31
  97 002a 4660     		str	r6, [r0, #4]
  98              	.LVL9:
  99              	.L7:
 238:Drivers/STM32H5xx_HAL_Driver/Src/stm32h5xx_hal_gpio.c ****       }
 239:Drivers/STM32H5xx_HAL_Driver/Src/stm32h5xx_hal_gpio.c **** 
 240:Drivers/STM32H5xx_HAL_Driver/Src/stm32h5xx_hal_gpio.c ****       if (((pGPIO_Init->Mode & GPIO_MODE) != GPIO_MODE_ANALOG) ||
 100              		.loc 1 240 7 is_stmt 1 view .LVU32
 101              		.loc 1 240 30 is_stmt 0 view .LVU33
 102 002c 4E68     		ldr	r6, [r1, #4]
ARM GAS  C:\Users\Xuleo\AppData\Local\Temp\cciO7v5X.s 			page 7


 103 002e 06F0030C 		and	ip, r6, #3
 104              		.loc 1 240 10 view .LVU34
 105 0032 BCF1030F 		cmp	ip, #3
 106 0036 00F09980 		beq	.L16
 107              	.L8:
 241:Drivers/STM32H5xx_HAL_Driver/Src/stm32h5xx_hal_gpio.c ****           (((pGPIO_Init->Mode & GPIO_MODE) == GPIO_MODE_ANALOG) && (pGPIO_Init->Pull != GPIO_PULLUP
 242:Drivers/STM32H5xx_HAL_Driver/Src/stm32h5xx_hal_gpio.c ****       {
 243:Drivers/STM32H5xx_HAL_Driver/Src/stm32h5xx_hal_gpio.c ****         /* Check the Pull parameters */
 244:Drivers/STM32H5xx_HAL_Driver/Src/stm32h5xx_hal_gpio.c ****         assert_param(IS_GPIO_PULL(pGPIO_Init->Pull));
 108              		.loc 1 244 9 is_stmt 1 view .LVU35
 245:Drivers/STM32H5xx_HAL_Driver/Src/stm32h5xx_hal_gpio.c **** 
 246:Drivers/STM32H5xx_HAL_Driver/Src/stm32h5xx_hal_gpio.c ****         /* Activate the Pull-up or Pull down resistor for the current IO */
 247:Drivers/STM32H5xx_HAL_Driver/Src/stm32h5xx_hal_gpio.c ****         tmp = GPIOx->PUPDR;
 109              		.loc 1 247 9 view .LVU36
 110              		.loc 1 247 13 is_stmt 0 view .LVU37
 111 003a C668     		ldr	r6, [r0, #12]
 112              	.LVL10:
 248:Drivers/STM32H5xx_HAL_Driver/Src/stm32h5xx_hal_gpio.c ****         tmp &= ~(GPIO_PUPDR_PUPD0 << (position * GPIO_PUPDR_PUPD1_Pos));
 113              		.loc 1 248 9 is_stmt 1 view .LVU38
 114              		.loc 1 248 13 is_stmt 0 view .LVU39
 115 003c 3540     		ands	r5, r5, r6
 116              	.LVL11:
 249:Drivers/STM32H5xx_HAL_Driver/Src/stm32h5xx_hal_gpio.c ****         tmp |= ((pGPIO_Init->Pull) << (position * GPIO_PUPDR_PUPD1_Pos));
 117              		.loc 1 249 9 is_stmt 1 view .LVU40
 118              		.loc 1 249 36 is_stmt 0 view .LVU41
 119 003e 8E68     		ldr	r6, [r1, #8]
 120 0040 06FA04F4 		lsl	r4, r6, r4
 121              		.loc 1 249 13 view .LVU42
 122 0044 2543     		orrs	r5, r5, r4
 123              	.LVL12:
 250:Drivers/STM32H5xx_HAL_Driver/Src/stm32h5xx_hal_gpio.c ****         GPIOx->PUPDR = tmp;
 124              		.loc 1 250 9 is_stmt 1 view .LVU43
 125              		.loc 1 250 22 is_stmt 0 view .LVU44
 126 0046 C560     		str	r5, [r0, #12]
 127              	.LVL13:
 128              	.L9:
 251:Drivers/STM32H5xx_HAL_Driver/Src/stm32h5xx_hal_gpio.c ****       }
 252:Drivers/STM32H5xx_HAL_Driver/Src/stm32h5xx_hal_gpio.c **** 
 253:Drivers/STM32H5xx_HAL_Driver/Src/stm32h5xx_hal_gpio.c ****       /*--------------------- EXTI Mode Configuration ------------------------*/
 254:Drivers/STM32H5xx_HAL_Driver/Src/stm32h5xx_hal_gpio.c ****       /* Configure the External Interrupt or event for the current IO */
 255:Drivers/STM32H5xx_HAL_Driver/Src/stm32h5xx_hal_gpio.c ****       if ((pGPIO_Init->Mode & EXTI_MODE) == EXTI_MODE)
 129              		.loc 1 255 7 is_stmt 1 view .LVU45
 130              		.loc 1 255 22 is_stmt 0 view .LVU46
 131 0048 4C68     		ldr	r4, [r1, #4]
 132              		.loc 1 255 10 view .LVU47
 133 004a 14F0805F 		tst	r4, #268435456
 134 004e 47D0     		beq	.L3
 256:Drivers/STM32H5xx_HAL_Driver/Src/stm32h5xx_hal_gpio.c ****       {
 257:Drivers/STM32H5xx_HAL_Driver/Src/stm32h5xx_hal_gpio.c ****         tmp = EXTI->EXTICR[position >> 2U];
 135              		.loc 1 257 9 is_stmt 1 view .LVU48
 136              		.loc 1 257 37 is_stmt 0 view .LVU49
 137 0050 9508     		lsrs	r5, r2, #2
 138              		.loc 1 257 13 view .LVU50
 139 0052 DFF828C1 		ldr	ip, .L18+4
 140 0056 1835     		adds	r5, r5, #24
 141 0058 5CF82540 		ldr	r4, [ip, r5, lsl #2]
 142              	.LVL14:
ARM GAS  C:\Users\Xuleo\AppData\Local\Temp\cciO7v5X.s 			page 8


 258:Drivers/STM32H5xx_HAL_Driver/Src/stm32h5xx_hal_gpio.c ****         tmp &= ~((0x0FUL) << ((position & 0x03U) * EXTI_EXTICR1_EXTI1_Pos));
 143              		.loc 1 258 9 is_stmt 1 view .LVU51
 144              		.loc 1 258 41 is_stmt 0 view .LVU52
 145 005c 02F00306 		and	r6, r2, #3
 146              		.loc 1 258 50 view .LVU53
 147 0060 F600     		lsls	r6, r6, #3
 148              		.loc 1 258 27 view .LVU54
 149 0062 4FF00F0E 		mov	lr, #15
 150 0066 0EFA06FE 		lsl	lr, lr, r6
 151              		.loc 1 258 13 view .LVU55
 152 006a 24EA0E0E 		bic	lr, r4, lr
 153              	.LVL15:
 259:Drivers/STM32H5xx_HAL_Driver/Src/stm32h5xx_hal_gpio.c ****         tmp |= (GPIO_GET_INDEX(GPIOx) << ((position & 0x03U) * EXTI_EXTICR1_EXTI1_Pos));
 154              		.loc 1 259 9 is_stmt 1 view .LVU56
 155              		.loc 1 259 17 is_stmt 0 view .LVU57
 156 006e 424C     		ldr	r4, .L18
 157 0070 04EA9024 		and	r4, r4, r0, lsr #10
 158              		.loc 1 259 39 view .LVU58
 159 0074 B440     		lsls	r4, r4, r6
 160              		.loc 1 259 13 view .LVU59
 161 0076 44EA0E04 		orr	r4, r4, lr
 162              	.LVL16:
 260:Drivers/STM32H5xx_HAL_Driver/Src/stm32h5xx_hal_gpio.c ****         EXTI->EXTICR[position >> 2U] = tmp;
 163              		.loc 1 260 9 is_stmt 1 view .LVU60
 164              		.loc 1 260 38 is_stmt 0 view .LVU61
 165 007a 4CF82540 		str	r4, [ip, r5, lsl #2]
 261:Drivers/STM32H5xx_HAL_Driver/Src/stm32h5xx_hal_gpio.c **** 
 262:Drivers/STM32H5xx_HAL_Driver/Src/stm32h5xx_hal_gpio.c ****         /* Clear Rising Falling edge configuration */
 263:Drivers/STM32H5xx_HAL_Driver/Src/stm32h5xx_hal_gpio.c ****         tmp = EXTI->RTSR1;
 166              		.loc 1 263 9 is_stmt 1 view .LVU62
 167              		.loc 1 263 13 is_stmt 0 view .LVU63
 168 007e DCF80050 		ldr	r5, [ip]
 169              	.LVL17:
 264:Drivers/STM32H5xx_HAL_Driver/Src/stm32h5xx_hal_gpio.c ****         tmp &= ~((uint32_t)iocurrent);
 170              		.loc 1 264 9 is_stmt 1 view .LVU64
 171              		.loc 1 264 16 is_stmt 0 view .LVU65
 172 0082 DC43     		mvns	r4, r3
 173              		.loc 1 264 13 view .LVU66
 174 0084 25EA0306 		bic	r6, r5, r3
 175              	.LVL18:
 265:Drivers/STM32H5xx_HAL_Driver/Src/stm32h5xx_hal_gpio.c ****         if ((pGPIO_Init->Mode & RISING_EDGE) == RISING_EDGE)
 176              		.loc 1 265 9 is_stmt 1 view .LVU67
 177              		.loc 1 265 12 is_stmt 0 view .LVU68
 178 0088 4F68     		ldr	r7, [r1, #4]
 179 008a 17F4801F 		tst	r7, #1048576
 180 008e 01D0     		beq	.L10
 266:Drivers/STM32H5xx_HAL_Driver/Src/stm32h5xx_hal_gpio.c ****         {
 267:Drivers/STM32H5xx_HAL_Driver/Src/stm32h5xx_hal_gpio.c ****           tmp |= iocurrent;
 181              		.loc 1 267 11 is_stmt 1 view .LVU69
 182              		.loc 1 267 15 is_stmt 0 view .LVU70
 183 0090 43EA0506 		orr	r6, r3, r5
 184              	.LVL19:
 185              	.L10:
 268:Drivers/STM32H5xx_HAL_Driver/Src/stm32h5xx_hal_gpio.c ****         }
 269:Drivers/STM32H5xx_HAL_Driver/Src/stm32h5xx_hal_gpio.c ****         EXTI->RTSR1 = tmp;
 186              		.loc 1 269 9 is_stmt 1 view .LVU71
 187              		.loc 1 269 21 is_stmt 0 view .LVU72
ARM GAS  C:\Users\Xuleo\AppData\Local\Temp\cciO7v5X.s 			page 9


 188 0094 394D     		ldr	r5, .L18+4
 189 0096 2E60     		str	r6, [r5]
 270:Drivers/STM32H5xx_HAL_Driver/Src/stm32h5xx_hal_gpio.c **** 
 271:Drivers/STM32H5xx_HAL_Driver/Src/stm32h5xx_hal_gpio.c ****         tmp = EXTI->FTSR1;
 190              		.loc 1 271 9 is_stmt 1 view .LVU73
 191              		.loc 1 271 13 is_stmt 0 view .LVU74
 192 0098 6D68     		ldr	r5, [r5, #4]
 193              	.LVL20:
 272:Drivers/STM32H5xx_HAL_Driver/Src/stm32h5xx_hal_gpio.c ****         tmp &= ~((uint32_t)iocurrent);
 194              		.loc 1 272 9 is_stmt 1 view .LVU75
 195              		.loc 1 272 13 is_stmt 0 view .LVU76
 196 009a 04EA0506 		and	r6, r4, r5
 197              	.LVL21:
 273:Drivers/STM32H5xx_HAL_Driver/Src/stm32h5xx_hal_gpio.c ****         if ((pGPIO_Init->Mode & FALLING_EDGE) == FALLING_EDGE)
 198              		.loc 1 273 9 is_stmt 1 view .LVU77
 199              		.loc 1 273 12 is_stmt 0 view .LVU78
 200 009e 4F68     		ldr	r7, [r1, #4]
 201 00a0 17F4001F 		tst	r7, #2097152
 202 00a4 01D0     		beq	.L11
 274:Drivers/STM32H5xx_HAL_Driver/Src/stm32h5xx_hal_gpio.c ****         {
 275:Drivers/STM32H5xx_HAL_Driver/Src/stm32h5xx_hal_gpio.c ****           tmp |= iocurrent;
 203              		.loc 1 275 11 is_stmt 1 view .LVU79
 204              		.loc 1 275 15 is_stmt 0 view .LVU80
 205 00a6 43EA0506 		orr	r6, r3, r5
 206              	.LVL22:
 207              	.L11:
 276:Drivers/STM32H5xx_HAL_Driver/Src/stm32h5xx_hal_gpio.c ****         }
 277:Drivers/STM32H5xx_HAL_Driver/Src/stm32h5xx_hal_gpio.c ****         EXTI->FTSR1 = tmp;
 208              		.loc 1 277 9 is_stmt 1 view .LVU81
 209              		.loc 1 277 21 is_stmt 0 view .LVU82
 210 00aa 344D     		ldr	r5, .L18+4
 211 00ac 6E60     		str	r6, [r5, #4]
 278:Drivers/STM32H5xx_HAL_Driver/Src/stm32h5xx_hal_gpio.c **** 
 279:Drivers/STM32H5xx_HAL_Driver/Src/stm32h5xx_hal_gpio.c ****         /* Clear EXTI line configuration */
 280:Drivers/STM32H5xx_HAL_Driver/Src/stm32h5xx_hal_gpio.c ****         tmp = EXTI->EMR1;
 212              		.loc 1 280 9 is_stmt 1 view .LVU83
 213              		.loc 1 280 13 is_stmt 0 view .LVU84
 214 00ae D5F88450 		ldr	r5, [r5, #132]
 215              	.LVL23:
 281:Drivers/STM32H5xx_HAL_Driver/Src/stm32h5xx_hal_gpio.c ****         tmp &= ~((uint32_t)iocurrent);
 216              		.loc 1 281 9 is_stmt 1 view .LVU85
 217              		.loc 1 281 13 is_stmt 0 view .LVU86
 218 00b2 04EA0506 		and	r6, r4, r5
 219              	.LVL24:
 282:Drivers/STM32H5xx_HAL_Driver/Src/stm32h5xx_hal_gpio.c ****         if ((pGPIO_Init->Mode & GPIO_MODE_EVT) == GPIO_MODE_EVT)
 220              		.loc 1 282 9 is_stmt 1 view .LVU87
 221              		.loc 1 282 12 is_stmt 0 view .LVU88
 222 00b6 4F68     		ldr	r7, [r1, #4]
 223 00b8 17F4003F 		tst	r7, #131072
 224 00bc 01D0     		beq	.L12
 283:Drivers/STM32H5xx_HAL_Driver/Src/stm32h5xx_hal_gpio.c ****         {
 284:Drivers/STM32H5xx_HAL_Driver/Src/stm32h5xx_hal_gpio.c ****           tmp |= iocurrent;
 225              		.loc 1 284 11 is_stmt 1 view .LVU89
 226              		.loc 1 284 15 is_stmt 0 view .LVU90
 227 00be 43EA0506 		orr	r6, r3, r5
 228              	.LVL25:
 229              	.L12:
ARM GAS  C:\Users\Xuleo\AppData\Local\Temp\cciO7v5X.s 			page 10


 285:Drivers/STM32H5xx_HAL_Driver/Src/stm32h5xx_hal_gpio.c ****         }
 286:Drivers/STM32H5xx_HAL_Driver/Src/stm32h5xx_hal_gpio.c ****         EXTI->EMR1 = tmp;
 230              		.loc 1 286 9 is_stmt 1 view .LVU91
 231              		.loc 1 286 20 is_stmt 0 view .LVU92
 232 00c2 2E4D     		ldr	r5, .L18+4
 233 00c4 C5F88460 		str	r6, [r5, #132]
 287:Drivers/STM32H5xx_HAL_Driver/Src/stm32h5xx_hal_gpio.c **** 
 288:Drivers/STM32H5xx_HAL_Driver/Src/stm32h5xx_hal_gpio.c ****         tmp = EXTI->IMR1;
 234              		.loc 1 288 9 is_stmt 1 view .LVU93
 235              		.loc 1 288 13 is_stmt 0 view .LVU94
 236 00c8 D5F88050 		ldr	r5, [r5, #128]
 237              	.LVL26:
 289:Drivers/STM32H5xx_HAL_Driver/Src/stm32h5xx_hal_gpio.c ****         tmp &= ~((uint32_t)iocurrent);
 238              		.loc 1 289 9 is_stmt 1 view .LVU95
 239              		.loc 1 289 13 is_stmt 0 view .LVU96
 240 00cc 2C40     		ands	r4, r4, r5
 241              	.LVL27:
 290:Drivers/STM32H5xx_HAL_Driver/Src/stm32h5xx_hal_gpio.c ****         if ((pGPIO_Init->Mode & GPIO_MODE_IT) == GPIO_MODE_IT)
 242              		.loc 1 290 9 is_stmt 1 view .LVU97
 243              		.loc 1 290 24 is_stmt 0 view .LVU98
 244 00ce 4E68     		ldr	r6, [r1, #4]
 245              		.loc 1 290 12 view .LVU99
 246 00d0 16F4803F 		tst	r6, #65536
 247 00d4 01D0     		beq	.L13
 291:Drivers/STM32H5xx_HAL_Driver/Src/stm32h5xx_hal_gpio.c ****         {
 292:Drivers/STM32H5xx_HAL_Driver/Src/stm32h5xx_hal_gpio.c ****           tmp |= iocurrent;
 248              		.loc 1 292 11 is_stmt 1 view .LVU100
 249              		.loc 1 292 15 is_stmt 0 view .LVU101
 250 00d6 43EA0504 		orr	r4, r3, r5
 251              	.LVL28:
 252              	.L13:
 293:Drivers/STM32H5xx_HAL_Driver/Src/stm32h5xx_hal_gpio.c ****         }
 294:Drivers/STM32H5xx_HAL_Driver/Src/stm32h5xx_hal_gpio.c ****         EXTI->IMR1 = tmp;
 253              		.loc 1 294 9 is_stmt 1 view .LVU102
 254              		.loc 1 294 20 is_stmt 0 view .LVU103
 255 00da 284B     		ldr	r3, .L18+4
 256              	.LVL29:
 257              		.loc 1 294 20 view .LVU104
 258 00dc C3F88040 		str	r4, [r3, #128]
 259              	.LVL30:
 260              	.L3:
 295:Drivers/STM32H5xx_HAL_Driver/Src/stm32h5xx_hal_gpio.c ****       }
 296:Drivers/STM32H5xx_HAL_Driver/Src/stm32h5xx_hal_gpio.c ****     }
 297:Drivers/STM32H5xx_HAL_Driver/Src/stm32h5xx_hal_gpio.c **** 
 298:Drivers/STM32H5xx_HAL_Driver/Src/stm32h5xx_hal_gpio.c ****     position++;
 261              		.loc 1 298 5 is_stmt 1 view .LVU105
 262              		.loc 1 298 13 is_stmt 0 view .LVU106
 263 00e0 0132     		adds	r2, r2, #1
 264              	.LVL31:
 265              	.L2:
 192:Drivers/STM32H5xx_HAL_Driver/Src/stm32h5xx_hal_gpio.c ****   {
 266              		.loc 1 192 42 is_stmt 1 view .LVU107
 192:Drivers/STM32H5xx_HAL_Driver/Src/stm32h5xx_hal_gpio.c ****   {
 267              		.loc 1 192 22 is_stmt 0 view .LVU108
 268 00e2 0B68     		ldr	r3, [r1]
 192:Drivers/STM32H5xx_HAL_Driver/Src/stm32h5xx_hal_gpio.c ****   {
 269              		.loc 1 192 42 view .LVU109
ARM GAS  C:\Users\Xuleo\AppData\Local\Temp\cciO7v5X.s 			page 11


 270 00e4 33FA02F4 		lsrs	r4, r3, r2
 271 00e8 45D0     		beq	.L17
 195:Drivers/STM32H5xx_HAL_Driver/Src/stm32h5xx_hal_gpio.c **** 
 272              		.loc 1 195 5 is_stmt 1 view .LVU110
 195:Drivers/STM32H5xx_HAL_Driver/Src/stm32h5xx_hal_gpio.c **** 
 273              		.loc 1 195 42 is_stmt 0 view .LVU111
 274 00ea 4FF0010C 		mov	ip, #1
 275 00ee 0CFA02FC 		lsl	ip, ip, r2
 276              	.LVL32:
 197:Drivers/STM32H5xx_HAL_Driver/Src/stm32h5xx_hal_gpio.c ****     {
 277              		.loc 1 197 5 is_stmt 1 view .LVU112
 197:Drivers/STM32H5xx_HAL_Driver/Src/stm32h5xx_hal_gpio.c ****     {
 278              		.loc 1 197 8 is_stmt 0 view .LVU113
 279 00f2 1CEA0303 		ands	r3, ip, r3
 280              	.LVL33:
 197:Drivers/STM32H5xx_HAL_Driver/Src/stm32h5xx_hal_gpio.c ****     {
 281              		.loc 1 197 8 view .LVU114
 282 00f6 F3D0     		beq	.L3
 201:Drivers/STM32H5xx_HAL_Driver/Src/stm32h5xx_hal_gpio.c ****       {
 283              		.loc 1 201 7 is_stmt 1 view .LVU115
 201:Drivers/STM32H5xx_HAL_Driver/Src/stm32h5xx_hal_gpio.c ****       {
 284              		.loc 1 201 22 is_stmt 0 view .LVU116
 285 00f8 4C68     		ldr	r4, [r1, #4]
 201:Drivers/STM32H5xx_HAL_Driver/Src/stm32h5xx_hal_gpio.c ****       {
 286              		.loc 1 201 10 view .LVU117
 287 00fa 022C     		cmp	r4, #2
 288 00fc 01D0     		beq	.L4
 201:Drivers/STM32H5xx_HAL_Driver/Src/stm32h5xx_hal_gpio.c ****       {
 289              		.loc 1 201 49 discriminator 1 view .LVU118
 290 00fe 122C     		cmp	r4, #18
 291 0100 14D1     		bne	.L5
 292              	.L4:
 204:Drivers/STM32H5xx_HAL_Driver/Src/stm32h5xx_hal_gpio.c ****         assert_param(IS_GPIO_AF(pGPIO_Init->Alternate));
 293              		.loc 1 204 9 is_stmt 1 view .LVU119
 205:Drivers/STM32H5xx_HAL_Driver/Src/stm32h5xx_hal_gpio.c **** 
 294              		.loc 1 205 9 view .LVU120
 208:Drivers/STM32H5xx_HAL_Driver/Src/stm32h5xx_hal_gpio.c ****         tmp &= ~(0x0FUL << ((position & 0x07U) * GPIO_AFRL_AFSEL1_Pos));
 295              		.loc 1 208 9 view .LVU121
 208:Drivers/STM32H5xx_HAL_Driver/Src/stm32h5xx_hal_gpio.c ****         tmp &= ~(0x0FUL << ((position & 0x07U) * GPIO_AFRL_AFSEL1_Pos));
 296              		.loc 1 208 35 is_stmt 0 view .LVU122
 297 0102 D508     		lsrs	r5, r2, #3
 208:Drivers/STM32H5xx_HAL_Driver/Src/stm32h5xx_hal_gpio.c ****         tmp &= ~(0x0FUL << ((position & 0x07U) * GPIO_AFRL_AFSEL1_Pos));
 298              		.loc 1 208 13 view .LVU123
 299 0104 0835     		adds	r5, r5, #8
 300 0106 50F82540 		ldr	r4, [r0, r5, lsl #2]
 301              	.LVL34:
 209:Drivers/STM32H5xx_HAL_Driver/Src/stm32h5xx_hal_gpio.c ****         tmp |= ((pGPIO_Init->Alternate & 0x0FUL) << ((position & 0x07U) * GPIO_AFRL_AFSEL1_Pos));
 302              		.loc 1 209 9 is_stmt 1 view .LVU124
 209:Drivers/STM32H5xx_HAL_Driver/Src/stm32h5xx_hal_gpio.c ****         tmp |= ((pGPIO_Init->Alternate & 0x0FUL) << ((position & 0x07U) * GPIO_AFRL_AFSEL1_Pos));
 303              		.loc 1 209 39 is_stmt 0 view .LVU125
 304 010a 02F00706 		and	r6, r2, #7
 209:Drivers/STM32H5xx_HAL_Driver/Src/stm32h5xx_hal_gpio.c ****         tmp |= ((pGPIO_Init->Alternate & 0x0FUL) << ((position & 0x07U) * GPIO_AFRL_AFSEL1_Pos));
 305              		.loc 1 209 48 view .LVU126
 306 010e B600     		lsls	r6, r6, #2
 209:Drivers/STM32H5xx_HAL_Driver/Src/stm32h5xx_hal_gpio.c ****         tmp |= ((pGPIO_Init->Alternate & 0x0FUL) << ((position & 0x07U) * GPIO_AFRL_AFSEL1_Pos));
 307              		.loc 1 209 25 view .LVU127
 308 0110 4FF00F0E 		mov	lr, #15
ARM GAS  C:\Users\Xuleo\AppData\Local\Temp\cciO7v5X.s 			page 12


 309 0114 0EFA06FE 		lsl	lr, lr, r6
 209:Drivers/STM32H5xx_HAL_Driver/Src/stm32h5xx_hal_gpio.c ****         tmp |= ((pGPIO_Init->Alternate & 0x0FUL) << ((position & 0x07U) * GPIO_AFRL_AFSEL1_Pos));
 310              		.loc 1 209 13 view .LVU128
 311 0118 24EA0E0E 		bic	lr, r4, lr
 312              	.LVL35:
 210:Drivers/STM32H5xx_HAL_Driver/Src/stm32h5xx_hal_gpio.c ****         GPIOx->AFR[position >> 3U] = tmp;
 313              		.loc 1 210 9 is_stmt 1 view .LVU129
 210:Drivers/STM32H5xx_HAL_Driver/Src/stm32h5xx_hal_gpio.c ****         GPIOx->AFR[position >> 3U] = tmp;
 314              		.loc 1 210 28 is_stmt 0 view .LVU130
 315 011c 0C69     		ldr	r4, [r1, #16]
 210:Drivers/STM32H5xx_HAL_Driver/Src/stm32h5xx_hal_gpio.c ****         GPIOx->AFR[position >> 3U] = tmp;
 316              		.loc 1 210 40 view .LVU131
 317 011e 04F00F04 		and	r4, r4, #15
 210:Drivers/STM32H5xx_HAL_Driver/Src/stm32h5xx_hal_gpio.c ****         GPIOx->AFR[position >> 3U] = tmp;
 318              		.loc 1 210 50 view .LVU132
 319 0122 B440     		lsls	r4, r4, r6
 210:Drivers/STM32H5xx_HAL_Driver/Src/stm32h5xx_hal_gpio.c ****         GPIOx->AFR[position >> 3U] = tmp;
 320              		.loc 1 210 13 view .LVU133
 321 0124 44EA0E04 		orr	r4, r4, lr
 322              	.LVL36:
 211:Drivers/STM32H5xx_HAL_Driver/Src/stm32h5xx_hal_gpio.c ****       }
 323              		.loc 1 211 9 is_stmt 1 view .LVU134
 211:Drivers/STM32H5xx_HAL_Driver/Src/stm32h5xx_hal_gpio.c ****       }
 324              		.loc 1 211 36 is_stmt 0 view .LVU135
 325 0128 40F82540 		str	r4, [r0, r5, lsl #2]
 326              	.LVL37:
 327              	.L5:
 215:Drivers/STM32H5xx_HAL_Driver/Src/stm32h5xx_hal_gpio.c ****       tmp &= ~(GPIO_MODER_MODE0 << (position * GPIO_MODER_MODE1_Pos));
 328              		.loc 1 215 7 is_stmt 1 view .LVU136
 215:Drivers/STM32H5xx_HAL_Driver/Src/stm32h5xx_hal_gpio.c ****       tmp &= ~(GPIO_MODER_MODE0 << (position * GPIO_MODER_MODE1_Pos));
 329              		.loc 1 215 11 is_stmt 0 view .LVU137
 330 012c 0668     		ldr	r6, [r0]
 331              	.LVL38:
 216:Drivers/STM32H5xx_HAL_Driver/Src/stm32h5xx_hal_gpio.c ****       tmp |= ((pGPIO_Init->Mode & GPIO_MODE) << (position * GPIO_MODER_MODE1_Pos));
 332              		.loc 1 216 7 is_stmt 1 view .LVU138
 216:Drivers/STM32H5xx_HAL_Driver/Src/stm32h5xx_hal_gpio.c ****       tmp |= ((pGPIO_Init->Mode & GPIO_MODE) << (position * GPIO_MODER_MODE1_Pos));
 333              		.loc 1 216 46 is_stmt 0 view .LVU139
 334 012e 5400     		lsls	r4, r2, #1
 216:Drivers/STM32H5xx_HAL_Driver/Src/stm32h5xx_hal_gpio.c ****       tmp |= ((pGPIO_Init->Mode & GPIO_MODE) << (position * GPIO_MODER_MODE1_Pos));
 335              		.loc 1 216 33 view .LVU140
 336 0130 4FF0030E 		mov	lr, #3
 337 0134 0EFA04FE 		lsl	lr, lr, r4
 216:Drivers/STM32H5xx_HAL_Driver/Src/stm32h5xx_hal_gpio.c ****       tmp |= ((pGPIO_Init->Mode & GPIO_MODE) << (position * GPIO_MODER_MODE1_Pos));
 338              		.loc 1 216 14 view .LVU141
 339 0138 6FEA0E05 		mvn	r5, lr
 216:Drivers/STM32H5xx_HAL_Driver/Src/stm32h5xx_hal_gpio.c ****       tmp |= ((pGPIO_Init->Mode & GPIO_MODE) << (position * GPIO_MODER_MODE1_Pos));
 340              		.loc 1 216 11 view .LVU142
 341 013c 26EA0E06 		bic	r6, r6, lr
 342              	.LVL39:
 217:Drivers/STM32H5xx_HAL_Driver/Src/stm32h5xx_hal_gpio.c ****       GPIOx->MODER = tmp;
 343              		.loc 1 217 7 is_stmt 1 view .LVU143
 217:Drivers/STM32H5xx_HAL_Driver/Src/stm32h5xx_hal_gpio.c ****       GPIOx->MODER = tmp;
 344              		.loc 1 217 33 is_stmt 0 view .LVU144
 345 0140 4F68     		ldr	r7, [r1, #4]
 346 0142 07F0030E 		and	lr, r7, #3
 217:Drivers/STM32H5xx_HAL_Driver/Src/stm32h5xx_hal_gpio.c ****       GPIOx->MODER = tmp;
 347              		.loc 1 217 46 view .LVU145
ARM GAS  C:\Users\Xuleo\AppData\Local\Temp\cciO7v5X.s 			page 13


 348 0146 0EFA04FE 		lsl	lr, lr, r4
 217:Drivers/STM32H5xx_HAL_Driver/Src/stm32h5xx_hal_gpio.c ****       GPIOx->MODER = tmp;
 349              		.loc 1 217 11 view .LVU146
 350 014a 4EEA0606 		orr	r6, lr, r6
 351              	.LVL40:
 218:Drivers/STM32H5xx_HAL_Driver/Src/stm32h5xx_hal_gpio.c **** 
 352              		.loc 1 218 7 is_stmt 1 view .LVU147
 218:Drivers/STM32H5xx_HAL_Driver/Src/stm32h5xx_hal_gpio.c **** 
 353              		.loc 1 218 20 is_stmt 0 view .LVU148
 354 014e 0660     		str	r6, [r0]
 221:Drivers/STM32H5xx_HAL_Driver/Src/stm32h5xx_hal_gpio.c ****           (pGPIO_Init->Mode == GPIO_MODE_OUTPUT_OD) || (pGPIO_Init->Mode == GPIO_MODE_AF_OD))
 355              		.loc 1 221 7 is_stmt 1 view .LVU149
 221:Drivers/STM32H5xx_HAL_Driver/Src/stm32h5xx_hal_gpio.c ****           (pGPIO_Init->Mode == GPIO_MODE_OUTPUT_OD) || (pGPIO_Init->Mode == GPIO_MODE_AF_OD))
 356              		.loc 1 221 22 is_stmt 0 view .LVU150
 357 0150 4E68     		ldr	r6, [r1, #4]
 358              	.LVL41:
 221:Drivers/STM32H5xx_HAL_Driver/Src/stm32h5xx_hal_gpio.c ****           (pGPIO_Init->Mode == GPIO_MODE_OUTPUT_OD) || (pGPIO_Init->Mode == GPIO_MODE_AF_OD))
 359              		.loc 1 221 53 view .LVU151
 360 0152 06F1FF3E 		add	lr, r6, #-1
 221:Drivers/STM32H5xx_HAL_Driver/Src/stm32h5xx_hal_gpio.c ****           (pGPIO_Init->Mode == GPIO_MODE_OUTPUT_OD) || (pGPIO_Init->Mode == GPIO_MODE_AF_OD))
 361              		.loc 1 221 10 view .LVU152
 362 0156 BEF1010F 		cmp	lr, #1
 363 015a 7FF654AF 		bls	.L6
 221:Drivers/STM32H5xx_HAL_Driver/Src/stm32h5xx_hal_gpio.c ****           (pGPIO_Init->Mode == GPIO_MODE_OUTPUT_OD) || (pGPIO_Init->Mode == GPIO_MODE_AF_OD))
 364              		.loc 1 221 94 discriminator 1 view .LVU153
 365 015e 112E     		cmp	r6, #17
 366 0160 3FF451AF 		beq	.L6
 222:Drivers/STM32H5xx_HAL_Driver/Src/stm32h5xx_hal_gpio.c ****       {
 367              		.loc 1 222 53 view .LVU154
 368 0164 122E     		cmp	r6, #18
 369 0166 7FF461AF 		bne	.L7
 370 016a 4CE7     		b	.L6
 371              	.LVL42:
 372              	.L16:
 241:Drivers/STM32H5xx_HAL_Driver/Src/stm32h5xx_hal_gpio.c ****       {
 373              		.loc 1 241 79 view .LVU155
 374 016c 8E68     		ldr	r6, [r1, #8]
 240:Drivers/STM32H5xx_HAL_Driver/Src/stm32h5xx_hal_gpio.c ****           (((pGPIO_Init->Mode & GPIO_MODE) == GPIO_MODE_ANALOG) && (pGPIO_Init->Pull != GPIO_PULLUP
 375              		.loc 1 240 64 discriminator 1 view .LVU156
 376 016e 012E     		cmp	r6, #1
 377 0170 7FF463AF 		bne	.L8
 378 0174 68E7     		b	.L9
 379              	.LVL43:
 380              	.L17:
 299:Drivers/STM32H5xx_HAL_Driver/Src/stm32h5xx_hal_gpio.c ****   }
 300:Drivers/STM32H5xx_HAL_Driver/Src/stm32h5xx_hal_gpio.c **** }
 381              		.loc 1 300 1 view .LVU157
 382 0176 F0BD     		pop	{r4, r5, r6, r7, pc}
 383              	.L19:
 384              		.align	2
 385              	.L18:
 386 0178 7F7F2F00 		.word	3112831
 387 017c 00200244 		.word	1140989952
 388              		.cfi_endproc
 389              	.LFE157:
 391              		.section	.text.HAL_GPIO_DeInit,"ax",%progbits
 392              		.align	1
ARM GAS  C:\Users\Xuleo\AppData\Local\Temp\cciO7v5X.s 			page 14


 393              		.global	HAL_GPIO_DeInit
 394              		.syntax unified
 395              		.thumb
 396              		.thumb_func
 398              	HAL_GPIO_DeInit:
 399              	.LVL44:
 400              	.LFB158:
 301:Drivers/STM32H5xx_HAL_Driver/Src/stm32h5xx_hal_gpio.c **** 
 302:Drivers/STM32H5xx_HAL_Driver/Src/stm32h5xx_hal_gpio.c **** /**
 303:Drivers/STM32H5xx_HAL_Driver/Src/stm32h5xx_hal_gpio.c ****   * @brief  De-initialize the GPIOx peripheral registers to their default reset values.
 304:Drivers/STM32H5xx_HAL_Driver/Src/stm32h5xx_hal_gpio.c ****   * @param  GPIOx: where x can be (A..I) for stm32h56xxx and stm32h57xxx family lines and
 305:Drivers/STM32H5xx_HAL_Driver/Src/stm32h5xx_hal_gpio.c ****   *         (A..D or H) for stm32h503xx family line to select the GPIO peripheral for STM32H5 famil
 306:Drivers/STM32H5xx_HAL_Driver/Src/stm32h5xx_hal_gpio.c ****   * @param  GPIO_Pin: specifies the port bit to be written.
 307:Drivers/STM32H5xx_HAL_Driver/Src/stm32h5xx_hal_gpio.c ****   *         This parameter can be one of GPIO_PIN_x where x can be (0..15).
 308:Drivers/STM32H5xx_HAL_Driver/Src/stm32h5xx_hal_gpio.c ****   * @retval None
 309:Drivers/STM32H5xx_HAL_Driver/Src/stm32h5xx_hal_gpio.c ****   */
 310:Drivers/STM32H5xx_HAL_Driver/Src/stm32h5xx_hal_gpio.c **** void HAL_GPIO_DeInit(GPIO_TypeDef  *GPIOx, uint32_t GPIO_Pin)
 311:Drivers/STM32H5xx_HAL_Driver/Src/stm32h5xx_hal_gpio.c **** {
 401              		.loc 1 311 1 is_stmt 1 view -0
 402              		.cfi_startproc
 403              		@ args = 0, pretend = 0, frame = 0
 404              		@ frame_needed = 0, uses_anonymous_args = 0
 312:Drivers/STM32H5xx_HAL_Driver/Src/stm32h5xx_hal_gpio.c ****   uint32_t tmp;
 405              		.loc 1 312 3 view .LVU159
 313:Drivers/STM32H5xx_HAL_Driver/Src/stm32h5xx_hal_gpio.c ****   uint32_t iocurrent;
 406              		.loc 1 313 3 view .LVU160
 314:Drivers/STM32H5xx_HAL_Driver/Src/stm32h5xx_hal_gpio.c ****   uint32_t position = 0U;
 407              		.loc 1 314 3 view .LVU161
 315:Drivers/STM32H5xx_HAL_Driver/Src/stm32h5xx_hal_gpio.c **** 
 316:Drivers/STM32H5xx_HAL_Driver/Src/stm32h5xx_hal_gpio.c ****   /* Check the parameters */
 317:Drivers/STM32H5xx_HAL_Driver/Src/stm32h5xx_hal_gpio.c ****   assert_param(IS_GPIO_ALL_INSTANCE(GPIOx));
 408              		.loc 1 317 3 view .LVU162
 318:Drivers/STM32H5xx_HAL_Driver/Src/stm32h5xx_hal_gpio.c ****   assert_param(IS_GPIO_PIN(GPIO_Pin));
 409              		.loc 1 318 3 view .LVU163
 319:Drivers/STM32H5xx_HAL_Driver/Src/stm32h5xx_hal_gpio.c **** 
 320:Drivers/STM32H5xx_HAL_Driver/Src/stm32h5xx_hal_gpio.c ****   /* Configure the port pins */
 321:Drivers/STM32H5xx_HAL_Driver/Src/stm32h5xx_hal_gpio.c ****   while ((GPIO_Pin >> position) != 0U)
 410              		.loc 1 321 3 view .LVU164
 314:Drivers/STM32H5xx_HAL_Driver/Src/stm32h5xx_hal_gpio.c **** 
 411              		.loc 1 314 12 is_stmt 0 view .LVU165
 412 0000 0023     		movs	r3, #0
 413              	.LVL45:
 414              		.loc 1 321 33 is_stmt 1 view .LVU166
 415 0002 31FA03F2 		lsrs	r2, r1, r3
 416 0006 65D0     		beq	.L28
 311:Drivers/STM32H5xx_HAL_Driver/Src/stm32h5xx_hal_gpio.c ****   uint32_t tmp;
 417              		.loc 1 311 1 is_stmt 0 view .LVU167
 418 0008 F0B5     		push	{r4, r5, r6, r7, lr}
 419              	.LCFI1:
 420              		.cfi_def_cfa_offset 20
 421              		.cfi_offset 4, -20
 422              		.cfi_offset 5, -16
 423              		.cfi_offset 6, -12
 424              		.cfi_offset 7, -8
 425              		.cfi_offset 14, -4
 426 000a 27E0     		b	.L24
 427              	.LVL46:
ARM GAS  C:\Users\Xuleo\AppData\Local\Temp\cciO7v5X.s 			page 15


 428              	.L23:
 322:Drivers/STM32H5xx_HAL_Driver/Src/stm32h5xx_hal_gpio.c ****   {
 323:Drivers/STM32H5xx_HAL_Driver/Src/stm32h5xx_hal_gpio.c ****     /* Get current io position */
 324:Drivers/STM32H5xx_HAL_Driver/Src/stm32h5xx_hal_gpio.c ****     iocurrent = (GPIO_Pin) & (1UL << position);
 325:Drivers/STM32H5xx_HAL_Driver/Src/stm32h5xx_hal_gpio.c **** 
 326:Drivers/STM32H5xx_HAL_Driver/Src/stm32h5xx_hal_gpio.c ****     if (iocurrent != 0U)
 327:Drivers/STM32H5xx_HAL_Driver/Src/stm32h5xx_hal_gpio.c ****     {
 328:Drivers/STM32H5xx_HAL_Driver/Src/stm32h5xx_hal_gpio.c ****       /*------------------------- EXTI Mode Configuration --------------------*/
 329:Drivers/STM32H5xx_HAL_Driver/Src/stm32h5xx_hal_gpio.c ****       /* Clear the External Interrupt or Event for the current IO */
 330:Drivers/STM32H5xx_HAL_Driver/Src/stm32h5xx_hal_gpio.c ****       tmp = EXTI->EXTICR[position >> 2U];
 331:Drivers/STM32H5xx_HAL_Driver/Src/stm32h5xx_hal_gpio.c ****       tmp &= ((0x0FUL) << ((position & 0x03U) * EXTI_EXTICR1_EXTI1_Pos));
 332:Drivers/STM32H5xx_HAL_Driver/Src/stm32h5xx_hal_gpio.c ****       if (tmp == (GPIO_GET_INDEX(GPIOx) << ((position & 0x03U) * EXTI_EXTICR1_EXTI1_Pos)))
 333:Drivers/STM32H5xx_HAL_Driver/Src/stm32h5xx_hal_gpio.c ****       {
 334:Drivers/STM32H5xx_HAL_Driver/Src/stm32h5xx_hal_gpio.c ****         /* Clear EXTI line configuration */
 335:Drivers/STM32H5xx_HAL_Driver/Src/stm32h5xx_hal_gpio.c ****         EXTI->IMR1 &= ~(iocurrent);
 336:Drivers/STM32H5xx_HAL_Driver/Src/stm32h5xx_hal_gpio.c ****         EXTI->EMR1 &= ~(iocurrent);
 337:Drivers/STM32H5xx_HAL_Driver/Src/stm32h5xx_hal_gpio.c **** 
 338:Drivers/STM32H5xx_HAL_Driver/Src/stm32h5xx_hal_gpio.c ****         /* Clear Rising Falling edge configuration */
 339:Drivers/STM32H5xx_HAL_Driver/Src/stm32h5xx_hal_gpio.c ****         EXTI->RTSR1 &= ~(iocurrent);
 340:Drivers/STM32H5xx_HAL_Driver/Src/stm32h5xx_hal_gpio.c ****         EXTI->FTSR1 &= ~(iocurrent);
 341:Drivers/STM32H5xx_HAL_Driver/Src/stm32h5xx_hal_gpio.c **** 
 342:Drivers/STM32H5xx_HAL_Driver/Src/stm32h5xx_hal_gpio.c ****         tmp = (0x0FUL) << ((position & 0x03U) * EXTI_EXTICR1_EXTI1_Pos);
 343:Drivers/STM32H5xx_HAL_Driver/Src/stm32h5xx_hal_gpio.c ****         EXTI->EXTICR[position >> 2U] &= ~tmp;
 344:Drivers/STM32H5xx_HAL_Driver/Src/stm32h5xx_hal_gpio.c ****       }
 345:Drivers/STM32H5xx_HAL_Driver/Src/stm32h5xx_hal_gpio.c **** 
 346:Drivers/STM32H5xx_HAL_Driver/Src/stm32h5xx_hal_gpio.c ****       /*------------------------- GPIO Mode Configuration --------------------*/
 347:Drivers/STM32H5xx_HAL_Driver/Src/stm32h5xx_hal_gpio.c ****       /* Configure IO in Analog Mode */
 348:Drivers/STM32H5xx_HAL_Driver/Src/stm32h5xx_hal_gpio.c ****       GPIOx->MODER |= (GPIO_MODER_MODE0 << (position * GPIO_MODER_MODE1_Pos));
 429              		.loc 1 348 7 is_stmt 1 view .LVU168
 430              		.loc 1 348 12 is_stmt 0 view .LVU169
 431 000c 0468     		ldr	r4, [r0]
 432              		.loc 1 348 54 view .LVU170
 433 000e 5D00     		lsls	r5, r3, #1
 434              		.loc 1 348 41 view .LVU171
 435 0010 4FF0030C 		mov	ip, #3
 436 0014 0CFA05FC 		lsl	ip, ip, r5
 437              		.loc 1 348 20 view .LVU172
 438 0018 44EA0C04 		orr	r4, r4, ip
 439 001c 0460     		str	r4, [r0]
 349:Drivers/STM32H5xx_HAL_Driver/Src/stm32h5xx_hal_gpio.c **** 
 350:Drivers/STM32H5xx_HAL_Driver/Src/stm32h5xx_hal_gpio.c ****       /* Configure the default Alternate Function in current IO */
 351:Drivers/STM32H5xx_HAL_Driver/Src/stm32h5xx_hal_gpio.c ****       GPIOx->AFR[position >> 3U] &= ~(0x0FUL << ((position & 0x07U) * GPIO_AFRL_AFSEL1_Pos));
 440              		.loc 1 351 7 is_stmt 1 view .LVU173
 441              		.loc 1 351 17 is_stmt 0 view .LVU174
 442 001e 4FEAD30E 		lsr	lr, r3, #3
 443 0022 0EF1080E 		add	lr, lr, #8
 444 0026 50F82E40 		ldr	r4, [r0, lr, lsl #2]
 445              		.loc 1 351 60 view .LVU175
 446 002a 03F00706 		and	r6, r3, #7
 447              		.loc 1 351 69 view .LVU176
 448 002e B600     		lsls	r6, r6, #2
 449              		.loc 1 351 46 view .LVU177
 450 0030 0F25     		movs	r5, #15
 451 0032 B540     		lsls	r5, r5, r6
 452              		.loc 1 351 34 view .LVU178
 453 0034 24EA0504 		bic	r4, r4, r5
 454 0038 40F82E40 		str	r4, [r0, lr, lsl #2]
ARM GAS  C:\Users\Xuleo\AppData\Local\Temp\cciO7v5X.s 			page 16


 352:Drivers/STM32H5xx_HAL_Driver/Src/stm32h5xx_hal_gpio.c **** 
 353:Drivers/STM32H5xx_HAL_Driver/Src/stm32h5xx_hal_gpio.c ****       /* Configure the default value for IO Speed */
 354:Drivers/STM32H5xx_HAL_Driver/Src/stm32h5xx_hal_gpio.c ****       GPIOx->OSPEEDR &= ~(GPIO_OSPEEDR_OSPEED0 << (position * GPIO_OSPEEDR_OSPEED1_Pos));
 455              		.loc 1 354 7 is_stmt 1 view .LVU179
 456              		.loc 1 354 12 is_stmt 0 view .LVU180
 457 003c 8468     		ldr	r4, [r0, #8]
 458              		.loc 1 354 22 view .LVU181
 459 003e 24EA0C04 		bic	r4, r4, ip
 460 0042 8460     		str	r4, [r0, #8]
 355:Drivers/STM32H5xx_HAL_Driver/Src/stm32h5xx_hal_gpio.c **** 
 356:Drivers/STM32H5xx_HAL_Driver/Src/stm32h5xx_hal_gpio.c ****       /* Configure the default value IO Output Type */
 357:Drivers/STM32H5xx_HAL_Driver/Src/stm32h5xx_hal_gpio.c ****       GPIOx->OTYPER  &= ~(GPIO_OTYPER_OT0 << position);
 461              		.loc 1 357 7 is_stmt 1 view .LVU182
 462              		.loc 1 357 12 is_stmt 0 view .LVU183
 463 0044 4468     		ldr	r4, [r0, #4]
 464              		.loc 1 357 22 view .LVU184
 465 0046 24EA0202 		bic	r2, r4, r2
 466              	.LVL47:
 467              		.loc 1 357 22 view .LVU185
 468 004a 4260     		str	r2, [r0, #4]
 358:Drivers/STM32H5xx_HAL_Driver/Src/stm32h5xx_hal_gpio.c **** 
 359:Drivers/STM32H5xx_HAL_Driver/Src/stm32h5xx_hal_gpio.c ****       /* Deactivate the Pull-up and Pull-down resistor for the current IO */
 360:Drivers/STM32H5xx_HAL_Driver/Src/stm32h5xx_hal_gpio.c ****       GPIOx->PUPDR &= ~(GPIO_PUPDR_PUPD0 << (position * GPIO_PUPDR_PUPD1_Pos));
 469              		.loc 1 360 7 is_stmt 1 view .LVU186
 470              		.loc 1 360 12 is_stmt 0 view .LVU187
 471 004c C268     		ldr	r2, [r0, #12]
 472              		.loc 1 360 20 view .LVU188
 473 004e 22EA0C02 		bic	r2, r2, ip
 474 0052 C260     		str	r2, [r0, #12]
 475              	.L22:
 361:Drivers/STM32H5xx_HAL_Driver/Src/stm32h5xx_hal_gpio.c ****     }
 362:Drivers/STM32H5xx_HAL_Driver/Src/stm32h5xx_hal_gpio.c **** 
 363:Drivers/STM32H5xx_HAL_Driver/Src/stm32h5xx_hal_gpio.c ****     position++;
 476              		.loc 1 363 5 is_stmt 1 view .LVU189
 477              		.loc 1 363 13 is_stmt 0 view .LVU190
 478 0054 0133     		adds	r3, r3, #1
 479              	.LVL48:
 321:Drivers/STM32H5xx_HAL_Driver/Src/stm32h5xx_hal_gpio.c ****   {
 480              		.loc 1 321 33 is_stmt 1 view .LVU191
 481 0056 31FA03F2 		lsrs	r2, r1, r3
 482 005a 3AD0     		beq	.L29
 483              	.LVL49:
 484              	.L24:
 324:Drivers/STM32H5xx_HAL_Driver/Src/stm32h5xx_hal_gpio.c **** 
 485              		.loc 1 324 5 view .LVU192
 324:Drivers/STM32H5xx_HAL_Driver/Src/stm32h5xx_hal_gpio.c **** 
 486              		.loc 1 324 35 is_stmt 0 view .LVU193
 487 005c 0122     		movs	r2, #1
 488 005e 9A40     		lsls	r2, r2, r3
 489              	.LVL50:
 326:Drivers/STM32H5xx_HAL_Driver/Src/stm32h5xx_hal_gpio.c ****     {
 490              		.loc 1 326 5 is_stmt 1 view .LVU194
 326:Drivers/STM32H5xx_HAL_Driver/Src/stm32h5xx_hal_gpio.c ****     {
 491              		.loc 1 326 8 is_stmt 0 view .LVU195
 492 0060 12EA0107 		ands	r7, r2, r1
 493              	.LVL51:
 326:Drivers/STM32H5xx_HAL_Driver/Src/stm32h5xx_hal_gpio.c ****     {
ARM GAS  C:\Users\Xuleo\AppData\Local\Temp\cciO7v5X.s 			page 17


 494              		.loc 1 326 8 view .LVU196
 495 0064 F6D0     		beq	.L22
 330:Drivers/STM32H5xx_HAL_Driver/Src/stm32h5xx_hal_gpio.c ****       tmp &= ((0x0FUL) << ((position & 0x03U) * EXTI_EXTICR1_EXTI1_Pos));
 496              		.loc 1 330 7 is_stmt 1 view .LVU197
 330:Drivers/STM32H5xx_HAL_Driver/Src/stm32h5xx_hal_gpio.c ****       tmp &= ((0x0FUL) << ((position & 0x03U) * EXTI_EXTICR1_EXTI1_Pos));
 497              		.loc 1 330 35 is_stmt 0 view .LVU198
 498 0066 9E08     		lsrs	r6, r3, #2
 330:Drivers/STM32H5xx_HAL_Driver/Src/stm32h5xx_hal_gpio.c ****       tmp &= ((0x0FUL) << ((position & 0x03U) * EXTI_EXTICR1_EXTI1_Pos));
 499              		.loc 1 330 11 view .LVU199
 500 0068 06F11805 		add	r5, r6, #24
 501 006c 1A4C     		ldr	r4, .L30
 502 006e 54F82550 		ldr	r5, [r4, r5, lsl #2]
 503              	.LVL52:
 331:Drivers/STM32H5xx_HAL_Driver/Src/stm32h5xx_hal_gpio.c ****       if (tmp == (GPIO_GET_INDEX(GPIOx) << ((position & 0x03U) * EXTI_EXTICR1_EXTI1_Pos)))
 504              		.loc 1 331 7 is_stmt 1 view .LVU200
 331:Drivers/STM32H5xx_HAL_Driver/Src/stm32h5xx_hal_gpio.c ****       if (tmp == (GPIO_GET_INDEX(GPIOx) << ((position & 0x03U) * EXTI_EXTICR1_EXTI1_Pos)))
 505              		.loc 1 331 38 is_stmt 0 view .LVU201
 506 0072 03F0030E 		and	lr, r3, #3
 331:Drivers/STM32H5xx_HAL_Driver/Src/stm32h5xx_hal_gpio.c ****       if (tmp == (GPIO_GET_INDEX(GPIOx) << ((position & 0x03U) * EXTI_EXTICR1_EXTI1_Pos)))
 507              		.loc 1 331 47 view .LVU202
 508 0076 4FEACE0E 		lsl	lr, lr, #3
 331:Drivers/STM32H5xx_HAL_Driver/Src/stm32h5xx_hal_gpio.c ****       if (tmp == (GPIO_GET_INDEX(GPIOx) << ((position & 0x03U) * EXTI_EXTICR1_EXTI1_Pos)))
 509              		.loc 1 331 24 view .LVU203
 510 007a 0F24     		movs	r4, #15
 511 007c 04FA0EF4 		lsl	r4, r4, lr
 331:Drivers/STM32H5xx_HAL_Driver/Src/stm32h5xx_hal_gpio.c ****       if (tmp == (GPIO_GET_INDEX(GPIOx) << ((position & 0x03U) * EXTI_EXTICR1_EXTI1_Pos)))
 512              		.loc 1 331 11 view .LVU204
 513 0080 2540     		ands	r5, r5, r4
 514              	.LVL53:
 332:Drivers/STM32H5xx_HAL_Driver/Src/stm32h5xx_hal_gpio.c ****       {
 515              		.loc 1 332 7 is_stmt 1 view .LVU205
 332:Drivers/STM32H5xx_HAL_Driver/Src/stm32h5xx_hal_gpio.c ****       {
 516              		.loc 1 332 19 is_stmt 0 view .LVU206
 517 0082 DFF858C0 		ldr	ip, .L30+4
 518 0086 0CEA902C 		and	ip, ip, r0, lsr #10
 332:Drivers/STM32H5xx_HAL_Driver/Src/stm32h5xx_hal_gpio.c ****       {
 519              		.loc 1 332 41 view .LVU207
 520 008a 0CFA0EFC 		lsl	ip, ip, lr
 332:Drivers/STM32H5xx_HAL_Driver/Src/stm32h5xx_hal_gpio.c ****       {
 521              		.loc 1 332 10 view .LVU208
 522 008e AC45     		cmp	ip, r5
 523 0090 BCD1     		bne	.L23
 335:Drivers/STM32H5xx_HAL_Driver/Src/stm32h5xx_hal_gpio.c ****         EXTI->EMR1 &= ~(iocurrent);
 524              		.loc 1 335 9 is_stmt 1 view .LVU209
 335:Drivers/STM32H5xx_HAL_Driver/Src/stm32h5xx_hal_gpio.c ****         EXTI->EMR1 &= ~(iocurrent);
 525              		.loc 1 335 13 is_stmt 0 view .LVU210
 526 0092 114D     		ldr	r5, .L30
 527              	.LVL54:
 335:Drivers/STM32H5xx_HAL_Driver/Src/stm32h5xx_hal_gpio.c ****         EXTI->EMR1 &= ~(iocurrent);
 528              		.loc 1 335 13 view .LVU211
 529 0094 D5F880C0 		ldr	ip, [r5, #128]
 335:Drivers/STM32H5xx_HAL_Driver/Src/stm32h5xx_hal_gpio.c ****         EXTI->EMR1 &= ~(iocurrent);
 530              		.loc 1 335 20 view .LVU212
 531 0098 2CEA070C 		bic	ip, ip, r7
 532 009c C5F880C0 		str	ip, [r5, #128]
 336:Drivers/STM32H5xx_HAL_Driver/Src/stm32h5xx_hal_gpio.c **** 
 533              		.loc 1 336 9 is_stmt 1 view .LVU213
ARM GAS  C:\Users\Xuleo\AppData\Local\Temp\cciO7v5X.s 			page 18


 336:Drivers/STM32H5xx_HAL_Driver/Src/stm32h5xx_hal_gpio.c **** 
 534              		.loc 1 336 13 is_stmt 0 view .LVU214
 535 00a0 D5F884C0 		ldr	ip, [r5, #132]
 336:Drivers/STM32H5xx_HAL_Driver/Src/stm32h5xx_hal_gpio.c **** 
 536              		.loc 1 336 20 view .LVU215
 537 00a4 2CEA070C 		bic	ip, ip, r7
 538 00a8 C5F884C0 		str	ip, [r5, #132]
 339:Drivers/STM32H5xx_HAL_Driver/Src/stm32h5xx_hal_gpio.c ****         EXTI->FTSR1 &= ~(iocurrent);
 539              		.loc 1 339 9 is_stmt 1 view .LVU216
 339:Drivers/STM32H5xx_HAL_Driver/Src/stm32h5xx_hal_gpio.c ****         EXTI->FTSR1 &= ~(iocurrent);
 540              		.loc 1 339 13 is_stmt 0 view .LVU217
 541 00ac D5F800C0 		ldr	ip, [r5]
 339:Drivers/STM32H5xx_HAL_Driver/Src/stm32h5xx_hal_gpio.c ****         EXTI->FTSR1 &= ~(iocurrent);
 542              		.loc 1 339 21 view .LVU218
 543 00b0 2CEA070C 		bic	ip, ip, r7
 544 00b4 C5F800C0 		str	ip, [r5]
 340:Drivers/STM32H5xx_HAL_Driver/Src/stm32h5xx_hal_gpio.c **** 
 545              		.loc 1 340 9 is_stmt 1 view .LVU219
 340:Drivers/STM32H5xx_HAL_Driver/Src/stm32h5xx_hal_gpio.c **** 
 546              		.loc 1 340 13 is_stmt 0 view .LVU220
 547 00b8 D5F804C0 		ldr	ip, [r5, #4]
 340:Drivers/STM32H5xx_HAL_Driver/Src/stm32h5xx_hal_gpio.c **** 
 548              		.loc 1 340 21 view .LVU221
 549 00bc 2CEA0707 		bic	r7, ip, r7
 550              	.LVL55:
 340:Drivers/STM32H5xx_HAL_Driver/Src/stm32h5xx_hal_gpio.c **** 
 551              		.loc 1 340 21 view .LVU222
 552 00c0 6F60     		str	r7, [r5, #4]
 342:Drivers/STM32H5xx_HAL_Driver/Src/stm32h5xx_hal_gpio.c ****         EXTI->EXTICR[position >> 2U] &= ~tmp;
 553              		.loc 1 342 9 is_stmt 1 view .LVU223
 554              	.LVL56:
 343:Drivers/STM32H5xx_HAL_Driver/Src/stm32h5xx_hal_gpio.c ****       }
 555              		.loc 1 343 9 view .LVU224
 343:Drivers/STM32H5xx_HAL_Driver/Src/stm32h5xx_hal_gpio.c ****       }
 556              		.loc 1 343 21 is_stmt 0 view .LVU225
 557 00c2 1836     		adds	r6, r6, #24
 558 00c4 55F82670 		ldr	r7, [r5, r6, lsl #2]
 343:Drivers/STM32H5xx_HAL_Driver/Src/stm32h5xx_hal_gpio.c ****       }
 559              		.loc 1 343 38 view .LVU226
 560 00c8 27EA0404 		bic	r4, r7, r4
 561              	.LVL57:
 343:Drivers/STM32H5xx_HAL_Driver/Src/stm32h5xx_hal_gpio.c ****       }
 562              		.loc 1 343 38 view .LVU227
 563 00cc 45F82640 		str	r4, [r5, r6, lsl #2]
 564 00d0 9CE7     		b	.L23
 565              	.LVL58:
 566              	.L29:
 364:Drivers/STM32H5xx_HAL_Driver/Src/stm32h5xx_hal_gpio.c ****   }
 365:Drivers/STM32H5xx_HAL_Driver/Src/stm32h5xx_hal_gpio.c **** }
 567              		.loc 1 365 1 view .LVU228
 568 00d2 F0BD     		pop	{r4, r5, r6, r7, pc}
 569              	.LVL59:
 570              	.L28:
 571              	.LCFI2:
 572              		.cfi_def_cfa_offset 0
 573              		.cfi_restore 4
 574              		.cfi_restore 5
ARM GAS  C:\Users\Xuleo\AppData\Local\Temp\cciO7v5X.s 			page 19


 575              		.cfi_restore 6
 576              		.cfi_restore 7
 577              		.cfi_restore 14
 578              		.loc 1 365 1 view .LVU229
 579 00d4 7047     		bx	lr
 580              	.L31:
 581 00d6 00BF     		.align	2
 582              	.L30:
 583 00d8 00200244 		.word	1140989952
 584 00dc 7F7F2F00 		.word	3112831
 585              		.cfi_endproc
 586              	.LFE158:
 588              		.section	.text.HAL_GPIO_ReadPin,"ax",%progbits
 589              		.align	1
 590              		.global	HAL_GPIO_ReadPin
 591              		.syntax unified
 592              		.thumb
 593              		.thumb_func
 595              	HAL_GPIO_ReadPin:
 596              	.LVL60:
 597              	.LFB159:
 366:Drivers/STM32H5xx_HAL_Driver/Src/stm32h5xx_hal_gpio.c **** 
 367:Drivers/STM32H5xx_HAL_Driver/Src/stm32h5xx_hal_gpio.c **** /**
 368:Drivers/STM32H5xx_HAL_Driver/Src/stm32h5xx_hal_gpio.c ****   * @}
 369:Drivers/STM32H5xx_HAL_Driver/Src/stm32h5xx_hal_gpio.c ****   */
 370:Drivers/STM32H5xx_HAL_Driver/Src/stm32h5xx_hal_gpio.c **** 
 371:Drivers/STM32H5xx_HAL_Driver/Src/stm32h5xx_hal_gpio.c **** /** @defgroup GPIO_Exported_Functions_Group2 IO operation functions
 372:Drivers/STM32H5xx_HAL_Driver/Src/stm32h5xx_hal_gpio.c ****   *  @brief GPIO Read, Write, Toggle, Lock and EXTI management functions.
 373:Drivers/STM32H5xx_HAL_Driver/Src/stm32h5xx_hal_gpio.c ****   *
 374:Drivers/STM32H5xx_HAL_Driver/Src/stm32h5xx_hal_gpio.c **** @verbatim
 375:Drivers/STM32H5xx_HAL_Driver/Src/stm32h5xx_hal_gpio.c ****  ===============================================================================
 376:Drivers/STM32H5xx_HAL_Driver/Src/stm32h5xx_hal_gpio.c ****                        ##### IO operation functions #####
 377:Drivers/STM32H5xx_HAL_Driver/Src/stm32h5xx_hal_gpio.c ****  ===============================================================================
 378:Drivers/STM32H5xx_HAL_Driver/Src/stm32h5xx_hal_gpio.c **** 
 379:Drivers/STM32H5xx_HAL_Driver/Src/stm32h5xx_hal_gpio.c **** @endverbatim
 380:Drivers/STM32H5xx_HAL_Driver/Src/stm32h5xx_hal_gpio.c ****   * @{
 381:Drivers/STM32H5xx_HAL_Driver/Src/stm32h5xx_hal_gpio.c ****   */
 382:Drivers/STM32H5xx_HAL_Driver/Src/stm32h5xx_hal_gpio.c **** 
 383:Drivers/STM32H5xx_HAL_Driver/Src/stm32h5xx_hal_gpio.c **** /**
 384:Drivers/STM32H5xx_HAL_Driver/Src/stm32h5xx_hal_gpio.c ****   * @brief  Read the specified input port pin.
 385:Drivers/STM32H5xx_HAL_Driver/Src/stm32h5xx_hal_gpio.c ****   * @param  GPIOx: where x can be (A..I) for stm32h56xxx and stm32h57xxx family lines and
 386:Drivers/STM32H5xx_HAL_Driver/Src/stm32h5xx_hal_gpio.c ****   *         (A..D or H) for stm32h503xx family line to select the GPIO peripheral for STM32H5 famil
 387:Drivers/STM32H5xx_HAL_Driver/Src/stm32h5xx_hal_gpio.c ****   * @param  GPIO_Pin: specifies the port bit to read.
 388:Drivers/STM32H5xx_HAL_Driver/Src/stm32h5xx_hal_gpio.c ****   *         This parameter can be GPIO_PIN_x where x can be (0..15).
 389:Drivers/STM32H5xx_HAL_Driver/Src/stm32h5xx_hal_gpio.c ****   * @retval The input port pin value.
 390:Drivers/STM32H5xx_HAL_Driver/Src/stm32h5xx_hal_gpio.c ****   */
 391:Drivers/STM32H5xx_HAL_Driver/Src/stm32h5xx_hal_gpio.c **** GPIO_PinState HAL_GPIO_ReadPin(const GPIO_TypeDef *GPIOx, uint16_t GPIO_Pin)
 392:Drivers/STM32H5xx_HAL_Driver/Src/stm32h5xx_hal_gpio.c **** {
 598              		.loc 1 392 1 is_stmt 1 view -0
 599              		.cfi_startproc
 600              		@ args = 0, pretend = 0, frame = 0
 601              		@ frame_needed = 0, uses_anonymous_args = 0
 602              		@ link register save eliminated.
 393:Drivers/STM32H5xx_HAL_Driver/Src/stm32h5xx_hal_gpio.c ****   GPIO_PinState bitstatus;
 603              		.loc 1 393 3 view .LVU231
 394:Drivers/STM32H5xx_HAL_Driver/Src/stm32h5xx_hal_gpio.c **** 
 395:Drivers/STM32H5xx_HAL_Driver/Src/stm32h5xx_hal_gpio.c ****   /* Check the parameters */
ARM GAS  C:\Users\Xuleo\AppData\Local\Temp\cciO7v5X.s 			page 20


 396:Drivers/STM32H5xx_HAL_Driver/Src/stm32h5xx_hal_gpio.c ****   assert_param(IS_GPIO_PIN(GPIO_Pin));
 604              		.loc 1 396 3 view .LVU232
 397:Drivers/STM32H5xx_HAL_Driver/Src/stm32h5xx_hal_gpio.c **** 
 398:Drivers/STM32H5xx_HAL_Driver/Src/stm32h5xx_hal_gpio.c ****   if ((GPIOx->IDR & GPIO_Pin) != 0U)
 605              		.loc 1 398 3 view .LVU233
 606              		.loc 1 398 13 is_stmt 0 view .LVU234
 607 0000 0369     		ldr	r3, [r0, #16]
 608              		.loc 1 398 6 view .LVU235
 609 0002 1942     		tst	r1, r3
 610 0004 01D0     		beq	.L34
 399:Drivers/STM32H5xx_HAL_Driver/Src/stm32h5xx_hal_gpio.c ****   {
 400:Drivers/STM32H5xx_HAL_Driver/Src/stm32h5xx_hal_gpio.c ****     bitstatus = GPIO_PIN_SET;
 611              		.loc 1 400 15 view .LVU236
 612 0006 0120     		movs	r0, #1
 613              	.LVL61:
 614              		.loc 1 400 15 view .LVU237
 615 0008 7047     		bx	lr
 616              	.LVL62:
 617              	.L34:
 401:Drivers/STM32H5xx_HAL_Driver/Src/stm32h5xx_hal_gpio.c ****   }
 402:Drivers/STM32H5xx_HAL_Driver/Src/stm32h5xx_hal_gpio.c ****   else
 403:Drivers/STM32H5xx_HAL_Driver/Src/stm32h5xx_hal_gpio.c ****   {
 404:Drivers/STM32H5xx_HAL_Driver/Src/stm32h5xx_hal_gpio.c ****     bitstatus = GPIO_PIN_RESET;
 618              		.loc 1 404 15 view .LVU238
 619 000a 0020     		movs	r0, #0
 620              	.LVL63:
 405:Drivers/STM32H5xx_HAL_Driver/Src/stm32h5xx_hal_gpio.c ****   }
 406:Drivers/STM32H5xx_HAL_Driver/Src/stm32h5xx_hal_gpio.c ****   return bitstatus;
 621              		.loc 1 406 3 is_stmt 1 view .LVU239
 407:Drivers/STM32H5xx_HAL_Driver/Src/stm32h5xx_hal_gpio.c **** }
 622              		.loc 1 407 1 is_stmt 0 view .LVU240
 623 000c 7047     		bx	lr
 624              		.cfi_endproc
 625              	.LFE159:
 627              		.section	.text.HAL_GPIO_WritePin,"ax",%progbits
 628              		.align	1
 629              		.global	HAL_GPIO_WritePin
 630              		.syntax unified
 631              		.thumb
 632              		.thumb_func
 634              	HAL_GPIO_WritePin:
 635              	.LVL64:
 636              	.LFB160:
 408:Drivers/STM32H5xx_HAL_Driver/Src/stm32h5xx_hal_gpio.c **** 
 409:Drivers/STM32H5xx_HAL_Driver/Src/stm32h5xx_hal_gpio.c **** /**
 410:Drivers/STM32H5xx_HAL_Driver/Src/stm32h5xx_hal_gpio.c ****   * @brief  Set or clear the selected data port bit.
 411:Drivers/STM32H5xx_HAL_Driver/Src/stm32h5xx_hal_gpio.c ****   *
 412:Drivers/STM32H5xx_HAL_Driver/Src/stm32h5xx_hal_gpio.c ****   * @note   This function uses GPIOx_BSRR and GPIOx_BRR registers to allow atomic read/modify
 413:Drivers/STM32H5xx_HAL_Driver/Src/stm32h5xx_hal_gpio.c ****   *         accesses. In this way, there is no risk of an IRQ occurring between
 414:Drivers/STM32H5xx_HAL_Driver/Src/stm32h5xx_hal_gpio.c ****   *         the read and the modify access.
 415:Drivers/STM32H5xx_HAL_Driver/Src/stm32h5xx_hal_gpio.c ****   *
 416:Drivers/STM32H5xx_HAL_Driver/Src/stm32h5xx_hal_gpio.c ****   * @param  GPIOx: where x can be (A..I) for stm32h56xxx and stm32h57xxx family lines and
 417:Drivers/STM32H5xx_HAL_Driver/Src/stm32h5xx_hal_gpio.c ****   *         (A..D or H) for stm32h503xx family line to select the GPIO peripheral for STM32H5 famil
 418:Drivers/STM32H5xx_HAL_Driver/Src/stm32h5xx_hal_gpio.c ****   * @param  GPIO_Pin: specifies the port bit to be written.
 419:Drivers/STM32H5xx_HAL_Driver/Src/stm32h5xx_hal_gpio.c ****   *         This parameter can be one of GPIO_PIN_x where x can be (0..15).
 420:Drivers/STM32H5xx_HAL_Driver/Src/stm32h5xx_hal_gpio.c ****   * @param  PinState: specifies the value to be written to the selected bit.
 421:Drivers/STM32H5xx_HAL_Driver/Src/stm32h5xx_hal_gpio.c ****   *         This parameter can be one of the GPIO_PinState enum values:
ARM GAS  C:\Users\Xuleo\AppData\Local\Temp\cciO7v5X.s 			page 21


 422:Drivers/STM32H5xx_HAL_Driver/Src/stm32h5xx_hal_gpio.c ****   *            @arg GPIO_PIN_RESET: to clear the port pin
 423:Drivers/STM32H5xx_HAL_Driver/Src/stm32h5xx_hal_gpio.c ****   *            @arg GPIO_PIN_SET: to set the port pin
 424:Drivers/STM32H5xx_HAL_Driver/Src/stm32h5xx_hal_gpio.c ****   * @retval None
 425:Drivers/STM32H5xx_HAL_Driver/Src/stm32h5xx_hal_gpio.c ****   */
 426:Drivers/STM32H5xx_HAL_Driver/Src/stm32h5xx_hal_gpio.c **** void HAL_GPIO_WritePin(GPIO_TypeDef *GPIOx, uint16_t GPIO_Pin, GPIO_PinState PinState)
 427:Drivers/STM32H5xx_HAL_Driver/Src/stm32h5xx_hal_gpio.c **** {
 637              		.loc 1 427 1 is_stmt 1 view -0
 638              		.cfi_startproc
 639              		@ args = 0, pretend = 0, frame = 0
 640              		@ frame_needed = 0, uses_anonymous_args = 0
 641              		@ link register save eliminated.
 428:Drivers/STM32H5xx_HAL_Driver/Src/stm32h5xx_hal_gpio.c ****   /* Check the parameters */
 429:Drivers/STM32H5xx_HAL_Driver/Src/stm32h5xx_hal_gpio.c ****   assert_param(IS_GPIO_PIN(GPIO_Pin));
 642              		.loc 1 429 3 view .LVU242
 430:Drivers/STM32H5xx_HAL_Driver/Src/stm32h5xx_hal_gpio.c ****   assert_param(IS_GPIO_PIN_ACTION(PinState));
 643              		.loc 1 430 3 view .LVU243
 431:Drivers/STM32H5xx_HAL_Driver/Src/stm32h5xx_hal_gpio.c **** 
 432:Drivers/STM32H5xx_HAL_Driver/Src/stm32h5xx_hal_gpio.c ****   if (PinState != GPIO_PIN_RESET)
 644              		.loc 1 432 3 view .LVU244
 645              		.loc 1 432 6 is_stmt 0 view .LVU245
 646 0000 0AB1     		cbz	r2, .L36
 433:Drivers/STM32H5xx_HAL_Driver/Src/stm32h5xx_hal_gpio.c ****   {
 434:Drivers/STM32H5xx_HAL_Driver/Src/stm32h5xx_hal_gpio.c ****     GPIOx->BSRR = (uint32_t)GPIO_Pin;
 647              		.loc 1 434 5 is_stmt 1 view .LVU246
 648              		.loc 1 434 17 is_stmt 0 view .LVU247
 649 0002 8161     		str	r1, [r0, #24]
 650 0004 7047     		bx	lr
 651              	.L36:
 435:Drivers/STM32H5xx_HAL_Driver/Src/stm32h5xx_hal_gpio.c ****   }
 436:Drivers/STM32H5xx_HAL_Driver/Src/stm32h5xx_hal_gpio.c ****   else
 437:Drivers/STM32H5xx_HAL_Driver/Src/stm32h5xx_hal_gpio.c ****   {
 438:Drivers/STM32H5xx_HAL_Driver/Src/stm32h5xx_hal_gpio.c ****     GPIOx->BRR = (uint32_t)GPIO_Pin;
 652              		.loc 1 438 5 is_stmt 1 view .LVU248
 653              		.loc 1 438 16 is_stmt 0 view .LVU249
 654 0006 8162     		str	r1, [r0, #40]
 439:Drivers/STM32H5xx_HAL_Driver/Src/stm32h5xx_hal_gpio.c ****   }
 440:Drivers/STM32H5xx_HAL_Driver/Src/stm32h5xx_hal_gpio.c **** }
 655              		.loc 1 440 1 view .LVU250
 656 0008 7047     		bx	lr
 657              		.cfi_endproc
 658              	.LFE160:
 660              		.section	.text.HAL_GPIO_WriteMultipleStatePin,"ax",%progbits
 661              		.align	1
 662              		.global	HAL_GPIO_WriteMultipleStatePin
 663              		.syntax unified
 664              		.thumb
 665              		.thumb_func
 667              	HAL_GPIO_WriteMultipleStatePin:
 668              	.LVL65:
 669              	.LFB161:
 441:Drivers/STM32H5xx_HAL_Driver/Src/stm32h5xx_hal_gpio.c **** 
 442:Drivers/STM32H5xx_HAL_Driver/Src/stm32h5xx_hal_gpio.c **** /**
 443:Drivers/STM32H5xx_HAL_Driver/Src/stm32h5xx_hal_gpio.c ****   * @brief  Set and clear several pins of a dedicated port in same cycle.
 444:Drivers/STM32H5xx_HAL_Driver/Src/stm32h5xx_hal_gpio.c ****   * @note   This function uses GPIOx_BSRR and GPIOx_BRR registers to allow atomic read/modify
 445:Drivers/STM32H5xx_HAL_Driver/Src/stm32h5xx_hal_gpio.c ****   *         accesses.
 446:Drivers/STM32H5xx_HAL_Driver/Src/stm32h5xx_hal_gpio.c ****   * @param  GPIOx: where x can be (A..I) for stm32h56xxx and stm32h57xxx family lines and
 447:Drivers/STM32H5xx_HAL_Driver/Src/stm32h5xx_hal_gpio.c ****   *         (A..D or H) for stm32h503xx family line to select the GPIO peripheral for STM32H5 famil
ARM GAS  C:\Users\Xuleo\AppData\Local\Temp\cciO7v5X.s 			page 22


 448:Drivers/STM32H5xx_HAL_Driver/Src/stm32h5xx_hal_gpio.c ****   * @param  PinReset specifies the port bits to be reset
 449:Drivers/STM32H5xx_HAL_Driver/Src/stm32h5xx_hal_gpio.c ****   *         This parameter can be any combination of GPIO_Pin_x where x can be (0..15) or zero.
 450:Drivers/STM32H5xx_HAL_Driver/Src/stm32h5xx_hal_gpio.c ****   * @param  PinSet specifies the port bits to be set
 451:Drivers/STM32H5xx_HAL_Driver/Src/stm32h5xx_hal_gpio.c ****   *         This parameter can be any combination of GPIO_Pin_x where x can be (0..15) or zero.
 452:Drivers/STM32H5xx_HAL_Driver/Src/stm32h5xx_hal_gpio.c ****   * @note   Both PinReset and PinSet combinations shall not get any common bit, else
 453:Drivers/STM32H5xx_HAL_Driver/Src/stm32h5xx_hal_gpio.c ****   *         assert would be triggered.
 454:Drivers/STM32H5xx_HAL_Driver/Src/stm32h5xx_hal_gpio.c ****   * @note   At least one of the two parameters used to set or reset shall be different from zero.
 455:Drivers/STM32H5xx_HAL_Driver/Src/stm32h5xx_hal_gpio.c ****   * @retval None
 456:Drivers/STM32H5xx_HAL_Driver/Src/stm32h5xx_hal_gpio.c ****   */
 457:Drivers/STM32H5xx_HAL_Driver/Src/stm32h5xx_hal_gpio.c **** void HAL_GPIO_WriteMultipleStatePin(GPIO_TypeDef *GPIOx, uint16_t PinReset, uint16_t PinSet)
 458:Drivers/STM32H5xx_HAL_Driver/Src/stm32h5xx_hal_gpio.c **** {
 670              		.loc 1 458 1 is_stmt 1 view -0
 671              		.cfi_startproc
 672              		@ args = 0, pretend = 0, frame = 0
 673              		@ frame_needed = 0, uses_anonymous_args = 0
 674              		@ link register save eliminated.
 459:Drivers/STM32H5xx_HAL_Driver/Src/stm32h5xx_hal_gpio.c ****   uint32_t tmp;
 675              		.loc 1 459 3 view .LVU252
 460:Drivers/STM32H5xx_HAL_Driver/Src/stm32h5xx_hal_gpio.c **** 
 461:Drivers/STM32H5xx_HAL_Driver/Src/stm32h5xx_hal_gpio.c ****   /* Check the parameters */
 462:Drivers/STM32H5xx_HAL_Driver/Src/stm32h5xx_hal_gpio.c ****   /* Make sure at least one parameter is different from zero and that there is no common pin */
 463:Drivers/STM32H5xx_HAL_Driver/Src/stm32h5xx_hal_gpio.c ****   assert_param(IS_GPIO_PIN((uint32_t)PinReset | (uint32_t)PinSet));
 676              		.loc 1 463 3 view .LVU253
 464:Drivers/STM32H5xx_HAL_Driver/Src/stm32h5xx_hal_gpio.c ****   assert_param(IS_GPIO_COMMON_PIN(PinReset, PinSet));
 677              		.loc 1 464 3 view .LVU254
 465:Drivers/STM32H5xx_HAL_Driver/Src/stm32h5xx_hal_gpio.c **** 
 466:Drivers/STM32H5xx_HAL_Driver/Src/stm32h5xx_hal_gpio.c ****   tmp = (((uint32_t)PinReset << 16) | PinSet);
 678              		.loc 1 466 3 view .LVU255
 679              		.loc 1 466 7 is_stmt 0 view .LVU256
 680 0000 42EA0142 		orr	r2, r2, r1, lsl #16
 681              	.LVL66:
 467:Drivers/STM32H5xx_HAL_Driver/Src/stm32h5xx_hal_gpio.c ****   GPIOx->BSRR = tmp;
 682              		.loc 1 467 3 is_stmt 1 view .LVU257
 683              		.loc 1 467 15 is_stmt 0 view .LVU258
 684 0004 8261     		str	r2, [r0, #24]
 468:Drivers/STM32H5xx_HAL_Driver/Src/stm32h5xx_hal_gpio.c **** }
 685              		.loc 1 468 1 view .LVU259
 686 0006 7047     		bx	lr
 687              		.cfi_endproc
 688              	.LFE161:
 690              		.section	.text.HAL_GPIO_TogglePin,"ax",%progbits
 691              		.align	1
 692              		.global	HAL_GPIO_TogglePin
 693              		.syntax unified
 694              		.thumb
 695              		.thumb_func
 697              	HAL_GPIO_TogglePin:
 698              	.LVL67:
 699              	.LFB162:
 469:Drivers/STM32H5xx_HAL_Driver/Src/stm32h5xx_hal_gpio.c **** 
 470:Drivers/STM32H5xx_HAL_Driver/Src/stm32h5xx_hal_gpio.c **** /**
 471:Drivers/STM32H5xx_HAL_Driver/Src/stm32h5xx_hal_gpio.c ****   * @brief  Toggle the specified GPIO pin.
 472:Drivers/STM32H5xx_HAL_Driver/Src/stm32h5xx_hal_gpio.c ****   * @param  GPIOx: where x can be (A..I) to select the GPIO peripheral for STM32H5 family
 473:Drivers/STM32H5xx_HAL_Driver/Src/stm32h5xx_hal_gpio.c ****   * @param  GPIO_Pin: specifies the pin to be toggled.
 474:Drivers/STM32H5xx_HAL_Driver/Src/stm32h5xx_hal_gpio.c ****   * @retval None
 475:Drivers/STM32H5xx_HAL_Driver/Src/stm32h5xx_hal_gpio.c ****   */
 476:Drivers/STM32H5xx_HAL_Driver/Src/stm32h5xx_hal_gpio.c **** void HAL_GPIO_TogglePin(GPIO_TypeDef *GPIOx, uint16_t GPIO_Pin)
ARM GAS  C:\Users\Xuleo\AppData\Local\Temp\cciO7v5X.s 			page 23


 477:Drivers/STM32H5xx_HAL_Driver/Src/stm32h5xx_hal_gpio.c **** {
 700              		.loc 1 477 1 is_stmt 1 view -0
 701              		.cfi_startproc
 702              		@ args = 0, pretend = 0, frame = 0
 703              		@ frame_needed = 0, uses_anonymous_args = 0
 704              		@ link register save eliminated.
 478:Drivers/STM32H5xx_HAL_Driver/Src/stm32h5xx_hal_gpio.c ****   uint32_t odr;
 705              		.loc 1 478 3 view .LVU261
 479:Drivers/STM32H5xx_HAL_Driver/Src/stm32h5xx_hal_gpio.c **** 
 480:Drivers/STM32H5xx_HAL_Driver/Src/stm32h5xx_hal_gpio.c ****   /* Check the parameters */
 481:Drivers/STM32H5xx_HAL_Driver/Src/stm32h5xx_hal_gpio.c ****   assert_param(IS_GPIO_PIN(GPIO_Pin));
 706              		.loc 1 481 3 view .LVU262
 482:Drivers/STM32H5xx_HAL_Driver/Src/stm32h5xx_hal_gpio.c **** 
 483:Drivers/STM32H5xx_HAL_Driver/Src/stm32h5xx_hal_gpio.c ****   /* get current Output Data Register value */
 484:Drivers/STM32H5xx_HAL_Driver/Src/stm32h5xx_hal_gpio.c ****   odr = GPIOx->ODR;
 707              		.loc 1 484 3 view .LVU263
 708              		.loc 1 484 7 is_stmt 0 view .LVU264
 709 0000 4369     		ldr	r3, [r0, #20]
 710              	.LVL68:
 485:Drivers/STM32H5xx_HAL_Driver/Src/stm32h5xx_hal_gpio.c **** 
 486:Drivers/STM32H5xx_HAL_Driver/Src/stm32h5xx_hal_gpio.c ****   /* Set selected pins that were at low level, and reset ones that were high */
 487:Drivers/STM32H5xx_HAL_Driver/Src/stm32h5xx_hal_gpio.c ****   GPIOx->BSRR = ((odr & GPIO_Pin) << GPIO_NUMBER) | (~odr & GPIO_Pin);
 711              		.loc 1 487 3 is_stmt 1 view .LVU265
 712              		.loc 1 487 23 is_stmt 0 view .LVU266
 713 0002 01EA0302 		and	r2, r1, r3
 714              		.loc 1 487 59 view .LVU267
 715 0006 21EA0301 		bic	r1, r1, r3
 716              	.LVL69:
 717              		.loc 1 487 51 view .LVU268
 718 000a 41EA0241 		orr	r1, r1, r2, lsl #16
 719              		.loc 1 487 15 view .LVU269
 720 000e 8161     		str	r1, [r0, #24]
 488:Drivers/STM32H5xx_HAL_Driver/Src/stm32h5xx_hal_gpio.c **** }
 721              		.loc 1 488 1 view .LVU270
 722 0010 7047     		bx	lr
 723              		.cfi_endproc
 724              	.LFE162:
 726              		.section	.text.HAL_GPIO_LockPin,"ax",%progbits
 727              		.align	1
 728              		.global	HAL_GPIO_LockPin
 729              		.syntax unified
 730              		.thumb
 731              		.thumb_func
 733              	HAL_GPIO_LockPin:
 734              	.LVL70:
 735              	.LFB163:
 489:Drivers/STM32H5xx_HAL_Driver/Src/stm32h5xx_hal_gpio.c **** 
 490:Drivers/STM32H5xx_HAL_Driver/Src/stm32h5xx_hal_gpio.c **** /**
 491:Drivers/STM32H5xx_HAL_Driver/Src/stm32h5xx_hal_gpio.c ****   * @brief  Lock GPIO Pins configuration registers.
 492:Drivers/STM32H5xx_HAL_Driver/Src/stm32h5xx_hal_gpio.c ****   * @note   The locked registers are GPIOx_MODER, GPIOx_OTYPER, GPIOx_OSPEEDR,
 493:Drivers/STM32H5xx_HAL_Driver/Src/stm32h5xx_hal_gpio.c ****   *         GPIOx_PUPDR, GPIOx_AFRL and GPIOx_AFRH.
 494:Drivers/STM32H5xx_HAL_Driver/Src/stm32h5xx_hal_gpio.c ****   * @note   The configuration of the locked GPIO pins can no longer be modified
 495:Drivers/STM32H5xx_HAL_Driver/Src/stm32h5xx_hal_gpio.c ****   *         until the next reset.
 496:Drivers/STM32H5xx_HAL_Driver/Src/stm32h5xx_hal_gpio.c ****   * @param  GPIOx: where x can be (A..I) for stm32h56xxx and stm32h57xxx family lines and
 497:Drivers/STM32H5xx_HAL_Driver/Src/stm32h5xx_hal_gpio.c ****   *         (A..D or H) for stm32h503xx family line to select the GPIO peripheral for STM32H5 famil
 498:Drivers/STM32H5xx_HAL_Driver/Src/stm32h5xx_hal_gpio.c ****   * @param  GPIO_Pin: specifies the port bits to be locked.
 499:Drivers/STM32H5xx_HAL_Driver/Src/stm32h5xx_hal_gpio.c ****   *         This parameter can be any combination of GPIO_Pin_x where x can be (0..15).
ARM GAS  C:\Users\Xuleo\AppData\Local\Temp\cciO7v5X.s 			page 24


 500:Drivers/STM32H5xx_HAL_Driver/Src/stm32h5xx_hal_gpio.c ****   * @retval None
 501:Drivers/STM32H5xx_HAL_Driver/Src/stm32h5xx_hal_gpio.c ****   */
 502:Drivers/STM32H5xx_HAL_Driver/Src/stm32h5xx_hal_gpio.c **** HAL_StatusTypeDef HAL_GPIO_LockPin(GPIO_TypeDef *GPIOx, uint16_t GPIO_Pin)
 503:Drivers/STM32H5xx_HAL_Driver/Src/stm32h5xx_hal_gpio.c **** {
 736              		.loc 1 503 1 is_stmt 1 view -0
 737              		.cfi_startproc
 738              		@ args = 0, pretend = 0, frame = 8
 739              		@ frame_needed = 0, uses_anonymous_args = 0
 740              		@ link register save eliminated.
 741              		.loc 1 503 1 is_stmt 0 view .LVU272
 742 0000 82B0     		sub	sp, sp, #8
 743              	.LCFI3:
 744              		.cfi_def_cfa_offset 8
 504:Drivers/STM32H5xx_HAL_Driver/Src/stm32h5xx_hal_gpio.c ****   __IO uint32_t tmp = GPIO_LCKR_LCKK;
 745              		.loc 1 504 3 is_stmt 1 view .LVU273
 746              		.loc 1 504 17 is_stmt 0 view .LVU274
 747 0002 4FF48033 		mov	r3, #65536
 748 0006 0193     		str	r3, [sp, #4]
 505:Drivers/STM32H5xx_HAL_Driver/Src/stm32h5xx_hal_gpio.c **** 
 506:Drivers/STM32H5xx_HAL_Driver/Src/stm32h5xx_hal_gpio.c ****   /* Check the parameters */
 507:Drivers/STM32H5xx_HAL_Driver/Src/stm32h5xx_hal_gpio.c ****   assert_param(IS_GPIO_LOCK_INSTANCE(GPIOx));
 749              		.loc 1 507 3 is_stmt 1 view .LVU275
 508:Drivers/STM32H5xx_HAL_Driver/Src/stm32h5xx_hal_gpio.c ****   assert_param(IS_GPIO_PIN(GPIO_Pin));
 750              		.loc 1 508 3 view .LVU276
 509:Drivers/STM32H5xx_HAL_Driver/Src/stm32h5xx_hal_gpio.c **** 
 510:Drivers/STM32H5xx_HAL_Driver/Src/stm32h5xx_hal_gpio.c ****   /* Apply lock key write sequence */
 511:Drivers/STM32H5xx_HAL_Driver/Src/stm32h5xx_hal_gpio.c ****   tmp |= GPIO_Pin;
 751              		.loc 1 511 3 view .LVU277
 752              		.loc 1 511 7 is_stmt 0 view .LVU278
 753 0008 019B     		ldr	r3, [sp, #4]
 754 000a 0B43     		orrs	r3, r3, r1
 755 000c 0193     		str	r3, [sp, #4]
 512:Drivers/STM32H5xx_HAL_Driver/Src/stm32h5xx_hal_gpio.c ****   /* Set LCKx bit(s): LCKK='1' + LCK[15-0] */
 513:Drivers/STM32H5xx_HAL_Driver/Src/stm32h5xx_hal_gpio.c ****   GPIOx->LCKR = tmp;
 756              		.loc 1 513 3 is_stmt 1 view .LVU279
 757              		.loc 1 513 15 is_stmt 0 view .LVU280
 758 000e 019B     		ldr	r3, [sp, #4]
 759 0010 C361     		str	r3, [r0, #28]
 514:Drivers/STM32H5xx_HAL_Driver/Src/stm32h5xx_hal_gpio.c ****   /* Reset LCKx bit(s): LCKK='0' + LCK[15-0] */
 515:Drivers/STM32H5xx_HAL_Driver/Src/stm32h5xx_hal_gpio.c ****   GPIOx->LCKR = GPIO_Pin;
 760              		.loc 1 515 3 is_stmt 1 view .LVU281
 761              		.loc 1 515 15 is_stmt 0 view .LVU282
 762 0012 C161     		str	r1, [r0, #28]
 516:Drivers/STM32H5xx_HAL_Driver/Src/stm32h5xx_hal_gpio.c ****   /* Set LCKx bit(s): LCKK='1' + LCK[15-0] */
 517:Drivers/STM32H5xx_HAL_Driver/Src/stm32h5xx_hal_gpio.c ****   GPIOx->LCKR = tmp;
 763              		.loc 1 517 3 is_stmt 1 view .LVU283
 764              		.loc 1 517 15 is_stmt 0 view .LVU284
 765 0014 019B     		ldr	r3, [sp, #4]
 766 0016 C361     		str	r3, [r0, #28]
 518:Drivers/STM32H5xx_HAL_Driver/Src/stm32h5xx_hal_gpio.c ****   /* Read LCKK bit*/
 519:Drivers/STM32H5xx_HAL_Driver/Src/stm32h5xx_hal_gpio.c ****   tmp = GPIOx->LCKR;
 767              		.loc 1 519 3 is_stmt 1 view .LVU285
 768              		.loc 1 519 14 is_stmt 0 view .LVU286
 769 0018 C369     		ldr	r3, [r0, #28]
 770              		.loc 1 519 7 view .LVU287
 771 001a 0193     		str	r3, [sp, #4]
 520:Drivers/STM32H5xx_HAL_Driver/Src/stm32h5xx_hal_gpio.c **** 
ARM GAS  C:\Users\Xuleo\AppData\Local\Temp\cciO7v5X.s 			page 25


 521:Drivers/STM32H5xx_HAL_Driver/Src/stm32h5xx_hal_gpio.c ****   /* read again in order to confirm lock is active */
 522:Drivers/STM32H5xx_HAL_Driver/Src/stm32h5xx_hal_gpio.c ****   if ((GPIOx->LCKR & GPIO_LCKR_LCKK) != GPIO_LCKR_LCKK)
 772              		.loc 1 522 3 is_stmt 1 view .LVU288
 773              		.loc 1 522 13 is_stmt 0 view .LVU289
 774 001c C369     		ldr	r3, [r0, #28]
 775              		.loc 1 522 6 view .LVU290
 776 001e 13F4803F 		tst	r3, #65536
 777 0022 02D0     		beq	.L42
 523:Drivers/STM32H5xx_HAL_Driver/Src/stm32h5xx_hal_gpio.c ****   {
 524:Drivers/STM32H5xx_HAL_Driver/Src/stm32h5xx_hal_gpio.c ****     return HAL_ERROR;
 525:Drivers/STM32H5xx_HAL_Driver/Src/stm32h5xx_hal_gpio.c ****   }
 526:Drivers/STM32H5xx_HAL_Driver/Src/stm32h5xx_hal_gpio.c ****   return HAL_OK;
 778              		.loc 1 526 10 view .LVU291
 779 0024 0020     		movs	r0, #0
 780              	.LVL71:
 781              	.L41:
 527:Drivers/STM32H5xx_HAL_Driver/Src/stm32h5xx_hal_gpio.c **** }
 782              		.loc 1 527 1 view .LVU292
 783 0026 02B0     		add	sp, sp, #8
 784              	.LCFI4:
 785              		.cfi_remember_state
 786              		.cfi_def_cfa_offset 0
 787              		@ sp needed
 788 0028 7047     		bx	lr
 789              	.LVL72:
 790              	.L42:
 791              	.LCFI5:
 792              		.cfi_restore_state
 524:Drivers/STM32H5xx_HAL_Driver/Src/stm32h5xx_hal_gpio.c ****   }
 793              		.loc 1 524 12 view .LVU293
 794 002a 0120     		movs	r0, #1
 795              	.LVL73:
 524:Drivers/STM32H5xx_HAL_Driver/Src/stm32h5xx_hal_gpio.c ****   }
 796              		.loc 1 524 12 view .LVU294
 797 002c FBE7     		b	.L41
 798              		.cfi_endproc
 799              	.LFE163:
 801              		.section	.text.HAL_GPIO_EnableHighSPeedLowVoltage,"ax",%progbits
 802              		.align	1
 803              		.global	HAL_GPIO_EnableHighSPeedLowVoltage
 804              		.syntax unified
 805              		.thumb
 806              		.thumb_func
 808              	HAL_GPIO_EnableHighSPeedLowVoltage:
 809              	.LVL74:
 810              	.LFB164:
 528:Drivers/STM32H5xx_HAL_Driver/Src/stm32h5xx_hal_gpio.c **** 
 529:Drivers/STM32H5xx_HAL_Driver/Src/stm32h5xx_hal_gpio.c **** /**
 530:Drivers/STM32H5xx_HAL_Driver/Src/stm32h5xx_hal_gpio.c ****   * @brief  Enable speed optimization for several pin of dedicated port.
 531:Drivers/STM32H5xx_HAL_Driver/Src/stm32h5xx_hal_gpio.c ****   * @note   Not all I/Os support the HSLV mode. Refer to the I/O structure in the corresponding
 532:Drivers/STM32H5xx_HAL_Driver/Src/stm32h5xx_hal_gpio.c ****   *         datasheet for the list of I/Os supporting this feature. Other I/Os HSLV configuration m
 533:Drivers/STM32H5xx_HAL_Driver/Src/stm32h5xx_hal_gpio.c ****   *         be kept at reset value.
 534:Drivers/STM32H5xx_HAL_Driver/Src/stm32h5xx_hal_gpio.c ****   * @note   It must be used only if the I/O supply voltage is below 2.7 V.
 535:Drivers/STM32H5xx_HAL_Driver/Src/stm32h5xx_hal_gpio.c ****   * @param  GPIOx: where x can be (A..I) for stm32h56xxx and stm32h57xxx family lines and
 536:Drivers/STM32H5xx_HAL_Driver/Src/stm32h5xx_hal_gpio.c ****   *         (A..D or H) for stm32h503xx family line to select the GPIO peripheral for STM32H5 famil
 537:Drivers/STM32H5xx_HAL_Driver/Src/stm32h5xx_hal_gpio.c ****   * @param  GPIO_Pin: specifies the port bit to be written.
 538:Drivers/STM32H5xx_HAL_Driver/Src/stm32h5xx_hal_gpio.c ****   *         This parameter can be any combination of GPIO_Pin_x where x can be (0..15).
ARM GAS  C:\Users\Xuleo\AppData\Local\Temp\cciO7v5X.s 			page 26


 539:Drivers/STM32H5xx_HAL_Driver/Src/stm32h5xx_hal_gpio.c ****   * @retval None
 540:Drivers/STM32H5xx_HAL_Driver/Src/stm32h5xx_hal_gpio.c ****   */
 541:Drivers/STM32H5xx_HAL_Driver/Src/stm32h5xx_hal_gpio.c **** void HAL_GPIO_EnableHighSPeedLowVoltage(GPIO_TypeDef *GPIOx, uint16_t GPIO_Pin)
 542:Drivers/STM32H5xx_HAL_Driver/Src/stm32h5xx_hal_gpio.c **** {
 811              		.loc 1 542 1 is_stmt 1 view -0
 812              		.cfi_startproc
 813              		@ args = 0, pretend = 0, frame = 0
 814              		@ frame_needed = 0, uses_anonymous_args = 0
 815              		@ link register save eliminated.
 543:Drivers/STM32H5xx_HAL_Driver/Src/stm32h5xx_hal_gpio.c ****   /* Check the parameters */
 544:Drivers/STM32H5xx_HAL_Driver/Src/stm32h5xx_hal_gpio.c ****   assert_param(IS_GPIO_PIN(GPIO_Pin));
 816              		.loc 1 544 3 view .LVU296
 545:Drivers/STM32H5xx_HAL_Driver/Src/stm32h5xx_hal_gpio.c ****   assert_param(IS_GPIO_ALL_INSTANCE(GPIOx));
 817              		.loc 1 545 3 view .LVU297
 546:Drivers/STM32H5xx_HAL_Driver/Src/stm32h5xx_hal_gpio.c **** 
 547:Drivers/STM32H5xx_HAL_Driver/Src/stm32h5xx_hal_gpio.c ****   /* Set HSLVR gpio pin */
 548:Drivers/STM32H5xx_HAL_Driver/Src/stm32h5xx_hal_gpio.c ****   SET_BIT(GPIOx->HSLVR, GPIO_Pin);
 818              		.loc 1 548 3 view .LVU298
 819 0000 C36A     		ldr	r3, [r0, #44]
 820 0002 1943     		orrs	r1, r1, r3
 821              	.LVL75:
 822              		.loc 1 548 3 is_stmt 0 view .LVU299
 823 0004 C162     		str	r1, [r0, #44]
 549:Drivers/STM32H5xx_HAL_Driver/Src/stm32h5xx_hal_gpio.c **** }
 824              		.loc 1 549 1 view .LVU300
 825 0006 7047     		bx	lr
 826              		.cfi_endproc
 827              	.LFE164:
 829              		.section	.text.HAL_GPIO_DisableHighSPeedLowVoltage,"ax",%progbits
 830              		.align	1
 831              		.global	HAL_GPIO_DisableHighSPeedLowVoltage
 832              		.syntax unified
 833              		.thumb
 834              		.thumb_func
 836              	HAL_GPIO_DisableHighSPeedLowVoltage:
 837              	.LVL76:
 838              	.LFB165:
 550:Drivers/STM32H5xx_HAL_Driver/Src/stm32h5xx_hal_gpio.c **** 
 551:Drivers/STM32H5xx_HAL_Driver/Src/stm32h5xx_hal_gpio.c **** /**
 552:Drivers/STM32H5xx_HAL_Driver/Src/stm32h5xx_hal_gpio.c ****   * @brief  Disable speed optimization for several pin of dedicated port.
 553:Drivers/STM32H5xx_HAL_Driver/Src/stm32h5xx_hal_gpio.c ****   * @note   Not all I/Os support the HSLV mode. Refer to the I/O structure in the corresponding
 554:Drivers/STM32H5xx_HAL_Driver/Src/stm32h5xx_hal_gpio.c ****   *         datasheet for the list of I/Os supporting this feature. Other I/Os HSLV configuration m
 555:Drivers/STM32H5xx_HAL_Driver/Src/stm32h5xx_hal_gpio.c ****   *         be kept at reset value.
 556:Drivers/STM32H5xx_HAL_Driver/Src/stm32h5xx_hal_gpio.c ****   * @note   It must be used only if the I/O supply voltage is below 2.7 V.
 557:Drivers/STM32H5xx_HAL_Driver/Src/stm32h5xx_hal_gpio.c ****   * @param  GPIOx: where x can be (A..I) for stm32h56xxx and stm32h57xxx family lines and
 558:Drivers/STM32H5xx_HAL_Driver/Src/stm32h5xx_hal_gpio.c ****   *         (A..D or H) for stm32h503xx family line to select the GPIO peripheral for STM32H5 famil
 559:Drivers/STM32H5xx_HAL_Driver/Src/stm32h5xx_hal_gpio.c ****   * @param  GPIO_Pin: specifies the port bit to be written.
 560:Drivers/STM32H5xx_HAL_Driver/Src/stm32h5xx_hal_gpio.c ****   *         This parameter can be any combination of GPIO_Pin_x where x can be (0..15).
 561:Drivers/STM32H5xx_HAL_Driver/Src/stm32h5xx_hal_gpio.c ****   * @retval None
 562:Drivers/STM32H5xx_HAL_Driver/Src/stm32h5xx_hal_gpio.c ****   */
 563:Drivers/STM32H5xx_HAL_Driver/Src/stm32h5xx_hal_gpio.c **** void HAL_GPIO_DisableHighSPeedLowVoltage(GPIO_TypeDef *GPIOx, uint16_t GPIO_Pin)
 564:Drivers/STM32H5xx_HAL_Driver/Src/stm32h5xx_hal_gpio.c **** {
 839              		.loc 1 564 1 is_stmt 1 view -0
 840              		.cfi_startproc
 841              		@ args = 0, pretend = 0, frame = 0
 842              		@ frame_needed = 0, uses_anonymous_args = 0
 843              		@ link register save eliminated.
ARM GAS  C:\Users\Xuleo\AppData\Local\Temp\cciO7v5X.s 			page 27


 565:Drivers/STM32H5xx_HAL_Driver/Src/stm32h5xx_hal_gpio.c ****   /* Check the parameters */
 566:Drivers/STM32H5xx_HAL_Driver/Src/stm32h5xx_hal_gpio.c ****   assert_param(IS_GPIO_PIN(GPIO_Pin));
 844              		.loc 1 566 3 view .LVU302
 567:Drivers/STM32H5xx_HAL_Driver/Src/stm32h5xx_hal_gpio.c ****   assert_param(IS_GPIO_ALL_INSTANCE(GPIOx));
 845              		.loc 1 567 3 view .LVU303
 568:Drivers/STM32H5xx_HAL_Driver/Src/stm32h5xx_hal_gpio.c **** 
 569:Drivers/STM32H5xx_HAL_Driver/Src/stm32h5xx_hal_gpio.c ****   /* Clear HSLVR gpio pin */
 570:Drivers/STM32H5xx_HAL_Driver/Src/stm32h5xx_hal_gpio.c ****   CLEAR_BIT(GPIOx->HSLVR, GPIO_Pin);
 846              		.loc 1 570 3 view .LVU304
 847 0000 C36A     		ldr	r3, [r0, #44]
 848 0002 23EA0103 		bic	r3, r3, r1
 849 0006 C362     		str	r3, [r0, #44]
 571:Drivers/STM32H5xx_HAL_Driver/Src/stm32h5xx_hal_gpio.c **** }
 850              		.loc 1 571 1 is_stmt 0 view .LVU305
 851 0008 7047     		bx	lr
 852              		.cfi_endproc
 853              	.LFE165:
 855              		.section	.text.HAL_GPIO_EXTI_Rising_Callback,"ax",%progbits
 856              		.align	1
 857              		.weak	HAL_GPIO_EXTI_Rising_Callback
 858              		.syntax unified
 859              		.thumb
 860              		.thumb_func
 862              	HAL_GPIO_EXTI_Rising_Callback:
 863              	.LVL77:
 864              	.LFB167:
 572:Drivers/STM32H5xx_HAL_Driver/Src/stm32h5xx_hal_gpio.c **** 
 573:Drivers/STM32H5xx_HAL_Driver/Src/stm32h5xx_hal_gpio.c **** /**
 574:Drivers/STM32H5xx_HAL_Driver/Src/stm32h5xx_hal_gpio.c ****   * @brief  Handle EXTI interrupt request.
 575:Drivers/STM32H5xx_HAL_Driver/Src/stm32h5xx_hal_gpio.c ****   * @param  GPIO_Pin: Specifies the port pin connected to corresponding EXTI line.
 576:Drivers/STM32H5xx_HAL_Driver/Src/stm32h5xx_hal_gpio.c ****   * @retval None
 577:Drivers/STM32H5xx_HAL_Driver/Src/stm32h5xx_hal_gpio.c ****   */
 578:Drivers/STM32H5xx_HAL_Driver/Src/stm32h5xx_hal_gpio.c **** void HAL_GPIO_EXTI_IRQHandler(uint16_t GPIO_Pin)
 579:Drivers/STM32H5xx_HAL_Driver/Src/stm32h5xx_hal_gpio.c **** {
 580:Drivers/STM32H5xx_HAL_Driver/Src/stm32h5xx_hal_gpio.c ****   /* EXTI line interrupt detected */
 581:Drivers/STM32H5xx_HAL_Driver/Src/stm32h5xx_hal_gpio.c ****   if (__HAL_GPIO_EXTI_GET_RISING_IT(GPIO_Pin) != 0U)
 582:Drivers/STM32H5xx_HAL_Driver/Src/stm32h5xx_hal_gpio.c ****   {
 583:Drivers/STM32H5xx_HAL_Driver/Src/stm32h5xx_hal_gpio.c ****     __HAL_GPIO_EXTI_CLEAR_RISING_IT(GPIO_Pin);
 584:Drivers/STM32H5xx_HAL_Driver/Src/stm32h5xx_hal_gpio.c ****     HAL_GPIO_EXTI_Rising_Callback(GPIO_Pin);
 585:Drivers/STM32H5xx_HAL_Driver/Src/stm32h5xx_hal_gpio.c ****   }
 586:Drivers/STM32H5xx_HAL_Driver/Src/stm32h5xx_hal_gpio.c **** 
 587:Drivers/STM32H5xx_HAL_Driver/Src/stm32h5xx_hal_gpio.c ****   if (__HAL_GPIO_EXTI_GET_FALLING_IT(GPIO_Pin) != 0U)
 588:Drivers/STM32H5xx_HAL_Driver/Src/stm32h5xx_hal_gpio.c ****   {
 589:Drivers/STM32H5xx_HAL_Driver/Src/stm32h5xx_hal_gpio.c ****     __HAL_GPIO_EXTI_CLEAR_FALLING_IT(GPIO_Pin);
 590:Drivers/STM32H5xx_HAL_Driver/Src/stm32h5xx_hal_gpio.c ****     HAL_GPIO_EXTI_Falling_Callback(GPIO_Pin);
 591:Drivers/STM32H5xx_HAL_Driver/Src/stm32h5xx_hal_gpio.c ****   }
 592:Drivers/STM32H5xx_HAL_Driver/Src/stm32h5xx_hal_gpio.c **** }
 593:Drivers/STM32H5xx_HAL_Driver/Src/stm32h5xx_hal_gpio.c **** 
 594:Drivers/STM32H5xx_HAL_Driver/Src/stm32h5xx_hal_gpio.c **** /**
 595:Drivers/STM32H5xx_HAL_Driver/Src/stm32h5xx_hal_gpio.c ****   * @brief  EXTI line rising detection callback.
 596:Drivers/STM32H5xx_HAL_Driver/Src/stm32h5xx_hal_gpio.c ****   * @param  GPIO_Pin: Specifies the port pin connected to corresponding EXTI line.
 597:Drivers/STM32H5xx_HAL_Driver/Src/stm32h5xx_hal_gpio.c ****   * @retval None
 598:Drivers/STM32H5xx_HAL_Driver/Src/stm32h5xx_hal_gpio.c ****   */
 599:Drivers/STM32H5xx_HAL_Driver/Src/stm32h5xx_hal_gpio.c **** __weak void HAL_GPIO_EXTI_Rising_Callback(uint16_t GPIO_Pin)
 600:Drivers/STM32H5xx_HAL_Driver/Src/stm32h5xx_hal_gpio.c **** {
 865              		.loc 1 600 1 is_stmt 1 view -0
 866              		.cfi_startproc
ARM GAS  C:\Users\Xuleo\AppData\Local\Temp\cciO7v5X.s 			page 28


 867              		@ args = 0, pretend = 0, frame = 0
 868              		@ frame_needed = 0, uses_anonymous_args = 0
 869              		@ link register save eliminated.
 601:Drivers/STM32H5xx_HAL_Driver/Src/stm32h5xx_hal_gpio.c ****   /* Prevent unused argument(s) compilation warning */
 602:Drivers/STM32H5xx_HAL_Driver/Src/stm32h5xx_hal_gpio.c ****   UNUSED(GPIO_Pin);
 870              		.loc 1 602 3 view .LVU307
 603:Drivers/STM32H5xx_HAL_Driver/Src/stm32h5xx_hal_gpio.c **** 
 604:Drivers/STM32H5xx_HAL_Driver/Src/stm32h5xx_hal_gpio.c ****   /* NOTE: This function should not be modified, when the callback is needed,
 605:Drivers/STM32H5xx_HAL_Driver/Src/stm32h5xx_hal_gpio.c ****            the HAL_GPIO_EXTI_Rising_Callback could be implemented in the user file
 606:Drivers/STM32H5xx_HAL_Driver/Src/stm32h5xx_hal_gpio.c ****    */
 607:Drivers/STM32H5xx_HAL_Driver/Src/stm32h5xx_hal_gpio.c **** }
 871              		.loc 1 607 1 is_stmt 0 view .LVU308
 872 0000 7047     		bx	lr
 873              		.cfi_endproc
 874              	.LFE167:
 876              		.section	.text.HAL_GPIO_EXTI_Falling_Callback,"ax",%progbits
 877              		.align	1
 878              		.weak	HAL_GPIO_EXTI_Falling_Callback
 879              		.syntax unified
 880              		.thumb
 881              		.thumb_func
 883              	HAL_GPIO_EXTI_Falling_Callback:
 884              	.LVL78:
 885              	.LFB168:
 608:Drivers/STM32H5xx_HAL_Driver/Src/stm32h5xx_hal_gpio.c **** 
 609:Drivers/STM32H5xx_HAL_Driver/Src/stm32h5xx_hal_gpio.c **** /**
 610:Drivers/STM32H5xx_HAL_Driver/Src/stm32h5xx_hal_gpio.c ****   * @brief  EXTI line falling detection callback.
 611:Drivers/STM32H5xx_HAL_Driver/Src/stm32h5xx_hal_gpio.c ****   * @param  GPIO_Pin: Specifies the port pin connected to corresponding EXTI line.
 612:Drivers/STM32H5xx_HAL_Driver/Src/stm32h5xx_hal_gpio.c ****   * @retval None
 613:Drivers/STM32H5xx_HAL_Driver/Src/stm32h5xx_hal_gpio.c ****   */
 614:Drivers/STM32H5xx_HAL_Driver/Src/stm32h5xx_hal_gpio.c **** __weak void HAL_GPIO_EXTI_Falling_Callback(uint16_t GPIO_Pin)
 615:Drivers/STM32H5xx_HAL_Driver/Src/stm32h5xx_hal_gpio.c **** {
 886              		.loc 1 615 1 is_stmt 1 view -0
 887              		.cfi_startproc
 888              		@ args = 0, pretend = 0, frame = 0
 889              		@ frame_needed = 0, uses_anonymous_args = 0
 890              		@ link register save eliminated.
 616:Drivers/STM32H5xx_HAL_Driver/Src/stm32h5xx_hal_gpio.c ****   /* Prevent unused argument(s) compilation warning */
 617:Drivers/STM32H5xx_HAL_Driver/Src/stm32h5xx_hal_gpio.c ****   UNUSED(GPIO_Pin);
 891              		.loc 1 617 3 view .LVU310
 618:Drivers/STM32H5xx_HAL_Driver/Src/stm32h5xx_hal_gpio.c **** 
 619:Drivers/STM32H5xx_HAL_Driver/Src/stm32h5xx_hal_gpio.c ****   /* NOTE: This function should not be modified, when the callback is needed,
 620:Drivers/STM32H5xx_HAL_Driver/Src/stm32h5xx_hal_gpio.c ****            the HAL_GPIO_EXTI_Falling_Callback could be implemented in the user file
 621:Drivers/STM32H5xx_HAL_Driver/Src/stm32h5xx_hal_gpio.c ****    */
 622:Drivers/STM32H5xx_HAL_Driver/Src/stm32h5xx_hal_gpio.c **** }
 892              		.loc 1 622 1 is_stmt 0 view .LVU311
 893 0000 7047     		bx	lr
 894              		.cfi_endproc
 895              	.LFE168:
 897              		.section	.text.HAL_GPIO_EXTI_IRQHandler,"ax",%progbits
 898              		.align	1
 899              		.global	HAL_GPIO_EXTI_IRQHandler
 900              		.syntax unified
 901              		.thumb
 902              		.thumb_func
 904              	HAL_GPIO_EXTI_IRQHandler:
 905              	.LVL79:
ARM GAS  C:\Users\Xuleo\AppData\Local\Temp\cciO7v5X.s 			page 29


 906              	.LFB166:
 579:Drivers/STM32H5xx_HAL_Driver/Src/stm32h5xx_hal_gpio.c ****   /* EXTI line interrupt detected */
 907              		.loc 1 579 1 is_stmt 1 view -0
 908              		.cfi_startproc
 909              		@ args = 0, pretend = 0, frame = 0
 910              		@ frame_needed = 0, uses_anonymous_args = 0
 579:Drivers/STM32H5xx_HAL_Driver/Src/stm32h5xx_hal_gpio.c ****   /* EXTI line interrupt detected */
 911              		.loc 1 579 1 is_stmt 0 view .LVU313
 912 0000 10B5     		push	{r4, lr}
 913              	.LCFI6:
 914              		.cfi_def_cfa_offset 8
 915              		.cfi_offset 4, -8
 916              		.cfi_offset 14, -4
 917 0002 0446     		mov	r4, r0
 581:Drivers/STM32H5xx_HAL_Driver/Src/stm32h5xx_hal_gpio.c ****   {
 918              		.loc 1 581 3 is_stmt 1 view .LVU314
 581:Drivers/STM32H5xx_HAL_Driver/Src/stm32h5xx_hal_gpio.c ****   {
 919              		.loc 1 581 7 is_stmt 0 view .LVU315
 920 0004 094B     		ldr	r3, .L54
 921 0006 DB68     		ldr	r3, [r3, #12]
 581:Drivers/STM32H5xx_HAL_Driver/Src/stm32h5xx_hal_gpio.c ****   {
 922              		.loc 1 581 6 view .LVU316
 923 0008 0342     		tst	r3, r0
 924 000a 04D1     		bne	.L52
 925              	.LVL80:
 926              	.L49:
 587:Drivers/STM32H5xx_HAL_Driver/Src/stm32h5xx_hal_gpio.c ****   {
 927              		.loc 1 587 3 is_stmt 1 view .LVU317
 587:Drivers/STM32H5xx_HAL_Driver/Src/stm32h5xx_hal_gpio.c ****   {
 928              		.loc 1 587 7 is_stmt 0 view .LVU318
 929 000c 074B     		ldr	r3, .L54
 930 000e 1B69     		ldr	r3, [r3, #16]
 587:Drivers/STM32H5xx_HAL_Driver/Src/stm32h5xx_hal_gpio.c ****   {
 931              		.loc 1 587 6 view .LVU319
 932 0010 1C42     		tst	r4, r3
 933 0012 05D1     		bne	.L53
 934              	.L48:
 592:Drivers/STM32H5xx_HAL_Driver/Src/stm32h5xx_hal_gpio.c **** 
 935              		.loc 1 592 1 view .LVU320
 936 0014 10BD     		pop	{r4, pc}
 937              	.LVL81:
 938              	.L52:
 583:Drivers/STM32H5xx_HAL_Driver/Src/stm32h5xx_hal_gpio.c ****     HAL_GPIO_EXTI_Rising_Callback(GPIO_Pin);
 939              		.loc 1 583 5 is_stmt 1 view .LVU321
 940 0016 054B     		ldr	r3, .L54
 941 0018 D860     		str	r0, [r3, #12]
 584:Drivers/STM32H5xx_HAL_Driver/Src/stm32h5xx_hal_gpio.c ****   }
 942              		.loc 1 584 5 view .LVU322
 943 001a FFF7FEFF 		bl	HAL_GPIO_EXTI_Rising_Callback
 944              	.LVL82:
 584:Drivers/STM32H5xx_HAL_Driver/Src/stm32h5xx_hal_gpio.c ****   }
 945              		.loc 1 584 5 is_stmt 0 view .LVU323
 946 001e F5E7     		b	.L49
 947              	.L53:
 589:Drivers/STM32H5xx_HAL_Driver/Src/stm32h5xx_hal_gpio.c ****     HAL_GPIO_EXTI_Falling_Callback(GPIO_Pin);
 948              		.loc 1 589 5 is_stmt 1 view .LVU324
 949 0020 024B     		ldr	r3, .L54
ARM GAS  C:\Users\Xuleo\AppData\Local\Temp\cciO7v5X.s 			page 30


 950 0022 1C61     		str	r4, [r3, #16]
 590:Drivers/STM32H5xx_HAL_Driver/Src/stm32h5xx_hal_gpio.c ****   }
 951              		.loc 1 590 5 view .LVU325
 952 0024 2046     		mov	r0, r4
 953 0026 FFF7FEFF 		bl	HAL_GPIO_EXTI_Falling_Callback
 954              	.LVL83:
 592:Drivers/STM32H5xx_HAL_Driver/Src/stm32h5xx_hal_gpio.c **** 
 955              		.loc 1 592 1 is_stmt 0 view .LVU326
 956 002a F3E7     		b	.L48
 957              	.L55:
 958              		.align	2
 959              	.L54:
 960 002c 00200244 		.word	1140989952
 961              		.cfi_endproc
 962              	.LFE166:
 964              		.text
 965              	.Letext0:
 966              		.file 2 "C:/thirdpartyLibs/arm-gnu-toolchain-15.2/arm-none-eabi/include/machine/_default_types.h"
 967              		.file 3 "C:/thirdpartyLibs/arm-gnu-toolchain-15.2/arm-none-eabi/include/sys/_stdint.h"
 968              		.file 4 "Drivers/CMSIS/Device/ST/STM32H5xx/Include/stm32h533xx.h"
 969              		.file 5 "Drivers/STM32H5xx_HAL_Driver/Inc/stm32h5xx_hal_def.h"
 970              		.file 6 "Drivers/STM32H5xx_HAL_Driver/Inc/stm32h5xx_hal_gpio.h"
ARM GAS  C:\Users\Xuleo\AppData\Local\Temp\cciO7v5X.s 			page 31

