ARM GAS  C:\Users\Xuleo\AppData\Local\Temp\cclFhDta.s 			page 1


   1              		.cpu cortex-m33
   2              		.arch armv8-m.main
   3              		.fpu fpv5-sp-d16
   4              		.arch_extension dsp
   5              		.eabi_attribute 27, 1
   6              		.eabi_attribute 28, 1
   7              		.eabi_attribute 20, 1
   8              		.eabi_attribute 21, 1
   9              		.eabi_attribute 23, 3
  10              		.eabi_attribute 24, 1
  11              		.eabi_attribute 25, 1
  12              		.eabi_attribute 26, 1
  13              		.eabi_attribute 30, 1
  14              		.eabi_attribute 34, 1
  15              		.eabi_attribute 18, 4
  16              		.file	"stm32h5xx_it.c"
  17              		.text
  18              	.Ltext0:
  19              		.cfi_sections	.debug_frame
  20              		.file 1 "Core/Src/stm32h5xx_it.c"
  21              		.section	.text.NMI_Handler,"ax",%progbits
  22              		.align	1
  23              		.global	NMI_Handler
  24              		.syntax unified
  25              		.thumb
  26              		.thumb_func
  28              	NMI_Handler:
  29              	.LFB359:
   1:Core/Src/stm32h5xx_it.c **** /* USER CODE BEGIN Header */
   2:Core/Src/stm32h5xx_it.c **** /**
   3:Core/Src/stm32h5xx_it.c ****   ******************************************************************************
   4:Core/Src/stm32h5xx_it.c ****   * @file    stm32h5xx_it.c
   5:Core/Src/stm32h5xx_it.c ****   * @brief   Interrupt Service Routines.
   6:Core/Src/stm32h5xx_it.c ****   ******************************************************************************
   7:Core/Src/stm32h5xx_it.c ****   * @attention
   8:Core/Src/stm32h5xx_it.c ****   *
   9:Core/Src/stm32h5xx_it.c ****   * Copyright (c) 2026 STMicroelectronics.
  10:Core/Src/stm32h5xx_it.c ****   * All rights reserved.
  11:Core/Src/stm32h5xx_it.c ****   *
  12:Core/Src/stm32h5xx_it.c ****   * This software is licensed under terms that can be found in the LICENSE file
  13:Core/Src/stm32h5xx_it.c ****   * in the root directory of this software component.
  14:Core/Src/stm32h5xx_it.c ****   * If no LICENSE file comes with this software, it is provided AS-IS.
  15:Core/Src/stm32h5xx_it.c ****   *
  16:Core/Src/stm32h5xx_it.c ****   ******************************************************************************
  17:Core/Src/stm32h5xx_it.c ****   */
  18:Core/Src/stm32h5xx_it.c **** /* USER CODE END Header */
  19:Core/Src/stm32h5xx_it.c **** 
  20:Core/Src/stm32h5xx_it.c **** /* Includes ------------------------------------------------------------------*/
  21:Core/Src/stm32h5xx_it.c **** #include "main.h"
  22:Core/Src/stm32h5xx_it.c **** #include "stm32h5xx_it.h"
  23:Core/Src/stm32h5xx_it.c **** /* Private includes ----------------------------------------------------------*/
  24:Core/Src/stm32h5xx_it.c **** /* USER CODE BEGIN Includes */
  25:Core/Src/stm32h5xx_it.c **** #include <application.h>
  26:Core/Src/stm32h5xx_it.c **** /* USER CODE END Includes */
  27:Core/Src/stm32h5xx_it.c **** 
  28:Core/Src/stm32h5xx_it.c **** /* Private typedef -----------------------------------------------------------*/
  29:Core/Src/stm32h5xx_it.c **** /* USER CODE BEGIN TD */
ARM GAS  C:\Users\Xuleo\AppData\Local\Temp\cclFhDta.s 			page 2


  30:Core/Src/stm32h5xx_it.c **** 
  31:Core/Src/stm32h5xx_it.c **** /* USER CODE END TD */
  32:Core/Src/stm32h5xx_it.c **** 
  33:Core/Src/stm32h5xx_it.c **** /* Private define ------------------------------------------------------------*/
  34:Core/Src/stm32h5xx_it.c **** /* USER CODE BEGIN PD */
  35:Core/Src/stm32h5xx_it.c **** 
  36:Core/Src/stm32h5xx_it.c **** /* USER CODE END PD */
  37:Core/Src/stm32h5xx_it.c **** 
  38:Core/Src/stm32h5xx_it.c **** /* Private macro -------------------------------------------------------------*/
  39:Core/Src/stm32h5xx_it.c **** /* USER CODE BEGIN PM */
  40:Core/Src/stm32h5xx_it.c **** 
  41:Core/Src/stm32h5xx_it.c **** /* USER CODE END PM */
  42:Core/Src/stm32h5xx_it.c **** 
  43:Core/Src/stm32h5xx_it.c **** /* Private variables ---------------------------------------------------------*/
  44:Core/Src/stm32h5xx_it.c **** /* USER CODE BEGIN PV */
  45:Core/Src/stm32h5xx_it.c **** 
  46:Core/Src/stm32h5xx_it.c **** /* USER CODE END PV */
  47:Core/Src/stm32h5xx_it.c **** 
  48:Core/Src/stm32h5xx_it.c **** /* Private function prototypes -----------------------------------------------*/
  49:Core/Src/stm32h5xx_it.c **** /* USER CODE BEGIN PFP */
  50:Core/Src/stm32h5xx_it.c **** 
  51:Core/Src/stm32h5xx_it.c **** /* USER CODE END PFP */
  52:Core/Src/stm32h5xx_it.c **** 
  53:Core/Src/stm32h5xx_it.c **** /* Private user code ---------------------------------------------------------*/
  54:Core/Src/stm32h5xx_it.c **** /* USER CODE BEGIN 0 */
  55:Core/Src/stm32h5xx_it.c **** 
  56:Core/Src/stm32h5xx_it.c **** /* USER CODE END 0 */
  57:Core/Src/stm32h5xx_it.c **** 
  58:Core/Src/stm32h5xx_it.c **** /* External variables --------------------------------------------------------*/
  59:Core/Src/stm32h5xx_it.c **** extern DMA_NodeTypeDef Node_GPDMA1_Channel2;
  60:Core/Src/stm32h5xx_it.c **** extern DMA_QListTypeDef List_GPDMA1_Channel2;
  61:Core/Src/stm32h5xx_it.c **** extern DMA_HandleTypeDef handle_GPDMA1_Channel2;
  62:Core/Src/stm32h5xx_it.c **** extern ADC_HandleTypeDef hadc1;
  63:Core/Src/stm32h5xx_it.c **** extern TIM_HandleTypeDef htim5;
  64:Core/Src/stm32h5xx_it.c **** extern DMA_HandleTypeDef handle_GPDMA1_Channel1;
  65:Core/Src/stm32h5xx_it.c **** extern DMA_NodeTypeDef Node_GPDMA1_Channel0;
  66:Core/Src/stm32h5xx_it.c **** extern DMA_QListTypeDef List_GPDMA1_Channel0;
  67:Core/Src/stm32h5xx_it.c **** extern DMA_HandleTypeDef handle_GPDMA1_Channel0;
  68:Core/Src/stm32h5xx_it.c **** extern UART_HandleTypeDef huart1;
  69:Core/Src/stm32h5xx_it.c **** /* USER CODE BEGIN EV */
  70:Core/Src/stm32h5xx_it.c **** 
  71:Core/Src/stm32h5xx_it.c **** /* USER CODE END EV */
  72:Core/Src/stm32h5xx_it.c **** 
  73:Core/Src/stm32h5xx_it.c **** /******************************************************************************/
  74:Core/Src/stm32h5xx_it.c **** /*           Cortex Processor Interruption and Exception Handlers          */
  75:Core/Src/stm32h5xx_it.c **** /******************************************************************************/
  76:Core/Src/stm32h5xx_it.c **** /**
  77:Core/Src/stm32h5xx_it.c ****   * @brief This function handles Non maskable interrupt.
  78:Core/Src/stm32h5xx_it.c ****   */
  79:Core/Src/stm32h5xx_it.c **** void NMI_Handler(void)
  80:Core/Src/stm32h5xx_it.c **** {
  30              		.loc 1 80 1 view -0
  31              		.cfi_startproc
  32              		@ Volatile: function does not return.
  33              		@ args = 0, pretend = 0, frame = 0
  34              		@ frame_needed = 0, uses_anonymous_args = 0
  35              		@ link register save eliminated.
ARM GAS  C:\Users\Xuleo\AppData\Local\Temp\cclFhDta.s 			page 3


  36              	.L2:
  81:Core/Src/stm32h5xx_it.c ****   /* USER CODE BEGIN NonMaskableInt_IRQn 0 */
  82:Core/Src/stm32h5xx_it.c **** 
  83:Core/Src/stm32h5xx_it.c ****   /* USER CODE END NonMaskableInt_IRQn 0 */
  84:Core/Src/stm32h5xx_it.c ****   /* USER CODE BEGIN NonMaskableInt_IRQn 1 */
  85:Core/Src/stm32h5xx_it.c ****    while (1)
  37              		.loc 1 85 4 view .LVU1
  86:Core/Src/stm32h5xx_it.c ****   {
  87:Core/Src/stm32h5xx_it.c ****   }
  38              		.loc 1 87 3 view .LVU2
  85:Core/Src/stm32h5xx_it.c ****   {
  39              		.loc 1 85 10 view .LVU3
  40 0000 FEE7     		b	.L2
  41              		.cfi_endproc
  42              	.LFE359:
  44              		.section	.text.HardFault_Handler,"ax",%progbits
  45              		.align	1
  46              		.global	HardFault_Handler
  47              		.syntax unified
  48              		.thumb
  49              		.thumb_func
  51              	HardFault_Handler:
  52              	.LFB360:
  88:Core/Src/stm32h5xx_it.c ****   /* USER CODE END NonMaskableInt_IRQn 1 */
  89:Core/Src/stm32h5xx_it.c **** }
  90:Core/Src/stm32h5xx_it.c **** 
  91:Core/Src/stm32h5xx_it.c **** /**
  92:Core/Src/stm32h5xx_it.c ****   * @brief This function handles Hard fault interrupt.
  93:Core/Src/stm32h5xx_it.c ****   */
  94:Core/Src/stm32h5xx_it.c **** void HardFault_Handler(void)
  95:Core/Src/stm32h5xx_it.c **** {
  53              		.loc 1 95 1 view -0
  54              		.cfi_startproc
  55              		@ Volatile: function does not return.
  56              		@ args = 0, pretend = 0, frame = 0
  57              		@ frame_needed = 0, uses_anonymous_args = 0
  58              		@ link register save eliminated.
  59              	.L4:
  96:Core/Src/stm32h5xx_it.c ****   /* USER CODE BEGIN HardFault_IRQn 0 */
  97:Core/Src/stm32h5xx_it.c **** 
  98:Core/Src/stm32h5xx_it.c ****   /* USER CODE END HardFault_IRQn 0 */
  99:Core/Src/stm32h5xx_it.c ****   while (1)
  60              		.loc 1 99 3 view .LVU5
 100:Core/Src/stm32h5xx_it.c ****   {
 101:Core/Src/stm32h5xx_it.c ****     /* USER CODE BEGIN W1_HardFault_IRQn 0 */
 102:Core/Src/stm32h5xx_it.c ****     /* USER CODE END W1_HardFault_IRQn 0 */
 103:Core/Src/stm32h5xx_it.c ****   }
  61              		.loc 1 103 3 view .LVU6
  99:Core/Src/stm32h5xx_it.c ****   {
  62              		.loc 1 99 9 view .LVU7
  63 0000 FEE7     		b	.L4
  64              		.cfi_endproc
  65              	.LFE360:
  67              		.section	.text.MemManage_Handler,"ax",%progbits
  68              		.align	1
  69              		.global	MemManage_Handler
  70              		.syntax unified
ARM GAS  C:\Users\Xuleo\AppData\Local\Temp\cclFhDta.s 			page 4


  71              		.thumb
  72              		.thumb_func
  74              	MemManage_Handler:
  75              	.LFB361:
 104:Core/Src/stm32h5xx_it.c **** }
 105:Core/Src/stm32h5xx_it.c **** 
 106:Core/Src/stm32h5xx_it.c **** /**
 107:Core/Src/stm32h5xx_it.c ****   * @brief This function handles Memory management fault.
 108:Core/Src/stm32h5xx_it.c ****   */
 109:Core/Src/stm32h5xx_it.c **** void MemManage_Handler(void)
 110:Core/Src/stm32h5xx_it.c **** {
  76              		.loc 1 110 1 view -0
  77              		.cfi_startproc
  78              		@ Volatile: function does not return.
  79              		@ args = 0, pretend = 0, frame = 0
  80              		@ frame_needed = 0, uses_anonymous_args = 0
  81              		@ link register save eliminated.
  82              	.L6:
 111:Core/Src/stm32h5xx_it.c ****   /* USER CODE BEGIN MemoryManagement_IRQn 0 */
 112:Core/Src/stm32h5xx_it.c **** 
 113:Core/Src/stm32h5xx_it.c ****   /* USER CODE END MemoryManagement_IRQn 0 */
 114:Core/Src/stm32h5xx_it.c ****   while (1)
  83              		.loc 1 114 3 view .LVU9
 115:Core/Src/stm32h5xx_it.c ****   {
 116:Core/Src/stm32h5xx_it.c ****     /* USER CODE BEGIN W1_MemoryManagement_IRQn 0 */
 117:Core/Src/stm32h5xx_it.c ****     /* USER CODE END W1_MemoryManagement_IRQn 0 */
 118:Core/Src/stm32h5xx_it.c ****   }
  84              		.loc 1 118 3 view .LVU10
 114:Core/Src/stm32h5xx_it.c ****   {
  85              		.loc 1 114 9 view .LVU11
  86 0000 FEE7     		b	.L6
  87              		.cfi_endproc
  88              	.LFE361:
  90              		.section	.text.BusFault_Handler,"ax",%progbits
  91              		.align	1
  92              		.global	BusFault_Handler
  93              		.syntax unified
  94              		.thumb
  95              		.thumb_func
  97              	BusFault_Handler:
  98              	.LFB362:
 119:Core/Src/stm32h5xx_it.c **** }
 120:Core/Src/stm32h5xx_it.c **** 
 121:Core/Src/stm32h5xx_it.c **** /**
 122:Core/Src/stm32h5xx_it.c ****   * @brief This function handles Pre-fetch fault, memory access fault.
 123:Core/Src/stm32h5xx_it.c ****   */
 124:Core/Src/stm32h5xx_it.c **** void BusFault_Handler(void)
 125:Core/Src/stm32h5xx_it.c **** {
  99              		.loc 1 125 1 view -0
 100              		.cfi_startproc
 101              		@ Volatile: function does not return.
 102              		@ args = 0, pretend = 0, frame = 0
 103              		@ frame_needed = 0, uses_anonymous_args = 0
 104              		@ link register save eliminated.
 105              	.L8:
 126:Core/Src/stm32h5xx_it.c ****   /* USER CODE BEGIN BusFault_IRQn 0 */
 127:Core/Src/stm32h5xx_it.c **** 
ARM GAS  C:\Users\Xuleo\AppData\Local\Temp\cclFhDta.s 			page 5


 128:Core/Src/stm32h5xx_it.c ****   /* USER CODE END BusFault_IRQn 0 */
 129:Core/Src/stm32h5xx_it.c ****   while (1)
 106              		.loc 1 129 3 view .LVU13
 130:Core/Src/stm32h5xx_it.c ****   {
 131:Core/Src/stm32h5xx_it.c ****     /* USER CODE BEGIN W1_BusFault_IRQn 0 */
 132:Core/Src/stm32h5xx_it.c ****     /* USER CODE END W1_BusFault_IRQn 0 */
 133:Core/Src/stm32h5xx_it.c ****   }
 107              		.loc 1 133 3 view .LVU14
 129:Core/Src/stm32h5xx_it.c ****   {
 108              		.loc 1 129 9 view .LVU15
 109 0000 FEE7     		b	.L8
 110              		.cfi_endproc
 111              	.LFE362:
 113              		.section	.text.UsageFault_Handler,"ax",%progbits
 114              		.align	1
 115              		.global	UsageFault_Handler
 116              		.syntax unified
 117              		.thumb
 118              		.thumb_func
 120              	UsageFault_Handler:
 121              	.LFB363:
 134:Core/Src/stm32h5xx_it.c **** }
 135:Core/Src/stm32h5xx_it.c **** 
 136:Core/Src/stm32h5xx_it.c **** /**
 137:Core/Src/stm32h5xx_it.c ****   * @brief This function handles Undefined instruction or illegal state.
 138:Core/Src/stm32h5xx_it.c ****   */
 139:Core/Src/stm32h5xx_it.c **** void UsageFault_Handler(void)
 140:Core/Src/stm32h5xx_it.c **** {
 122              		.loc 1 140 1 view -0
 123              		.cfi_startproc
 124              		@ Volatile: function does not return.
 125              		@ args = 0, pretend = 0, frame = 0
 126              		@ frame_needed = 0, uses_anonymous_args = 0
 127              		@ link register save eliminated.
 128              	.L10:
 141:Core/Src/stm32h5xx_it.c ****   /* USER CODE BEGIN UsageFault_IRQn 0 */
 142:Core/Src/stm32h5xx_it.c **** 
 143:Core/Src/stm32h5xx_it.c ****   /* USER CODE END UsageFault_IRQn 0 */
 144:Core/Src/stm32h5xx_it.c ****   while (1)
 129              		.loc 1 144 3 view .LVU17
 145:Core/Src/stm32h5xx_it.c ****   {
 146:Core/Src/stm32h5xx_it.c ****     /* USER CODE BEGIN W1_UsageFault_IRQn 0 */
 147:Core/Src/stm32h5xx_it.c ****     /* USER CODE END W1_UsageFault_IRQn 0 */
 148:Core/Src/stm32h5xx_it.c ****   }
 130              		.loc 1 148 3 view .LVU18
 144:Core/Src/stm32h5xx_it.c ****   {
 131              		.loc 1 144 9 view .LVU19
 132 0000 FEE7     		b	.L10
 133              		.cfi_endproc
 134              	.LFE363:
 136              		.section	.text.SVC_Handler,"ax",%progbits
 137              		.align	1
 138              		.global	SVC_Handler
 139              		.syntax unified
 140              		.thumb
 141              		.thumb_func
 143              	SVC_Handler:
ARM GAS  C:\Users\Xuleo\AppData\Local\Temp\cclFhDta.s 			page 6


 144              	.LFB364:
 149:Core/Src/stm32h5xx_it.c **** }
 150:Core/Src/stm32h5xx_it.c **** 
 151:Core/Src/stm32h5xx_it.c **** /**
 152:Core/Src/stm32h5xx_it.c ****   * @brief This function handles System service call via SWI instruction.
 153:Core/Src/stm32h5xx_it.c ****   */
 154:Core/Src/stm32h5xx_it.c **** void SVC_Handler(void)
 155:Core/Src/stm32h5xx_it.c **** {
 145              		.loc 1 155 1 view -0
 146              		.cfi_startproc
 147              		@ args = 0, pretend = 0, frame = 0
 148              		@ frame_needed = 0, uses_anonymous_args = 0
 149              		@ link register save eliminated.
 156:Core/Src/stm32h5xx_it.c ****   /* USER CODE BEGIN SVCall_IRQn 0 */
 157:Core/Src/stm32h5xx_it.c **** 
 158:Core/Src/stm32h5xx_it.c ****   /* USER CODE END SVCall_IRQn 0 */
 159:Core/Src/stm32h5xx_it.c ****   /* USER CODE BEGIN SVCall_IRQn 1 */
 160:Core/Src/stm32h5xx_it.c **** 
 161:Core/Src/stm32h5xx_it.c ****   /* USER CODE END SVCall_IRQn 1 */
 162:Core/Src/stm32h5xx_it.c **** }
 150              		.loc 1 162 1 view .LVU21
 151 0000 7047     		bx	lr
 152              		.cfi_endproc
 153              	.LFE364:
 155              		.section	.text.DebugMon_Handler,"ax",%progbits
 156              		.align	1
 157              		.global	DebugMon_Handler
 158              		.syntax unified
 159              		.thumb
 160              		.thumb_func
 162              	DebugMon_Handler:
 163              	.LFB365:
 163:Core/Src/stm32h5xx_it.c **** 
 164:Core/Src/stm32h5xx_it.c **** /**
 165:Core/Src/stm32h5xx_it.c ****   * @brief This function handles Debug monitor.
 166:Core/Src/stm32h5xx_it.c ****   */
 167:Core/Src/stm32h5xx_it.c **** void DebugMon_Handler(void)
 168:Core/Src/stm32h5xx_it.c **** {
 164              		.loc 1 168 1 view -0
 165              		.cfi_startproc
 166              		@ args = 0, pretend = 0, frame = 0
 167              		@ frame_needed = 0, uses_anonymous_args = 0
 168              		@ link register save eliminated.
 169:Core/Src/stm32h5xx_it.c ****   /* USER CODE BEGIN DebugMonitor_IRQn 0 */
 170:Core/Src/stm32h5xx_it.c **** 
 171:Core/Src/stm32h5xx_it.c ****   /* USER CODE END DebugMonitor_IRQn 0 */
 172:Core/Src/stm32h5xx_it.c ****   /* USER CODE BEGIN DebugMonitor_IRQn 1 */
 173:Core/Src/stm32h5xx_it.c **** 
 174:Core/Src/stm32h5xx_it.c ****   /* USER CODE END DebugMonitor_IRQn 1 */
 175:Core/Src/stm32h5xx_it.c **** }
 169              		.loc 1 175 1 view .LVU23
 170 0000 7047     		bx	lr
 171              		.cfi_endproc
 172              	.LFE365:
 174              		.section	.text.PendSV_Handler,"ax",%progbits
 175              		.align	1
 176              		.global	PendSV_Handler
ARM GAS  C:\Users\Xuleo\AppData\Local\Temp\cclFhDta.s 			page 7


 177              		.syntax unified
 178              		.thumb
 179              		.thumb_func
 181              	PendSV_Handler:
 182              	.LFB366:
 176:Core/Src/stm32h5xx_it.c **** 
 177:Core/Src/stm32h5xx_it.c **** /**
 178:Core/Src/stm32h5xx_it.c ****   * @brief This function handles Pendable request for system service.
 179:Core/Src/stm32h5xx_it.c ****   */
 180:Core/Src/stm32h5xx_it.c **** void PendSV_Handler(void)
 181:Core/Src/stm32h5xx_it.c **** {
 183              		.loc 1 181 1 view -0
 184              		.cfi_startproc
 185              		@ args = 0, pretend = 0, frame = 0
 186              		@ frame_needed = 0, uses_anonymous_args = 0
 187              		@ link register save eliminated.
 182:Core/Src/stm32h5xx_it.c ****   /* USER CODE BEGIN PendSV_IRQn 0 */
 183:Core/Src/stm32h5xx_it.c **** 
 184:Core/Src/stm32h5xx_it.c ****   /* USER CODE END PendSV_IRQn 0 */
 185:Core/Src/stm32h5xx_it.c ****   /* USER CODE BEGIN PendSV_IRQn 1 */
 186:Core/Src/stm32h5xx_it.c **** 
 187:Core/Src/stm32h5xx_it.c ****   /* USER CODE END PendSV_IRQn 1 */
 188:Core/Src/stm32h5xx_it.c **** }
 188              		.loc 1 188 1 view .LVU25
 189 0000 7047     		bx	lr
 190              		.cfi_endproc
 191              	.LFE366:
 193              		.section	.text.SysTick_Handler,"ax",%progbits
 194              		.align	1
 195              		.global	SysTick_Handler
 196              		.syntax unified
 197              		.thumb
 198              		.thumb_func
 200              	SysTick_Handler:
 201              	.LFB367:
 189:Core/Src/stm32h5xx_it.c **** 
 190:Core/Src/stm32h5xx_it.c **** /**
 191:Core/Src/stm32h5xx_it.c ****   * @brief This function handles System tick timer.
 192:Core/Src/stm32h5xx_it.c ****   */
 193:Core/Src/stm32h5xx_it.c **** void SysTick_Handler(void)
 194:Core/Src/stm32h5xx_it.c **** {
 202              		.loc 1 194 1 view -0
 203              		.cfi_startproc
 204              		@ args = 0, pretend = 0, frame = 0
 205              		@ frame_needed = 0, uses_anonymous_args = 0
 206 0000 08B5     		push	{r3, lr}
 207              	.LCFI0:
 208              		.cfi_def_cfa_offset 8
 209              		.cfi_offset 3, -8
 210              		.cfi_offset 14, -4
 195:Core/Src/stm32h5xx_it.c ****   /* USER CODE BEGIN SysTick_IRQn 0 */
 196:Core/Src/stm32h5xx_it.c **** 
 197:Core/Src/stm32h5xx_it.c ****   /* USER CODE END SysTick_IRQn 0 */
 198:Core/Src/stm32h5xx_it.c ****   HAL_IncTick();
 211              		.loc 1 198 3 view .LVU27
 212 0002 FFF7FEFF 		bl	HAL_IncTick
 213              	.LVL0:
ARM GAS  C:\Users\Xuleo\AppData\Local\Temp\cclFhDta.s 			page 8


 199:Core/Src/stm32h5xx_it.c ****   /* USER CODE BEGIN SysTick_IRQn 1 */
 200:Core/Src/stm32h5xx_it.c **** 
 201:Core/Src/stm32h5xx_it.c ****   /* USER CODE END SysTick_IRQn 1 */
 202:Core/Src/stm32h5xx_it.c **** }
 214              		.loc 1 202 1 is_stmt 0 view .LVU28
 215 0006 08BD     		pop	{r3, pc}
 216              		.cfi_endproc
 217              	.LFE367:
 219              		.section	.text.GPDMA1_Channel0_IRQHandler,"ax",%progbits
 220              		.align	1
 221              		.global	GPDMA1_Channel0_IRQHandler
 222              		.syntax unified
 223              		.thumb
 224              		.thumb_func
 226              	GPDMA1_Channel0_IRQHandler:
 227              	.LFB368:
 203:Core/Src/stm32h5xx_it.c **** 
 204:Core/Src/stm32h5xx_it.c **** /******************************************************************************/
 205:Core/Src/stm32h5xx_it.c **** /* STM32H5xx Peripheral Interrupt Handlers                                    */
 206:Core/Src/stm32h5xx_it.c **** /* Add here the Interrupt Handlers for the used peripherals.                  */
 207:Core/Src/stm32h5xx_it.c **** /* For the available peripheral interrupt handler names,                      */
 208:Core/Src/stm32h5xx_it.c **** /* please refer to the startup file (startup_stm32h5xx.s).                    */
 209:Core/Src/stm32h5xx_it.c **** /******************************************************************************/
 210:Core/Src/stm32h5xx_it.c **** 
 211:Core/Src/stm32h5xx_it.c **** /**
 212:Core/Src/stm32h5xx_it.c ****   * @brief This function handles GPDMA1 Channel 0 global interrupt.
 213:Core/Src/stm32h5xx_it.c ****   */
 214:Core/Src/stm32h5xx_it.c **** void GPDMA1_Channel0_IRQHandler(void)
 215:Core/Src/stm32h5xx_it.c **** {
 228              		.loc 1 215 1 is_stmt 1 view -0
 229              		.cfi_startproc
 230              		@ args = 0, pretend = 0, frame = 0
 231              		@ frame_needed = 0, uses_anonymous_args = 0
 232 0000 08B5     		push	{r3, lr}
 233              	.LCFI1:
 234              		.cfi_def_cfa_offset 8
 235              		.cfi_offset 3, -8
 236              		.cfi_offset 14, -4
 216:Core/Src/stm32h5xx_it.c ****   /* USER CODE BEGIN GPDMA1_Channel0_IRQn 0 */
 217:Core/Src/stm32h5xx_it.c **** 
 218:Core/Src/stm32h5xx_it.c ****   /* USER CODE END GPDMA1_Channel0_IRQn 0 */
 219:Core/Src/stm32h5xx_it.c ****   HAL_DMA_IRQHandler(&handle_GPDMA1_Channel0);
 237              		.loc 1 219 3 view .LVU30
 238 0002 0248     		ldr	r0, .L18
 239 0004 FFF7FEFF 		bl	HAL_DMA_IRQHandler
 240              	.LVL1:
 220:Core/Src/stm32h5xx_it.c ****   /* USER CODE BEGIN GPDMA1_Channel0_IRQn 1 */
 221:Core/Src/stm32h5xx_it.c **** 
 222:Core/Src/stm32h5xx_it.c ****   /* USER CODE END GPDMA1_Channel0_IRQn 1 */
 223:Core/Src/stm32h5xx_it.c **** }
 241              		.loc 1 223 1 is_stmt 0 view .LVU31
 242 0008 08BD     		pop	{r3, pc}
 243              	.L19:
 244 000a 00BF     		.align	2
 245              	.L18:
 246 000c 00000000 		.word	handle_GPDMA1_Channel0
 247              		.cfi_endproc
ARM GAS  C:\Users\Xuleo\AppData\Local\Temp\cclFhDta.s 			page 9


 248              	.LFE368:
 250              		.section	.text.GPDMA1_Channel1_IRQHandler,"ax",%progbits
 251              		.align	1
 252              		.global	GPDMA1_Channel1_IRQHandler
 253              		.syntax unified
 254              		.thumb
 255              		.thumb_func
 257              	GPDMA1_Channel1_IRQHandler:
 258              	.LFB369:
 224:Core/Src/stm32h5xx_it.c **** 
 225:Core/Src/stm32h5xx_it.c **** /**
 226:Core/Src/stm32h5xx_it.c ****   * @brief This function handles GPDMA1 Channel 1 global interrupt.
 227:Core/Src/stm32h5xx_it.c ****   */
 228:Core/Src/stm32h5xx_it.c **** void GPDMA1_Channel1_IRQHandler(void)
 229:Core/Src/stm32h5xx_it.c **** {
 259              		.loc 1 229 1 is_stmt 1 view -0
 260              		.cfi_startproc
 261              		@ args = 0, pretend = 0, frame = 0
 262              		@ frame_needed = 0, uses_anonymous_args = 0
 263 0000 08B5     		push	{r3, lr}
 264              	.LCFI2:
 265              		.cfi_def_cfa_offset 8
 266              		.cfi_offset 3, -8
 267              		.cfi_offset 14, -4
 230:Core/Src/stm32h5xx_it.c ****   /* USER CODE BEGIN GPDMA1_Channel1_IRQn 0 */
 231:Core/Src/stm32h5xx_it.c **** 
 232:Core/Src/stm32h5xx_it.c ****   /* USER CODE END GPDMA1_Channel1_IRQn 0 */
 233:Core/Src/stm32h5xx_it.c ****   HAL_DMA_IRQHandler(&handle_GPDMA1_Channel1);
 268              		.loc 1 233 3 view .LVU33
 269 0002 0248     		ldr	r0, .L22
 270 0004 FFF7FEFF 		bl	HAL_DMA_IRQHandler
 271              	.LVL2:
 234:Core/Src/stm32h5xx_it.c ****   /* USER CODE BEGIN GPDMA1_Channel1_IRQn 1 */
 235:Core/Src/stm32h5xx_it.c **** 
 236:Core/Src/stm32h5xx_it.c ****   /* USER CODE END GPDMA1_Channel1_IRQn 1 */
 237:Core/Src/stm32h5xx_it.c **** }
 272              		.loc 1 237 1 is_stmt 0 view .LVU34
 273 0008 08BD     		pop	{r3, pc}
 274              	.L23:
 275 000a 00BF     		.align	2
 276              	.L22:
 277 000c 00000000 		.word	handle_GPDMA1_Channel1
 278              		.cfi_endproc
 279              	.LFE369:
 281              		.section	.text.GPDMA1_Channel2_IRQHandler,"ax",%progbits
 282              		.align	1
 283              		.global	GPDMA1_Channel2_IRQHandler
 284              		.syntax unified
 285              		.thumb
 286              		.thumb_func
 288              	GPDMA1_Channel2_IRQHandler:
 289              	.LFB370:
 238:Core/Src/stm32h5xx_it.c **** 
 239:Core/Src/stm32h5xx_it.c **** /**
 240:Core/Src/stm32h5xx_it.c ****   * @brief This function handles GPDMA1 Channel 2 global interrupt.
 241:Core/Src/stm32h5xx_it.c ****   */
 242:Core/Src/stm32h5xx_it.c **** void GPDMA1_Channel2_IRQHandler(void)
ARM GAS  C:\Users\Xuleo\AppData\Local\Temp\cclFhDta.s 			page 10


 243:Core/Src/stm32h5xx_it.c **** {
 290              		.loc 1 243 1 is_stmt 1 view -0
 291              		.cfi_startproc
 292              		@ args = 0, pretend = 0, frame = 0
 293              		@ frame_needed = 0, uses_anonymous_args = 0
 294 0000 08B5     		push	{r3, lr}
 295              	.LCFI3:
 296              		.cfi_def_cfa_offset 8
 297              		.cfi_offset 3, -8
 298              		.cfi_offset 14, -4
 244:Core/Src/stm32h5xx_it.c ****   /* USER CODE BEGIN GPDMA1_Channel2_IRQn 0 */
 245:Core/Src/stm32h5xx_it.c **** 
 246:Core/Src/stm32h5xx_it.c ****   /* USER CODE END GPDMA1_Channel2_IRQn 0 */
 247:Core/Src/stm32h5xx_it.c ****   HAL_DMA_IRQHandler(&handle_GPDMA1_Channel2);
 299              		.loc 1 247 3 view .LVU36
 300 0002 0248     		ldr	r0, .L26
 301 0004 FFF7FEFF 		bl	HAL_DMA_IRQHandler
 302              	.LVL3:
 248:Core/Src/stm32h5xx_it.c ****   /* USER CODE BEGIN GPDMA1_Channel2_IRQn 1 */
 249:Core/Src/stm32h5xx_it.c **** 
 250:Core/Src/stm32h5xx_it.c ****   /* USER CODE END GPDMA1_Channel2_IRQn 1 */
 251:Core/Src/stm32h5xx_it.c **** }
 303              		.loc 1 251 1 is_stmt 0 view .LVU37
 304 0008 08BD     		pop	{r3, pc}
 305              	.L27:
 306 000a 00BF     		.align	2
 307              	.L26:
 308 000c 00000000 		.word	handle_GPDMA1_Channel2
 309              		.cfi_endproc
 310              	.LFE370:
 312              		.section	.text.ADC1_IRQHandler,"ax",%progbits
 313              		.align	1
 314              		.global	ADC1_IRQHandler
 315              		.syntax unified
 316              		.thumb
 317              		.thumb_func
 319              	ADC1_IRQHandler:
 320              	.LFB371:
 252:Core/Src/stm32h5xx_it.c **** 
 253:Core/Src/stm32h5xx_it.c **** /**
 254:Core/Src/stm32h5xx_it.c ****   * @brief This function handles ADC1 global interrupt.
 255:Core/Src/stm32h5xx_it.c ****   */
 256:Core/Src/stm32h5xx_it.c **** void ADC1_IRQHandler(void)
 257:Core/Src/stm32h5xx_it.c **** {
 321              		.loc 1 257 1 is_stmt 1 view -0
 322              		.cfi_startproc
 323              		@ args = 0, pretend = 0, frame = 0
 324              		@ frame_needed = 0, uses_anonymous_args = 0
 325 0000 08B5     		push	{r3, lr}
 326              	.LCFI4:
 327              		.cfi_def_cfa_offset 8
 328              		.cfi_offset 3, -8
 329              		.cfi_offset 14, -4
 258:Core/Src/stm32h5xx_it.c ****   /* USER CODE BEGIN ADC1_IRQn 0 */
 259:Core/Src/stm32h5xx_it.c **** 
 260:Core/Src/stm32h5xx_it.c ****   /* USER CODE END ADC1_IRQn 0 */
 261:Core/Src/stm32h5xx_it.c ****   HAL_ADC_IRQHandler(&hadc1);
ARM GAS  C:\Users\Xuleo\AppData\Local\Temp\cclFhDta.s 			page 11


 330              		.loc 1 261 3 view .LVU39
 331 0002 0248     		ldr	r0, .L30
 332 0004 FFF7FEFF 		bl	HAL_ADC_IRQHandler
 333              	.LVL4:
 262:Core/Src/stm32h5xx_it.c ****   /* USER CODE BEGIN ADC1_IRQn 1 */
 263:Core/Src/stm32h5xx_it.c **** 
 264:Core/Src/stm32h5xx_it.c ****   /* USER CODE END ADC1_IRQn 1 */
 265:Core/Src/stm32h5xx_it.c **** }
 334              		.loc 1 265 1 is_stmt 0 view .LVU40
 335 0008 08BD     		pop	{r3, pc}
 336              	.L31:
 337 000a 00BF     		.align	2
 338              	.L30:
 339 000c 00000000 		.word	hadc1
 340              		.cfi_endproc
 341              	.LFE371:
 343              		.section	.text.TIM5_IRQHandler,"ax",%progbits
 344              		.align	1
 345              		.global	TIM5_IRQHandler
 346              		.syntax unified
 347              		.thumb
 348              		.thumb_func
 350              	TIM5_IRQHandler:
 351              	.LFB372:
 266:Core/Src/stm32h5xx_it.c **** 
 267:Core/Src/stm32h5xx_it.c **** /**
 268:Core/Src/stm32h5xx_it.c ****   * @brief This function handles TIM5 global interrupt.
 269:Core/Src/stm32h5xx_it.c ****   */
 270:Core/Src/stm32h5xx_it.c **** void TIM5_IRQHandler(void)
 271:Core/Src/stm32h5xx_it.c **** {
 352              		.loc 1 271 1 is_stmt 1 view -0
 353              		.cfi_startproc
 354              		@ args = 0, pretend = 0, frame = 0
 355              		@ frame_needed = 0, uses_anonymous_args = 0
 356 0000 08B5     		push	{r3, lr}
 357              	.LCFI5:
 358              		.cfi_def_cfa_offset 8
 359              		.cfi_offset 3, -8
 360              		.cfi_offset 14, -4
 272:Core/Src/stm32h5xx_it.c ****   /* USER CODE BEGIN TIM5_IRQn 0 */
 273:Core/Src/stm32h5xx_it.c ****   controller_step(0.001f); // 1ms controller step
 361              		.loc 1 273 3 view .LVU42
 362 0002 9FED040A 		vldr.32	s0, .L34
 363 0006 FFF7FEFF 		bl	controller_step
 364              	.LVL5:
 274:Core/Src/stm32h5xx_it.c ****   /* USER CODE END TIM5_IRQn 0 */
 275:Core/Src/stm32h5xx_it.c ****   HAL_TIM_IRQHandler(&htim5);
 365              		.loc 1 275 3 view .LVU43
 366 000a 0348     		ldr	r0, .L34+4
 367 000c FFF7FEFF 		bl	HAL_TIM_IRQHandler
 368              	.LVL6:
 276:Core/Src/stm32h5xx_it.c ****   /* USER CODE BEGIN TIM5_IRQn 1 */
 277:Core/Src/stm32h5xx_it.c **** 
 278:Core/Src/stm32h5xx_it.c ****   /* USER CODE END TIM5_IRQn 1 */
 279:Core/Src/stm32h5xx_it.c **** }
 369              		.loc 1 279 1 is_stmt 0 view .LVU44
 370 0010 08BD     		pop	{r3, pc}
ARM GAS  C:\Users\Xuleo\AppData\Local\Temp\cclFhDta.s 			page 12


 371              	.L35:
 372 0012 00BF     		.align	2
 373              	.L34:
 374 0014 6F12833A 		.word	981668463
 375 0018 00000000 		.word	htim5
 376              		.cfi_endproc
 377              	.LFE372:
 379              		.section	.text.USART1_IRQHandler,"ax",%progbits
 380              		.align	1
 381              		.global	USART1_IRQHandler
 382              		.syntax unified
 383              		.thumb
 384              		.thumb_func
 386              	USART1_IRQHandler:
 387              	.LFB373:
 280:Core/Src/stm32h5xx_it.c **** 
 281:Core/Src/stm32h5xx_it.c **** /**
 282:Core/Src/stm32h5xx_it.c ****   * @brief This function handles USART1 global interrupt.
 283:Core/Src/stm32h5xx_it.c ****   */
 284:Core/Src/stm32h5xx_it.c **** void USART1_IRQHandler(void)
 285:Core/Src/stm32h5xx_it.c **** {
 388              		.loc 1 285 1 is_stmt 1 view -0
 389              		.cfi_startproc
 390              		@ args = 0, pretend = 0, frame = 0
 391              		@ frame_needed = 0, uses_anonymous_args = 0
 392 0000 08B5     		push	{r3, lr}
 393              	.LCFI6:
 394              		.cfi_def_cfa_offset 8
 395              		.cfi_offset 3, -8
 396              		.cfi_offset 14, -4
 286:Core/Src/stm32h5xx_it.c ****   /* USER CODE BEGIN USART1_IRQn 0 */
 287:Core/Src/stm32h5xx_it.c **** 
 288:Core/Src/stm32h5xx_it.c ****   /* USER CODE END USART1_IRQn 0 */
 289:Core/Src/stm32h5xx_it.c ****   HAL_UART_IRQHandler(&huart1);
 397              		.loc 1 289 3 view .LVU46
 398 0002 0248     		ldr	r0, .L38
 399 0004 FFF7FEFF 		bl	HAL_UART_IRQHandler
 400              	.LVL7:
 290:Core/Src/stm32h5xx_it.c ****   /* USER CODE BEGIN USART1_IRQn 1 */
 291:Core/Src/stm32h5xx_it.c **** 
 292:Core/Src/stm32h5xx_it.c ****   /* USER CODE END USART1_IRQn 1 */
 293:Core/Src/stm32h5xx_it.c **** }
 401              		.loc 1 293 1 is_stmt 0 view .LVU47
 402 0008 08BD     		pop	{r3, pc}
 403              	.L39:
 404 000a 00BF     		.align	2
 405              	.L38:
 406 000c 00000000 		.word	huart1
 407              		.cfi_endproc
 408              	.LFE373:
 410              		.text
 411              	.Letext0:
 412              		.file 2 "C:/thirdpartyLibs/arm-gnu-toolchain-15.2/arm-none-eabi/include/machine/_default_types.h"
 413              		.file 3 "C:/thirdpartyLibs/arm-gnu-toolchain-15.2/arm-none-eabi/include/sys/_stdint.h"
 414              		.file 4 "Drivers/CMSIS/Device/ST/STM32H5xx/Include/stm32h523xx.h"
 415              		.file 5 "Drivers/CMSIS/Device/ST/STM32H5xx/Include/stm32h5xx.h"
 416              		.file 6 "Drivers/STM32H5xx_HAL_Driver/Inc/stm32h5xx_hal_def.h"
ARM GAS  C:\Users\Xuleo\AppData\Local\Temp\cclFhDta.s 			page 13


 417              		.file 7 "Drivers/STM32H5xx_HAL_Driver/Inc/stm32h5xx_hal_dma.h"
 418              		.file 8 "Drivers/STM32H5xx_HAL_Driver/Inc/stm32h5xx_hal_dma_ex.h"
 419              		.file 9 "Drivers/STM32H5xx_HAL_Driver/Inc/stm32h5xx_hal_adc.h"
 420              		.file 10 "Drivers/STM32H5xx_HAL_Driver/Inc/stm32h5xx_hal_tim.h"
 421              		.file 11 "Drivers/STM32H5xx_HAL_Driver/Inc/stm32h5xx_hal_uart.h"
 422              		.file 12 "Core/Inc/usart.h"
 423              		.file 13 "Core/Inc/tim.h"
 424              		.file 14 "Core/Inc/adc.h"
 425              		.file 15 "Application/Inc/application.h"
 426              		.file 16 "Drivers/STM32H5xx_HAL_Driver/Inc/stm32h5xx_hal.h"
ARM GAS  C:\Users\Xuleo\AppData\Local\Temp\cclFhDta.s 			page 14

