ARM GAS  C:\Users\Xuleo\AppData\Local\Temp\ccjyl8Li.s 			page 1


   1              		.cpu cortex-m33
   2              		.arch armv8-m.main
   3              		.fpu fpv4-sp-d16
   4              		.arch_extension dsp
   5              		.eabi_attribute 27, 1
   6              		.eabi_attribute 28, 1
   7              		.eabi_attribute 20, 1
   8              		.eabi_attribute 21, 1
   9              		.eabi_attribute 23, 3
  10              		.eabi_attribute 24, 1
  11              		.eabi_attribute 25, 1
  12              		.eabi_attribute 26, 1
  13              		.eabi_attribute 30, 1
  14              		.eabi_attribute 34, 1
  15              		.eabi_attribute 18, 4
  16              		.file	"tim.c"
  17              		.text
  18              	.Ltext0:
  19              		.cfi_sections	.debug_frame
  20              		.file 1 "Core/Src/tim.c"
  21              		.section	.text.MX_TIM2_Init,"ax",%progbits
  22              		.align	1
  23              		.global	MX_TIM2_Init
  24              		.syntax unified
  25              		.thumb
  26              		.thumb_func
  28              	MX_TIM2_Init:
  29              	.LFB160:
   1:Core/Src/tim.c **** /* USER CODE BEGIN Header */
   2:Core/Src/tim.c **** /**
   3:Core/Src/tim.c ****   ******************************************************************************
   4:Core/Src/tim.c ****   * @file    tim.c
   5:Core/Src/tim.c ****   * @brief   This file provides code for the configuration
   6:Core/Src/tim.c ****   *          of the TIM instances.
   7:Core/Src/tim.c ****   ******************************************************************************
   8:Core/Src/tim.c ****   * @attention
   9:Core/Src/tim.c ****   *
  10:Core/Src/tim.c ****   * Copyright (c) 2026 STMicroelectronics.
  11:Core/Src/tim.c ****   * All rights reserved.
  12:Core/Src/tim.c ****   *
  13:Core/Src/tim.c ****   * This software is licensed under terms that can be found in the LICENSE file
  14:Core/Src/tim.c ****   * in the root directory of this software component.
  15:Core/Src/tim.c ****   * If no LICENSE file comes with this software, it is provided AS-IS.
  16:Core/Src/tim.c ****   *
  17:Core/Src/tim.c ****   ******************************************************************************
  18:Core/Src/tim.c ****   */
  19:Core/Src/tim.c **** /* USER CODE END Header */
  20:Core/Src/tim.c **** /* Includes ------------------------------------------------------------------*/
  21:Core/Src/tim.c **** #include "tim.h"
  22:Core/Src/tim.c **** 
  23:Core/Src/tim.c **** /* USER CODE BEGIN 0 */
  24:Core/Src/tim.c **** 
  25:Core/Src/tim.c **** /* USER CODE END 0 */
  26:Core/Src/tim.c **** 
  27:Core/Src/tim.c **** TIM_HandleTypeDef htim2;
  28:Core/Src/tim.c **** 
  29:Core/Src/tim.c **** /* TIM2 init function */
ARM GAS  C:\Users\Xuleo\AppData\Local\Temp\ccjyl8Li.s 			page 2


  30:Core/Src/tim.c **** void MX_TIM2_Init(void)
  31:Core/Src/tim.c **** {
  30              		.loc 1 31 1 view -0
  31              		.cfi_startproc
  32              		@ args = 0, pretend = 0, frame = 32
  33              		@ frame_needed = 0, uses_anonymous_args = 0
  34 0000 00B5     		push	{lr}
  35              	.LCFI0:
  36              		.cfi_def_cfa_offset 4
  37              		.cfi_offset 14, -4
  38 0002 89B0     		sub	sp, sp, #36
  39              	.LCFI1:
  40              		.cfi_def_cfa_offset 40
  32:Core/Src/tim.c **** 
  33:Core/Src/tim.c ****   /* USER CODE BEGIN TIM2_Init 0 */
  34:Core/Src/tim.c **** 
  35:Core/Src/tim.c ****   /* USER CODE END TIM2_Init 0 */
  36:Core/Src/tim.c **** 
  37:Core/Src/tim.c ****   TIM_ClockConfigTypeDef sClockSourceConfig = {0};
  41              		.loc 1 37 3 view .LVU1
  42              		.loc 1 37 26 is_stmt 0 view .LVU2
  43 0004 0023     		movs	r3, #0
  44 0006 0493     		str	r3, [sp, #16]
  45 0008 0593     		str	r3, [sp, #20]
  46 000a 0693     		str	r3, [sp, #24]
  47 000c 0793     		str	r3, [sp, #28]
  38:Core/Src/tim.c ****   TIM_MasterConfigTypeDef sMasterConfig = {0};
  48              		.loc 1 38 3 is_stmt 1 view .LVU3
  49              		.loc 1 38 27 is_stmt 0 view .LVU4
  50 000e 0193     		str	r3, [sp, #4]
  51 0010 0293     		str	r3, [sp, #8]
  52 0012 0393     		str	r3, [sp, #12]
  39:Core/Src/tim.c **** 
  40:Core/Src/tim.c ****   /* USER CODE BEGIN TIM2_Init 1 */
  41:Core/Src/tim.c **** 
  42:Core/Src/tim.c ****   /* USER CODE END TIM2_Init 1 */
  43:Core/Src/tim.c ****   htim2.Instance = TIM2;
  53              		.loc 1 43 3 is_stmt 1 view .LVU5
  54              		.loc 1 43 18 is_stmt 0 view .LVU6
  55 0014 1548     		ldr	r0, .L9
  56 0016 4FF08042 		mov	r2, #1073741824
  57 001a 0260     		str	r2, [r0]
  44:Core/Src/tim.c ****   htim2.Init.Prescaler = 249;
  58              		.loc 1 44 3 is_stmt 1 view .LVU7
  59              		.loc 1 44 24 is_stmt 0 view .LVU8
  60 001c F922     		movs	r2, #249
  61 001e 4260     		str	r2, [r0, #4]
  45:Core/Src/tim.c ****   htim2.Init.CounterMode = TIM_COUNTERMODE_UP;
  62              		.loc 1 45 3 is_stmt 1 view .LVU9
  63              		.loc 1 45 26 is_stmt 0 view .LVU10
  64 0020 8360     		str	r3, [r0, #8]
  46:Core/Src/tim.c ****   htim2.Init.Period = 999;
  65              		.loc 1 46 3 is_stmt 1 view .LVU11
  66              		.loc 1 46 21 is_stmt 0 view .LVU12
  67 0022 40F2E732 		movw	r2, #999
  68 0026 C260     		str	r2, [r0, #12]
  47:Core/Src/tim.c ****   htim2.Init.ClockDivision = TIM_CLOCKDIVISION_DIV1;
ARM GAS  C:\Users\Xuleo\AppData\Local\Temp\ccjyl8Li.s 			page 3


  69              		.loc 1 47 3 is_stmt 1 view .LVU13
  70              		.loc 1 47 28 is_stmt 0 view .LVU14
  71 0028 0361     		str	r3, [r0, #16]
  48:Core/Src/tim.c ****   htim2.Init.AutoReloadPreload = TIM_AUTORELOAD_PRELOAD_ENABLE;
  72              		.loc 1 48 3 is_stmt 1 view .LVU15
  73              		.loc 1 48 32 is_stmt 0 view .LVU16
  74 002a 8023     		movs	r3, #128
  75 002c 8361     		str	r3, [r0, #24]
  49:Core/Src/tim.c ****   if (HAL_TIM_Base_Init(&htim2) != HAL_OK)
  76              		.loc 1 49 3 is_stmt 1 view .LVU17
  77              		.loc 1 49 7 is_stmt 0 view .LVU18
  78 002e FFF7FEFF 		bl	HAL_TIM_Base_Init
  79              	.LVL0:
  80              		.loc 1 49 6 discriminator 1 view .LVU19
  81 0032 88B9     		cbnz	r0, .L6
  82              	.L2:
  50:Core/Src/tim.c ****   {
  51:Core/Src/tim.c ****     Error_Handler();
  52:Core/Src/tim.c ****   }
  53:Core/Src/tim.c ****   sClockSourceConfig.ClockSource = TIM_CLOCKSOURCE_INTERNAL;
  83              		.loc 1 53 3 is_stmt 1 view .LVU20
  84              		.loc 1 53 34 is_stmt 0 view .LVU21
  85 0034 4FF48053 		mov	r3, #4096
  86 0038 0493     		str	r3, [sp, #16]
  54:Core/Src/tim.c ****   if (HAL_TIM_ConfigClockSource(&htim2, &sClockSourceConfig) != HAL_OK)
  87              		.loc 1 54 3 is_stmt 1 view .LVU22
  88              		.loc 1 54 7 is_stmt 0 view .LVU23
  89 003a 04A9     		add	r1, sp, #16
  90 003c 0B48     		ldr	r0, .L9
  91 003e FFF7FEFF 		bl	HAL_TIM_ConfigClockSource
  92              	.LVL1:
  93              		.loc 1 54 6 discriminator 1 view .LVU24
  94 0042 60B9     		cbnz	r0, .L7
  95              	.L3:
  55:Core/Src/tim.c ****   {
  56:Core/Src/tim.c ****     Error_Handler();
  57:Core/Src/tim.c ****   }
  58:Core/Src/tim.c ****   sMasterConfig.MasterOutputTrigger = TIM_TRGO_RESET;
  96              		.loc 1 58 3 is_stmt 1 view .LVU25
  97              		.loc 1 58 37 is_stmt 0 view .LVU26
  98 0044 0023     		movs	r3, #0
  99 0046 0193     		str	r3, [sp, #4]
  59:Core/Src/tim.c ****   sMasterConfig.MasterSlaveMode = TIM_MASTERSLAVEMODE_DISABLE;
 100              		.loc 1 59 3 is_stmt 1 view .LVU27
 101              		.loc 1 59 33 is_stmt 0 view .LVU28
 102 0048 0393     		str	r3, [sp, #12]
  60:Core/Src/tim.c ****   if (HAL_TIMEx_MasterConfigSynchronization(&htim2, &sMasterConfig) != HAL_OK)
 103              		.loc 1 60 3 is_stmt 1 view .LVU29
 104              		.loc 1 60 7 is_stmt 0 view .LVU30
 105 004a 01A9     		add	r1, sp, #4
 106 004c 0748     		ldr	r0, .L9
 107 004e FFF7FEFF 		bl	HAL_TIMEx_MasterConfigSynchronization
 108              	.LVL2:
 109              		.loc 1 60 6 discriminator 1 view .LVU31
 110 0052 38B9     		cbnz	r0, .L8
 111              	.L1:
  61:Core/Src/tim.c ****   {
ARM GAS  C:\Users\Xuleo\AppData\Local\Temp\ccjyl8Li.s 			page 4


  62:Core/Src/tim.c ****     Error_Handler();
  63:Core/Src/tim.c ****   }
  64:Core/Src/tim.c ****   /* USER CODE BEGIN TIM2_Init 2 */
  65:Core/Src/tim.c **** 
  66:Core/Src/tim.c ****   /* USER CODE END TIM2_Init 2 */
  67:Core/Src/tim.c **** 
  68:Core/Src/tim.c **** }
 112              		.loc 1 68 1 view .LVU32
 113 0054 09B0     		add	sp, sp, #36
 114              	.LCFI2:
 115              		.cfi_remember_state
 116              		.cfi_def_cfa_offset 4
 117              		@ sp needed
 118 0056 00BD     		pop	{pc}
 119              	.L6:
 120              	.LCFI3:
 121              		.cfi_restore_state
  51:Core/Src/tim.c ****   }
 122              		.loc 1 51 5 is_stmt 1 view .LVU33
 123 0058 FFF7FEFF 		bl	Error_Handler
 124              	.LVL3:
 125 005c EAE7     		b	.L2
 126              	.L7:
  56:Core/Src/tim.c ****   }
 127              		.loc 1 56 5 view .LVU34
 128 005e FFF7FEFF 		bl	Error_Handler
 129              	.LVL4:
 130 0062 EFE7     		b	.L3
 131              	.L8:
  62:Core/Src/tim.c ****   }
 132              		.loc 1 62 5 view .LVU35
 133 0064 FFF7FEFF 		bl	Error_Handler
 134              	.LVL5:
 135              		.loc 1 68 1 is_stmt 0 view .LVU36
 136 0068 F4E7     		b	.L1
 137              	.L10:
 138 006a 00BF     		.align	2
 139              	.L9:
 140 006c 00000000 		.word	htim2
 141              		.cfi_endproc
 142              	.LFE160:
 144              		.section	.text.HAL_TIM_Base_MspInit,"ax",%progbits
 145              		.align	1
 146              		.global	HAL_TIM_Base_MspInit
 147              		.syntax unified
 148              		.thumb
 149              		.thumb_func
 151              	HAL_TIM_Base_MspInit:
 152              	.LVL6:
 153              	.LFB161:
  69:Core/Src/tim.c **** 
  70:Core/Src/tim.c **** void HAL_TIM_Base_MspInit(TIM_HandleTypeDef* tim_baseHandle)
  71:Core/Src/tim.c **** {
 154              		.loc 1 71 1 is_stmt 1 view -0
 155              		.cfi_startproc
 156              		@ args = 0, pretend = 0, frame = 8
 157              		@ frame_needed = 0, uses_anonymous_args = 0
ARM GAS  C:\Users\Xuleo\AppData\Local\Temp\ccjyl8Li.s 			page 5


  72:Core/Src/tim.c **** 
  73:Core/Src/tim.c ****   if(tim_baseHandle->Instance==TIM2)
 158              		.loc 1 73 3 view .LVU38
 159              		.loc 1 73 20 is_stmt 0 view .LVU39
 160 0000 0368     		ldr	r3, [r0]
 161              		.loc 1 73 5 view .LVU40
 162 0002 B3F1804F 		cmp	r3, #1073741824
 163 0006 00D0     		beq	.L17
 164 0008 7047     		bx	lr
 165              	.L17:
  71:Core/Src/tim.c **** 
 166              		.loc 1 71 1 view .LVU41
 167 000a 00B5     		push	{lr}
 168              	.LCFI4:
 169              		.cfi_def_cfa_offset 4
 170              		.cfi_offset 14, -4
 171 000c 83B0     		sub	sp, sp, #12
 172              	.LCFI5:
 173              		.cfi_def_cfa_offset 16
  74:Core/Src/tim.c ****   {
  75:Core/Src/tim.c ****   /* USER CODE BEGIN TIM2_MspInit 0 */
  76:Core/Src/tim.c **** 
  77:Core/Src/tim.c ****   /* USER CODE END TIM2_MspInit 0 */
  78:Core/Src/tim.c ****     /* TIM2 clock enable */
  79:Core/Src/tim.c ****     __HAL_RCC_TIM2_CLK_ENABLE();
 174              		.loc 1 79 5 is_stmt 1 view .LVU42
 175              	.LBB2:
 176              		.loc 1 79 5 view .LVU43
 177              		.loc 1 79 5 view .LVU44
 178 000e 0B4B     		ldr	r3, .L18
 179 0010 D3F89C20 		ldr	r2, [r3, #156]
 180 0014 42F00102 		orr	r2, r2, #1
 181 0018 C3F89C20 		str	r2, [r3, #156]
 182              		.loc 1 79 5 view .LVU45
 183 001c D3F89C30 		ldr	r3, [r3, #156]
 184 0020 03F00103 		and	r3, r3, #1
 185 0024 0193     		str	r3, [sp, #4]
 186              		.loc 1 79 5 view .LVU46
 187 0026 019B     		ldr	r3, [sp, #4]
 188              	.LBE2:
 189              		.loc 1 79 5 view .LVU47
  80:Core/Src/tim.c **** 
  81:Core/Src/tim.c ****     /* TIM2 interrupt Init */
  82:Core/Src/tim.c ****     HAL_NVIC_SetPriority(TIM2_IRQn, 0, 0);
 190              		.loc 1 82 5 view .LVU48
 191 0028 0022     		movs	r2, #0
 192 002a 1146     		mov	r1, r2
 193 002c 2D20     		movs	r0, #45
 194              	.LVL7:
 195              		.loc 1 82 5 is_stmt 0 view .LVU49
 196 002e FFF7FEFF 		bl	HAL_NVIC_SetPriority
 197              	.LVL8:
  83:Core/Src/tim.c ****     HAL_NVIC_EnableIRQ(TIM2_IRQn);
 198              		.loc 1 83 5 is_stmt 1 view .LVU50
 199 0032 2D20     		movs	r0, #45
 200 0034 FFF7FEFF 		bl	HAL_NVIC_EnableIRQ
 201              	.LVL9:
ARM GAS  C:\Users\Xuleo\AppData\Local\Temp\ccjyl8Li.s 			page 6


  84:Core/Src/tim.c ****   /* USER CODE BEGIN TIM2_MspInit 1 */
  85:Core/Src/tim.c **** 
  86:Core/Src/tim.c ****   /* USER CODE END TIM2_MspInit 1 */
  87:Core/Src/tim.c ****   }
  88:Core/Src/tim.c **** }
 202              		.loc 1 88 1 is_stmt 0 view .LVU51
 203 0038 03B0     		add	sp, sp, #12
 204              	.LCFI6:
 205              		.cfi_def_cfa_offset 4
 206              		@ sp needed
 207 003a 00BD     		pop	{pc}
 208              	.L19:
 209              		.align	2
 210              	.L18:
 211 003c 000C0244 		.word	1140984832
 212              		.cfi_endproc
 213              	.LFE161:
 215              		.section	.text.HAL_TIM_Base_MspDeInit,"ax",%progbits
 216              		.align	1
 217              		.global	HAL_TIM_Base_MspDeInit
 218              		.syntax unified
 219              		.thumb
 220              		.thumb_func
 222              	HAL_TIM_Base_MspDeInit:
 223              	.LVL10:
 224              	.LFB162:
  89:Core/Src/tim.c **** 
  90:Core/Src/tim.c **** void HAL_TIM_Base_MspDeInit(TIM_HandleTypeDef* tim_baseHandle)
  91:Core/Src/tim.c **** {
 225              		.loc 1 91 1 is_stmt 1 view -0
 226              		.cfi_startproc
 227              		@ args = 0, pretend = 0, frame = 0
 228              		@ frame_needed = 0, uses_anonymous_args = 0
 229              		.loc 1 91 1 is_stmt 0 view .LVU53
 230 0000 08B5     		push	{r3, lr}
 231              	.LCFI7:
 232              		.cfi_def_cfa_offset 8
 233              		.cfi_offset 3, -8
 234              		.cfi_offset 14, -4
  92:Core/Src/tim.c **** 
  93:Core/Src/tim.c ****   if(tim_baseHandle->Instance==TIM2)
 235              		.loc 1 93 3 is_stmt 1 view .LVU54
 236              		.loc 1 93 20 is_stmt 0 view .LVU55
 237 0002 0368     		ldr	r3, [r0]
 238              		.loc 1 93 5 view .LVU56
 239 0004 B3F1804F 		cmp	r3, #1073741824
 240 0008 00D0     		beq	.L23
 241              	.LVL11:
 242              	.L20:
  94:Core/Src/tim.c ****   {
  95:Core/Src/tim.c ****   /* USER CODE BEGIN TIM2_MspDeInit 0 */
  96:Core/Src/tim.c **** 
  97:Core/Src/tim.c ****   /* USER CODE END TIM2_MspDeInit 0 */
  98:Core/Src/tim.c ****     /* Peripheral clock disable */
  99:Core/Src/tim.c ****     __HAL_RCC_TIM2_CLK_DISABLE();
 100:Core/Src/tim.c **** 
 101:Core/Src/tim.c ****     /* TIM2 interrupt Deinit */
ARM GAS  C:\Users\Xuleo\AppData\Local\Temp\ccjyl8Li.s 			page 7


 102:Core/Src/tim.c ****     HAL_NVIC_DisableIRQ(TIM2_IRQn);
 103:Core/Src/tim.c ****   /* USER CODE BEGIN TIM2_MspDeInit 1 */
 104:Core/Src/tim.c **** 
 105:Core/Src/tim.c ****   /* USER CODE END TIM2_MspDeInit 1 */
 106:Core/Src/tim.c ****   }
 107:Core/Src/tim.c **** }
 243              		.loc 1 107 1 view .LVU57
 244 000a 08BD     		pop	{r3, pc}
 245              	.LVL12:
 246              	.L23:
  99:Core/Src/tim.c **** 
 247              		.loc 1 99 5 is_stmt 1 view .LVU58
 248 000c 054A     		ldr	r2, .L24
 249 000e D2F89C30 		ldr	r3, [r2, #156]
 250 0012 23F00103 		bic	r3, r3, #1
 251 0016 C2F89C30 		str	r3, [r2, #156]
 102:Core/Src/tim.c ****   /* USER CODE BEGIN TIM2_MspDeInit 1 */
 252              		.loc 1 102 5 view .LVU59
 253 001a 2D20     		movs	r0, #45
 254              	.LVL13:
 102:Core/Src/tim.c ****   /* USER CODE BEGIN TIM2_MspDeInit 1 */
 255              		.loc 1 102 5 is_stmt 0 view .LVU60
 256 001c FFF7FEFF 		bl	HAL_NVIC_DisableIRQ
 257              	.LVL14:
 258              		.loc 1 107 1 view .LVU61
 259 0020 F3E7     		b	.L20
 260              	.L25:
 261 0022 00BF     		.align	2
 262              	.L24:
 263 0024 000C0244 		.word	1140984832
 264              		.cfi_endproc
 265              	.LFE162:
 267              		.global	htim2
 268              		.section	.bss.htim2,"aw",%nobits
 269              		.align	2
 272              	htim2:
 273 0000 00000000 		.space	76
 273      00000000 
 273      00000000 
 273      00000000 
 273      00000000 
 274              		.text
 275              	.Letext0:
 276              		.file 2 "C:/thirdpartyLibs/arm-gnu-toolchain-15.2/arm-none-eabi/include/machine/_default_types.h"
 277              		.file 3 "Drivers/CMSIS/Device/ST/STM32H5xx/Include/stm32h533xx.h"
 278              		.file 4 "C:/thirdpartyLibs/arm-gnu-toolchain-15.2/arm-none-eabi/include/sys/_stdint.h"
 279              		.file 5 "Drivers/STM32H5xx_HAL_Driver/Inc/stm32h5xx_hal_def.h"
 280              		.file 6 "Drivers/STM32H5xx_HAL_Driver/Inc/stm32h5xx_hal_dma.h"
 281              		.file 7 "Drivers/STM32H5xx_HAL_Driver/Inc/stm32h5xx_hal_dma_ex.h"
 282              		.file 8 "Drivers/STM32H5xx_HAL_Driver/Inc/stm32h5xx_hal_tim.h"
 283              		.file 9 "Drivers/STM32H5xx_HAL_Driver/Inc/stm32h5xx_hal_cortex.h"
 284              		.file 10 "Drivers/STM32H5xx_HAL_Driver/Inc/stm32h5xx_hal_tim_ex.h"
 285              		.file 11 "Core/Inc/tim.h"
 286              		.file 12 "Core/Inc/main.h"
ARM GAS  C:\Users\Xuleo\AppData\Local\Temp\ccjyl8Li.s 			page 8

