ARM GAS  C:\Users\Xuleo\AppData\Local\Temp\ccEP3fIb.s 			page 1


   1              		.cpu cortex-m3
   2              		.arch armv7-m
   3              		.fpu softvfp
   4              		.eabi_attribute 20, 1
   5              		.eabi_attribute 21, 1
   6              		.eabi_attribute 23, 3
   7              		.eabi_attribute 24, 1
   8              		.eabi_attribute 25, 1
   9              		.eabi_attribute 26, 1
  10              		.eabi_attribute 30, 1
  11              		.eabi_attribute 34, 1
  12              		.eabi_attribute 18, 4
  13              		.file	"tim.c"
  14              		.text
  15              	.Ltext0:
  16              		.cfi_sections	.debug_frame
  17              		.file 1 "Core/Src/tim.c"
  18              		.section	.text.MX_TIM2_Init,"ax",%progbits
  19              		.align	1
  20              		.global	MX_TIM2_Init
  21              		.syntax unified
  22              		.thumb
  23              		.thumb_func
  25              	MX_TIM2_Init:
  26              	.LFB65:
   1:Core/Src/tim.c **** /* USER CODE BEGIN Header */
   2:Core/Src/tim.c **** /**
   3:Core/Src/tim.c ****   ******************************************************************************
   4:Core/Src/tim.c ****   * @file    tim.c
   5:Core/Src/tim.c ****   * @brief   This file provides code for the configuration
   6:Core/Src/tim.c ****   *          of the TIM instances.
   7:Core/Src/tim.c ****   ******************************************************************************
   8:Core/Src/tim.c ****   * @attention
   9:Core/Src/tim.c ****   *
  10:Core/Src/tim.c ****   * Copyright (c) 2026 STMicroelectronics.
  11:Core/Src/tim.c ****   * All rights reserved.
  12:Core/Src/tim.c ****   *
  13:Core/Src/tim.c ****   * This software is licensed under terms that can be found in the LICENSE file
  14:Core/Src/tim.c ****   * in the root directory of this software component.
  15:Core/Src/tim.c ****   * If no LICENSE file comes with this software, it is provided AS-IS.
  16:Core/Src/tim.c ****   *
  17:Core/Src/tim.c ****   ******************************************************************************
  18:Core/Src/tim.c ****   */
  19:Core/Src/tim.c **** /* USER CODE END Header */
  20:Core/Src/tim.c **** /* Includes ------------------------------------------------------------------*/
  21:Core/Src/tim.c **** #include "tim.h"
  22:Core/Src/tim.c **** 
  23:Core/Src/tim.c **** /* USER CODE BEGIN 0 */
  24:Core/Src/tim.c **** 
  25:Core/Src/tim.c **** /* USER CODE END 0 */
  26:Core/Src/tim.c **** 
  27:Core/Src/tim.c **** TIM_HandleTypeDef htim2;
  28:Core/Src/tim.c **** TIM_HandleTypeDef htim3;
  29:Core/Src/tim.c **** TIM_HandleTypeDef htim4;
  30:Core/Src/tim.c **** 
  31:Core/Src/tim.c **** /* TIM2 init function */
  32:Core/Src/tim.c **** void MX_TIM2_Init(void)
ARM GAS  C:\Users\Xuleo\AppData\Local\Temp\ccEP3fIb.s 			page 2


  33:Core/Src/tim.c **** {
  27              		.loc 1 33 1 view -0
  28              		.cfi_startproc
  29              		@ args = 0, pretend = 0, frame = 48
  30              		@ frame_needed = 0, uses_anonymous_args = 0
  31 0000 10B5     		push	{r4, lr}
  32              	.LCFI0:
  33              		.cfi_def_cfa_offset 8
  34              		.cfi_offset 4, -8
  35              		.cfi_offset 14, -4
  36 0002 8CB0     		sub	sp, sp, #48
  37              	.LCFI1:
  38              		.cfi_def_cfa_offset 56
  34:Core/Src/tim.c **** 
  35:Core/Src/tim.c ****   /* USER CODE BEGIN TIM2_Init 0 */
  36:Core/Src/tim.c **** 
  37:Core/Src/tim.c ****   /* USER CODE END TIM2_Init 0 */
  38:Core/Src/tim.c **** 
  39:Core/Src/tim.c ****   TIM_Encoder_InitTypeDef sConfig = {0};
  39              		.loc 1 39 3 view .LVU1
  40              		.loc 1 39 27 is_stmt 0 view .LVU2
  41 0004 03AC     		add	r4, sp, #12
  42 0006 2422     		movs	r2, #36
  43 0008 0021     		movs	r1, #0
  44 000a 2046     		mov	r0, r4
  45 000c FFF7FEFF 		bl	memset
  46              	.LVL0:
  40:Core/Src/tim.c ****   TIM_MasterConfigTypeDef sMasterConfig = {0};
  47              		.loc 1 40 3 is_stmt 1 view .LVU3
  48              		.loc 1 40 27 is_stmt 0 view .LVU4
  49 0010 0023     		movs	r3, #0
  50 0012 0193     		str	r3, [sp, #4]
  51 0014 0293     		str	r3, [sp, #8]
  41:Core/Src/tim.c **** 
  42:Core/Src/tim.c ****   /* USER CODE BEGIN TIM2_Init 1 */
  43:Core/Src/tim.c **** 
  44:Core/Src/tim.c ****   /* USER CODE END TIM2_Init 1 */
  45:Core/Src/tim.c ****   htim2.Instance = TIM2;
  52              		.loc 1 45 3 is_stmt 1 view .LVU5
  53              		.loc 1 45 18 is_stmt 0 view .LVU6
  54 0016 1148     		ldr	r0, .L7
  55 0018 4FF08042 		mov	r2, #1073741824
  56 001c 0260     		str	r2, [r0]
  46:Core/Src/tim.c ****   htim2.Init.Prescaler = 0;
  57              		.loc 1 46 3 is_stmt 1 view .LVU7
  58              		.loc 1 46 24 is_stmt 0 view .LVU8
  59 001e 4360     		str	r3, [r0, #4]
  47:Core/Src/tim.c ****   htim2.Init.CounterMode = TIM_COUNTERMODE_UP;
  60              		.loc 1 47 3 is_stmt 1 view .LVU9
  61              		.loc 1 47 26 is_stmt 0 view .LVU10
  62 0020 8360     		str	r3, [r0, #8]
  48:Core/Src/tim.c ****   htim2.Init.Period = 65535;
  63              		.loc 1 48 3 is_stmt 1 view .LVU11
  64              		.loc 1 48 21 is_stmt 0 view .LVU12
  65 0022 4FF6FF72 		movw	r2, #65535
  66 0026 C260     		str	r2, [r0, #12]
  49:Core/Src/tim.c ****   htim2.Init.ClockDivision = TIM_CLOCKDIVISION_DIV1;
ARM GAS  C:\Users\Xuleo\AppData\Local\Temp\ccEP3fIb.s 			page 3


  67              		.loc 1 49 3 is_stmt 1 view .LVU13
  68              		.loc 1 49 28 is_stmt 0 view .LVU14
  69 0028 0361     		str	r3, [r0, #16]
  50:Core/Src/tim.c ****   htim2.Init.AutoReloadPreload = TIM_AUTORELOAD_PRELOAD_DISABLE;
  70              		.loc 1 50 3 is_stmt 1 view .LVU15
  71              		.loc 1 50 32 is_stmt 0 view .LVU16
  72 002a 8361     		str	r3, [r0, #24]
  51:Core/Src/tim.c ****   sConfig.EncoderMode = TIM_ENCODERMODE_TI1;
  73              		.loc 1 51 3 is_stmt 1 view .LVU17
  74              		.loc 1 51 23 is_stmt 0 view .LVU18
  75 002c 0123     		movs	r3, #1
  76 002e 0393     		str	r3, [sp, #12]
  52:Core/Src/tim.c ****   sConfig.IC1Polarity = TIM_ICPOLARITY_RISING;
  77              		.loc 1 52 3 is_stmt 1 view .LVU19
  53:Core/Src/tim.c ****   sConfig.IC1Selection = TIM_ICSELECTION_DIRECTTI;
  78              		.loc 1 53 3 view .LVU20
  79              		.loc 1 53 24 is_stmt 0 view .LVU21
  80 0030 0593     		str	r3, [sp, #20]
  54:Core/Src/tim.c ****   sConfig.IC1Prescaler = TIM_ICPSC_DIV1;
  81              		.loc 1 54 3 is_stmt 1 view .LVU22
  55:Core/Src/tim.c ****   sConfig.IC1Filter = 0;
  82              		.loc 1 55 3 view .LVU23
  56:Core/Src/tim.c ****   sConfig.IC2Polarity = TIM_ICPOLARITY_RISING;
  83              		.loc 1 56 3 view .LVU24
  57:Core/Src/tim.c ****   sConfig.IC2Selection = TIM_ICSELECTION_DIRECTTI;
  84              		.loc 1 57 3 view .LVU25
  85              		.loc 1 57 24 is_stmt 0 view .LVU26
  86 0032 0993     		str	r3, [sp, #36]
  58:Core/Src/tim.c ****   sConfig.IC2Prescaler = TIM_ICPSC_DIV1;
  87              		.loc 1 58 3 is_stmt 1 view .LVU27
  59:Core/Src/tim.c ****   sConfig.IC2Filter = 0;
  88              		.loc 1 59 3 view .LVU28
  60:Core/Src/tim.c ****   if (HAL_TIM_Encoder_Init(&htim2, &sConfig) != HAL_OK)
  89              		.loc 1 60 3 view .LVU29
  90              		.loc 1 60 7 is_stmt 0 view .LVU30
  91 0034 2146     		mov	r1, r4
  92 0036 FFF7FEFF 		bl	HAL_TIM_Encoder_Init
  93              	.LVL1:
  94              		.loc 1 60 6 discriminator 1 view .LVU31
  95 003a 48B9     		cbnz	r0, .L5
  96              	.L2:
  61:Core/Src/tim.c ****   {
  62:Core/Src/tim.c ****     Error_Handler();
  63:Core/Src/tim.c ****   }
  64:Core/Src/tim.c ****   sMasterConfig.MasterOutputTrigger = TIM_TRGO_RESET;
  97              		.loc 1 64 3 is_stmt 1 view .LVU32
  98              		.loc 1 64 37 is_stmt 0 view .LVU33
  99 003c 0023     		movs	r3, #0
 100 003e 0193     		str	r3, [sp, #4]
  65:Core/Src/tim.c ****   sMasterConfig.MasterSlaveMode = TIM_MASTERSLAVEMODE_DISABLE;
 101              		.loc 1 65 3 is_stmt 1 view .LVU34
 102              		.loc 1 65 33 is_stmt 0 view .LVU35
 103 0040 0293     		str	r3, [sp, #8]
  66:Core/Src/tim.c ****   if (HAL_TIMEx_MasterConfigSynchronization(&htim2, &sMasterConfig) != HAL_OK)
 104              		.loc 1 66 3 is_stmt 1 view .LVU36
 105              		.loc 1 66 7 is_stmt 0 view .LVU37
 106 0042 01A9     		add	r1, sp, #4
ARM GAS  C:\Users\Xuleo\AppData\Local\Temp\ccEP3fIb.s 			page 4


 107 0044 0548     		ldr	r0, .L7
 108 0046 FFF7FEFF 		bl	HAL_TIMEx_MasterConfigSynchronization
 109              	.LVL2:
 110              		.loc 1 66 6 discriminator 1 view .LVU38
 111 004a 20B9     		cbnz	r0, .L6
 112              	.L1:
  67:Core/Src/tim.c ****   {
  68:Core/Src/tim.c ****     Error_Handler();
  69:Core/Src/tim.c ****   }
  70:Core/Src/tim.c ****   /* USER CODE BEGIN TIM2_Init 2 */
  71:Core/Src/tim.c **** 
  72:Core/Src/tim.c ****   /* USER CODE END TIM2_Init 2 */
  73:Core/Src/tim.c **** 
  74:Core/Src/tim.c **** }
 113              		.loc 1 74 1 view .LVU39
 114 004c 0CB0     		add	sp, sp, #48
 115              	.LCFI2:
 116              		.cfi_remember_state
 117              		.cfi_def_cfa_offset 8
 118              		@ sp needed
 119 004e 10BD     		pop	{r4, pc}
 120              	.L5:
 121              	.LCFI3:
 122              		.cfi_restore_state
  62:Core/Src/tim.c ****   }
 123              		.loc 1 62 5 is_stmt 1 view .LVU40
 124 0050 FFF7FEFF 		bl	Error_Handler
 125              	.LVL3:
 126 0054 F2E7     		b	.L2
 127              	.L6:
  68:Core/Src/tim.c ****   }
 128              		.loc 1 68 5 view .LVU41
 129 0056 FFF7FEFF 		bl	Error_Handler
 130              	.LVL4:
 131              		.loc 1 74 1 is_stmt 0 view .LVU42
 132 005a F7E7     		b	.L1
 133              	.L8:
 134              		.align	2
 135              	.L7:
 136 005c 00000000 		.word	htim2
 137              		.cfi_endproc
 138              	.LFE65:
 140              		.section	.text.MX_TIM4_Init,"ax",%progbits
 141              		.align	1
 142              		.global	MX_TIM4_Init
 143              		.syntax unified
 144              		.thumb
 145              		.thumb_func
 147              	MX_TIM4_Init:
 148              	.LFB67:
  75:Core/Src/tim.c **** /* TIM3 init function */
  76:Core/Src/tim.c **** void MX_TIM3_Init(void)
  77:Core/Src/tim.c **** {
  78:Core/Src/tim.c **** 
  79:Core/Src/tim.c ****   /* USER CODE BEGIN TIM3_Init 0 */
  80:Core/Src/tim.c **** 
  81:Core/Src/tim.c ****   /* USER CODE END TIM3_Init 0 */
ARM GAS  C:\Users\Xuleo\AppData\Local\Temp\ccEP3fIb.s 			page 5


  82:Core/Src/tim.c **** 
  83:Core/Src/tim.c ****   TIM_ClockConfigTypeDef sClockSourceConfig = {0};
  84:Core/Src/tim.c ****   TIM_MasterConfigTypeDef sMasterConfig = {0};
  85:Core/Src/tim.c ****   TIM_OC_InitTypeDef sConfigOC = {0};
  86:Core/Src/tim.c **** 
  87:Core/Src/tim.c ****   /* USER CODE BEGIN TIM3_Init 1 */
  88:Core/Src/tim.c **** 
  89:Core/Src/tim.c ****   /* USER CODE END TIM3_Init 1 */
  90:Core/Src/tim.c ****   htim3.Instance = TIM3;
  91:Core/Src/tim.c ****   htim3.Init.Prescaler = 71;
  92:Core/Src/tim.c ****   htim3.Init.CounterMode = TIM_COUNTERMODE_UP;
  93:Core/Src/tim.c ****   htim3.Init.Period = 499;
  94:Core/Src/tim.c ****   htim3.Init.ClockDivision = TIM_CLOCKDIVISION_DIV1;
  95:Core/Src/tim.c ****   htim3.Init.AutoReloadPreload = TIM_AUTORELOAD_PRELOAD_ENABLE;
  96:Core/Src/tim.c ****   if (HAL_TIM_Base_Init(&htim3) != HAL_OK)
  97:Core/Src/tim.c ****   {
  98:Core/Src/tim.c ****     Error_Handler();
  99:Core/Src/tim.c ****   }
 100:Core/Src/tim.c ****   sClockSourceConfig.ClockSource = TIM_CLOCKSOURCE_INTERNAL;
 101:Core/Src/tim.c ****   if (HAL_TIM_ConfigClockSource(&htim3, &sClockSourceConfig) != HAL_OK)
 102:Core/Src/tim.c ****   {
 103:Core/Src/tim.c ****     Error_Handler();
 104:Core/Src/tim.c ****   }
 105:Core/Src/tim.c ****   if (HAL_TIM_PWM_Init(&htim3) != HAL_OK)
 106:Core/Src/tim.c ****   {
 107:Core/Src/tim.c ****     Error_Handler();
 108:Core/Src/tim.c ****   }
 109:Core/Src/tim.c ****   sMasterConfig.MasterOutputTrigger = TIM_TRGO_RESET;
 110:Core/Src/tim.c ****   sMasterConfig.MasterSlaveMode = TIM_MASTERSLAVEMODE_DISABLE;
 111:Core/Src/tim.c ****   if (HAL_TIMEx_MasterConfigSynchronization(&htim3, &sMasterConfig) != HAL_OK)
 112:Core/Src/tim.c ****   {
 113:Core/Src/tim.c ****     Error_Handler();
 114:Core/Src/tim.c ****   }
 115:Core/Src/tim.c ****   sConfigOC.OCMode = TIM_OCMODE_PWM1;
 116:Core/Src/tim.c ****   sConfigOC.Pulse = 0;
 117:Core/Src/tim.c ****   sConfigOC.OCPolarity = TIM_OCPOLARITY_HIGH;
 118:Core/Src/tim.c ****   sConfigOC.OCFastMode = TIM_OCFAST_DISABLE;
 119:Core/Src/tim.c ****   if (HAL_TIM_PWM_ConfigChannel(&htim3, &sConfigOC, TIM_CHANNEL_1) != HAL_OK)
 120:Core/Src/tim.c ****   {
 121:Core/Src/tim.c ****     Error_Handler();
 122:Core/Src/tim.c ****   }
 123:Core/Src/tim.c ****   if (HAL_TIM_PWM_ConfigChannel(&htim3, &sConfigOC, TIM_CHANNEL_2) != HAL_OK)
 124:Core/Src/tim.c ****   {
 125:Core/Src/tim.c ****     Error_Handler();
 126:Core/Src/tim.c ****   }
 127:Core/Src/tim.c ****   /* USER CODE BEGIN TIM3_Init 2 */
 128:Core/Src/tim.c **** 
 129:Core/Src/tim.c ****   /* USER CODE END TIM3_Init 2 */
 130:Core/Src/tim.c ****   HAL_TIM_MspPostInit(&htim3);
 131:Core/Src/tim.c **** 
 132:Core/Src/tim.c **** }
 133:Core/Src/tim.c **** /* TIM4 init function */
 134:Core/Src/tim.c **** void MX_TIM4_Init(void)
 135:Core/Src/tim.c **** {
 149              		.loc 1 135 1 is_stmt 1 view -0
 150              		.cfi_startproc
 151              		@ args = 0, pretend = 0, frame = 24
ARM GAS  C:\Users\Xuleo\AppData\Local\Temp\ccEP3fIb.s 			page 6


 152              		@ frame_needed = 0, uses_anonymous_args = 0
 153 0000 00B5     		push	{lr}
 154              	.LCFI4:
 155              		.cfi_def_cfa_offset 4
 156              		.cfi_offset 14, -4
 157 0002 87B0     		sub	sp, sp, #28
 158              	.LCFI5:
 159              		.cfi_def_cfa_offset 32
 136:Core/Src/tim.c **** 
 137:Core/Src/tim.c ****   /* USER CODE BEGIN TIM4_Init 0 */
 138:Core/Src/tim.c **** 
 139:Core/Src/tim.c ****   /* USER CODE END TIM4_Init 0 */
 140:Core/Src/tim.c **** 
 141:Core/Src/tim.c ****   TIM_ClockConfigTypeDef sClockSourceConfig = {0};
 160              		.loc 1 141 3 view .LVU44
 161              		.loc 1 141 26 is_stmt 0 view .LVU45
 162 0004 0023     		movs	r3, #0
 163 0006 0293     		str	r3, [sp, #8]
 164 0008 0393     		str	r3, [sp, #12]
 165 000a 0493     		str	r3, [sp, #16]
 166 000c 0593     		str	r3, [sp, #20]
 142:Core/Src/tim.c ****   TIM_MasterConfigTypeDef sMasterConfig = {0};
 167              		.loc 1 142 3 is_stmt 1 view .LVU46
 168              		.loc 1 142 27 is_stmt 0 view .LVU47
 169 000e 0093     		str	r3, [sp]
 170 0010 0193     		str	r3, [sp, #4]
 143:Core/Src/tim.c **** 
 144:Core/Src/tim.c ****   /* USER CODE BEGIN TIM4_Init 1 */
 145:Core/Src/tim.c **** 
 146:Core/Src/tim.c ****   /* USER CODE END TIM4_Init 1 */
 147:Core/Src/tim.c ****   htim4.Instance = TIM4;
 171              		.loc 1 147 3 is_stmt 1 view .LVU48
 172              		.loc 1 147 18 is_stmt 0 view .LVU49
 173 0012 1448     		ldr	r0, .L17
 174 0014 144A     		ldr	r2, .L17+4
 175 0016 0260     		str	r2, [r0]
 148:Core/Src/tim.c ****   htim4.Init.Prescaler = 0;
 176              		.loc 1 148 3 is_stmt 1 view .LVU50
 177              		.loc 1 148 24 is_stmt 0 view .LVU51
 178 0018 4360     		str	r3, [r0, #4]
 149:Core/Src/tim.c ****   htim4.Init.CounterMode = TIM_COUNTERMODE_UP;
 179              		.loc 1 149 3 is_stmt 1 view .LVU52
 180              		.loc 1 149 26 is_stmt 0 view .LVU53
 181 001a 8360     		str	r3, [r0, #8]
 150:Core/Src/tim.c ****   htim4.Init.Period = 65535;
 182              		.loc 1 150 3 is_stmt 1 view .LVU54
 183              		.loc 1 150 21 is_stmt 0 view .LVU55
 184 001c 4FF6FF72 		movw	r2, #65535
 185 0020 C260     		str	r2, [r0, #12]
 151:Core/Src/tim.c ****   htim4.Init.ClockDivision = TIM_CLOCKDIVISION_DIV1;
 186              		.loc 1 151 3 is_stmt 1 view .LVU56
 187              		.loc 1 151 28 is_stmt 0 view .LVU57
 188 0022 0361     		str	r3, [r0, #16]
 152:Core/Src/tim.c ****   htim4.Init.AutoReloadPreload = TIM_AUTORELOAD_PRELOAD_DISABLE;
 189              		.loc 1 152 3 is_stmt 1 view .LVU58
 190              		.loc 1 152 32 is_stmt 0 view .LVU59
 191 0024 8361     		str	r3, [r0, #24]
ARM GAS  C:\Users\Xuleo\AppData\Local\Temp\ccEP3fIb.s 			page 7


 153:Core/Src/tim.c ****   if (HAL_TIM_Base_Init(&htim4) != HAL_OK)
 192              		.loc 1 153 3 is_stmt 1 view .LVU60
 193              		.loc 1 153 7 is_stmt 0 view .LVU61
 194 0026 FFF7FEFF 		bl	HAL_TIM_Base_Init
 195              	.LVL5:
 196              		.loc 1 153 6 discriminator 1 view .LVU62
 197 002a 88B9     		cbnz	r0, .L14
 198              	.L10:
 154:Core/Src/tim.c ****   {
 155:Core/Src/tim.c ****     Error_Handler();
 156:Core/Src/tim.c ****   }
 157:Core/Src/tim.c ****   sClockSourceConfig.ClockSource = TIM_CLOCKSOURCE_INTERNAL;
 199              		.loc 1 157 3 is_stmt 1 view .LVU63
 200              		.loc 1 157 34 is_stmt 0 view .LVU64
 201 002c 4FF48053 		mov	r3, #4096
 202 0030 0293     		str	r3, [sp, #8]
 158:Core/Src/tim.c ****   if (HAL_TIM_ConfigClockSource(&htim4, &sClockSourceConfig) != HAL_OK)
 203              		.loc 1 158 3 is_stmt 1 view .LVU65
 204              		.loc 1 158 7 is_stmt 0 view .LVU66
 205 0032 02A9     		add	r1, sp, #8
 206 0034 0B48     		ldr	r0, .L17
 207 0036 FFF7FEFF 		bl	HAL_TIM_ConfigClockSource
 208              	.LVL6:
 209              		.loc 1 158 6 discriminator 1 view .LVU67
 210 003a 60B9     		cbnz	r0, .L15
 211              	.L11:
 159:Core/Src/tim.c ****   {
 160:Core/Src/tim.c ****     Error_Handler();
 161:Core/Src/tim.c ****   }
 162:Core/Src/tim.c ****   sMasterConfig.MasterOutputTrigger = TIM_TRGO_RESET;
 212              		.loc 1 162 3 is_stmt 1 view .LVU68
 213              		.loc 1 162 37 is_stmt 0 view .LVU69
 214 003c 0023     		movs	r3, #0
 215 003e 0093     		str	r3, [sp]
 163:Core/Src/tim.c ****   sMasterConfig.MasterSlaveMode = TIM_MASTERSLAVEMODE_DISABLE;
 216              		.loc 1 163 3 is_stmt 1 view .LVU70
 217              		.loc 1 163 33 is_stmt 0 view .LVU71
 218 0040 0193     		str	r3, [sp, #4]
 164:Core/Src/tim.c ****   if (HAL_TIMEx_MasterConfigSynchronization(&htim4, &sMasterConfig) != HAL_OK)
 219              		.loc 1 164 3 is_stmt 1 view .LVU72
 220              		.loc 1 164 7 is_stmt 0 view .LVU73
 221 0042 6946     		mov	r1, sp
 222 0044 0748     		ldr	r0, .L17
 223 0046 FFF7FEFF 		bl	HAL_TIMEx_MasterConfigSynchronization
 224              	.LVL7:
 225              		.loc 1 164 6 discriminator 1 view .LVU74
 226 004a 38B9     		cbnz	r0, .L16
 227              	.L9:
 165:Core/Src/tim.c ****   {
 166:Core/Src/tim.c ****     Error_Handler();
 167:Core/Src/tim.c ****   }
 168:Core/Src/tim.c ****   /* USER CODE BEGIN TIM4_Init 2 */
 169:Core/Src/tim.c **** 
 170:Core/Src/tim.c ****   /* USER CODE END TIM4_Init 2 */
 171:Core/Src/tim.c **** 
 172:Core/Src/tim.c **** }
 228              		.loc 1 172 1 view .LVU75
ARM GAS  C:\Users\Xuleo\AppData\Local\Temp\ccEP3fIb.s 			page 8


 229 004c 07B0     		add	sp, sp, #28
 230              	.LCFI6:
 231              		.cfi_remember_state
 232              		.cfi_def_cfa_offset 4
 233              		@ sp needed
 234 004e 00BD     		pop	{pc}
 235              	.L14:
 236              	.LCFI7:
 237              		.cfi_restore_state
 155:Core/Src/tim.c ****   }
 238              		.loc 1 155 5 is_stmt 1 view .LVU76
 239 0050 FFF7FEFF 		bl	Error_Handler
 240              	.LVL8:
 241 0054 EAE7     		b	.L10
 242              	.L15:
 160:Core/Src/tim.c ****   }
 243              		.loc 1 160 5 view .LVU77
 244 0056 FFF7FEFF 		bl	Error_Handler
 245              	.LVL9:
 246 005a EFE7     		b	.L11
 247              	.L16:
 166:Core/Src/tim.c ****   }
 248              		.loc 1 166 5 view .LVU78
 249 005c FFF7FEFF 		bl	Error_Handler
 250              	.LVL10:
 251              		.loc 1 172 1 is_stmt 0 view .LVU79
 252 0060 F4E7     		b	.L9
 253              	.L18:
 254 0062 00BF     		.align	2
 255              	.L17:
 256 0064 00000000 		.word	htim4
 257 0068 00080040 		.word	1073743872
 258              		.cfi_endproc
 259              	.LFE67:
 261              		.section	.text.HAL_TIM_Encoder_MspInit,"ax",%progbits
 262              		.align	1
 263              		.global	HAL_TIM_Encoder_MspInit
 264              		.syntax unified
 265              		.thumb
 266              		.thumb_func
 268              	HAL_TIM_Encoder_MspInit:
 269              	.LVL11:
 270              	.LFB68:
 173:Core/Src/tim.c **** 
 174:Core/Src/tim.c **** void HAL_TIM_Encoder_MspInit(TIM_HandleTypeDef* tim_encoderHandle)
 175:Core/Src/tim.c **** {
 271              		.loc 1 175 1 is_stmt 1 view -0
 272              		.cfi_startproc
 273              		@ args = 0, pretend = 0, frame = 24
 274              		@ frame_needed = 0, uses_anonymous_args = 0
 275              		.loc 1 175 1 is_stmt 0 view .LVU81
 276 0000 00B5     		push	{lr}
 277              	.LCFI8:
 278              		.cfi_def_cfa_offset 4
 279              		.cfi_offset 14, -4
 280 0002 87B0     		sub	sp, sp, #28
 281              	.LCFI9:
ARM GAS  C:\Users\Xuleo\AppData\Local\Temp\ccEP3fIb.s 			page 9


 282              		.cfi_def_cfa_offset 32
 176:Core/Src/tim.c **** 
 177:Core/Src/tim.c ****   GPIO_InitTypeDef GPIO_InitStruct = {0};
 283              		.loc 1 177 3 is_stmt 1 view .LVU82
 284              		.loc 1 177 20 is_stmt 0 view .LVU83
 285 0004 0023     		movs	r3, #0
 286 0006 0293     		str	r3, [sp, #8]
 287 0008 0393     		str	r3, [sp, #12]
 288 000a 0493     		str	r3, [sp, #16]
 289 000c 0593     		str	r3, [sp, #20]
 178:Core/Src/tim.c ****   if(tim_encoderHandle->Instance==TIM2)
 290              		.loc 1 178 3 is_stmt 1 view .LVU84
 291              		.loc 1 178 23 is_stmt 0 view .LVU85
 292 000e 0368     		ldr	r3, [r0]
 293              		.loc 1 178 5 view .LVU86
 294 0010 B3F1804F 		cmp	r3, #1073741824
 295 0014 01D0     		beq	.L22
 296              	.LVL12:
 297              	.L19:
 179:Core/Src/tim.c ****   {
 180:Core/Src/tim.c ****   /* USER CODE BEGIN TIM2_MspInit 0 */
 181:Core/Src/tim.c **** 
 182:Core/Src/tim.c ****   /* USER CODE END TIM2_MspInit 0 */
 183:Core/Src/tim.c ****     /* TIM2 clock enable */
 184:Core/Src/tim.c ****     __HAL_RCC_TIM2_CLK_ENABLE();
 185:Core/Src/tim.c **** 
 186:Core/Src/tim.c ****     __HAL_RCC_GPIOA_CLK_ENABLE();
 187:Core/Src/tim.c ****     /**TIM2 GPIO Configuration
 188:Core/Src/tim.c ****     PA0-WKUP     ------> TIM2_CH1
 189:Core/Src/tim.c ****     PA1     ------> TIM2_CH2
 190:Core/Src/tim.c ****     */
 191:Core/Src/tim.c ****     GPIO_InitStruct.Pin = GPIO_PIN_0|GPIO_PIN_1;
 192:Core/Src/tim.c ****     GPIO_InitStruct.Mode = GPIO_MODE_INPUT;
 193:Core/Src/tim.c ****     GPIO_InitStruct.Pull = GPIO_NOPULL;
 194:Core/Src/tim.c ****     HAL_GPIO_Init(GPIOA, &GPIO_InitStruct);
 195:Core/Src/tim.c **** 
 196:Core/Src/tim.c ****   /* USER CODE BEGIN TIM2_MspInit 1 */
 197:Core/Src/tim.c **** 
 198:Core/Src/tim.c ****   /* USER CODE END TIM2_MspInit 1 */
 199:Core/Src/tim.c ****   }
 200:Core/Src/tim.c **** }
 298              		.loc 1 200 1 view .LVU87
 299 0016 07B0     		add	sp, sp, #28
 300              	.LCFI10:
 301              		.cfi_remember_state
 302              		.cfi_def_cfa_offset 4
 303              		@ sp needed
 304 0018 00BD     		pop	{pc}
 305              	.LVL13:
 306              	.L22:
 307              	.LCFI11:
 308              		.cfi_restore_state
 184:Core/Src/tim.c **** 
 309              		.loc 1 184 5 is_stmt 1 view .LVU88
 310              	.LBB2:
 184:Core/Src/tim.c **** 
 311              		.loc 1 184 5 view .LVU89
ARM GAS  C:\Users\Xuleo\AppData\Local\Temp\ccEP3fIb.s 			page 10


 184:Core/Src/tim.c **** 
 312              		.loc 1 184 5 view .LVU90
 313 001a 03F50433 		add	r3, r3, #135168
 314 001e DA69     		ldr	r2, [r3, #28]
 315 0020 42F00102 		orr	r2, r2, #1
 316 0024 DA61     		str	r2, [r3, #28]
 184:Core/Src/tim.c **** 
 317              		.loc 1 184 5 view .LVU91
 318 0026 DA69     		ldr	r2, [r3, #28]
 319 0028 02F00102 		and	r2, r2, #1
 320 002c 0092     		str	r2, [sp]
 184:Core/Src/tim.c **** 
 321              		.loc 1 184 5 view .LVU92
 322 002e 009A     		ldr	r2, [sp]
 323              	.LBE2:
 184:Core/Src/tim.c **** 
 324              		.loc 1 184 5 view .LVU93
 186:Core/Src/tim.c ****     /**TIM2 GPIO Configuration
 325              		.loc 1 186 5 view .LVU94
 326              	.LBB3:
 186:Core/Src/tim.c ****     /**TIM2 GPIO Configuration
 327              		.loc 1 186 5 view .LVU95
 186:Core/Src/tim.c ****     /**TIM2 GPIO Configuration
 328              		.loc 1 186 5 view .LVU96
 329 0030 9A69     		ldr	r2, [r3, #24]
 330 0032 42F00402 		orr	r2, r2, #4
 331 0036 9A61     		str	r2, [r3, #24]
 186:Core/Src/tim.c ****     /**TIM2 GPIO Configuration
 332              		.loc 1 186 5 view .LVU97
 333 0038 9B69     		ldr	r3, [r3, #24]
 334 003a 03F00403 		and	r3, r3, #4
 335 003e 0193     		str	r3, [sp, #4]
 186:Core/Src/tim.c ****     /**TIM2 GPIO Configuration
 336              		.loc 1 186 5 view .LVU98
 337 0040 019B     		ldr	r3, [sp, #4]
 338              	.LBE3:
 186:Core/Src/tim.c ****     /**TIM2 GPIO Configuration
 339              		.loc 1 186 5 view .LVU99
 191:Core/Src/tim.c ****     GPIO_InitStruct.Mode = GPIO_MODE_INPUT;
 340              		.loc 1 191 5 view .LVU100
 191:Core/Src/tim.c ****     GPIO_InitStruct.Mode = GPIO_MODE_INPUT;
 341              		.loc 1 191 25 is_stmt 0 view .LVU101
 342 0042 0323     		movs	r3, #3
 343 0044 0293     		str	r3, [sp, #8]
 192:Core/Src/tim.c ****     GPIO_InitStruct.Pull = GPIO_NOPULL;
 344              		.loc 1 192 5 is_stmt 1 view .LVU102
 193:Core/Src/tim.c ****     HAL_GPIO_Init(GPIOA, &GPIO_InitStruct);
 345              		.loc 1 193 5 view .LVU103
 194:Core/Src/tim.c **** 
 346              		.loc 1 194 5 view .LVU104
 347 0046 02A9     		add	r1, sp, #8
 348 0048 0148     		ldr	r0, .L23
 349              	.LVL14:
 194:Core/Src/tim.c **** 
 350              		.loc 1 194 5 is_stmt 0 view .LVU105
 351 004a FFF7FEFF 		bl	HAL_GPIO_Init
 352              	.LVL15:
ARM GAS  C:\Users\Xuleo\AppData\Local\Temp\ccEP3fIb.s 			page 11


 353              		.loc 1 200 1 view .LVU106
 354 004e E2E7     		b	.L19
 355              	.L24:
 356              		.align	2
 357              	.L23:
 358 0050 00080140 		.word	1073809408
 359              		.cfi_endproc
 360              	.LFE68:
 362              		.section	.text.HAL_TIM_Base_MspInit,"ax",%progbits
 363              		.align	1
 364              		.global	HAL_TIM_Base_MspInit
 365              		.syntax unified
 366              		.thumb
 367              		.thumb_func
 369              	HAL_TIM_Base_MspInit:
 370              	.LVL16:
 371              	.LFB69:
 201:Core/Src/tim.c **** 
 202:Core/Src/tim.c **** void HAL_TIM_Base_MspInit(TIM_HandleTypeDef* tim_baseHandle)
 203:Core/Src/tim.c **** {
 372              		.loc 1 203 1 is_stmt 1 view -0
 373              		.cfi_startproc
 374              		@ args = 0, pretend = 0, frame = 8
 375              		@ frame_needed = 0, uses_anonymous_args = 0
 376              		.loc 1 203 1 is_stmt 0 view .LVU108
 377 0000 00B5     		push	{lr}
 378              	.LCFI12:
 379              		.cfi_def_cfa_offset 4
 380              		.cfi_offset 14, -4
 381 0002 83B0     		sub	sp, sp, #12
 382              	.LCFI13:
 383              		.cfi_def_cfa_offset 16
 204:Core/Src/tim.c **** 
 205:Core/Src/tim.c ****   if(tim_baseHandle->Instance==TIM3)
 384              		.loc 1 205 3 is_stmt 1 view .LVU109
 385              		.loc 1 205 20 is_stmt 0 view .LVU110
 386 0004 0368     		ldr	r3, [r0]
 387              		.loc 1 205 5 view .LVU111
 388 0006 134A     		ldr	r2, .L31
 389 0008 9342     		cmp	r3, r2
 390 000a 04D0     		beq	.L29
 206:Core/Src/tim.c ****   {
 207:Core/Src/tim.c ****   /* USER CODE BEGIN TIM3_MspInit 0 */
 208:Core/Src/tim.c **** 
 209:Core/Src/tim.c ****   /* USER CODE END TIM3_MspInit 0 */
 210:Core/Src/tim.c ****     /* TIM3 clock enable */
 211:Core/Src/tim.c ****     __HAL_RCC_TIM3_CLK_ENABLE();
 212:Core/Src/tim.c ****   /* USER CODE BEGIN TIM3_MspInit 1 */
 213:Core/Src/tim.c **** 
 214:Core/Src/tim.c ****   /* USER CODE END TIM3_MspInit 1 */
 215:Core/Src/tim.c ****   }
 216:Core/Src/tim.c ****   else if(tim_baseHandle->Instance==TIM4)
 391              		.loc 1 216 8 is_stmt 1 view .LVU112
 392              		.loc 1 216 10 is_stmt 0 view .LVU113
 393 000c 124A     		ldr	r2, .L31+4
 394 000e 9342     		cmp	r3, r2
 395 0010 0CD0     		beq	.L30
ARM GAS  C:\Users\Xuleo\AppData\Local\Temp\ccEP3fIb.s 			page 12


 396              	.LVL17:
 397              	.L25:
 217:Core/Src/tim.c ****   {
 218:Core/Src/tim.c ****   /* USER CODE BEGIN TIM4_MspInit 0 */
 219:Core/Src/tim.c **** 
 220:Core/Src/tim.c ****   /* USER CODE END TIM4_MspInit 0 */
 221:Core/Src/tim.c ****     /* TIM4 clock enable */
 222:Core/Src/tim.c ****     __HAL_RCC_TIM4_CLK_ENABLE();
 223:Core/Src/tim.c **** 
 224:Core/Src/tim.c ****     /* TIM4 interrupt Init */
 225:Core/Src/tim.c ****     HAL_NVIC_SetPriority(TIM4_IRQn, 0, 0);
 226:Core/Src/tim.c ****     HAL_NVIC_EnableIRQ(TIM4_IRQn);
 227:Core/Src/tim.c ****   /* USER CODE BEGIN TIM4_MspInit 1 */
 228:Core/Src/tim.c **** 
 229:Core/Src/tim.c ****   /* USER CODE END TIM4_MspInit 1 */
 230:Core/Src/tim.c ****   }
 231:Core/Src/tim.c **** }
 398              		.loc 1 231 1 view .LVU114
 399 0012 03B0     		add	sp, sp, #12
 400              	.LCFI14:
 401              		.cfi_remember_state
 402              		.cfi_def_cfa_offset 4
 403              		@ sp needed
 404 0014 00BD     		pop	{pc}
 405              	.LVL18:
 406              	.L29:
 407              	.LCFI15:
 408              		.cfi_restore_state
 211:Core/Src/tim.c ****   /* USER CODE BEGIN TIM3_MspInit 1 */
 409              		.loc 1 211 5 is_stmt 1 view .LVU115
 410              	.LBB4:
 211:Core/Src/tim.c ****   /* USER CODE BEGIN TIM3_MspInit 1 */
 411              		.loc 1 211 5 view .LVU116
 211:Core/Src/tim.c ****   /* USER CODE BEGIN TIM3_MspInit 1 */
 412              		.loc 1 211 5 view .LVU117
 413 0016 114B     		ldr	r3, .L31+8
 414 0018 DA69     		ldr	r2, [r3, #28]
 415 001a 42F00202 		orr	r2, r2, #2
 416 001e DA61     		str	r2, [r3, #28]
 211:Core/Src/tim.c ****   /* USER CODE BEGIN TIM3_MspInit 1 */
 417              		.loc 1 211 5 view .LVU118
 418 0020 DB69     		ldr	r3, [r3, #28]
 419 0022 03F00203 		and	r3, r3, #2
 420 0026 0093     		str	r3, [sp]
 211:Core/Src/tim.c ****   /* USER CODE BEGIN TIM3_MspInit 1 */
 421              		.loc 1 211 5 view .LVU119
 422 0028 009B     		ldr	r3, [sp]
 423              	.LBE4:
 211:Core/Src/tim.c ****   /* USER CODE BEGIN TIM3_MspInit 1 */
 424              		.loc 1 211 5 view .LVU120
 425 002a F2E7     		b	.L25
 426              	.L30:
 222:Core/Src/tim.c **** 
 427              		.loc 1 222 5 view .LVU121
 428              	.LBB5:
 222:Core/Src/tim.c **** 
 429              		.loc 1 222 5 view .LVU122
ARM GAS  C:\Users\Xuleo\AppData\Local\Temp\ccEP3fIb.s 			page 13


 222:Core/Src/tim.c **** 
 430              		.loc 1 222 5 view .LVU123
 431 002c 0B4B     		ldr	r3, .L31+8
 432 002e DA69     		ldr	r2, [r3, #28]
 433 0030 42F00402 		orr	r2, r2, #4
 434 0034 DA61     		str	r2, [r3, #28]
 222:Core/Src/tim.c **** 
 435              		.loc 1 222 5 view .LVU124
 436 0036 DB69     		ldr	r3, [r3, #28]
 437 0038 03F00403 		and	r3, r3, #4
 438 003c 0193     		str	r3, [sp, #4]
 222:Core/Src/tim.c **** 
 439              		.loc 1 222 5 view .LVU125
 440 003e 019B     		ldr	r3, [sp, #4]
 441              	.LBE5:
 222:Core/Src/tim.c **** 
 442              		.loc 1 222 5 view .LVU126
 225:Core/Src/tim.c ****     HAL_NVIC_EnableIRQ(TIM4_IRQn);
 443              		.loc 1 225 5 view .LVU127
 444 0040 0022     		movs	r2, #0
 445 0042 1146     		mov	r1, r2
 446 0044 1E20     		movs	r0, #30
 447              	.LVL19:
 225:Core/Src/tim.c ****     HAL_NVIC_EnableIRQ(TIM4_IRQn);
 448              		.loc 1 225 5 is_stmt 0 view .LVU128
 449 0046 FFF7FEFF 		bl	HAL_NVIC_SetPriority
 450              	.LVL20:
 226:Core/Src/tim.c ****   /* USER CODE BEGIN TIM4_MspInit 1 */
 451              		.loc 1 226 5 is_stmt 1 view .LVU129
 452 004a 1E20     		movs	r0, #30
 453 004c FFF7FEFF 		bl	HAL_NVIC_EnableIRQ
 454              	.LVL21:
 455              		.loc 1 231 1 is_stmt 0 view .LVU130
 456 0050 DFE7     		b	.L25
 457              	.L32:
 458 0052 00BF     		.align	2
 459              	.L31:
 460 0054 00040040 		.word	1073742848
 461 0058 00080040 		.word	1073743872
 462 005c 00100240 		.word	1073876992
 463              		.cfi_endproc
 464              	.LFE69:
 466              		.section	.text.HAL_TIM_MspPostInit,"ax",%progbits
 467              		.align	1
 468              		.global	HAL_TIM_MspPostInit
 469              		.syntax unified
 470              		.thumb
 471              		.thumb_func
 473              	HAL_TIM_MspPostInit:
 474              	.LVL22:
 475              	.LFB70:
 232:Core/Src/tim.c **** void HAL_TIM_MspPostInit(TIM_HandleTypeDef* timHandle)
 233:Core/Src/tim.c **** {
 476              		.loc 1 233 1 is_stmt 1 view -0
 477              		.cfi_startproc
 478              		@ args = 0, pretend = 0, frame = 24
 479              		@ frame_needed = 0, uses_anonymous_args = 0
ARM GAS  C:\Users\Xuleo\AppData\Local\Temp\ccEP3fIb.s 			page 14


 480              		.loc 1 233 1 is_stmt 0 view .LVU132
 481 0000 00B5     		push	{lr}
 482              	.LCFI16:
 483              		.cfi_def_cfa_offset 4
 484              		.cfi_offset 14, -4
 485 0002 87B0     		sub	sp, sp, #28
 486              	.LCFI17:
 487              		.cfi_def_cfa_offset 32
 234:Core/Src/tim.c **** 
 235:Core/Src/tim.c ****   GPIO_InitTypeDef GPIO_InitStruct = {0};
 488              		.loc 1 235 3 is_stmt 1 view .LVU133
 489              		.loc 1 235 20 is_stmt 0 view .LVU134
 490 0004 0023     		movs	r3, #0
 491 0006 0293     		str	r3, [sp, #8]
 492 0008 0393     		str	r3, [sp, #12]
 493 000a 0493     		str	r3, [sp, #16]
 494 000c 0593     		str	r3, [sp, #20]
 236:Core/Src/tim.c ****   if(timHandle->Instance==TIM3)
 495              		.loc 1 236 3 is_stmt 1 view .LVU135
 496              		.loc 1 236 15 is_stmt 0 view .LVU136
 497 000e 0268     		ldr	r2, [r0]
 498              		.loc 1 236 5 view .LVU137
 499 0010 114B     		ldr	r3, .L37
 500 0012 9A42     		cmp	r2, r3
 501 0014 01D0     		beq	.L36
 502              	.LVL23:
 503              	.L33:
 237:Core/Src/tim.c ****   {
 238:Core/Src/tim.c ****   /* USER CODE BEGIN TIM3_MspPostInit 0 */
 239:Core/Src/tim.c **** 
 240:Core/Src/tim.c ****   /* USER CODE END TIM3_MspPostInit 0 */
 241:Core/Src/tim.c **** 
 242:Core/Src/tim.c ****     __HAL_RCC_GPIOB_CLK_ENABLE();
 243:Core/Src/tim.c ****     /**TIM3 GPIO Configuration
 244:Core/Src/tim.c ****     PB4     ------> TIM3_CH1
 245:Core/Src/tim.c ****     PB5     ------> TIM3_CH2
 246:Core/Src/tim.c ****     */
 247:Core/Src/tim.c ****     GPIO_InitStruct.Pin = GPIO_PIN_4|GPIO_PIN_5;
 248:Core/Src/tim.c ****     GPIO_InitStruct.Mode = GPIO_MODE_AF_PP;
 249:Core/Src/tim.c ****     GPIO_InitStruct.Speed = GPIO_SPEED_FREQ_LOW;
 250:Core/Src/tim.c ****     HAL_GPIO_Init(GPIOB, &GPIO_InitStruct);
 251:Core/Src/tim.c **** 
 252:Core/Src/tim.c ****     __HAL_AFIO_REMAP_TIM3_PARTIAL();
 253:Core/Src/tim.c **** 
 254:Core/Src/tim.c ****   /* USER CODE BEGIN TIM3_MspPostInit 1 */
 255:Core/Src/tim.c **** 
 256:Core/Src/tim.c ****   /* USER CODE END TIM3_MspPostInit 1 */
 257:Core/Src/tim.c ****   }
 258:Core/Src/tim.c **** 
 259:Core/Src/tim.c **** }
 504              		.loc 1 259 1 view .LVU138
 505 0016 07B0     		add	sp, sp, #28
 506              	.LCFI18:
 507              		.cfi_remember_state
 508              		.cfi_def_cfa_offset 4
 509              		@ sp needed
 510 0018 00BD     		pop	{pc}
ARM GAS  C:\Users\Xuleo\AppData\Local\Temp\ccEP3fIb.s 			page 15


 511              	.LVL24:
 512              	.L36:
 513              	.LCFI19:
 514              		.cfi_restore_state
 242:Core/Src/tim.c ****     /**TIM3 GPIO Configuration
 515              		.loc 1 242 5 is_stmt 1 view .LVU139
 516              	.LBB6:
 242:Core/Src/tim.c ****     /**TIM3 GPIO Configuration
 517              		.loc 1 242 5 view .LVU140
 242:Core/Src/tim.c ****     /**TIM3 GPIO Configuration
 518              		.loc 1 242 5 view .LVU141
 519 001a 03F50333 		add	r3, r3, #134144
 520 001e 9A69     		ldr	r2, [r3, #24]
 521 0020 42F00802 		orr	r2, r2, #8
 522 0024 9A61     		str	r2, [r3, #24]
 242:Core/Src/tim.c ****     /**TIM3 GPIO Configuration
 523              		.loc 1 242 5 view .LVU142
 524 0026 9B69     		ldr	r3, [r3, #24]
 525 0028 03F00803 		and	r3, r3, #8
 526 002c 0193     		str	r3, [sp, #4]
 242:Core/Src/tim.c ****     /**TIM3 GPIO Configuration
 527              		.loc 1 242 5 view .LVU143
 528 002e 019B     		ldr	r3, [sp, #4]
 529              	.LBE6:
 242:Core/Src/tim.c ****     /**TIM3 GPIO Configuration
 530              		.loc 1 242 5 view .LVU144
 247:Core/Src/tim.c ****     GPIO_InitStruct.Mode = GPIO_MODE_AF_PP;
 531              		.loc 1 247 5 view .LVU145
 247:Core/Src/tim.c ****     GPIO_InitStruct.Mode = GPIO_MODE_AF_PP;
 532              		.loc 1 247 25 is_stmt 0 view .LVU146
 533 0030 3023     		movs	r3, #48
 534 0032 0293     		str	r3, [sp, #8]
 248:Core/Src/tim.c ****     GPIO_InitStruct.Speed = GPIO_SPEED_FREQ_LOW;
 535              		.loc 1 248 5 is_stmt 1 view .LVU147
 248:Core/Src/tim.c ****     GPIO_InitStruct.Speed = GPIO_SPEED_FREQ_LOW;
 536              		.loc 1 248 26 is_stmt 0 view .LVU148
 537 0034 0223     		movs	r3, #2
 538 0036 0393     		str	r3, [sp, #12]
 249:Core/Src/tim.c ****     HAL_GPIO_Init(GPIOB, &GPIO_InitStruct);
 539              		.loc 1 249 5 is_stmt 1 view .LVU149
 249:Core/Src/tim.c ****     HAL_GPIO_Init(GPIOB, &GPIO_InitStruct);
 540              		.loc 1 249 27 is_stmt 0 view .LVU150
 541 0038 0593     		str	r3, [sp, #20]
 250:Core/Src/tim.c **** 
 542              		.loc 1 250 5 is_stmt 1 view .LVU151
 543 003a 02A9     		add	r1, sp, #8
 544 003c 0748     		ldr	r0, .L37+4
 545              	.LVL25:
 250:Core/Src/tim.c **** 
 546              		.loc 1 250 5 is_stmt 0 view .LVU152
 547 003e FFF7FEFF 		bl	HAL_GPIO_Init
 548              	.LVL26:
 252:Core/Src/tim.c **** 
 549              		.loc 1 252 5 is_stmt 1 view .LVU153
 550              	.LBB7:
 252:Core/Src/tim.c **** 
 551              		.loc 1 252 5 view .LVU154
ARM GAS  C:\Users\Xuleo\AppData\Local\Temp\ccEP3fIb.s 			page 16


 552 0042 074A     		ldr	r2, .L37+8
 553 0044 5368     		ldr	r3, [r2, #4]
 554              	.LVL27:
 252:Core/Src/tim.c **** 
 555              		.loc 1 252 5 view .LVU155
 556 0046 23F44063 		bic	r3, r3, #3072
 557              	.LVL28:
 252:Core/Src/tim.c **** 
 558              		.loc 1 252 5 view .LVU156
 252:Core/Src/tim.c **** 
 559              		.loc 1 252 5 view .LVU157
 560 004a 43F0E063 		orr	r3, r3, #117440512
 561              	.LVL29:
 252:Core/Src/tim.c **** 
 562              		.loc 1 252 5 is_stmt 0 view .LVU158
 563 004e 43F40063 		orr	r3, r3, #2048
 564              	.LVL30:
 252:Core/Src/tim.c **** 
 565              		.loc 1 252 5 is_stmt 1 view .LVU159
 566 0052 5360     		str	r3, [r2, #4]
 567              	.LBE7:
 252:Core/Src/tim.c **** 
 568              		.loc 1 252 5 view .LVU160
 569              		.loc 1 259 1 is_stmt 0 view .LVU161
 570 0054 DFE7     		b	.L33
 571              	.L38:
 572 0056 00BF     		.align	2
 573              	.L37:
 574 0058 00040040 		.word	1073742848
 575 005c 000C0140 		.word	1073810432
 576 0060 00000140 		.word	1073807360
 577              		.cfi_endproc
 578              	.LFE70:
 580              		.section	.text.MX_TIM3_Init,"ax",%progbits
 581              		.align	1
 582              		.global	MX_TIM3_Init
 583              		.syntax unified
 584              		.thumb
 585              		.thumb_func
 587              	MX_TIM3_Init:
 588              	.LFB66:
  77:Core/Src/tim.c **** 
 589              		.loc 1 77 1 is_stmt 1 view -0
 590              		.cfi_startproc
 591              		@ args = 0, pretend = 0, frame = 56
 592              		@ frame_needed = 0, uses_anonymous_args = 0
 593 0000 00B5     		push	{lr}
 594              	.LCFI20:
 595              		.cfi_def_cfa_offset 4
 596              		.cfi_offset 14, -4
 597 0002 8FB0     		sub	sp, sp, #60
 598              	.LCFI21:
 599              		.cfi_def_cfa_offset 64
  83:Core/Src/tim.c ****   TIM_MasterConfigTypeDef sMasterConfig = {0};
 600              		.loc 1 83 3 view .LVU163
  83:Core/Src/tim.c ****   TIM_MasterConfigTypeDef sMasterConfig = {0};
 601              		.loc 1 83 26 is_stmt 0 view .LVU164
ARM GAS  C:\Users\Xuleo\AppData\Local\Temp\ccEP3fIb.s 			page 17


 602 0004 0023     		movs	r3, #0
 603 0006 0A93     		str	r3, [sp, #40]
 604 0008 0B93     		str	r3, [sp, #44]
 605 000a 0C93     		str	r3, [sp, #48]
 606 000c 0D93     		str	r3, [sp, #52]
  84:Core/Src/tim.c ****   TIM_OC_InitTypeDef sConfigOC = {0};
 607              		.loc 1 84 3 is_stmt 1 view .LVU165
  84:Core/Src/tim.c ****   TIM_OC_InitTypeDef sConfigOC = {0};
 608              		.loc 1 84 27 is_stmt 0 view .LVU166
 609 000e 0893     		str	r3, [sp, #32]
 610 0010 0993     		str	r3, [sp, #36]
  85:Core/Src/tim.c **** 
 611              		.loc 1 85 3 is_stmt 1 view .LVU167
  85:Core/Src/tim.c **** 
 612              		.loc 1 85 22 is_stmt 0 view .LVU168
 613 0012 0193     		str	r3, [sp, #4]
 614 0014 0293     		str	r3, [sp, #8]
 615 0016 0393     		str	r3, [sp, #12]
 616 0018 0493     		str	r3, [sp, #16]
 617 001a 0593     		str	r3, [sp, #20]
 618 001c 0693     		str	r3, [sp, #24]
 619 001e 0793     		str	r3, [sp, #28]
  90:Core/Src/tim.c ****   htim3.Init.Prescaler = 71;
 620              		.loc 1 90 3 is_stmt 1 view .LVU169
  90:Core/Src/tim.c ****   htim3.Init.Prescaler = 71;
 621              		.loc 1 90 18 is_stmt 0 view .LVU170
 622 0020 2548     		ldr	r0, .L53
 623 0022 264A     		ldr	r2, .L53+4
 624 0024 0260     		str	r2, [r0]
  91:Core/Src/tim.c ****   htim3.Init.CounterMode = TIM_COUNTERMODE_UP;
 625              		.loc 1 91 3 is_stmt 1 view .LVU171
  91:Core/Src/tim.c ****   htim3.Init.CounterMode = TIM_COUNTERMODE_UP;
 626              		.loc 1 91 24 is_stmt 0 view .LVU172
 627 0026 4722     		movs	r2, #71
 628 0028 4260     		str	r2, [r0, #4]
  92:Core/Src/tim.c ****   htim3.Init.Period = 499;
 629              		.loc 1 92 3 is_stmt 1 view .LVU173
  92:Core/Src/tim.c ****   htim3.Init.Period = 499;
 630              		.loc 1 92 26 is_stmt 0 view .LVU174
 631 002a 8360     		str	r3, [r0, #8]
  93:Core/Src/tim.c ****   htim3.Init.ClockDivision = TIM_CLOCKDIVISION_DIV1;
 632              		.loc 1 93 3 is_stmt 1 view .LVU175
  93:Core/Src/tim.c ****   htim3.Init.ClockDivision = TIM_CLOCKDIVISION_DIV1;
 633              		.loc 1 93 21 is_stmt 0 view .LVU176
 634 002c 40F2F312 		movw	r2, #499
 635 0030 C260     		str	r2, [r0, #12]
  94:Core/Src/tim.c ****   htim3.Init.AutoReloadPreload = TIM_AUTORELOAD_PRELOAD_ENABLE;
 636              		.loc 1 94 3 is_stmt 1 view .LVU177
  94:Core/Src/tim.c ****   htim3.Init.AutoReloadPreload = TIM_AUTORELOAD_PRELOAD_ENABLE;
 637              		.loc 1 94 28 is_stmt 0 view .LVU178
 638 0032 0361     		str	r3, [r0, #16]
  95:Core/Src/tim.c ****   if (HAL_TIM_Base_Init(&htim3) != HAL_OK)
 639              		.loc 1 95 3 is_stmt 1 view .LVU179
  95:Core/Src/tim.c ****   if (HAL_TIM_Base_Init(&htim3) != HAL_OK)
 640              		.loc 1 95 32 is_stmt 0 view .LVU180
 641 0034 8023     		movs	r3, #128
 642 0036 8361     		str	r3, [r0, #24]
ARM GAS  C:\Users\Xuleo\AppData\Local\Temp\ccEP3fIb.s 			page 18


  96:Core/Src/tim.c ****   {
 643              		.loc 1 96 3 is_stmt 1 view .LVU181
  96:Core/Src/tim.c ****   {
 644              		.loc 1 96 7 is_stmt 0 view .LVU182
 645 0038 FFF7FEFF 		bl	HAL_TIM_Base_Init
 646              	.LVL31:
  96:Core/Src/tim.c ****   {
 647              		.loc 1 96 6 discriminator 1 view .LVU183
 648 003c 50BB     		cbnz	r0, .L47
 649              	.L40:
 100:Core/Src/tim.c ****   if (HAL_TIM_ConfigClockSource(&htim3, &sClockSourceConfig) != HAL_OK)
 650              		.loc 1 100 3 is_stmt 1 view .LVU184
 100:Core/Src/tim.c ****   if (HAL_TIM_ConfigClockSource(&htim3, &sClockSourceConfig) != HAL_OK)
 651              		.loc 1 100 34 is_stmt 0 view .LVU185
 652 003e 4FF48053 		mov	r3, #4096
 653 0042 0A93     		str	r3, [sp, #40]
 101:Core/Src/tim.c ****   {
 654              		.loc 1 101 3 is_stmt 1 view .LVU186
 101:Core/Src/tim.c ****   {
 655              		.loc 1 101 7 is_stmt 0 view .LVU187
 656 0044 0AA9     		add	r1, sp, #40
 657 0046 1C48     		ldr	r0, .L53
 658 0048 FFF7FEFF 		bl	HAL_TIM_ConfigClockSource
 659              	.LVL32:
 101:Core/Src/tim.c ****   {
 660              		.loc 1 101 6 discriminator 1 view .LVU188
 661 004c 28BB     		cbnz	r0, .L48
 662              	.L41:
 105:Core/Src/tim.c ****   {
 663              		.loc 1 105 3 is_stmt 1 view .LVU189
 105:Core/Src/tim.c ****   {
 664              		.loc 1 105 7 is_stmt 0 view .LVU190
 665 004e 1A48     		ldr	r0, .L53
 666 0050 FFF7FEFF 		bl	HAL_TIM_PWM_Init
 667              	.LVL33:
 105:Core/Src/tim.c ****   {
 668              		.loc 1 105 6 discriminator 1 view .LVU191
 669 0054 20BB     		cbnz	r0, .L49
 670              	.L42:
 109:Core/Src/tim.c ****   sMasterConfig.MasterSlaveMode = TIM_MASTERSLAVEMODE_DISABLE;
 671              		.loc 1 109 3 is_stmt 1 view .LVU192
 109:Core/Src/tim.c ****   sMasterConfig.MasterSlaveMode = TIM_MASTERSLAVEMODE_DISABLE;
 672              		.loc 1 109 37 is_stmt 0 view .LVU193
 673 0056 0023     		movs	r3, #0
 674 0058 0893     		str	r3, [sp, #32]
 110:Core/Src/tim.c ****   if (HAL_TIMEx_MasterConfigSynchronization(&htim3, &sMasterConfig) != HAL_OK)
 675              		.loc 1 110 3 is_stmt 1 view .LVU194
 110:Core/Src/tim.c ****   if (HAL_TIMEx_MasterConfigSynchronization(&htim3, &sMasterConfig) != HAL_OK)
 676              		.loc 1 110 33 is_stmt 0 view .LVU195
 677 005a 0993     		str	r3, [sp, #36]
 111:Core/Src/tim.c ****   {
 678              		.loc 1 111 3 is_stmt 1 view .LVU196
 111:Core/Src/tim.c ****   {
 679              		.loc 1 111 7 is_stmt 0 view .LVU197
 680 005c 08A9     		add	r1, sp, #32
 681 005e 1648     		ldr	r0, .L53
 682 0060 FFF7FEFF 		bl	HAL_TIMEx_MasterConfigSynchronization
ARM GAS  C:\Users\Xuleo\AppData\Local\Temp\ccEP3fIb.s 			page 19


 683              	.LVL34:
 111:Core/Src/tim.c ****   {
 684              		.loc 1 111 6 discriminator 1 view .LVU198
 685 0064 F8B9     		cbnz	r0, .L50
 686              	.L43:
 115:Core/Src/tim.c ****   sConfigOC.Pulse = 0;
 687              		.loc 1 115 3 is_stmt 1 view .LVU199
 115:Core/Src/tim.c ****   sConfigOC.Pulse = 0;
 688              		.loc 1 115 20 is_stmt 0 view .LVU200
 689 0066 6023     		movs	r3, #96
 690 0068 0193     		str	r3, [sp, #4]
 116:Core/Src/tim.c ****   sConfigOC.OCPolarity = TIM_OCPOLARITY_HIGH;
 691              		.loc 1 116 3 is_stmt 1 view .LVU201
 116:Core/Src/tim.c ****   sConfigOC.OCPolarity = TIM_OCPOLARITY_HIGH;
 692              		.loc 1 116 19 is_stmt 0 view .LVU202
 693 006a 0022     		movs	r2, #0
 694 006c 0292     		str	r2, [sp, #8]
 117:Core/Src/tim.c ****   sConfigOC.OCFastMode = TIM_OCFAST_DISABLE;
 695              		.loc 1 117 3 is_stmt 1 view .LVU203
 117:Core/Src/tim.c ****   sConfigOC.OCFastMode = TIM_OCFAST_DISABLE;
 696              		.loc 1 117 24 is_stmt 0 view .LVU204
 697 006e 0392     		str	r2, [sp, #12]
 118:Core/Src/tim.c ****   if (HAL_TIM_PWM_ConfigChannel(&htim3, &sConfigOC, TIM_CHANNEL_1) != HAL_OK)
 698              		.loc 1 118 3 is_stmt 1 view .LVU205
 118:Core/Src/tim.c ****   if (HAL_TIM_PWM_ConfigChannel(&htim3, &sConfigOC, TIM_CHANNEL_1) != HAL_OK)
 699              		.loc 1 118 24 is_stmt 0 view .LVU206
 700 0070 0592     		str	r2, [sp, #20]
 119:Core/Src/tim.c ****   {
 701              		.loc 1 119 3 is_stmt 1 view .LVU207
 119:Core/Src/tim.c ****   {
 702              		.loc 1 119 7 is_stmt 0 view .LVU208
 703 0072 01A9     		add	r1, sp, #4
 704 0074 1048     		ldr	r0, .L53
 705 0076 FFF7FEFF 		bl	HAL_TIM_PWM_ConfigChannel
 706              	.LVL35:
 119:Core/Src/tim.c ****   {
 707              		.loc 1 119 6 discriminator 1 view .LVU209
 708 007a B8B9     		cbnz	r0, .L51
 709              	.L44:
 123:Core/Src/tim.c ****   {
 710              		.loc 1 123 3 is_stmt 1 view .LVU210
 123:Core/Src/tim.c ****   {
 711              		.loc 1 123 7 is_stmt 0 view .LVU211
 712 007c 0422     		movs	r2, #4
 713 007e 0DEB0201 		add	r1, sp, r2
 714 0082 0D48     		ldr	r0, .L53
 715 0084 FFF7FEFF 		bl	HAL_TIM_PWM_ConfigChannel
 716              	.LVL36:
 123:Core/Src/tim.c ****   {
 717              		.loc 1 123 6 discriminator 1 view .LVU212
 718 0088 98B9     		cbnz	r0, .L52
 719              	.L45:
 130:Core/Src/tim.c **** 
 720              		.loc 1 130 3 is_stmt 1 view .LVU213
 721 008a 0B48     		ldr	r0, .L53
 722 008c FFF7FEFF 		bl	HAL_TIM_MspPostInit
 723              	.LVL37:
ARM GAS  C:\Users\Xuleo\AppData\Local\Temp\ccEP3fIb.s 			page 20


 132:Core/Src/tim.c **** /* TIM4 init function */
 724              		.loc 1 132 1 is_stmt 0 view .LVU214
 725 0090 0FB0     		add	sp, sp, #60
 726              	.LCFI22:
 727              		.cfi_remember_state
 728              		.cfi_def_cfa_offset 4
 729              		@ sp needed
 730 0092 00BD     		pop	{pc}
 731              	.L47:
 732              	.LCFI23:
 733              		.cfi_restore_state
  98:Core/Src/tim.c ****   }
 734              		.loc 1 98 5 is_stmt 1 view .LVU215
 735 0094 FFF7FEFF 		bl	Error_Handler
 736              	.LVL38:
 737 0098 D1E7     		b	.L40
 738              	.L48:
 103:Core/Src/tim.c ****   }
 739              		.loc 1 103 5 view .LVU216
 740 009a FFF7FEFF 		bl	Error_Handler
 741              	.LVL39:
 742 009e D6E7     		b	.L41
 743              	.L49:
 107:Core/Src/tim.c ****   }
 744              		.loc 1 107 5 view .LVU217
 745 00a0 FFF7FEFF 		bl	Error_Handler
 746              	.LVL40:
 747 00a4 D7E7     		b	.L42
 748              	.L50:
 113:Core/Src/tim.c ****   }
 749              		.loc 1 113 5 view .LVU218
 750 00a6 FFF7FEFF 		bl	Error_Handler
 751              	.LVL41:
 752 00aa DCE7     		b	.L43
 753              	.L51:
 121:Core/Src/tim.c ****   }
 754              		.loc 1 121 5 view .LVU219
 755 00ac FFF7FEFF 		bl	Error_Handler
 756              	.LVL42:
 757 00b0 E4E7     		b	.L44
 758              	.L52:
 125:Core/Src/tim.c ****   }
 759              		.loc 1 125 5 view .LVU220
 760 00b2 FFF7FEFF 		bl	Error_Handler
 761              	.LVL43:
 762 00b6 E8E7     		b	.L45
 763              	.L54:
 764              		.align	2
 765              	.L53:
 766 00b8 00000000 		.word	htim3
 767 00bc 00040040 		.word	1073742848
 768              		.cfi_endproc
 769              	.LFE66:
 771              		.section	.text.HAL_TIM_Encoder_MspDeInit,"ax",%progbits
 772              		.align	1
 773              		.global	HAL_TIM_Encoder_MspDeInit
 774              		.syntax unified
ARM GAS  C:\Users\Xuleo\AppData\Local\Temp\ccEP3fIb.s 			page 21


 775              		.thumb
 776              		.thumb_func
 778              	HAL_TIM_Encoder_MspDeInit:
 779              	.LVL44:
 780              	.LFB71:
 260:Core/Src/tim.c **** 
 261:Core/Src/tim.c **** void HAL_TIM_Encoder_MspDeInit(TIM_HandleTypeDef* tim_encoderHandle)
 262:Core/Src/tim.c **** {
 781              		.loc 1 262 1 view -0
 782              		.cfi_startproc
 783              		@ args = 0, pretend = 0, frame = 0
 784              		@ frame_needed = 0, uses_anonymous_args = 0
 785              		.loc 1 262 1 is_stmt 0 view .LVU222
 786 0000 08B5     		push	{r3, lr}
 787              	.LCFI24:
 788              		.cfi_def_cfa_offset 8
 789              		.cfi_offset 3, -8
 790              		.cfi_offset 14, -4
 263:Core/Src/tim.c **** 
 264:Core/Src/tim.c ****   if(tim_encoderHandle->Instance==TIM2)
 791              		.loc 1 264 3 is_stmt 1 view .LVU223
 792              		.loc 1 264 23 is_stmt 0 view .LVU224
 793 0002 0368     		ldr	r3, [r0]
 794              		.loc 1 264 5 view .LVU225
 795 0004 B3F1804F 		cmp	r3, #1073741824
 796 0008 00D0     		beq	.L58
 797              	.LVL45:
 798              	.L55:
 265:Core/Src/tim.c ****   {
 266:Core/Src/tim.c ****   /* USER CODE BEGIN TIM2_MspDeInit 0 */
 267:Core/Src/tim.c **** 
 268:Core/Src/tim.c ****   /* USER CODE END TIM2_MspDeInit 0 */
 269:Core/Src/tim.c ****     /* Peripheral clock disable */
 270:Core/Src/tim.c ****     __HAL_RCC_TIM2_CLK_DISABLE();
 271:Core/Src/tim.c **** 
 272:Core/Src/tim.c ****     /**TIM2 GPIO Configuration
 273:Core/Src/tim.c ****     PA0-WKUP     ------> TIM2_CH1
 274:Core/Src/tim.c ****     PA1     ------> TIM2_CH2
 275:Core/Src/tim.c ****     */
 276:Core/Src/tim.c ****     HAL_GPIO_DeInit(GPIOA, GPIO_PIN_0|GPIO_PIN_1);
 277:Core/Src/tim.c **** 
 278:Core/Src/tim.c ****   /* USER CODE BEGIN TIM2_MspDeInit 1 */
 279:Core/Src/tim.c **** 
 280:Core/Src/tim.c ****   /* USER CODE END TIM2_MspDeInit 1 */
 281:Core/Src/tim.c ****   }
 282:Core/Src/tim.c **** }
 799              		.loc 1 282 1 view .LVU226
 800 000a 08BD     		pop	{r3, pc}
 801              	.LVL46:
 802              	.L58:
 270:Core/Src/tim.c **** 
 803              		.loc 1 270 5 is_stmt 1 view .LVU227
 804 000c 044A     		ldr	r2, .L59
 805 000e D369     		ldr	r3, [r2, #28]
 806 0010 23F00103 		bic	r3, r3, #1
 807 0014 D361     		str	r3, [r2, #28]
 276:Core/Src/tim.c **** 
ARM GAS  C:\Users\Xuleo\AppData\Local\Temp\ccEP3fIb.s 			page 22


 808              		.loc 1 276 5 view .LVU228
 809 0016 0321     		movs	r1, #3
 810 0018 0248     		ldr	r0, .L59+4
 811              	.LVL47:
 276:Core/Src/tim.c **** 
 812              		.loc 1 276 5 is_stmt 0 view .LVU229
 813 001a FFF7FEFF 		bl	HAL_GPIO_DeInit
 814              	.LVL48:
 815              		.loc 1 282 1 view .LVU230
 816 001e F4E7     		b	.L55
 817              	.L60:
 818              		.align	2
 819              	.L59:
 820 0020 00100240 		.word	1073876992
 821 0024 00080140 		.word	1073809408
 822              		.cfi_endproc
 823              	.LFE71:
 825              		.section	.text.HAL_TIM_Base_MspDeInit,"ax",%progbits
 826              		.align	1
 827              		.global	HAL_TIM_Base_MspDeInit
 828              		.syntax unified
 829              		.thumb
 830              		.thumb_func
 832              	HAL_TIM_Base_MspDeInit:
 833              	.LVL49:
 834              	.LFB72:
 283:Core/Src/tim.c **** 
 284:Core/Src/tim.c **** void HAL_TIM_Base_MspDeInit(TIM_HandleTypeDef* tim_baseHandle)
 285:Core/Src/tim.c **** {
 835              		.loc 1 285 1 is_stmt 1 view -0
 836              		.cfi_startproc
 837              		@ args = 0, pretend = 0, frame = 0
 838              		@ frame_needed = 0, uses_anonymous_args = 0
 839              		.loc 1 285 1 is_stmt 0 view .LVU232
 840 0000 08B5     		push	{r3, lr}
 841              	.LCFI25:
 842              		.cfi_def_cfa_offset 8
 843              		.cfi_offset 3, -8
 844              		.cfi_offset 14, -4
 286:Core/Src/tim.c **** 
 287:Core/Src/tim.c ****   if(tim_baseHandle->Instance==TIM3)
 845              		.loc 1 287 3 is_stmt 1 view .LVU233
 846              		.loc 1 287 20 is_stmt 0 view .LVU234
 847 0002 0368     		ldr	r3, [r0]
 848              		.loc 1 287 5 view .LVU235
 849 0004 0B4A     		ldr	r2, .L67
 850 0006 9342     		cmp	r3, r2
 851 0008 03D0     		beq	.L65
 288:Core/Src/tim.c ****   {
 289:Core/Src/tim.c ****   /* USER CODE BEGIN TIM3_MspDeInit 0 */
 290:Core/Src/tim.c **** 
 291:Core/Src/tim.c ****   /* USER CODE END TIM3_MspDeInit 0 */
 292:Core/Src/tim.c ****     /* Peripheral clock disable */
 293:Core/Src/tim.c ****     __HAL_RCC_TIM3_CLK_DISABLE();
 294:Core/Src/tim.c ****   /* USER CODE BEGIN TIM3_MspDeInit 1 */
 295:Core/Src/tim.c **** 
 296:Core/Src/tim.c ****   /* USER CODE END TIM3_MspDeInit 1 */
ARM GAS  C:\Users\Xuleo\AppData\Local\Temp\ccEP3fIb.s 			page 23


 297:Core/Src/tim.c ****   }
 298:Core/Src/tim.c ****   else if(tim_baseHandle->Instance==TIM4)
 852              		.loc 1 298 8 is_stmt 1 view .LVU236
 853              		.loc 1 298 10 is_stmt 0 view .LVU237
 854 000a 0B4A     		ldr	r2, .L67+4
 855 000c 9342     		cmp	r3, r2
 856 000e 07D0     		beq	.L66
 857              	.LVL50:
 858              	.L61:
 299:Core/Src/tim.c ****   {
 300:Core/Src/tim.c ****   /* USER CODE BEGIN TIM4_MspDeInit 0 */
 301:Core/Src/tim.c **** 
 302:Core/Src/tim.c ****   /* USER CODE END TIM4_MspDeInit 0 */
 303:Core/Src/tim.c ****     /* Peripheral clock disable */
 304:Core/Src/tim.c ****     __HAL_RCC_TIM4_CLK_DISABLE();
 305:Core/Src/tim.c **** 
 306:Core/Src/tim.c ****     /* TIM4 interrupt Deinit */
 307:Core/Src/tim.c ****     HAL_NVIC_DisableIRQ(TIM4_IRQn);
 308:Core/Src/tim.c ****   /* USER CODE BEGIN TIM4_MspDeInit 1 */
 309:Core/Src/tim.c **** 
 310:Core/Src/tim.c ****   /* USER CODE END TIM4_MspDeInit 1 */
 311:Core/Src/tim.c ****   }
 312:Core/Src/tim.c **** }
 859              		.loc 1 312 1 view .LVU238
 860 0010 08BD     		pop	{r3, pc}
 861              	.LVL51:
 862              	.L65:
 293:Core/Src/tim.c ****   /* USER CODE BEGIN TIM3_MspDeInit 1 */
 863              		.loc 1 293 5 is_stmt 1 view .LVU239
 864 0012 02F50332 		add	r2, r2, #134144
 865 0016 D369     		ldr	r3, [r2, #28]
 866 0018 23F00203 		bic	r3, r3, #2
 867 001c D361     		str	r3, [r2, #28]
 868 001e F7E7     		b	.L61
 869              	.L66:
 304:Core/Src/tim.c **** 
 870              		.loc 1 304 5 view .LVU240
 871 0020 02F50232 		add	r2, r2, #133120
 872 0024 D369     		ldr	r3, [r2, #28]
 873 0026 23F00403 		bic	r3, r3, #4
 874 002a D361     		str	r3, [r2, #28]
 307:Core/Src/tim.c ****   /* USER CODE BEGIN TIM4_MspDeInit 1 */
 875              		.loc 1 307 5 view .LVU241
 876 002c 1E20     		movs	r0, #30
 877              	.LVL52:
 307:Core/Src/tim.c ****   /* USER CODE BEGIN TIM4_MspDeInit 1 */
 878              		.loc 1 307 5 is_stmt 0 view .LVU242
 879 002e FFF7FEFF 		bl	HAL_NVIC_DisableIRQ
 880              	.LVL53:
 881              		.loc 1 312 1 view .LVU243
 882 0032 EDE7     		b	.L61
 883              	.L68:
 884              		.align	2
 885              	.L67:
 886 0034 00040040 		.word	1073742848
 887 0038 00080040 		.word	1073743872
 888              		.cfi_endproc
ARM GAS  C:\Users\Xuleo\AppData\Local\Temp\ccEP3fIb.s 			page 24


 889              	.LFE72:
 891              		.global	htim4
 892              		.section	.bss.htim4,"aw",%nobits
 893              		.align	2
 896              	htim4:
 897 0000 00000000 		.space	72
 897      00000000 
 897      00000000 
 897      00000000 
 897      00000000 
 898              		.global	htim3
 899              		.section	.bss.htim3,"aw",%nobits
 900              		.align	2
 903              	htim3:
 904 0000 00000000 		.space	72
 904      00000000 
 904      00000000 
 904      00000000 
 904      00000000 
 905              		.global	htim2
 906              		.section	.bss.htim2,"aw",%nobits
 907              		.align	2
 910              	htim2:
 911 0000 00000000 		.space	72
 911      00000000 
 911      00000000 
 911      00000000 
 911      00000000 
 912              		.text
 913              	.Letext0:
 914              		.file 2 "Drivers/CMSIS/Device/ST/STM32F1xx/Include/stm32f103xb.h"
 915              		.file 3 "C:/thirdpartyLibs/arm-gnu-toolchain-15.2/arm-none-eabi/include/machine/_default_types.h"
 916              		.file 4 "C:/thirdpartyLibs/arm-gnu-toolchain-15.2/arm-none-eabi/include/sys/_stdint.h"
 917              		.file 5 "Drivers/STM32F1xx_HAL_Driver/Inc/stm32f1xx_hal_def.h"
 918              		.file 6 "Drivers/STM32F1xx_HAL_Driver/Inc/stm32f1xx_hal_gpio.h"
 919              		.file 7 "Drivers/STM32F1xx_HAL_Driver/Inc/stm32f1xx_hal_dma.h"
 920              		.file 8 "Drivers/STM32F1xx_HAL_Driver/Inc/stm32f1xx_hal_tim.h"
 921              		.file 9 "Core/Inc/tim.h"
 922              		.file 10 "Drivers/STM32F1xx_HAL_Driver/Inc/stm32f1xx_hal_cortex.h"
 923              		.file 11 "Drivers/STM32F1xx_HAL_Driver/Inc/stm32f1xx_hal_tim_ex.h"
 924              		.file 12 "Core/Inc/main.h"
 925              		.file 13 "<built-in>"
ARM GAS  C:\Users\Xuleo\AppData\Local\Temp\ccEP3fIb.s 			page 25


DEFINED SYMBOLS
                            *ABS*:00000000 tim.c
C:\Users\Xuleo\AppData\Local\Temp\ccEP3fIb.s:19     .text.MX_TIM2_Init:00000000 $t
C:\Users\Xuleo\AppData\Local\Temp\ccEP3fIb.s:25     .text.MX_TIM2_Init:00000000 MX_TIM2_Init
C:\Users\Xuleo\AppData\Local\Temp\ccEP3fIb.s:136    .text.MX_TIM2_Init:0000005c $d
C:\Users\Xuleo\AppData\Local\Temp\ccEP3fIb.s:910    .bss.htim2:00000000 htim2
C:\Users\Xuleo\AppData\Local\Temp\ccEP3fIb.s:141    .text.MX_TIM4_Init:00000000 $t
C:\Users\Xuleo\AppData\Local\Temp\ccEP3fIb.s:147    .text.MX_TIM4_Init:00000000 MX_TIM4_Init
C:\Users\Xuleo\AppData\Local\Temp\ccEP3fIb.s:256    .text.MX_TIM4_Init:00000064 $d
C:\Users\Xuleo\AppData\Local\Temp\ccEP3fIb.s:896    .bss.htim4:00000000 htim4
C:\Users\Xuleo\AppData\Local\Temp\ccEP3fIb.s:262    .text.HAL_TIM_Encoder_MspInit:00000000 $t
C:\Users\Xuleo\AppData\Local\Temp\ccEP3fIb.s:268    .text.HAL_TIM_Encoder_MspInit:00000000 HAL_TIM_Encoder_MspInit
C:\Users\Xuleo\AppData\Local\Temp\ccEP3fIb.s:358    .text.HAL_TIM_Encoder_MspInit:00000050 $d
C:\Users\Xuleo\AppData\Local\Temp\ccEP3fIb.s:363    .text.HAL_TIM_Base_MspInit:00000000 $t
C:\Users\Xuleo\AppData\Local\Temp\ccEP3fIb.s:369    .text.HAL_TIM_Base_MspInit:00000000 HAL_TIM_Base_MspInit
C:\Users\Xuleo\AppData\Local\Temp\ccEP3fIb.s:460    .text.HAL_TIM_Base_MspInit:00000054 $d
C:\Users\Xuleo\AppData\Local\Temp\ccEP3fIb.s:467    .text.HAL_TIM_MspPostInit:00000000 $t
C:\Users\Xuleo\AppData\Local\Temp\ccEP3fIb.s:473    .text.HAL_TIM_MspPostInit:00000000 HAL_TIM_MspPostInit
C:\Users\Xuleo\AppData\Local\Temp\ccEP3fIb.s:574    .text.HAL_TIM_MspPostInit:00000058 $d
C:\Users\Xuleo\AppData\Local\Temp\ccEP3fIb.s:581    .text.MX_TIM3_Init:00000000 $t
C:\Users\Xuleo\AppData\Local\Temp\ccEP3fIb.s:587    .text.MX_TIM3_Init:00000000 MX_TIM3_Init
C:\Users\Xuleo\AppData\Local\Temp\ccEP3fIb.s:766    .text.MX_TIM3_Init:000000b8 $d
C:\Users\Xuleo\AppData\Local\Temp\ccEP3fIb.s:903    .bss.htim3:00000000 htim3
C:\Users\Xuleo\AppData\Local\Temp\ccEP3fIb.s:772    .text.HAL_TIM_Encoder_MspDeInit:00000000 $t
C:\Users\Xuleo\AppData\Local\Temp\ccEP3fIb.s:778    .text.HAL_TIM_Encoder_MspDeInit:00000000 HAL_TIM_Encoder_MspDeInit
C:\Users\Xuleo\AppData\Local\Temp\ccEP3fIb.s:820    .text.HAL_TIM_Encoder_MspDeInit:00000020 $d
C:\Users\Xuleo\AppData\Local\Temp\ccEP3fIb.s:826    .text.HAL_TIM_Base_MspDeInit:00000000 $t
C:\Users\Xuleo\AppData\Local\Temp\ccEP3fIb.s:832    .text.HAL_TIM_Base_MspDeInit:00000000 HAL_TIM_Base_MspDeInit
C:\Users\Xuleo\AppData\Local\Temp\ccEP3fIb.s:886    .text.HAL_TIM_Base_MspDeInit:00000034 $d
C:\Users\Xuleo\AppData\Local\Temp\ccEP3fIb.s:893    .bss.htim4:00000000 $d
C:\Users\Xuleo\AppData\Local\Temp\ccEP3fIb.s:900    .bss.htim3:00000000 $d
C:\Users\Xuleo\AppData\Local\Temp\ccEP3fIb.s:907    .bss.htim2:00000000 $d

UNDEFINED SYMBOLS
memset
HAL_TIM_Encoder_Init
HAL_TIMEx_MasterConfigSynchronization
Error_Handler
HAL_TIM_Base_Init
HAL_TIM_ConfigClockSource
HAL_GPIO_Init
HAL_NVIC_SetPriority
HAL_NVIC_EnableIRQ
HAL_TIM_PWM_Init
HAL_TIM_PWM_ConfigChannel
HAL_GPIO_DeInit
HAL_NVIC_DisableIRQ
