ARM GAS  C:\Users\Xuleo\AppData\Local\Temp\cc8vUknT.s 			page 1


   1              		.cpu cortex-m33
   2              		.arch armv8-m.main
   3              		.fpu fpv5-sp-d16
   4              		.arch_extension dsp
   5              		.eabi_attribute 27, 1
   6              		.eabi_attribute 28, 1
   7              		.eabi_attribute 20, 1
   8              		.eabi_attribute 21, 1
   9              		.eabi_attribute 23, 3
  10              		.eabi_attribute 24, 1
  11              		.eabi_attribute 25, 1
  12              		.eabi_attribute 26, 1
  13              		.eabi_attribute 30, 1
  14              		.eabi_attribute 34, 1
  15              		.eabi_attribute 18, 4
  16              		.file	"tim.c"
  17              		.text
  18              	.Ltext0:
  19              		.cfi_sections	.debug_frame
  20              		.file 1 "Core/Src/tim.c"
  21              		.section	.text.MX_TIM3_Init,"ax",%progbits
  22              		.align	1
  23              		.global	MX_TIM3_Init
  24              		.syntax unified
  25              		.thumb
  26              		.thumb_func
  28              	MX_TIM3_Init:
  29              	.LFB357:
   1:Core/Src/tim.c **** /* USER CODE BEGIN Header */
   2:Core/Src/tim.c **** /**
   3:Core/Src/tim.c ****   ******************************************************************************
   4:Core/Src/tim.c ****   * @file    tim.c
   5:Core/Src/tim.c ****   * @brief   This file provides code for the configuration
   6:Core/Src/tim.c ****   *          of the TIM instances.
   7:Core/Src/tim.c ****   ******************************************************************************
   8:Core/Src/tim.c ****   * @attention
   9:Core/Src/tim.c ****   *
  10:Core/Src/tim.c ****   * Copyright (c) 2026 STMicroelectronics.
  11:Core/Src/tim.c ****   * All rights reserved.
  12:Core/Src/tim.c ****   *
  13:Core/Src/tim.c ****   * This software is licensed under terms that can be found in the LICENSE file
  14:Core/Src/tim.c ****   * in the root directory of this software component.
  15:Core/Src/tim.c ****   * If no LICENSE file comes with this software, it is provided AS-IS.
  16:Core/Src/tim.c ****   *
  17:Core/Src/tim.c ****   ******************************************************************************
  18:Core/Src/tim.c ****   */
  19:Core/Src/tim.c **** /* USER CODE END Header */
  20:Core/Src/tim.c **** /* Includes ------------------------------------------------------------------*/
  21:Core/Src/tim.c **** #include "tim.h"
  22:Core/Src/tim.c **** 
  23:Core/Src/tim.c **** /* USER CODE BEGIN 0 */
  24:Core/Src/tim.c **** 
  25:Core/Src/tim.c **** /* USER CODE END 0 */
  26:Core/Src/tim.c **** 
  27:Core/Src/tim.c **** TIM_HandleTypeDef htim1;
  28:Core/Src/tim.c **** TIM_HandleTypeDef htim3;
  29:Core/Src/tim.c **** TIM_HandleTypeDef htim4;
ARM GAS  C:\Users\Xuleo\AppData\Local\Temp\cc8vUknT.s 			page 2


  30:Core/Src/tim.c **** TIM_HandleTypeDef htim5;
  31:Core/Src/tim.c **** 
  32:Core/Src/tim.c **** /* TIM1 init function */
  33:Core/Src/tim.c **** void MX_TIM1_Init(void)
  34:Core/Src/tim.c **** {
  35:Core/Src/tim.c **** 
  36:Core/Src/tim.c ****   /* USER CODE BEGIN TIM1_Init 0 */
  37:Core/Src/tim.c **** 
  38:Core/Src/tim.c ****   /* USER CODE END TIM1_Init 0 */
  39:Core/Src/tim.c **** 
  40:Core/Src/tim.c ****   TIM_MasterConfigTypeDef sMasterConfig = {0};
  41:Core/Src/tim.c ****   TIM_OC_InitTypeDef sConfigOC = {0};
  42:Core/Src/tim.c ****   TIM_BreakDeadTimeConfigTypeDef sBreakDeadTimeConfig = {0};
  43:Core/Src/tim.c **** 
  44:Core/Src/tim.c ****   /* USER CODE BEGIN TIM1_Init 1 */
  45:Core/Src/tim.c **** 
  46:Core/Src/tim.c ****   /* USER CODE END TIM1_Init 1 */
  47:Core/Src/tim.c ****   htim1.Instance = TIM1;
  48:Core/Src/tim.c ****   htim1.Init.Prescaler = 0;
  49:Core/Src/tim.c ****   htim1.Init.CounterMode = TIM_COUNTERMODE_UP;
  50:Core/Src/tim.c ****   htim1.Init.Period = 65535;
  51:Core/Src/tim.c ****   htim1.Init.ClockDivision = TIM_CLOCKDIVISION_DIV1;
  52:Core/Src/tim.c ****   htim1.Init.RepetitionCounter = 0;
  53:Core/Src/tim.c ****   htim1.Init.AutoReloadPreload = TIM_AUTORELOAD_PRELOAD_DISABLE;
  54:Core/Src/tim.c ****   if (HAL_TIM_PWM_Init(&htim1) != HAL_OK)
  55:Core/Src/tim.c ****   {
  56:Core/Src/tim.c ****     Error_Handler();
  57:Core/Src/tim.c ****   }
  58:Core/Src/tim.c ****   sMasterConfig.MasterOutputTrigger = TIM_TRGO_RESET;
  59:Core/Src/tim.c ****   sMasterConfig.MasterOutputTrigger2 = TIM_TRGO2_RESET;
  60:Core/Src/tim.c ****   sMasterConfig.MasterSlaveMode = TIM_MASTERSLAVEMODE_DISABLE;
  61:Core/Src/tim.c ****   if (HAL_TIMEx_MasterConfigSynchronization(&htim1, &sMasterConfig) != HAL_OK)
  62:Core/Src/tim.c ****   {
  63:Core/Src/tim.c ****     Error_Handler();
  64:Core/Src/tim.c ****   }
  65:Core/Src/tim.c ****   sConfigOC.OCMode = TIM_OCMODE_PWM1;
  66:Core/Src/tim.c ****   sConfigOC.Pulse = 0;
  67:Core/Src/tim.c ****   sConfigOC.OCPolarity = TIM_OCPOLARITY_HIGH;
  68:Core/Src/tim.c ****   sConfigOC.OCNPolarity = TIM_OCNPOLARITY_HIGH;
  69:Core/Src/tim.c ****   sConfigOC.OCFastMode = TIM_OCFAST_DISABLE;
  70:Core/Src/tim.c ****   sConfigOC.OCIdleState = TIM_OCIDLESTATE_RESET;
  71:Core/Src/tim.c ****   sConfigOC.OCNIdleState = TIM_OCNIDLESTATE_RESET;
  72:Core/Src/tim.c ****   if (HAL_TIM_PWM_ConfigChannel(&htim1, &sConfigOC, TIM_CHANNEL_2) != HAL_OK)
  73:Core/Src/tim.c ****   {
  74:Core/Src/tim.c ****     Error_Handler();
  75:Core/Src/tim.c ****   }
  76:Core/Src/tim.c ****   if (HAL_TIM_PWM_ConfigChannel(&htim1, &sConfigOC, TIM_CHANNEL_3) != HAL_OK)
  77:Core/Src/tim.c ****   {
  78:Core/Src/tim.c ****     Error_Handler();
  79:Core/Src/tim.c ****   }
  80:Core/Src/tim.c ****   sBreakDeadTimeConfig.OffStateRunMode = TIM_OSSR_DISABLE;
  81:Core/Src/tim.c ****   sBreakDeadTimeConfig.OffStateIDLEMode = TIM_OSSI_DISABLE;
  82:Core/Src/tim.c ****   sBreakDeadTimeConfig.LockLevel = TIM_LOCKLEVEL_OFF;
  83:Core/Src/tim.c ****   sBreakDeadTimeConfig.DeadTime = 0;
  84:Core/Src/tim.c ****   sBreakDeadTimeConfig.BreakState = TIM_BREAK_DISABLE;
  85:Core/Src/tim.c ****   sBreakDeadTimeConfig.BreakPolarity = TIM_BREAKPOLARITY_HIGH;
  86:Core/Src/tim.c ****   sBreakDeadTimeConfig.BreakFilter = 0;
ARM GAS  C:\Users\Xuleo\AppData\Local\Temp\cc8vUknT.s 			page 3


  87:Core/Src/tim.c ****   sBreakDeadTimeConfig.BreakAFMode = TIM_BREAK_AFMODE_INPUT;
  88:Core/Src/tim.c ****   sBreakDeadTimeConfig.Break2State = TIM_BREAK2_DISABLE;
  89:Core/Src/tim.c ****   sBreakDeadTimeConfig.Break2Polarity = TIM_BREAK2POLARITY_HIGH;
  90:Core/Src/tim.c ****   sBreakDeadTimeConfig.Break2Filter = 0;
  91:Core/Src/tim.c ****   sBreakDeadTimeConfig.Break2AFMode = TIM_BREAK_AFMODE_INPUT;
  92:Core/Src/tim.c ****   sBreakDeadTimeConfig.AutomaticOutput = TIM_AUTOMATICOUTPUT_DISABLE;
  93:Core/Src/tim.c ****   if (HAL_TIMEx_ConfigBreakDeadTime(&htim1, &sBreakDeadTimeConfig) != HAL_OK)
  94:Core/Src/tim.c ****   {
  95:Core/Src/tim.c ****     Error_Handler();
  96:Core/Src/tim.c ****   }
  97:Core/Src/tim.c ****   /* USER CODE BEGIN TIM1_Init 2 */
  98:Core/Src/tim.c **** 
  99:Core/Src/tim.c ****   /* USER CODE END TIM1_Init 2 */
 100:Core/Src/tim.c ****   HAL_TIM_MspPostInit(&htim1);
 101:Core/Src/tim.c **** 
 102:Core/Src/tim.c **** }
 103:Core/Src/tim.c **** /* TIM3 init function */
 104:Core/Src/tim.c **** void MX_TIM3_Init(void)
 105:Core/Src/tim.c **** {
  30              		.loc 1 105 1 view -0
  31              		.cfi_startproc
  32              		@ args = 0, pretend = 0, frame = 48
  33              		@ frame_needed = 0, uses_anonymous_args = 0
  34 0000 10B5     		push	{r4, lr}
  35              	.LCFI0:
  36              		.cfi_def_cfa_offset 8
  37              		.cfi_offset 4, -8
  38              		.cfi_offset 14, -4
  39 0002 8CB0     		sub	sp, sp, #48
  40              	.LCFI1:
  41              		.cfi_def_cfa_offset 56
 106:Core/Src/tim.c **** 
 107:Core/Src/tim.c ****   /* USER CODE BEGIN TIM3_Init 0 */
 108:Core/Src/tim.c **** 
 109:Core/Src/tim.c ****   /* USER CODE END TIM3_Init 0 */
 110:Core/Src/tim.c **** 
 111:Core/Src/tim.c ****   TIM_Encoder_InitTypeDef sConfig = {0};
  42              		.loc 1 111 3 view .LVU1
  43              		.loc 1 111 27 is_stmt 0 view .LVU2
  44 0004 03AC     		add	r4, sp, #12
  45 0006 2422     		movs	r2, #36
  46 0008 0021     		movs	r1, #0
  47 000a 2046     		mov	r0, r4
  48 000c FFF7FEFF 		bl	memset
  49              	.LVL0:
 112:Core/Src/tim.c ****   TIM_MasterConfigTypeDef sMasterConfig = {0};
  50              		.loc 1 112 3 is_stmt 1 view .LVU3
  51              		.loc 1 112 27 is_stmt 0 view .LVU4
  52 0010 0023     		movs	r3, #0
  53 0012 0093     		str	r3, [sp]
  54 0014 0193     		str	r3, [sp, #4]
  55 0016 0293     		str	r3, [sp, #8]
 113:Core/Src/tim.c **** 
 114:Core/Src/tim.c ****   /* USER CODE BEGIN TIM3_Init 1 */
 115:Core/Src/tim.c **** 
 116:Core/Src/tim.c ****   /* USER CODE END TIM3_Init 1 */
 117:Core/Src/tim.c ****   htim3.Instance = TIM3;
ARM GAS  C:\Users\Xuleo\AppData\Local\Temp\cc8vUknT.s 			page 4


  56              		.loc 1 117 3 is_stmt 1 view .LVU5
  57              		.loc 1 117 18 is_stmt 0 view .LVU6
  58 0018 1048     		ldr	r0, .L7
  59 001a 114A     		ldr	r2, .L7+4
  60 001c 0260     		str	r2, [r0]
 118:Core/Src/tim.c ****   htim3.Init.Prescaler = 0;
  61              		.loc 1 118 3 is_stmt 1 view .LVU7
  62              		.loc 1 118 24 is_stmt 0 view .LVU8
  63 001e 4360     		str	r3, [r0, #4]
 119:Core/Src/tim.c ****   htim3.Init.CounterMode = TIM_COUNTERMODE_UP;
  64              		.loc 1 119 3 is_stmt 1 view .LVU9
  65              		.loc 1 119 26 is_stmt 0 view .LVU10
  66 0020 8360     		str	r3, [r0, #8]
 120:Core/Src/tim.c ****   htim3.Init.Period = 65535;
  67              		.loc 1 120 3 is_stmt 1 view .LVU11
  68              		.loc 1 120 21 is_stmt 0 view .LVU12
  69 0022 4FF6FF72 		movw	r2, #65535
  70 0026 C260     		str	r2, [r0, #12]
 121:Core/Src/tim.c ****   htim3.Init.ClockDivision = TIM_CLOCKDIVISION_DIV1;
  71              		.loc 1 121 3 is_stmt 1 view .LVU13
  72              		.loc 1 121 28 is_stmt 0 view .LVU14
  73 0028 0361     		str	r3, [r0, #16]
 122:Core/Src/tim.c ****   htim3.Init.AutoReloadPreload = TIM_AUTORELOAD_PRELOAD_DISABLE;
  74              		.loc 1 122 3 is_stmt 1 view .LVU15
  75              		.loc 1 122 32 is_stmt 0 view .LVU16
  76 002a 8361     		str	r3, [r0, #24]
 123:Core/Src/tim.c ****   sConfig.EncoderMode = TIM_ENCODERMODE_TI1;
  77              		.loc 1 123 3 is_stmt 1 view .LVU17
  78              		.loc 1 123 23 is_stmt 0 view .LVU18
  79 002c 0123     		movs	r3, #1
  80 002e 0393     		str	r3, [sp, #12]
 124:Core/Src/tim.c ****   sConfig.IC1Polarity = TIM_ICPOLARITY_RISING;
  81              		.loc 1 124 3 is_stmt 1 view .LVU19
 125:Core/Src/tim.c ****   sConfig.IC1Selection = TIM_ICSELECTION_DIRECTTI;
  82              		.loc 1 125 3 view .LVU20
  83              		.loc 1 125 24 is_stmt 0 view .LVU21
  84 0030 0593     		str	r3, [sp, #20]
 126:Core/Src/tim.c ****   sConfig.IC1Prescaler = TIM_ICPSC_DIV1;
  85              		.loc 1 126 3 is_stmt 1 view .LVU22
 127:Core/Src/tim.c ****   sConfig.IC1Filter = 0;
  86              		.loc 1 127 3 view .LVU23
 128:Core/Src/tim.c ****   sConfig.IC2Polarity = TIM_ICPOLARITY_RISING;
  87              		.loc 1 128 3 view .LVU24
 129:Core/Src/tim.c ****   sConfig.IC2Selection = TIM_ICSELECTION_DIRECTTI;
  88              		.loc 1 129 3 view .LVU25
  89              		.loc 1 129 24 is_stmt 0 view .LVU26
  90 0032 0993     		str	r3, [sp, #36]
 130:Core/Src/tim.c ****   sConfig.IC2Prescaler = TIM_ICPSC_DIV1;
  91              		.loc 1 130 3 is_stmt 1 view .LVU27
 131:Core/Src/tim.c ****   sConfig.IC2Filter = 0;
  92              		.loc 1 131 3 view .LVU28
 132:Core/Src/tim.c ****   if (HAL_TIM_Encoder_Init(&htim3, &sConfig) != HAL_OK)
  93              		.loc 1 132 3 view .LVU29
  94              		.loc 1 132 7 is_stmt 0 view .LVU30
  95 0034 2146     		mov	r1, r4
  96 0036 FFF7FEFF 		bl	HAL_TIM_Encoder_Init
  97              	.LVL1:
ARM GAS  C:\Users\Xuleo\AppData\Local\Temp\cc8vUknT.s 			page 5


  98              		.loc 1 132 6 discriminator 1 view .LVU31
  99 003a 48B9     		cbnz	r0, .L5
 100              	.L2:
 133:Core/Src/tim.c ****   {
 134:Core/Src/tim.c ****     Error_Handler();
 135:Core/Src/tim.c ****   }
 136:Core/Src/tim.c ****   sMasterConfig.MasterOutputTrigger = TIM_TRGO_RESET;
 101              		.loc 1 136 3 is_stmt 1 view .LVU32
 102              		.loc 1 136 37 is_stmt 0 view .LVU33
 103 003c 0023     		movs	r3, #0
 104 003e 0093     		str	r3, [sp]
 137:Core/Src/tim.c ****   sMasterConfig.MasterSlaveMode = TIM_MASTERSLAVEMODE_DISABLE;
 105              		.loc 1 137 3 is_stmt 1 view .LVU34
 106              		.loc 1 137 33 is_stmt 0 view .LVU35
 107 0040 0293     		str	r3, [sp, #8]
 138:Core/Src/tim.c ****   if (HAL_TIMEx_MasterConfigSynchronization(&htim3, &sMasterConfig) != HAL_OK)
 108              		.loc 1 138 3 is_stmt 1 view .LVU36
 109              		.loc 1 138 7 is_stmt 0 view .LVU37
 110 0042 6946     		mov	r1, sp
 111 0044 0548     		ldr	r0, .L7
 112 0046 FFF7FEFF 		bl	HAL_TIMEx_MasterConfigSynchronization
 113              	.LVL2:
 114              		.loc 1 138 6 discriminator 1 view .LVU38
 115 004a 20B9     		cbnz	r0, .L6
 116              	.L1:
 139:Core/Src/tim.c ****   {
 140:Core/Src/tim.c ****     Error_Handler();
 141:Core/Src/tim.c ****   }
 142:Core/Src/tim.c ****   /* USER CODE BEGIN TIM3_Init 2 */
 143:Core/Src/tim.c **** 
 144:Core/Src/tim.c ****   /* USER CODE END TIM3_Init 2 */
 145:Core/Src/tim.c **** 
 146:Core/Src/tim.c **** }
 117              		.loc 1 146 1 view .LVU39
 118 004c 0CB0     		add	sp, sp, #48
 119              	.LCFI2:
 120              		.cfi_remember_state
 121              		.cfi_def_cfa_offset 8
 122              		@ sp needed
 123 004e 10BD     		pop	{r4, pc}
 124              	.L5:
 125              	.LCFI3:
 126              		.cfi_restore_state
 134:Core/Src/tim.c ****   }
 127              		.loc 1 134 5 is_stmt 1 view .LVU40
 128 0050 FFF7FEFF 		bl	Error_Handler
 129              	.LVL3:
 130 0054 F2E7     		b	.L2
 131              	.L6:
 140:Core/Src/tim.c ****   }
 132              		.loc 1 140 5 view .LVU41
 133 0056 FFF7FEFF 		bl	Error_Handler
 134              	.LVL4:
 135              		.loc 1 146 1 is_stmt 0 view .LVU42
 136 005a F7E7     		b	.L1
 137              	.L8:
 138              		.align	2
ARM GAS  C:\Users\Xuleo\AppData\Local\Temp\cc8vUknT.s 			page 6


 139              	.L7:
 140 005c 00000000 		.word	htim3
 141 0060 00040040 		.word	1073742848
 142              		.cfi_endproc
 143              	.LFE357:
 145              		.section	.text.MX_TIM4_Init,"ax",%progbits
 146              		.align	1
 147              		.global	MX_TIM4_Init
 148              		.syntax unified
 149              		.thumb
 150              		.thumb_func
 152              	MX_TIM4_Init:
 153              	.LFB358:
 147:Core/Src/tim.c **** /* TIM4 init function */
 148:Core/Src/tim.c **** void MX_TIM4_Init(void)
 149:Core/Src/tim.c **** {
 154              		.loc 1 149 1 is_stmt 1 view -0
 155              		.cfi_startproc
 156              		@ args = 0, pretend = 0, frame = 48
 157              		@ frame_needed = 0, uses_anonymous_args = 0
 158 0000 10B5     		push	{r4, lr}
 159              	.LCFI4:
 160              		.cfi_def_cfa_offset 8
 161              		.cfi_offset 4, -8
 162              		.cfi_offset 14, -4
 163 0002 8CB0     		sub	sp, sp, #48
 164              	.LCFI5:
 165              		.cfi_def_cfa_offset 56
 150:Core/Src/tim.c **** 
 151:Core/Src/tim.c ****   /* USER CODE BEGIN TIM4_Init 0 */
 152:Core/Src/tim.c **** 
 153:Core/Src/tim.c ****   /* USER CODE END TIM4_Init 0 */
 154:Core/Src/tim.c **** 
 155:Core/Src/tim.c ****   TIM_Encoder_InitTypeDef sConfig = {0};
 166              		.loc 1 155 3 view .LVU44
 167              		.loc 1 155 27 is_stmt 0 view .LVU45
 168 0004 03AC     		add	r4, sp, #12
 169 0006 2422     		movs	r2, #36
 170 0008 0021     		movs	r1, #0
 171 000a 2046     		mov	r0, r4
 172 000c FFF7FEFF 		bl	memset
 173              	.LVL5:
 156:Core/Src/tim.c ****   TIM_MasterConfigTypeDef sMasterConfig = {0};
 174              		.loc 1 156 3 is_stmt 1 view .LVU46
 175              		.loc 1 156 27 is_stmt 0 view .LVU47
 176 0010 0023     		movs	r3, #0
 177 0012 0093     		str	r3, [sp]
 178 0014 0193     		str	r3, [sp, #4]
 179 0016 0293     		str	r3, [sp, #8]
 157:Core/Src/tim.c **** 
 158:Core/Src/tim.c ****   /* USER CODE BEGIN TIM4_Init 1 */
 159:Core/Src/tim.c **** 
 160:Core/Src/tim.c ****   /* USER CODE END TIM4_Init 1 */
 161:Core/Src/tim.c ****   htim4.Instance = TIM4;
 180              		.loc 1 161 3 is_stmt 1 view .LVU48
 181              		.loc 1 161 18 is_stmt 0 view .LVU49
 182 0018 1048     		ldr	r0, .L15
ARM GAS  C:\Users\Xuleo\AppData\Local\Temp\cc8vUknT.s 			page 7


 183 001a 114A     		ldr	r2, .L15+4
 184 001c 0260     		str	r2, [r0]
 162:Core/Src/tim.c ****   htim4.Init.Prescaler = 0;
 185              		.loc 1 162 3 is_stmt 1 view .LVU50
 186              		.loc 1 162 24 is_stmt 0 view .LVU51
 187 001e 4360     		str	r3, [r0, #4]
 163:Core/Src/tim.c ****   htim4.Init.CounterMode = TIM_COUNTERMODE_UP;
 188              		.loc 1 163 3 is_stmt 1 view .LVU52
 189              		.loc 1 163 26 is_stmt 0 view .LVU53
 190 0020 8360     		str	r3, [r0, #8]
 164:Core/Src/tim.c ****   htim4.Init.Period = 65535;
 191              		.loc 1 164 3 is_stmt 1 view .LVU54
 192              		.loc 1 164 21 is_stmt 0 view .LVU55
 193 0022 4FF6FF72 		movw	r2, #65535
 194 0026 C260     		str	r2, [r0, #12]
 165:Core/Src/tim.c ****   htim4.Init.ClockDivision = TIM_CLOCKDIVISION_DIV1;
 195              		.loc 1 165 3 is_stmt 1 view .LVU56
 196              		.loc 1 165 28 is_stmt 0 view .LVU57
 197 0028 0361     		str	r3, [r0, #16]
 166:Core/Src/tim.c ****   htim4.Init.AutoReloadPreload = TIM_AUTORELOAD_PRELOAD_DISABLE;
 198              		.loc 1 166 3 is_stmt 1 view .LVU58
 199              		.loc 1 166 32 is_stmt 0 view .LVU59
 200 002a 8361     		str	r3, [r0, #24]
 167:Core/Src/tim.c ****   sConfig.EncoderMode = TIM_ENCODERMODE_TI1;
 201              		.loc 1 167 3 is_stmt 1 view .LVU60
 202              		.loc 1 167 23 is_stmt 0 view .LVU61
 203 002c 0123     		movs	r3, #1
 204 002e 0393     		str	r3, [sp, #12]
 168:Core/Src/tim.c ****   sConfig.IC1Polarity = TIM_ICPOLARITY_RISING;
 205              		.loc 1 168 3 is_stmt 1 view .LVU62
 169:Core/Src/tim.c ****   sConfig.IC1Selection = TIM_ICSELECTION_DIRECTTI;
 206              		.loc 1 169 3 view .LVU63
 207              		.loc 1 169 24 is_stmt 0 view .LVU64
 208 0030 0593     		str	r3, [sp, #20]
 170:Core/Src/tim.c ****   sConfig.IC1Prescaler = TIM_ICPSC_DIV1;
 209              		.loc 1 170 3 is_stmt 1 view .LVU65
 171:Core/Src/tim.c ****   sConfig.IC1Filter = 0;
 210              		.loc 1 171 3 view .LVU66
 172:Core/Src/tim.c ****   sConfig.IC2Polarity = TIM_ICPOLARITY_RISING;
 211              		.loc 1 172 3 view .LVU67
 173:Core/Src/tim.c ****   sConfig.IC2Selection = TIM_ICSELECTION_DIRECTTI;
 212              		.loc 1 173 3 view .LVU68
 213              		.loc 1 173 24 is_stmt 0 view .LVU69
 214 0032 0993     		str	r3, [sp, #36]
 174:Core/Src/tim.c ****   sConfig.IC2Prescaler = TIM_ICPSC_DIV1;
 215              		.loc 1 174 3 is_stmt 1 view .LVU70
 175:Core/Src/tim.c ****   sConfig.IC2Filter = 0;
 216              		.loc 1 175 3 view .LVU71
 176:Core/Src/tim.c ****   if (HAL_TIM_Encoder_Init(&htim4, &sConfig) != HAL_OK)
 217              		.loc 1 176 3 view .LVU72
 218              		.loc 1 176 7 is_stmt 0 view .LVU73
 219 0034 2146     		mov	r1, r4
 220 0036 FFF7FEFF 		bl	HAL_TIM_Encoder_Init
 221              	.LVL6:
 222              		.loc 1 176 6 discriminator 1 view .LVU74
 223 003a 48B9     		cbnz	r0, .L13
 224              	.L10:
ARM GAS  C:\Users\Xuleo\AppData\Local\Temp\cc8vUknT.s 			page 8


 177:Core/Src/tim.c ****   {
 178:Core/Src/tim.c ****     Error_Handler();
 179:Core/Src/tim.c ****   }
 180:Core/Src/tim.c ****   sMasterConfig.MasterOutputTrigger = TIM_TRGO_RESET;
 225              		.loc 1 180 3 is_stmt 1 view .LVU75
 226              		.loc 1 180 37 is_stmt 0 view .LVU76
 227 003c 0023     		movs	r3, #0
 228 003e 0093     		str	r3, [sp]
 181:Core/Src/tim.c ****   sMasterConfig.MasterSlaveMode = TIM_MASTERSLAVEMODE_DISABLE;
 229              		.loc 1 181 3 is_stmt 1 view .LVU77
 230              		.loc 1 181 33 is_stmt 0 view .LVU78
 231 0040 0293     		str	r3, [sp, #8]
 182:Core/Src/tim.c ****   if (HAL_TIMEx_MasterConfigSynchronization(&htim4, &sMasterConfig) != HAL_OK)
 232              		.loc 1 182 3 is_stmt 1 view .LVU79
 233              		.loc 1 182 7 is_stmt 0 view .LVU80
 234 0042 6946     		mov	r1, sp
 235 0044 0548     		ldr	r0, .L15
 236 0046 FFF7FEFF 		bl	HAL_TIMEx_MasterConfigSynchronization
 237              	.LVL7:
 238              		.loc 1 182 6 discriminator 1 view .LVU81
 239 004a 20B9     		cbnz	r0, .L14
 240              	.L9:
 183:Core/Src/tim.c ****   {
 184:Core/Src/tim.c ****     Error_Handler();
 185:Core/Src/tim.c ****   }
 186:Core/Src/tim.c ****   /* USER CODE BEGIN TIM4_Init 2 */
 187:Core/Src/tim.c **** 
 188:Core/Src/tim.c ****   /* USER CODE END TIM4_Init 2 */
 189:Core/Src/tim.c **** 
 190:Core/Src/tim.c **** }
 241              		.loc 1 190 1 view .LVU82
 242 004c 0CB0     		add	sp, sp, #48
 243              	.LCFI6:
 244              		.cfi_remember_state
 245              		.cfi_def_cfa_offset 8
 246              		@ sp needed
 247 004e 10BD     		pop	{r4, pc}
 248              	.L13:
 249              	.LCFI7:
 250              		.cfi_restore_state
 178:Core/Src/tim.c ****   }
 251              		.loc 1 178 5 is_stmt 1 view .LVU83
 252 0050 FFF7FEFF 		bl	Error_Handler
 253              	.LVL8:
 254 0054 F2E7     		b	.L10
 255              	.L14:
 184:Core/Src/tim.c ****   }
 256              		.loc 1 184 5 view .LVU84
 257 0056 FFF7FEFF 		bl	Error_Handler
 258              	.LVL9:
 259              		.loc 1 190 1 is_stmt 0 view .LVU85
 260 005a F7E7     		b	.L9
 261              	.L16:
 262              		.align	2
 263              	.L15:
 264 005c 00000000 		.word	htim4
 265 0060 00080040 		.word	1073743872
ARM GAS  C:\Users\Xuleo\AppData\Local\Temp\cc8vUknT.s 			page 9


 266              		.cfi_endproc
 267              	.LFE358:
 269              		.section	.text.MX_TIM5_Init,"ax",%progbits
 270              		.align	1
 271              		.global	MX_TIM5_Init
 272              		.syntax unified
 273              		.thumb
 274              		.thumb_func
 276              	MX_TIM5_Init:
 277              	.LFB359:
 191:Core/Src/tim.c **** /* TIM5 init function */
 192:Core/Src/tim.c **** void MX_TIM5_Init(void)
 193:Core/Src/tim.c **** {
 278              		.loc 1 193 1 is_stmt 1 view -0
 279              		.cfi_startproc
 280              		@ args = 0, pretend = 0, frame = 32
 281              		@ frame_needed = 0, uses_anonymous_args = 0
 282 0000 00B5     		push	{lr}
 283              	.LCFI8:
 284              		.cfi_def_cfa_offset 4
 285              		.cfi_offset 14, -4
 286 0002 89B0     		sub	sp, sp, #36
 287              	.LCFI9:
 288              		.cfi_def_cfa_offset 40
 194:Core/Src/tim.c **** 
 195:Core/Src/tim.c ****   /* USER CODE BEGIN TIM5_Init 0 */
 196:Core/Src/tim.c **** 
 197:Core/Src/tim.c ****   /* USER CODE END TIM5_Init 0 */
 198:Core/Src/tim.c **** 
 199:Core/Src/tim.c ****   TIM_ClockConfigTypeDef sClockSourceConfig = {0};
 289              		.loc 1 199 3 view .LVU87
 290              		.loc 1 199 26 is_stmt 0 view .LVU88
 291 0004 0023     		movs	r3, #0
 292 0006 0493     		str	r3, [sp, #16]
 293 0008 0593     		str	r3, [sp, #20]
 294 000a 0693     		str	r3, [sp, #24]
 295 000c 0793     		str	r3, [sp, #28]
 200:Core/Src/tim.c ****   TIM_MasterConfigTypeDef sMasterConfig = {0};
 296              		.loc 1 200 3 is_stmt 1 view .LVU89
 297              		.loc 1 200 27 is_stmt 0 view .LVU90
 298 000e 0193     		str	r3, [sp, #4]
 299 0010 0293     		str	r3, [sp, #8]
 300 0012 0393     		str	r3, [sp, #12]
 201:Core/Src/tim.c **** 
 202:Core/Src/tim.c ****   /* USER CODE BEGIN TIM5_Init 1 */
 203:Core/Src/tim.c **** 
 204:Core/Src/tim.c ****   /* USER CODE END TIM5_Init 1 */
 205:Core/Src/tim.c ****   htim5.Instance = TIM5;
 301              		.loc 1 205 3 is_stmt 1 view .LVU91
 302              		.loc 1 205 18 is_stmt 0 view .LVU92
 303 0014 1448     		ldr	r0, .L25
 304 0016 154A     		ldr	r2, .L25+4
 305 0018 0260     		str	r2, [r0]
 206:Core/Src/tim.c ****   htim5.Init.Prescaler = 24;
 306              		.loc 1 206 3 is_stmt 1 view .LVU93
 307              		.loc 1 206 24 is_stmt 0 view .LVU94
 308 001a 1822     		movs	r2, #24
ARM GAS  C:\Users\Xuleo\AppData\Local\Temp\cc8vUknT.s 			page 10


 309 001c 4260     		str	r2, [r0, #4]
 207:Core/Src/tim.c ****   htim5.Init.CounterMode = TIM_COUNTERMODE_UP;
 310              		.loc 1 207 3 is_stmt 1 view .LVU95
 311              		.loc 1 207 26 is_stmt 0 view .LVU96
 312 001e 8360     		str	r3, [r0, #8]
 208:Core/Src/tim.c ****   htim5.Init.Period = 999;
 313              		.loc 1 208 3 is_stmt 1 view .LVU97
 314              		.loc 1 208 21 is_stmt 0 view .LVU98
 315 0020 40F2E732 		movw	r2, #999
 316 0024 C260     		str	r2, [r0, #12]
 209:Core/Src/tim.c ****   htim5.Init.ClockDivision = TIM_CLOCKDIVISION_DIV1;
 317              		.loc 1 209 3 is_stmt 1 view .LVU99
 318              		.loc 1 209 28 is_stmt 0 view .LVU100
 319 0026 0361     		str	r3, [r0, #16]
 210:Core/Src/tim.c ****   htim5.Init.AutoReloadPreload = TIM_AUTORELOAD_PRELOAD_DISABLE;
 320              		.loc 1 210 3 is_stmt 1 view .LVU101
 321              		.loc 1 210 32 is_stmt 0 view .LVU102
 322 0028 8361     		str	r3, [r0, #24]
 211:Core/Src/tim.c ****   if (HAL_TIM_Base_Init(&htim5) != HAL_OK)
 323              		.loc 1 211 3 is_stmt 1 view .LVU103
 324              		.loc 1 211 7 is_stmt 0 view .LVU104
 325 002a FFF7FEFF 		bl	HAL_TIM_Base_Init
 326              	.LVL10:
 327              		.loc 1 211 6 discriminator 1 view .LVU105
 328 002e 88B9     		cbnz	r0, .L22
 329              	.L18:
 212:Core/Src/tim.c ****   {
 213:Core/Src/tim.c ****     Error_Handler();
 214:Core/Src/tim.c ****   }
 215:Core/Src/tim.c ****   sClockSourceConfig.ClockSource = TIM_CLOCKSOURCE_INTERNAL;
 330              		.loc 1 215 3 is_stmt 1 view .LVU106
 331              		.loc 1 215 34 is_stmt 0 view .LVU107
 332 0030 4FF48053 		mov	r3, #4096
 333 0034 0493     		str	r3, [sp, #16]
 216:Core/Src/tim.c ****   if (HAL_TIM_ConfigClockSource(&htim5, &sClockSourceConfig) != HAL_OK)
 334              		.loc 1 216 3 is_stmt 1 view .LVU108
 335              		.loc 1 216 7 is_stmt 0 view .LVU109
 336 0036 04A9     		add	r1, sp, #16
 337 0038 0B48     		ldr	r0, .L25
 338 003a FFF7FEFF 		bl	HAL_TIM_ConfigClockSource
 339              	.LVL11:
 340              		.loc 1 216 6 discriminator 1 view .LVU110
 341 003e 60B9     		cbnz	r0, .L23
 342              	.L19:
 217:Core/Src/tim.c ****   {
 218:Core/Src/tim.c ****     Error_Handler();
 219:Core/Src/tim.c ****   }
 220:Core/Src/tim.c ****   sMasterConfig.MasterOutputTrigger = TIM_TRGO_RESET;
 343              		.loc 1 220 3 is_stmt 1 view .LVU111
 344              		.loc 1 220 37 is_stmt 0 view .LVU112
 345 0040 0023     		movs	r3, #0
 346 0042 0193     		str	r3, [sp, #4]
 221:Core/Src/tim.c ****   sMasterConfig.MasterSlaveMode = TIM_MASTERSLAVEMODE_DISABLE;
 347              		.loc 1 221 3 is_stmt 1 view .LVU113
 348              		.loc 1 221 33 is_stmt 0 view .LVU114
 349 0044 0393     		str	r3, [sp, #12]
 222:Core/Src/tim.c ****   if (HAL_TIMEx_MasterConfigSynchronization(&htim5, &sMasterConfig) != HAL_OK)
ARM GAS  C:\Users\Xuleo\AppData\Local\Temp\cc8vUknT.s 			page 11


 350              		.loc 1 222 3 is_stmt 1 view .LVU115
 351              		.loc 1 222 7 is_stmt 0 view .LVU116
 352 0046 01A9     		add	r1, sp, #4
 353 0048 0748     		ldr	r0, .L25
 354 004a FFF7FEFF 		bl	HAL_TIMEx_MasterConfigSynchronization
 355              	.LVL12:
 356              		.loc 1 222 6 discriminator 1 view .LVU117
 357 004e 38B9     		cbnz	r0, .L24
 358              	.L17:
 223:Core/Src/tim.c ****   {
 224:Core/Src/tim.c ****     Error_Handler();
 225:Core/Src/tim.c ****   }
 226:Core/Src/tim.c ****   /* USER CODE BEGIN TIM5_Init 2 */
 227:Core/Src/tim.c **** 
 228:Core/Src/tim.c ****   /* USER CODE END TIM5_Init 2 */
 229:Core/Src/tim.c **** 
 230:Core/Src/tim.c **** }
 359              		.loc 1 230 1 view .LVU118
 360 0050 09B0     		add	sp, sp, #36
 361              	.LCFI10:
 362              		.cfi_remember_state
 363              		.cfi_def_cfa_offset 4
 364              		@ sp needed
 365 0052 00BD     		pop	{pc}
 366              	.L22:
 367              	.LCFI11:
 368              		.cfi_restore_state
 213:Core/Src/tim.c ****   }
 369              		.loc 1 213 5 is_stmt 1 view .LVU119
 370 0054 FFF7FEFF 		bl	Error_Handler
 371              	.LVL13:
 372 0058 EAE7     		b	.L18
 373              	.L23:
 218:Core/Src/tim.c ****   }
 374              		.loc 1 218 5 view .LVU120
 375 005a FFF7FEFF 		bl	Error_Handler
 376              	.LVL14:
 377 005e EFE7     		b	.L19
 378              	.L24:
 224:Core/Src/tim.c ****   }
 379              		.loc 1 224 5 view .LVU121
 380 0060 FFF7FEFF 		bl	Error_Handler
 381              	.LVL15:
 382              		.loc 1 230 1 is_stmt 0 view .LVU122
 383 0064 F4E7     		b	.L17
 384              	.L26:
 385 0066 00BF     		.align	2
 386              	.L25:
 387 0068 00000000 		.word	htim5
 388 006c 000C0040 		.word	1073744896
 389              		.cfi_endproc
 390              	.LFE359:
 392              		.section	.text.HAL_TIM_PWM_MspInit,"ax",%progbits
 393              		.align	1
 394              		.global	HAL_TIM_PWM_MspInit
 395              		.syntax unified
 396              		.thumb
ARM GAS  C:\Users\Xuleo\AppData\Local\Temp\cc8vUknT.s 			page 12


 397              		.thumb_func
 399              	HAL_TIM_PWM_MspInit:
 400              	.LVL16:
 401              	.LFB360:
 231:Core/Src/tim.c **** 
 232:Core/Src/tim.c **** void HAL_TIM_PWM_MspInit(TIM_HandleTypeDef* tim_pwmHandle)
 233:Core/Src/tim.c **** {
 402              		.loc 1 233 1 is_stmt 1 view -0
 403              		.cfi_startproc
 404              		@ args = 0, pretend = 0, frame = 8
 405              		@ frame_needed = 0, uses_anonymous_args = 0
 406              		@ link register save eliminated.
 234:Core/Src/tim.c **** 
 235:Core/Src/tim.c ****   if(tim_pwmHandle->Instance==TIM1)
 407              		.loc 1 235 3 view .LVU124
 408              		.loc 1 235 19 is_stmt 0 view .LVU125
 409 0000 0268     		ldr	r2, [r0]
 410              		.loc 1 235 5 view .LVU126
 411 0002 0A4B     		ldr	r3, .L34
 412 0004 9A42     		cmp	r2, r3
 413 0006 00D0     		beq	.L33
 414 0008 7047     		bx	lr
 415              	.L33:
 233:Core/Src/tim.c **** 
 416              		.loc 1 233 1 view .LVU127
 417 000a 82B0     		sub	sp, sp, #8
 418              	.LCFI12:
 419              		.cfi_def_cfa_offset 8
 236:Core/Src/tim.c ****   {
 237:Core/Src/tim.c ****   /* USER CODE BEGIN TIM1_MspInit 0 */
 238:Core/Src/tim.c **** 
 239:Core/Src/tim.c ****   /* USER CODE END TIM1_MspInit 0 */
 240:Core/Src/tim.c ****     /* TIM1 clock enable */
 241:Core/Src/tim.c ****     __HAL_RCC_TIM1_CLK_ENABLE();
 420              		.loc 1 241 5 is_stmt 1 view .LVU128
 421              	.LBB2:
 422              		.loc 1 241 5 view .LVU129
 423              		.loc 1 241 5 view .LVU130
 424 000c 084B     		ldr	r3, .L34+4
 425 000e D3F8A420 		ldr	r2, [r3, #164]
 426 0012 42F40062 		orr	r2, r2, #2048
 427 0016 C3F8A420 		str	r2, [r3, #164]
 428              		.loc 1 241 5 view .LVU131
 429 001a D3F8A430 		ldr	r3, [r3, #164]
 430 001e 03F40063 		and	r3, r3, #2048
 431 0022 0193     		str	r3, [sp, #4]
 432              		.loc 1 241 5 view .LVU132
 433 0024 019B     		ldr	r3, [sp, #4]
 434              	.LBE2:
 435              		.loc 1 241 5 view .LVU133
 242:Core/Src/tim.c ****   /* USER CODE BEGIN TIM1_MspInit 1 */
 243:Core/Src/tim.c **** 
 244:Core/Src/tim.c ****   /* USER CODE END TIM1_MspInit 1 */
 245:Core/Src/tim.c ****   }
 246:Core/Src/tim.c **** }
 436              		.loc 1 246 1 is_stmt 0 view .LVU134
 437 0026 02B0     		add	sp, sp, #8
ARM GAS  C:\Users\Xuleo\AppData\Local\Temp\cc8vUknT.s 			page 13


 438              	.LCFI13:
 439              		.cfi_def_cfa_offset 0
 440              		@ sp needed
 441 0028 7047     		bx	lr
 442              	.L35:
 443 002a 00BF     		.align	2
 444              	.L34:
 445 002c 002C0140 		.word	1073818624
 446 0030 000C0244 		.word	1140984832
 447              		.cfi_endproc
 448              	.LFE360:
 450              		.section	.text.HAL_TIM_Encoder_MspInit,"ax",%progbits
 451              		.align	1
 452              		.global	HAL_TIM_Encoder_MspInit
 453              		.syntax unified
 454              		.thumb
 455              		.thumb_func
 457              	HAL_TIM_Encoder_MspInit:
 458              	.LVL17:
 459              	.LFB361:
 247:Core/Src/tim.c **** 
 248:Core/Src/tim.c **** void HAL_TIM_Encoder_MspInit(TIM_HandleTypeDef* tim_encoderHandle)
 249:Core/Src/tim.c **** {
 460              		.loc 1 249 1 is_stmt 1 view -0
 461              		.cfi_startproc
 462              		@ args = 0, pretend = 0, frame = 40
 463              		@ frame_needed = 0, uses_anonymous_args = 0
 464              		.loc 1 249 1 is_stmt 0 view .LVU136
 465 0000 00B5     		push	{lr}
 466              	.LCFI14:
 467              		.cfi_def_cfa_offset 4
 468              		.cfi_offset 14, -4
 469 0002 8BB0     		sub	sp, sp, #44
 470              	.LCFI15:
 471              		.cfi_def_cfa_offset 48
 250:Core/Src/tim.c **** 
 251:Core/Src/tim.c ****   GPIO_InitTypeDef GPIO_InitStruct = {0};
 472              		.loc 1 251 3 is_stmt 1 view .LVU137
 473              		.loc 1 251 20 is_stmt 0 view .LVU138
 474 0004 0023     		movs	r3, #0
 475 0006 0593     		str	r3, [sp, #20]
 476 0008 0693     		str	r3, [sp, #24]
 477 000a 0793     		str	r3, [sp, #28]
 478 000c 0893     		str	r3, [sp, #32]
 479 000e 0993     		str	r3, [sp, #36]
 252:Core/Src/tim.c ****   if(tim_encoderHandle->Instance==TIM3)
 480              		.loc 1 252 3 is_stmt 1 view .LVU139
 481              		.loc 1 252 23 is_stmt 0 view .LVU140
 482 0010 0368     		ldr	r3, [r0]
 483              		.loc 1 252 5 view .LVU141
 484 0012 274A     		ldr	r2, .L42
 485 0014 9342     		cmp	r3, r2
 486 0016 04D0     		beq	.L40
 253:Core/Src/tim.c ****   {
 254:Core/Src/tim.c ****   /* USER CODE BEGIN TIM3_MspInit 0 */
 255:Core/Src/tim.c **** 
 256:Core/Src/tim.c ****   /* USER CODE END TIM3_MspInit 0 */
ARM GAS  C:\Users\Xuleo\AppData\Local\Temp\cc8vUknT.s 			page 14


 257:Core/Src/tim.c ****     /* TIM3 clock enable */
 258:Core/Src/tim.c ****     __HAL_RCC_TIM3_CLK_ENABLE();
 259:Core/Src/tim.c **** 
 260:Core/Src/tim.c ****     __HAL_RCC_GPIOB_CLK_ENABLE();
 261:Core/Src/tim.c ****     /**TIM3 GPIO Configuration
 262:Core/Src/tim.c ****     PB4(NJTRST)     ------> TIM3_CH1
 263:Core/Src/tim.c ****     PB5     ------> TIM3_CH2
 264:Core/Src/tim.c ****     */
 265:Core/Src/tim.c ****     GPIO_InitStruct.Pin = MT2_ENB_Pin|MT2_ENA_Pin;
 266:Core/Src/tim.c ****     GPIO_InitStruct.Mode = GPIO_MODE_AF_PP;
 267:Core/Src/tim.c ****     GPIO_InitStruct.Pull = GPIO_NOPULL;
 268:Core/Src/tim.c ****     GPIO_InitStruct.Speed = GPIO_SPEED_FREQ_LOW;
 269:Core/Src/tim.c ****     GPIO_InitStruct.Alternate = GPIO_AF2_TIM3;
 270:Core/Src/tim.c ****     HAL_GPIO_Init(GPIOB, &GPIO_InitStruct);
 271:Core/Src/tim.c **** 
 272:Core/Src/tim.c ****   /* USER CODE BEGIN TIM3_MspInit 1 */
 273:Core/Src/tim.c **** 
 274:Core/Src/tim.c ****   /* USER CODE END TIM3_MspInit 1 */
 275:Core/Src/tim.c ****   }
 276:Core/Src/tim.c ****   else if(tim_encoderHandle->Instance==TIM4)
 487              		.loc 1 276 8 is_stmt 1 view .LVU142
 488              		.loc 1 276 10 is_stmt 0 view .LVU143
 489 0018 264A     		ldr	r2, .L42+4
 490 001a 9342     		cmp	r3, r2
 491 001c 24D0     		beq	.L41
 492              	.LVL18:
 493              	.L36:
 277:Core/Src/tim.c ****   {
 278:Core/Src/tim.c ****   /* USER CODE BEGIN TIM4_MspInit 0 */
 279:Core/Src/tim.c **** 
 280:Core/Src/tim.c ****   /* USER CODE END TIM4_MspInit 0 */
 281:Core/Src/tim.c ****     /* TIM4 clock enable */
 282:Core/Src/tim.c ****     __HAL_RCC_TIM4_CLK_ENABLE();
 283:Core/Src/tim.c **** 
 284:Core/Src/tim.c ****     __HAL_RCC_GPIOB_CLK_ENABLE();
 285:Core/Src/tim.c ****     /**TIM4 GPIO Configuration
 286:Core/Src/tim.c ****     PB6     ------> TIM4_CH1
 287:Core/Src/tim.c ****     PB7     ------> TIM4_CH2
 288:Core/Src/tim.c ****     */
 289:Core/Src/tim.c ****     GPIO_InitStruct.Pin = MT1_ENB_Pin|MT1_ENA_Pin;
 290:Core/Src/tim.c ****     GPIO_InitStruct.Mode = GPIO_MODE_AF_PP;
 291:Core/Src/tim.c ****     GPIO_InitStruct.Pull = GPIO_NOPULL;
 292:Core/Src/tim.c ****     GPIO_InitStruct.Speed = GPIO_SPEED_FREQ_LOW;
 293:Core/Src/tim.c ****     GPIO_InitStruct.Alternate = GPIO_AF2_TIM4;
 294:Core/Src/tim.c ****     HAL_GPIO_Init(GPIOB, &GPIO_InitStruct);
 295:Core/Src/tim.c **** 
 296:Core/Src/tim.c ****   /* USER CODE BEGIN TIM4_MspInit 1 */
 297:Core/Src/tim.c **** 
 298:Core/Src/tim.c ****   /* USER CODE END TIM4_MspInit 1 */
 299:Core/Src/tim.c ****   }
 300:Core/Src/tim.c **** }
 494              		.loc 1 300 1 view .LVU144
 495 001e 0BB0     		add	sp, sp, #44
 496              	.LCFI16:
 497              		.cfi_remember_state
 498              		.cfi_def_cfa_offset 4
 499              		@ sp needed
ARM GAS  C:\Users\Xuleo\AppData\Local\Temp\cc8vUknT.s 			page 15


 500 0020 00BD     		pop	{pc}
 501              	.LVL19:
 502              	.L40:
 503              	.LCFI17:
 504              		.cfi_restore_state
 258:Core/Src/tim.c **** 
 505              		.loc 1 258 5 is_stmt 1 view .LVU145
 506              	.LBB3:
 258:Core/Src/tim.c **** 
 507              		.loc 1 258 5 view .LVU146
 258:Core/Src/tim.c **** 
 508              		.loc 1 258 5 view .LVU147
 509 0022 254B     		ldr	r3, .L42+8
 510 0024 D3F89C20 		ldr	r2, [r3, #156]
 511 0028 42F00202 		orr	r2, r2, #2
 512 002c C3F89C20 		str	r2, [r3, #156]
 258:Core/Src/tim.c **** 
 513              		.loc 1 258 5 view .LVU148
 514 0030 D3F89C20 		ldr	r2, [r3, #156]
 515 0034 02F00202 		and	r2, r2, #2
 516 0038 0192     		str	r2, [sp, #4]
 258:Core/Src/tim.c **** 
 517              		.loc 1 258 5 view .LVU149
 518 003a 019A     		ldr	r2, [sp, #4]
 519              	.LBE3:
 258:Core/Src/tim.c **** 
 520              		.loc 1 258 5 view .LVU150
 260:Core/Src/tim.c ****     /**TIM3 GPIO Configuration
 521              		.loc 1 260 5 view .LVU151
 522              	.LBB4:
 260:Core/Src/tim.c ****     /**TIM3 GPIO Configuration
 523              		.loc 1 260 5 view .LVU152
 260:Core/Src/tim.c ****     /**TIM3 GPIO Configuration
 524              		.loc 1 260 5 view .LVU153
 525 003c D3F88C20 		ldr	r2, [r3, #140]
 526 0040 42F00202 		orr	r2, r2, #2
 527 0044 C3F88C20 		str	r2, [r3, #140]
 260:Core/Src/tim.c ****     /**TIM3 GPIO Configuration
 528              		.loc 1 260 5 view .LVU154
 529 0048 D3F88C30 		ldr	r3, [r3, #140]
 530 004c 03F00203 		and	r3, r3, #2
 531 0050 0293     		str	r3, [sp, #8]
 260:Core/Src/tim.c ****     /**TIM3 GPIO Configuration
 532              		.loc 1 260 5 view .LVU155
 533 0052 029B     		ldr	r3, [sp, #8]
 534              	.LBE4:
 260:Core/Src/tim.c ****     /**TIM3 GPIO Configuration
 535              		.loc 1 260 5 view .LVU156
 265:Core/Src/tim.c ****     GPIO_InitStruct.Mode = GPIO_MODE_AF_PP;
 536              		.loc 1 265 5 view .LVU157
 265:Core/Src/tim.c ****     GPIO_InitStruct.Mode = GPIO_MODE_AF_PP;
 537              		.loc 1 265 25 is_stmt 0 view .LVU158
 538 0054 3023     		movs	r3, #48
 539 0056 0593     		str	r3, [sp, #20]
 266:Core/Src/tim.c ****     GPIO_InitStruct.Pull = GPIO_NOPULL;
 540              		.loc 1 266 5 is_stmt 1 view .LVU159
 266:Core/Src/tim.c ****     GPIO_InitStruct.Pull = GPIO_NOPULL;
ARM GAS  C:\Users\Xuleo\AppData\Local\Temp\cc8vUknT.s 			page 16


 541              		.loc 1 266 26 is_stmt 0 view .LVU160
 542 0058 0223     		movs	r3, #2
 543 005a 0693     		str	r3, [sp, #24]
 267:Core/Src/tim.c ****     GPIO_InitStruct.Speed = GPIO_SPEED_FREQ_LOW;
 544              		.loc 1 267 5 is_stmt 1 view .LVU161
 268:Core/Src/tim.c ****     GPIO_InitStruct.Alternate = GPIO_AF2_TIM3;
 545              		.loc 1 268 5 view .LVU162
 269:Core/Src/tim.c ****     HAL_GPIO_Init(GPIOB, &GPIO_InitStruct);
 546              		.loc 1 269 5 view .LVU163
 269:Core/Src/tim.c ****     HAL_GPIO_Init(GPIOB, &GPIO_InitStruct);
 547              		.loc 1 269 31 is_stmt 0 view .LVU164
 548 005c 0993     		str	r3, [sp, #36]
 270:Core/Src/tim.c **** 
 549              		.loc 1 270 5 is_stmt 1 view .LVU165
 550 005e 05A9     		add	r1, sp, #20
 551 0060 1648     		ldr	r0, .L42+12
 552              	.LVL20:
 270:Core/Src/tim.c **** 
 553              		.loc 1 270 5 is_stmt 0 view .LVU166
 554 0062 FFF7FEFF 		bl	HAL_GPIO_Init
 555              	.LVL21:
 556 0066 DAE7     		b	.L36
 557              	.LVL22:
 558              	.L41:
 282:Core/Src/tim.c **** 
 559              		.loc 1 282 5 is_stmt 1 view .LVU167
 560              	.LBB5:
 282:Core/Src/tim.c **** 
 561              		.loc 1 282 5 view .LVU168
 282:Core/Src/tim.c **** 
 562              		.loc 1 282 5 view .LVU169
 563 0068 134B     		ldr	r3, .L42+8
 564 006a D3F89C20 		ldr	r2, [r3, #156]
 565 006e 42F00402 		orr	r2, r2, #4
 566 0072 C3F89C20 		str	r2, [r3, #156]
 282:Core/Src/tim.c **** 
 567              		.loc 1 282 5 view .LVU170
 568 0076 D3F89C20 		ldr	r2, [r3, #156]
 569 007a 02F00402 		and	r2, r2, #4
 570 007e 0392     		str	r2, [sp, #12]
 282:Core/Src/tim.c **** 
 571              		.loc 1 282 5 view .LVU171
 572 0080 039A     		ldr	r2, [sp, #12]
 573              	.LBE5:
 282:Core/Src/tim.c **** 
 574              		.loc 1 282 5 view .LVU172
 284:Core/Src/tim.c ****     /**TIM4 GPIO Configuration
 575              		.loc 1 284 5 view .LVU173
 576              	.LBB6:
 284:Core/Src/tim.c ****     /**TIM4 GPIO Configuration
 577              		.loc 1 284 5 view .LVU174
 284:Core/Src/tim.c ****     /**TIM4 GPIO Configuration
 578              		.loc 1 284 5 view .LVU175
 579 0082 D3F88C20 		ldr	r2, [r3, #140]
 580 0086 42F00202 		orr	r2, r2, #2
 581 008a C3F88C20 		str	r2, [r3, #140]
 284:Core/Src/tim.c ****     /**TIM4 GPIO Configuration
ARM GAS  C:\Users\Xuleo\AppData\Local\Temp\cc8vUknT.s 			page 17


 582              		.loc 1 284 5 view .LVU176
 583 008e D3F88C30 		ldr	r3, [r3, #140]
 584 0092 03F00203 		and	r3, r3, #2
 585 0096 0493     		str	r3, [sp, #16]
 284:Core/Src/tim.c ****     /**TIM4 GPIO Configuration
 586              		.loc 1 284 5 view .LVU177
 587 0098 049B     		ldr	r3, [sp, #16]
 588              	.LBE6:
 284:Core/Src/tim.c ****     /**TIM4 GPIO Configuration
 589              		.loc 1 284 5 view .LVU178
 289:Core/Src/tim.c ****     GPIO_InitStruct.Mode = GPIO_MODE_AF_PP;
 590              		.loc 1 289 5 view .LVU179
 289:Core/Src/tim.c ****     GPIO_InitStruct.Mode = GPIO_MODE_AF_PP;
 591              		.loc 1 289 25 is_stmt 0 view .LVU180
 592 009a C023     		movs	r3, #192
 593 009c 0593     		str	r3, [sp, #20]
 290:Core/Src/tim.c ****     GPIO_InitStruct.Pull = GPIO_NOPULL;
 594              		.loc 1 290 5 is_stmt 1 view .LVU181
 290:Core/Src/tim.c ****     GPIO_InitStruct.Pull = GPIO_NOPULL;
 595              		.loc 1 290 26 is_stmt 0 view .LVU182
 596 009e 0223     		movs	r3, #2
 597 00a0 0693     		str	r3, [sp, #24]
 291:Core/Src/tim.c ****     GPIO_InitStruct.Speed = GPIO_SPEED_FREQ_LOW;
 598              		.loc 1 291 5 is_stmt 1 view .LVU183
 292:Core/Src/tim.c ****     GPIO_InitStruct.Alternate = GPIO_AF2_TIM4;
 599              		.loc 1 292 5 view .LVU184
 293:Core/Src/tim.c ****     HAL_GPIO_Init(GPIOB, &GPIO_InitStruct);
 600              		.loc 1 293 5 view .LVU185
 293:Core/Src/tim.c ****     HAL_GPIO_Init(GPIOB, &GPIO_InitStruct);
 601              		.loc 1 293 31 is_stmt 0 view .LVU186
 602 00a2 0993     		str	r3, [sp, #36]
 294:Core/Src/tim.c **** 
 603              		.loc 1 294 5 is_stmt 1 view .LVU187
 604 00a4 05A9     		add	r1, sp, #20
 605 00a6 0548     		ldr	r0, .L42+12
 606              	.LVL23:
 294:Core/Src/tim.c **** 
 607              		.loc 1 294 5 is_stmt 0 view .LVU188
 608 00a8 FFF7FEFF 		bl	HAL_GPIO_Init
 609              	.LVL24:
 610              		.loc 1 300 1 view .LVU189
 611 00ac B7E7     		b	.L36
 612              	.L43:
 613 00ae 00BF     		.align	2
 614              	.L42:
 615 00b0 00040040 		.word	1073742848
 616 00b4 00080040 		.word	1073743872
 617 00b8 000C0244 		.word	1140984832
 618 00bc 00040242 		.word	1107428352
 619              		.cfi_endproc
 620              	.LFE361:
 622              		.section	.text.HAL_TIM_Base_MspInit,"ax",%progbits
 623              		.align	1
 624              		.global	HAL_TIM_Base_MspInit
 625              		.syntax unified
 626              		.thumb
 627              		.thumb_func
ARM GAS  C:\Users\Xuleo\AppData\Local\Temp\cc8vUknT.s 			page 18


 629              	HAL_TIM_Base_MspInit:
 630              	.LVL25:
 631              	.LFB362:
 301:Core/Src/tim.c **** 
 302:Core/Src/tim.c **** void HAL_TIM_Base_MspInit(TIM_HandleTypeDef* tim_baseHandle)
 303:Core/Src/tim.c **** {
 632              		.loc 1 303 1 is_stmt 1 view -0
 633              		.cfi_startproc
 634              		@ args = 0, pretend = 0, frame = 8
 635              		@ frame_needed = 0, uses_anonymous_args = 0
 304:Core/Src/tim.c **** 
 305:Core/Src/tim.c ****   if(tim_baseHandle->Instance==TIM5)
 636              		.loc 1 305 3 view .LVU191
 637              		.loc 1 305 20 is_stmt 0 view .LVU192
 638 0000 0268     		ldr	r2, [r0]
 639              		.loc 1 305 5 view .LVU193
 640 0002 0E4B     		ldr	r3, .L51
 641 0004 9A42     		cmp	r2, r3
 642 0006 00D0     		beq	.L50
 643 0008 7047     		bx	lr
 644              	.L50:
 303:Core/Src/tim.c **** 
 645              		.loc 1 303 1 view .LVU194
 646 000a 00B5     		push	{lr}
 647              	.LCFI18:
 648              		.cfi_def_cfa_offset 4
 649              		.cfi_offset 14, -4
 650 000c 83B0     		sub	sp, sp, #12
 651              	.LCFI19:
 652              		.cfi_def_cfa_offset 16
 306:Core/Src/tim.c ****   {
 307:Core/Src/tim.c ****   /* USER CODE BEGIN TIM5_MspInit 0 */
 308:Core/Src/tim.c **** 
 309:Core/Src/tim.c ****   /* USER CODE END TIM5_MspInit 0 */
 310:Core/Src/tim.c ****     /* TIM5 clock enable */
 311:Core/Src/tim.c ****     __HAL_RCC_TIM5_CLK_ENABLE();
 653              		.loc 1 311 5 is_stmt 1 view .LVU195
 654              	.LBB7:
 655              		.loc 1 311 5 view .LVU196
 656              		.loc 1 311 5 view .LVU197
 657 000e 0C4B     		ldr	r3, .L51+4
 658 0010 D3F89C20 		ldr	r2, [r3, #156]
 659 0014 42F00802 		orr	r2, r2, #8
 660 0018 C3F89C20 		str	r2, [r3, #156]
 661              		.loc 1 311 5 view .LVU198
 662 001c D3F89C30 		ldr	r3, [r3, #156]
 663 0020 03F00803 		and	r3, r3, #8
 664 0024 0193     		str	r3, [sp, #4]
 665              		.loc 1 311 5 view .LVU199
 666 0026 019B     		ldr	r3, [sp, #4]
 667              	.LBE7:
 668              		.loc 1 311 5 view .LVU200
 312:Core/Src/tim.c **** 
 313:Core/Src/tim.c ****     /* TIM5 interrupt Init */
 314:Core/Src/tim.c ****     HAL_NVIC_SetPriority(TIM5_IRQn, 0, 0);
 669              		.loc 1 314 5 view .LVU201
 670 0028 0022     		movs	r2, #0
ARM GAS  C:\Users\Xuleo\AppData\Local\Temp\cc8vUknT.s 			page 19


 671 002a 1146     		mov	r1, r2
 672 002c 3020     		movs	r0, #48
 673              	.LVL26:
 674              		.loc 1 314 5 is_stmt 0 view .LVU202
 675 002e FFF7FEFF 		bl	HAL_NVIC_SetPriority
 676              	.LVL27:
 315:Core/Src/tim.c ****     HAL_NVIC_EnableIRQ(TIM5_IRQn);
 677              		.loc 1 315 5 is_stmt 1 view .LVU203
 678 0032 3020     		movs	r0, #48
 679 0034 FFF7FEFF 		bl	HAL_NVIC_EnableIRQ
 680              	.LVL28:
 316:Core/Src/tim.c ****   /* USER CODE BEGIN TIM5_MspInit 1 */
 317:Core/Src/tim.c **** 
 318:Core/Src/tim.c ****   /* USER CODE END TIM5_MspInit 1 */
 319:Core/Src/tim.c ****   }
 320:Core/Src/tim.c **** }
 681              		.loc 1 320 1 is_stmt 0 view .LVU204
 682 0038 03B0     		add	sp, sp, #12
 683              	.LCFI20:
 684              		.cfi_def_cfa_offset 4
 685              		@ sp needed
 686 003a 00BD     		pop	{pc}
 687              	.L52:
 688              		.align	2
 689              	.L51:
 690 003c 000C0040 		.word	1073744896
 691 0040 000C0244 		.word	1140984832
 692              		.cfi_endproc
 693              	.LFE362:
 695              		.section	.text.HAL_TIM_MspPostInit,"ax",%progbits
 696              		.align	1
 697              		.global	HAL_TIM_MspPostInit
 698              		.syntax unified
 699              		.thumb
 700              		.thumb_func
 702              	HAL_TIM_MspPostInit:
 703              	.LVL29:
 704              	.LFB363:
 321:Core/Src/tim.c **** void HAL_TIM_MspPostInit(TIM_HandleTypeDef* timHandle)
 322:Core/Src/tim.c **** {
 705              		.loc 1 322 1 is_stmt 1 view -0
 706              		.cfi_startproc
 707              		@ args = 0, pretend = 0, frame = 24
 708              		@ frame_needed = 0, uses_anonymous_args = 0
 709              		.loc 1 322 1 is_stmt 0 view .LVU206
 710 0000 00B5     		push	{lr}
 711              	.LCFI21:
 712              		.cfi_def_cfa_offset 4
 713              		.cfi_offset 14, -4
 714 0002 87B0     		sub	sp, sp, #28
 715              	.LCFI22:
 716              		.cfi_def_cfa_offset 32
 323:Core/Src/tim.c **** 
 324:Core/Src/tim.c ****   GPIO_InitTypeDef GPIO_InitStruct = {0};
 717              		.loc 1 324 3 is_stmt 1 view .LVU207
 718              		.loc 1 324 20 is_stmt 0 view .LVU208
 719 0004 0023     		movs	r3, #0
ARM GAS  C:\Users\Xuleo\AppData\Local\Temp\cc8vUknT.s 			page 20


 720 0006 0193     		str	r3, [sp, #4]
 721 0008 0293     		str	r3, [sp, #8]
 722 000a 0393     		str	r3, [sp, #12]
 723 000c 0493     		str	r3, [sp, #16]
 724 000e 0593     		str	r3, [sp, #20]
 325:Core/Src/tim.c ****   if(timHandle->Instance==TIM1)
 725              		.loc 1 325 3 is_stmt 1 view .LVU209
 726              		.loc 1 325 15 is_stmt 0 view .LVU210
 727 0010 0268     		ldr	r2, [r0]
 728              		.loc 1 325 5 view .LVU211
 729 0012 0F4B     		ldr	r3, .L57
 730 0014 9A42     		cmp	r2, r3
 731 0016 01D0     		beq	.L56
 732              	.LVL30:
 733              	.L53:
 326:Core/Src/tim.c ****   {
 327:Core/Src/tim.c ****   /* USER CODE BEGIN TIM1_MspPostInit 0 */
 328:Core/Src/tim.c **** 
 329:Core/Src/tim.c ****   /* USER CODE END TIM1_MspPostInit 0 */
 330:Core/Src/tim.c **** 
 331:Core/Src/tim.c ****     __HAL_RCC_GPIOE_CLK_ENABLE();
 332:Core/Src/tim.c ****     /**TIM1 GPIO Configuration
 333:Core/Src/tim.c ****     PE10     ------> TIM1_CH2N
 334:Core/Src/tim.c ****     PE11     ------> TIM1_CH2
 335:Core/Src/tim.c ****     PE12     ------> TIM1_CH3N
 336:Core/Src/tim.c ****     PE13     ------> TIM1_CH3
 337:Core/Src/tim.c ****     */
 338:Core/Src/tim.c ****     GPIO_InitStruct.Pin = MT1_L_Bridge_Pin|MT1_R_Bridge_Pin|MT2_L_Bridge_Pin|MT2_R_Bridge_Pin;
 339:Core/Src/tim.c ****     GPIO_InitStruct.Mode = GPIO_MODE_AF_PP;
 340:Core/Src/tim.c ****     GPIO_InitStruct.Pull = GPIO_NOPULL;
 341:Core/Src/tim.c ****     GPIO_InitStruct.Speed = GPIO_SPEED_FREQ_LOW;
 342:Core/Src/tim.c ****     GPIO_InitStruct.Alternate = GPIO_AF1_TIM1;
 343:Core/Src/tim.c ****     HAL_GPIO_Init(GPIOE, &GPIO_InitStruct);
 344:Core/Src/tim.c **** 
 345:Core/Src/tim.c ****   /* USER CODE BEGIN TIM1_MspPostInit 1 */
 346:Core/Src/tim.c **** 
 347:Core/Src/tim.c ****   /* USER CODE END TIM1_MspPostInit 1 */
 348:Core/Src/tim.c ****   }
 349:Core/Src/tim.c **** 
 350:Core/Src/tim.c **** }
 734              		.loc 1 350 1 view .LVU212
 735 0018 07B0     		add	sp, sp, #28
 736              	.LCFI23:
 737              		.cfi_remember_state
 738              		.cfi_def_cfa_offset 4
 739              		@ sp needed
 740 001a 00BD     		pop	{pc}
 741              	.LVL31:
 742              	.L56:
 743              	.LCFI24:
 744              		.cfi_restore_state
 331:Core/Src/tim.c ****     /**TIM1 GPIO Configuration
 745              		.loc 1 331 5 is_stmt 1 view .LVU213
 746              	.LBB8:
 331:Core/Src/tim.c ****     /**TIM1 GPIO Configuration
 747              		.loc 1 331 5 view .LVU214
 331:Core/Src/tim.c ****     /**TIM1 GPIO Configuration
ARM GAS  C:\Users\Xuleo\AppData\Local\Temp\cc8vUknT.s 			page 21


 748              		.loc 1 331 5 view .LVU215
 749 001c 0D4B     		ldr	r3, .L57+4
 750 001e D3F88C20 		ldr	r2, [r3, #140]
 751 0022 42F01002 		orr	r2, r2, #16
 752 0026 C3F88C20 		str	r2, [r3, #140]
 331:Core/Src/tim.c ****     /**TIM1 GPIO Configuration
 753              		.loc 1 331 5 view .LVU216
 754 002a D3F88C30 		ldr	r3, [r3, #140]
 755 002e 03F01003 		and	r3, r3, #16
 756 0032 0093     		str	r3, [sp]
 331:Core/Src/tim.c ****     /**TIM1 GPIO Configuration
 757              		.loc 1 331 5 view .LVU217
 758 0034 009B     		ldr	r3, [sp]
 759              	.LBE8:
 331:Core/Src/tim.c ****     /**TIM1 GPIO Configuration
 760              		.loc 1 331 5 view .LVU218
 338:Core/Src/tim.c ****     GPIO_InitStruct.Mode = GPIO_MODE_AF_PP;
 761              		.loc 1 338 5 view .LVU219
 338:Core/Src/tim.c ****     GPIO_InitStruct.Mode = GPIO_MODE_AF_PP;
 762              		.loc 1 338 25 is_stmt 0 view .LVU220
 763 0036 4FF47053 		mov	r3, #15360
 764 003a 0193     		str	r3, [sp, #4]
 339:Core/Src/tim.c ****     GPIO_InitStruct.Pull = GPIO_NOPULL;
 765              		.loc 1 339 5 is_stmt 1 view .LVU221
 339:Core/Src/tim.c ****     GPIO_InitStruct.Pull = GPIO_NOPULL;
 766              		.loc 1 339 26 is_stmt 0 view .LVU222
 767 003c 0223     		movs	r3, #2
 768 003e 0293     		str	r3, [sp, #8]
 340:Core/Src/tim.c ****     GPIO_InitStruct.Speed = GPIO_SPEED_FREQ_LOW;
 769              		.loc 1 340 5 is_stmt 1 view .LVU223
 341:Core/Src/tim.c ****     GPIO_InitStruct.Alternate = GPIO_AF1_TIM1;
 770              		.loc 1 341 5 view .LVU224
 342:Core/Src/tim.c ****     HAL_GPIO_Init(GPIOE, &GPIO_InitStruct);
 771              		.loc 1 342 5 view .LVU225
 342:Core/Src/tim.c ****     HAL_GPIO_Init(GPIOE, &GPIO_InitStruct);
 772              		.loc 1 342 31 is_stmt 0 view .LVU226
 773 0040 0123     		movs	r3, #1
 774 0042 0593     		str	r3, [sp, #20]
 343:Core/Src/tim.c **** 
 775              		.loc 1 343 5 is_stmt 1 view .LVU227
 776 0044 01A9     		add	r1, sp, #4
 777 0046 0448     		ldr	r0, .L57+8
 778              	.LVL32:
 343:Core/Src/tim.c **** 
 779              		.loc 1 343 5 is_stmt 0 view .LVU228
 780 0048 FFF7FEFF 		bl	HAL_GPIO_Init
 781              	.LVL33:
 782              		.loc 1 350 1 view .LVU229
 783 004c E4E7     		b	.L53
 784              	.L58:
 785 004e 00BF     		.align	2
 786              	.L57:
 787 0050 002C0140 		.word	1073818624
 788 0054 000C0244 		.word	1140984832
 789 0058 00100242 		.word	1107431424
 790              		.cfi_endproc
 791              	.LFE363:
ARM GAS  C:\Users\Xuleo\AppData\Local\Temp\cc8vUknT.s 			page 22


 793              		.section	.text.MX_TIM1_Init,"ax",%progbits
 794              		.align	1
 795              		.global	MX_TIM1_Init
 796              		.syntax unified
 797              		.thumb
 798              		.thumb_func
 800              	MX_TIM1_Init:
 801              	.LFB356:
  34:Core/Src/tim.c **** 
 802              		.loc 1 34 1 is_stmt 1 view -0
 803              		.cfi_startproc
 804              		@ args = 0, pretend = 0, frame = 96
 805              		@ frame_needed = 0, uses_anonymous_args = 0
 806 0000 10B5     		push	{r4, lr}
 807              	.LCFI25:
 808              		.cfi_def_cfa_offset 8
 809              		.cfi_offset 4, -8
 810              		.cfi_offset 14, -4
 811 0002 98B0     		sub	sp, sp, #96
 812              	.LCFI26:
 813              		.cfi_def_cfa_offset 104
  40:Core/Src/tim.c ****   TIM_OC_InitTypeDef sConfigOC = {0};
 814              		.loc 1 40 3 view .LVU231
  40:Core/Src/tim.c ****   TIM_OC_InitTypeDef sConfigOC = {0};
 815              		.loc 1 40 27 is_stmt 0 view .LVU232
 816 0004 0024     		movs	r4, #0
 817 0006 1594     		str	r4, [sp, #84]
 818 0008 1694     		str	r4, [sp, #88]
 819 000a 1794     		str	r4, [sp, #92]
  41:Core/Src/tim.c ****   TIM_BreakDeadTimeConfigTypeDef sBreakDeadTimeConfig = {0};
 820              		.loc 1 41 3 is_stmt 1 view .LVU233
  41:Core/Src/tim.c ****   TIM_BreakDeadTimeConfigTypeDef sBreakDeadTimeConfig = {0};
 821              		.loc 1 41 22 is_stmt 0 view .LVU234
 822 000c 0E94     		str	r4, [sp, #56]
 823 000e 0F94     		str	r4, [sp, #60]
 824 0010 1094     		str	r4, [sp, #64]
 825 0012 1194     		str	r4, [sp, #68]
 826 0014 1294     		str	r4, [sp, #72]
 827 0016 1394     		str	r4, [sp, #76]
 828 0018 1494     		str	r4, [sp, #80]
  42:Core/Src/tim.c **** 
 829              		.loc 1 42 3 is_stmt 1 view .LVU235
  42:Core/Src/tim.c **** 
 830              		.loc 1 42 34 is_stmt 0 view .LVU236
 831 001a 3422     		movs	r2, #52
 832 001c 2146     		mov	r1, r4
 833 001e 01A8     		add	r0, sp, #4
 834 0020 FFF7FEFF 		bl	memset
 835              	.LVL34:
  47:Core/Src/tim.c ****   htim1.Init.Prescaler = 0;
 836              		.loc 1 47 3 is_stmt 1 view .LVU237
  47:Core/Src/tim.c ****   htim1.Init.Prescaler = 0;
 837              		.loc 1 47 18 is_stmt 0 view .LVU238
 838 0024 2C48     		ldr	r0, .L71
 839 0026 2D4B     		ldr	r3, .L71+4
 840 0028 0360     		str	r3, [r0]
  48:Core/Src/tim.c ****   htim1.Init.CounterMode = TIM_COUNTERMODE_UP;
ARM GAS  C:\Users\Xuleo\AppData\Local\Temp\cc8vUknT.s 			page 23


 841              		.loc 1 48 3 is_stmt 1 view .LVU239
  48:Core/Src/tim.c ****   htim1.Init.CounterMode = TIM_COUNTERMODE_UP;
 842              		.loc 1 48 24 is_stmt 0 view .LVU240
 843 002a 4460     		str	r4, [r0, #4]
  49:Core/Src/tim.c ****   htim1.Init.Period = 65535;
 844              		.loc 1 49 3 is_stmt 1 view .LVU241
  49:Core/Src/tim.c ****   htim1.Init.Period = 65535;
 845              		.loc 1 49 26 is_stmt 0 view .LVU242
 846 002c 8460     		str	r4, [r0, #8]
  50:Core/Src/tim.c ****   htim1.Init.ClockDivision = TIM_CLOCKDIVISION_DIV1;
 847              		.loc 1 50 3 is_stmt 1 view .LVU243
  50:Core/Src/tim.c ****   htim1.Init.ClockDivision = TIM_CLOCKDIVISION_DIV1;
 848              		.loc 1 50 21 is_stmt 0 view .LVU244
 849 002e 4FF6FF73 		movw	r3, #65535
 850 0032 C360     		str	r3, [r0, #12]
  51:Core/Src/tim.c ****   htim1.Init.RepetitionCounter = 0;
 851              		.loc 1 51 3 is_stmt 1 view .LVU245
  51:Core/Src/tim.c ****   htim1.Init.RepetitionCounter = 0;
 852              		.loc 1 51 28 is_stmt 0 view .LVU246
 853 0034 0461     		str	r4, [r0, #16]
  52:Core/Src/tim.c ****   htim1.Init.AutoReloadPreload = TIM_AUTORELOAD_PRELOAD_DISABLE;
 854              		.loc 1 52 3 is_stmt 1 view .LVU247
  52:Core/Src/tim.c ****   htim1.Init.AutoReloadPreload = TIM_AUTORELOAD_PRELOAD_DISABLE;
 855              		.loc 1 52 32 is_stmt 0 view .LVU248
 856 0036 4461     		str	r4, [r0, #20]
  53:Core/Src/tim.c ****   if (HAL_TIM_PWM_Init(&htim1) != HAL_OK)
 857              		.loc 1 53 3 is_stmt 1 view .LVU249
  53:Core/Src/tim.c ****   if (HAL_TIM_PWM_Init(&htim1) != HAL_OK)
 858              		.loc 1 53 32 is_stmt 0 view .LVU250
 859 0038 8461     		str	r4, [r0, #24]
  54:Core/Src/tim.c ****   {
 860              		.loc 1 54 3 is_stmt 1 view .LVU251
  54:Core/Src/tim.c ****   {
 861              		.loc 1 54 7 is_stmt 0 view .LVU252
 862 003a FFF7FEFF 		bl	HAL_TIM_PWM_Init
 863              	.LVL35:
  54:Core/Src/tim.c ****   {
 864              		.loc 1 54 6 discriminator 1 view .LVU253
 865 003e 0028     		cmp	r0, #0
 866 0040 3AD1     		bne	.L66
 867              	.L60:
  58:Core/Src/tim.c ****   sMasterConfig.MasterOutputTrigger2 = TIM_TRGO2_RESET;
 868              		.loc 1 58 3 is_stmt 1 view .LVU254
  58:Core/Src/tim.c ****   sMasterConfig.MasterOutputTrigger2 = TIM_TRGO2_RESET;
 869              		.loc 1 58 37 is_stmt 0 view .LVU255
 870 0042 0023     		movs	r3, #0
 871 0044 1593     		str	r3, [sp, #84]
  59:Core/Src/tim.c ****   sMasterConfig.MasterSlaveMode = TIM_MASTERSLAVEMODE_DISABLE;
 872              		.loc 1 59 3 is_stmt 1 view .LVU256
  59:Core/Src/tim.c ****   sMasterConfig.MasterSlaveMode = TIM_MASTERSLAVEMODE_DISABLE;
 873              		.loc 1 59 38 is_stmt 0 view .LVU257
 874 0046 1693     		str	r3, [sp, #88]
  60:Core/Src/tim.c ****   if (HAL_TIMEx_MasterConfigSynchronization(&htim1, &sMasterConfig) != HAL_OK)
 875              		.loc 1 60 3 is_stmt 1 view .LVU258
  60:Core/Src/tim.c ****   if (HAL_TIMEx_MasterConfigSynchronization(&htim1, &sMasterConfig) != HAL_OK)
 876              		.loc 1 60 33 is_stmt 0 view .LVU259
 877 0048 1793     		str	r3, [sp, #92]
ARM GAS  C:\Users\Xuleo\AppData\Local\Temp\cc8vUknT.s 			page 24


  61:Core/Src/tim.c ****   {
 878              		.loc 1 61 3 is_stmt 1 view .LVU260
  61:Core/Src/tim.c ****   {
 879              		.loc 1 61 7 is_stmt 0 view .LVU261
 880 004a 15A9     		add	r1, sp, #84
 881 004c 2248     		ldr	r0, .L71
 882 004e FFF7FEFF 		bl	HAL_TIMEx_MasterConfigSynchronization
 883              	.LVL36:
  61:Core/Src/tim.c ****   {
 884              		.loc 1 61 6 discriminator 1 view .LVU262
 885 0052 0028     		cmp	r0, #0
 886 0054 33D1     		bne	.L67
 887              	.L61:
  65:Core/Src/tim.c ****   sConfigOC.Pulse = 0;
 888              		.loc 1 65 3 is_stmt 1 view .LVU263
  65:Core/Src/tim.c ****   sConfigOC.Pulse = 0;
 889              		.loc 1 65 20 is_stmt 0 view .LVU264
 890 0056 6023     		movs	r3, #96
 891 0058 0E93     		str	r3, [sp, #56]
  66:Core/Src/tim.c ****   sConfigOC.OCPolarity = TIM_OCPOLARITY_HIGH;
 892              		.loc 1 66 3 is_stmt 1 view .LVU265
  66:Core/Src/tim.c ****   sConfigOC.OCPolarity = TIM_OCPOLARITY_HIGH;
 893              		.loc 1 66 19 is_stmt 0 view .LVU266
 894 005a 0023     		movs	r3, #0
 895 005c 0F93     		str	r3, [sp, #60]
  67:Core/Src/tim.c ****   sConfigOC.OCNPolarity = TIM_OCNPOLARITY_HIGH;
 896              		.loc 1 67 3 is_stmt 1 view .LVU267
  67:Core/Src/tim.c ****   sConfigOC.OCNPolarity = TIM_OCNPOLARITY_HIGH;
 897              		.loc 1 67 24 is_stmt 0 view .LVU268
 898 005e 1093     		str	r3, [sp, #64]
  68:Core/Src/tim.c ****   sConfigOC.OCFastMode = TIM_OCFAST_DISABLE;
 899              		.loc 1 68 3 is_stmt 1 view .LVU269
  68:Core/Src/tim.c ****   sConfigOC.OCFastMode = TIM_OCFAST_DISABLE;
 900              		.loc 1 68 25 is_stmt 0 view .LVU270
 901 0060 1193     		str	r3, [sp, #68]
  69:Core/Src/tim.c ****   sConfigOC.OCIdleState = TIM_OCIDLESTATE_RESET;
 902              		.loc 1 69 3 is_stmt 1 view .LVU271
  69:Core/Src/tim.c ****   sConfigOC.OCIdleState = TIM_OCIDLESTATE_RESET;
 903              		.loc 1 69 24 is_stmt 0 view .LVU272
 904 0062 1293     		str	r3, [sp, #72]
  70:Core/Src/tim.c ****   sConfigOC.OCNIdleState = TIM_OCNIDLESTATE_RESET;
 905              		.loc 1 70 3 is_stmt 1 view .LVU273
  70:Core/Src/tim.c ****   sConfigOC.OCNIdleState = TIM_OCNIDLESTATE_RESET;
 906              		.loc 1 70 25 is_stmt 0 view .LVU274
 907 0064 1393     		str	r3, [sp, #76]
  71:Core/Src/tim.c ****   if (HAL_TIM_PWM_ConfigChannel(&htim1, &sConfigOC, TIM_CHANNEL_2) != HAL_OK)
 908              		.loc 1 71 3 is_stmt 1 view .LVU275
  71:Core/Src/tim.c ****   if (HAL_TIM_PWM_ConfigChannel(&htim1, &sConfigOC, TIM_CHANNEL_2) != HAL_OK)
 909              		.loc 1 71 26 is_stmt 0 view .LVU276
 910 0066 1493     		str	r3, [sp, #80]
  72:Core/Src/tim.c ****   {
 911              		.loc 1 72 3 is_stmt 1 view .LVU277
  72:Core/Src/tim.c ****   {
 912              		.loc 1 72 7 is_stmt 0 view .LVU278
 913 0068 0422     		movs	r2, #4
 914 006a 0EA9     		add	r1, sp, #56
 915 006c 1A48     		ldr	r0, .L71
ARM GAS  C:\Users\Xuleo\AppData\Local\Temp\cc8vUknT.s 			page 25


 916 006e FFF7FEFF 		bl	HAL_TIM_PWM_ConfigChannel
 917              	.LVL37:
  72:Core/Src/tim.c ****   {
 918              		.loc 1 72 6 discriminator 1 view .LVU279
 919 0072 38BB     		cbnz	r0, .L68
 920              	.L62:
  76:Core/Src/tim.c ****   {
 921              		.loc 1 76 3 is_stmt 1 view .LVU280
  76:Core/Src/tim.c ****   {
 922              		.loc 1 76 7 is_stmt 0 view .LVU281
 923 0074 0822     		movs	r2, #8
 924 0076 0EA9     		add	r1, sp, #56
 925 0078 1748     		ldr	r0, .L71
 926 007a FFF7FEFF 		bl	HAL_TIM_PWM_ConfigChannel
 927              	.LVL38:
  76:Core/Src/tim.c ****   {
 928              		.loc 1 76 6 discriminator 1 view .LVU282
 929 007e 20BB     		cbnz	r0, .L69
 930              	.L63:
  80:Core/Src/tim.c ****   sBreakDeadTimeConfig.OffStateIDLEMode = TIM_OSSI_DISABLE;
 931              		.loc 1 80 3 is_stmt 1 view .LVU283
  80:Core/Src/tim.c ****   sBreakDeadTimeConfig.OffStateIDLEMode = TIM_OSSI_DISABLE;
 932              		.loc 1 80 40 is_stmt 0 view .LVU284
 933 0080 0023     		movs	r3, #0
 934 0082 0193     		str	r3, [sp, #4]
  81:Core/Src/tim.c ****   sBreakDeadTimeConfig.LockLevel = TIM_LOCKLEVEL_OFF;
 935              		.loc 1 81 3 is_stmt 1 view .LVU285
  81:Core/Src/tim.c ****   sBreakDeadTimeConfig.LockLevel = TIM_LOCKLEVEL_OFF;
 936              		.loc 1 81 41 is_stmt 0 view .LVU286
 937 0084 0293     		str	r3, [sp, #8]
  82:Core/Src/tim.c ****   sBreakDeadTimeConfig.DeadTime = 0;
 938              		.loc 1 82 3 is_stmt 1 view .LVU287
  82:Core/Src/tim.c ****   sBreakDeadTimeConfig.DeadTime = 0;
 939              		.loc 1 82 34 is_stmt 0 view .LVU288
 940 0086 0393     		str	r3, [sp, #12]
  83:Core/Src/tim.c ****   sBreakDeadTimeConfig.BreakState = TIM_BREAK_DISABLE;
 941              		.loc 1 83 3 is_stmt 1 view .LVU289
  83:Core/Src/tim.c ****   sBreakDeadTimeConfig.BreakState = TIM_BREAK_DISABLE;
 942              		.loc 1 83 33 is_stmt 0 view .LVU290
 943 0088 0493     		str	r3, [sp, #16]
  84:Core/Src/tim.c ****   sBreakDeadTimeConfig.BreakPolarity = TIM_BREAKPOLARITY_HIGH;
 944              		.loc 1 84 3 is_stmt 1 view .LVU291
  84:Core/Src/tim.c ****   sBreakDeadTimeConfig.BreakPolarity = TIM_BREAKPOLARITY_HIGH;
 945              		.loc 1 84 35 is_stmt 0 view .LVU292
 946 008a 0593     		str	r3, [sp, #20]
  85:Core/Src/tim.c ****   sBreakDeadTimeConfig.BreakFilter = 0;
 947              		.loc 1 85 3 is_stmt 1 view .LVU293
  85:Core/Src/tim.c ****   sBreakDeadTimeConfig.BreakFilter = 0;
 948              		.loc 1 85 38 is_stmt 0 view .LVU294
 949 008c 4FF40052 		mov	r2, #8192
 950 0090 0692     		str	r2, [sp, #24]
  86:Core/Src/tim.c ****   sBreakDeadTimeConfig.BreakAFMode = TIM_BREAK_AFMODE_INPUT;
 951              		.loc 1 86 3 is_stmt 1 view .LVU295
  86:Core/Src/tim.c ****   sBreakDeadTimeConfig.BreakAFMode = TIM_BREAK_AFMODE_INPUT;
 952              		.loc 1 86 36 is_stmt 0 view .LVU296
 953 0092 0793     		str	r3, [sp, #28]
  87:Core/Src/tim.c ****   sBreakDeadTimeConfig.Break2State = TIM_BREAK2_DISABLE;
ARM GAS  C:\Users\Xuleo\AppData\Local\Temp\cc8vUknT.s 			page 26


 954              		.loc 1 87 3 is_stmt 1 view .LVU297
  87:Core/Src/tim.c ****   sBreakDeadTimeConfig.Break2State = TIM_BREAK2_DISABLE;
 955              		.loc 1 87 36 is_stmt 0 view .LVU298
 956 0094 0893     		str	r3, [sp, #32]
  88:Core/Src/tim.c ****   sBreakDeadTimeConfig.Break2Polarity = TIM_BREAK2POLARITY_HIGH;
 957              		.loc 1 88 3 is_stmt 1 view .LVU299
  88:Core/Src/tim.c ****   sBreakDeadTimeConfig.Break2Polarity = TIM_BREAK2POLARITY_HIGH;
 958              		.loc 1 88 36 is_stmt 0 view .LVU300
 959 0096 0993     		str	r3, [sp, #36]
  89:Core/Src/tim.c ****   sBreakDeadTimeConfig.Break2Filter = 0;
 960              		.loc 1 89 3 is_stmt 1 view .LVU301
  89:Core/Src/tim.c ****   sBreakDeadTimeConfig.Break2Filter = 0;
 961              		.loc 1 89 39 is_stmt 0 view .LVU302
 962 0098 4FF00072 		mov	r2, #33554432
 963 009c 0A92     		str	r2, [sp, #40]
  90:Core/Src/tim.c ****   sBreakDeadTimeConfig.Break2AFMode = TIM_BREAK_AFMODE_INPUT;
 964              		.loc 1 90 3 is_stmt 1 view .LVU303
  90:Core/Src/tim.c ****   sBreakDeadTimeConfig.Break2AFMode = TIM_BREAK_AFMODE_INPUT;
 965              		.loc 1 90 37 is_stmt 0 view .LVU304
 966 009e 0B93     		str	r3, [sp, #44]
  91:Core/Src/tim.c ****   sBreakDeadTimeConfig.AutomaticOutput = TIM_AUTOMATICOUTPUT_DISABLE;
 967              		.loc 1 91 3 is_stmt 1 view .LVU305
  91:Core/Src/tim.c ****   sBreakDeadTimeConfig.AutomaticOutput = TIM_AUTOMATICOUTPUT_DISABLE;
 968              		.loc 1 91 37 is_stmt 0 view .LVU306
 969 00a0 0C93     		str	r3, [sp, #48]
  92:Core/Src/tim.c ****   if (HAL_TIMEx_ConfigBreakDeadTime(&htim1, &sBreakDeadTimeConfig) != HAL_OK)
 970              		.loc 1 92 3 is_stmt 1 view .LVU307
  92:Core/Src/tim.c ****   if (HAL_TIMEx_ConfigBreakDeadTime(&htim1, &sBreakDeadTimeConfig) != HAL_OK)
 971              		.loc 1 92 40 is_stmt 0 view .LVU308
 972 00a2 0D93     		str	r3, [sp, #52]
  93:Core/Src/tim.c ****   {
 973              		.loc 1 93 3 is_stmt 1 view .LVU309
  93:Core/Src/tim.c ****   {
 974              		.loc 1 93 7 is_stmt 0 view .LVU310
 975 00a4 01A9     		add	r1, sp, #4
 976 00a6 0C48     		ldr	r0, .L71
 977 00a8 FFF7FEFF 		bl	HAL_TIMEx_ConfigBreakDeadTime
 978              	.LVL39:
  93:Core/Src/tim.c ****   {
 979              		.loc 1 93 6 discriminator 1 view .LVU311
 980 00ac 80B9     		cbnz	r0, .L70
 981              	.L64:
 100:Core/Src/tim.c **** 
 982              		.loc 1 100 3 is_stmt 1 view .LVU312
 983 00ae 0A48     		ldr	r0, .L71
 984 00b0 FFF7FEFF 		bl	HAL_TIM_MspPostInit
 985              	.LVL40:
 102:Core/Src/tim.c **** /* TIM3 init function */
 986              		.loc 1 102 1 is_stmt 0 view .LVU313
 987 00b4 18B0     		add	sp, sp, #96
 988              	.LCFI27:
 989              		.cfi_remember_state
 990              		.cfi_def_cfa_offset 8
 991              		@ sp needed
 992 00b6 10BD     		pop	{r4, pc}
 993              	.L66:
 994              	.LCFI28:
ARM GAS  C:\Users\Xuleo\AppData\Local\Temp\cc8vUknT.s 			page 27


 995              		.cfi_restore_state
  56:Core/Src/tim.c ****   }
 996              		.loc 1 56 5 is_stmt 1 view .LVU314
 997 00b8 FFF7FEFF 		bl	Error_Handler
 998              	.LVL41:
 999 00bc C1E7     		b	.L60
 1000              	.L67:
  63:Core/Src/tim.c ****   }
 1001              		.loc 1 63 5 view .LVU315
 1002 00be FFF7FEFF 		bl	Error_Handler
 1003              	.LVL42:
 1004 00c2 C8E7     		b	.L61
 1005              	.L68:
  74:Core/Src/tim.c ****   }
 1006              		.loc 1 74 5 view .LVU316
 1007 00c4 FFF7FEFF 		bl	Error_Handler
 1008              	.LVL43:
 1009 00c8 D4E7     		b	.L62
 1010              	.L69:
  78:Core/Src/tim.c ****   }
 1011              		.loc 1 78 5 view .LVU317
 1012 00ca FFF7FEFF 		bl	Error_Handler
 1013              	.LVL44:
 1014 00ce D7E7     		b	.L63
 1015              	.L70:
  95:Core/Src/tim.c ****   }
 1016              		.loc 1 95 5 view .LVU318
 1017 00d0 FFF7FEFF 		bl	Error_Handler
 1018              	.LVL45:
 1019 00d4 EBE7     		b	.L64
 1020              	.L72:
 1021 00d6 00BF     		.align	2
 1022              	.L71:
 1023 00d8 00000000 		.word	htim1
 1024 00dc 002C0140 		.word	1073818624
 1025              		.cfi_endproc
 1026              	.LFE356:
 1028              		.section	.text.HAL_TIM_PWM_MspDeInit,"ax",%progbits
 1029              		.align	1
 1030              		.global	HAL_TIM_PWM_MspDeInit
 1031              		.syntax unified
 1032              		.thumb
 1033              		.thumb_func
 1035              	HAL_TIM_PWM_MspDeInit:
 1036              	.LVL46:
 1037              	.LFB364:
 351:Core/Src/tim.c **** 
 352:Core/Src/tim.c **** void HAL_TIM_PWM_MspDeInit(TIM_HandleTypeDef* tim_pwmHandle)
 353:Core/Src/tim.c **** {
 1038              		.loc 1 353 1 view -0
 1039              		.cfi_startproc
 1040              		@ args = 0, pretend = 0, frame = 0
 1041              		@ frame_needed = 0, uses_anonymous_args = 0
 1042              		@ link register save eliminated.
 354:Core/Src/tim.c **** 
 355:Core/Src/tim.c ****   if(tim_pwmHandle->Instance==TIM1)
 1043              		.loc 1 355 3 view .LVU320
ARM GAS  C:\Users\Xuleo\AppData\Local\Temp\cc8vUknT.s 			page 28


 1044              		.loc 1 355 19 is_stmt 0 view .LVU321
 1045 0000 0268     		ldr	r2, [r0]
 1046              		.loc 1 355 5 view .LVU322
 1047 0002 064B     		ldr	r3, .L76
 1048 0004 9A42     		cmp	r2, r3
 1049 0006 00D0     		beq	.L75
 1050              	.L73:
 356:Core/Src/tim.c ****   {
 357:Core/Src/tim.c ****   /* USER CODE BEGIN TIM1_MspDeInit 0 */
 358:Core/Src/tim.c **** 
 359:Core/Src/tim.c ****   /* USER CODE END TIM1_MspDeInit 0 */
 360:Core/Src/tim.c ****     /* Peripheral clock disable */
 361:Core/Src/tim.c ****     __HAL_RCC_TIM1_CLK_DISABLE();
 362:Core/Src/tim.c ****   /* USER CODE BEGIN TIM1_MspDeInit 1 */
 363:Core/Src/tim.c **** 
 364:Core/Src/tim.c ****   /* USER CODE END TIM1_MspDeInit 1 */
 365:Core/Src/tim.c ****   }
 366:Core/Src/tim.c **** }
 1051              		.loc 1 366 1 view .LVU323
 1052 0008 7047     		bx	lr
 1053              	.L75:
 361:Core/Src/tim.c ****   /* USER CODE BEGIN TIM1_MspDeInit 1 */
 1054              		.loc 1 361 5 is_stmt 1 view .LVU324
 1055 000a 054A     		ldr	r2, .L76+4
 1056 000c D2F8A430 		ldr	r3, [r2, #164]
 1057 0010 23F40063 		bic	r3, r3, #2048
 1058 0014 C2F8A430 		str	r3, [r2, #164]
 1059              		.loc 1 366 1 is_stmt 0 view .LVU325
 1060 0018 F6E7     		b	.L73
 1061              	.L77:
 1062 001a 00BF     		.align	2
 1063              	.L76:
 1064 001c 002C0140 		.word	1073818624
 1065 0020 000C0244 		.word	1140984832
 1066              		.cfi_endproc
 1067              	.LFE364:
 1069              		.section	.text.HAL_TIM_Encoder_MspDeInit,"ax",%progbits
 1070              		.align	1
 1071              		.global	HAL_TIM_Encoder_MspDeInit
 1072              		.syntax unified
 1073              		.thumb
 1074              		.thumb_func
 1076              	HAL_TIM_Encoder_MspDeInit:
 1077              	.LVL47:
 1078              	.LFB365:
 367:Core/Src/tim.c **** 
 368:Core/Src/tim.c **** void HAL_TIM_Encoder_MspDeInit(TIM_HandleTypeDef* tim_encoderHandle)
 369:Core/Src/tim.c **** {
 1079              		.loc 1 369 1 is_stmt 1 view -0
 1080              		.cfi_startproc
 1081              		@ args = 0, pretend = 0, frame = 0
 1082              		@ frame_needed = 0, uses_anonymous_args = 0
 1083              		.loc 1 369 1 is_stmt 0 view .LVU327
 1084 0000 08B5     		push	{r3, lr}
 1085              	.LCFI29:
 1086              		.cfi_def_cfa_offset 8
 1087              		.cfi_offset 3, -8
ARM GAS  C:\Users\Xuleo\AppData\Local\Temp\cc8vUknT.s 			page 29


 1088              		.cfi_offset 14, -4
 370:Core/Src/tim.c **** 
 371:Core/Src/tim.c ****   if(tim_encoderHandle->Instance==TIM3)
 1089              		.loc 1 371 3 is_stmt 1 view .LVU328
 1090              		.loc 1 371 23 is_stmt 0 view .LVU329
 1091 0002 0368     		ldr	r3, [r0]
 1092              		.loc 1 371 5 view .LVU330
 1093 0004 0F4A     		ldr	r2, .L84
 1094 0006 9342     		cmp	r3, r2
 1095 0008 03D0     		beq	.L82
 372:Core/Src/tim.c ****   {
 373:Core/Src/tim.c ****   /* USER CODE BEGIN TIM3_MspDeInit 0 */
 374:Core/Src/tim.c **** 
 375:Core/Src/tim.c ****   /* USER CODE END TIM3_MspDeInit 0 */
 376:Core/Src/tim.c ****     /* Peripheral clock disable */
 377:Core/Src/tim.c ****     __HAL_RCC_TIM3_CLK_DISABLE();
 378:Core/Src/tim.c **** 
 379:Core/Src/tim.c ****     /**TIM3 GPIO Configuration
 380:Core/Src/tim.c ****     PB4(NJTRST)     ------> TIM3_CH1
 381:Core/Src/tim.c ****     PB5     ------> TIM3_CH2
 382:Core/Src/tim.c ****     */
 383:Core/Src/tim.c ****     HAL_GPIO_DeInit(GPIOB, MT2_ENB_Pin|MT2_ENA_Pin);
 384:Core/Src/tim.c **** 
 385:Core/Src/tim.c ****   /* USER CODE BEGIN TIM3_MspDeInit 1 */
 386:Core/Src/tim.c **** 
 387:Core/Src/tim.c ****   /* USER CODE END TIM3_MspDeInit 1 */
 388:Core/Src/tim.c ****   }
 389:Core/Src/tim.c ****   else if(tim_encoderHandle->Instance==TIM4)
 1096              		.loc 1 389 8 is_stmt 1 view .LVU331
 1097              		.loc 1 389 10 is_stmt 0 view .LVU332
 1098 000a 0F4A     		ldr	r2, .L84+4
 1099 000c 9342     		cmp	r3, r2
 1100 000e 0CD0     		beq	.L83
 1101              	.LVL48:
 1102              	.L78:
 390:Core/Src/tim.c ****   {
 391:Core/Src/tim.c ****   /* USER CODE BEGIN TIM4_MspDeInit 0 */
 392:Core/Src/tim.c **** 
 393:Core/Src/tim.c ****   /* USER CODE END TIM4_MspDeInit 0 */
 394:Core/Src/tim.c ****     /* Peripheral clock disable */
 395:Core/Src/tim.c ****     __HAL_RCC_TIM4_CLK_DISABLE();
 396:Core/Src/tim.c **** 
 397:Core/Src/tim.c ****     /**TIM4 GPIO Configuration
 398:Core/Src/tim.c ****     PB6     ------> TIM4_CH1
 399:Core/Src/tim.c ****     PB7     ------> TIM4_CH2
 400:Core/Src/tim.c ****     */
 401:Core/Src/tim.c ****     HAL_GPIO_DeInit(GPIOB, MT1_ENB_Pin|MT1_ENA_Pin);
 402:Core/Src/tim.c **** 
 403:Core/Src/tim.c ****   /* USER CODE BEGIN TIM4_MspDeInit 1 */
 404:Core/Src/tim.c **** 
 405:Core/Src/tim.c ****   /* USER CODE END TIM4_MspDeInit 1 */
 406:Core/Src/tim.c ****   }
 407:Core/Src/tim.c **** }
 1103              		.loc 1 407 1 view .LVU333
 1104 0010 08BD     		pop	{r3, pc}
 1105              	.LVL49:
 1106              	.L82:
ARM GAS  C:\Users\Xuleo\AppData\Local\Temp\cc8vUknT.s 			page 30


 377:Core/Src/tim.c **** 
 1107              		.loc 1 377 5 is_stmt 1 view .LVU334
 1108 0012 0E4A     		ldr	r2, .L84+8
 1109 0014 D2F89C30 		ldr	r3, [r2, #156]
 1110 0018 23F00203 		bic	r3, r3, #2
 1111 001c C2F89C30 		str	r3, [r2, #156]
 383:Core/Src/tim.c **** 
 1112              		.loc 1 383 5 view .LVU335
 1113 0020 3021     		movs	r1, #48
 1114 0022 0B48     		ldr	r0, .L84+12
 1115              	.LVL50:
 383:Core/Src/tim.c **** 
 1116              		.loc 1 383 5 is_stmt 0 view .LVU336
 1117 0024 FFF7FEFF 		bl	HAL_GPIO_DeInit
 1118              	.LVL51:
 1119 0028 F2E7     		b	.L78
 1120              	.LVL52:
 1121              	.L83:
 395:Core/Src/tim.c **** 
 1122              		.loc 1 395 5 is_stmt 1 view .LVU337
 1123 002a 084A     		ldr	r2, .L84+8
 1124 002c D2F89C30 		ldr	r3, [r2, #156]
 1125 0030 23F00403 		bic	r3, r3, #4
 1126 0034 C2F89C30 		str	r3, [r2, #156]
 401:Core/Src/tim.c **** 
 1127              		.loc 1 401 5 view .LVU338
 1128 0038 C021     		movs	r1, #192
 1129 003a 0548     		ldr	r0, .L84+12
 1130              	.LVL53:
 401:Core/Src/tim.c **** 
 1131              		.loc 1 401 5 is_stmt 0 view .LVU339
 1132 003c FFF7FEFF 		bl	HAL_GPIO_DeInit
 1133              	.LVL54:
 1134              		.loc 1 407 1 view .LVU340
 1135 0040 E6E7     		b	.L78
 1136              	.L85:
 1137 0042 00BF     		.align	2
 1138              	.L84:
 1139 0044 00040040 		.word	1073742848
 1140 0048 00080040 		.word	1073743872
 1141 004c 000C0244 		.word	1140984832
 1142 0050 00040242 		.word	1107428352
 1143              		.cfi_endproc
 1144              	.LFE365:
 1146              		.section	.text.HAL_TIM_Base_MspDeInit,"ax",%progbits
 1147              		.align	1
 1148              		.global	HAL_TIM_Base_MspDeInit
 1149              		.syntax unified
 1150              		.thumb
 1151              		.thumb_func
 1153              	HAL_TIM_Base_MspDeInit:
 1154              	.LVL55:
 1155              	.LFB366:
 408:Core/Src/tim.c **** 
 409:Core/Src/tim.c **** void HAL_TIM_Base_MspDeInit(TIM_HandleTypeDef* tim_baseHandle)
 410:Core/Src/tim.c **** {
 1156              		.loc 1 410 1 is_stmt 1 view -0
ARM GAS  C:\Users\Xuleo\AppData\Local\Temp\cc8vUknT.s 			page 31


 1157              		.cfi_startproc
 1158              		@ args = 0, pretend = 0, frame = 0
 1159              		@ frame_needed = 0, uses_anonymous_args = 0
 1160              		.loc 1 410 1 is_stmt 0 view .LVU342
 1161 0000 08B5     		push	{r3, lr}
 1162              	.LCFI30:
 1163              		.cfi_def_cfa_offset 8
 1164              		.cfi_offset 3, -8
 1165              		.cfi_offset 14, -4
 411:Core/Src/tim.c **** 
 412:Core/Src/tim.c ****   if(tim_baseHandle->Instance==TIM5)
 1166              		.loc 1 412 3 is_stmt 1 view .LVU343
 1167              		.loc 1 412 20 is_stmt 0 view .LVU344
 1168 0002 0268     		ldr	r2, [r0]
 1169              		.loc 1 412 5 view .LVU345
 1170 0004 074B     		ldr	r3, .L90
 1171 0006 9A42     		cmp	r2, r3
 1172 0008 00D0     		beq	.L89
 1173              	.LVL56:
 1174              	.L86:
 413:Core/Src/tim.c ****   {
 414:Core/Src/tim.c ****   /* USER CODE BEGIN TIM5_MspDeInit 0 */
 415:Core/Src/tim.c **** 
 416:Core/Src/tim.c ****   /* USER CODE END TIM5_MspDeInit 0 */
 417:Core/Src/tim.c ****     /* Peripheral clock disable */
 418:Core/Src/tim.c ****     __HAL_RCC_TIM5_CLK_DISABLE();
 419:Core/Src/tim.c **** 
 420:Core/Src/tim.c ****     /* TIM5 interrupt Deinit */
 421:Core/Src/tim.c ****     HAL_NVIC_DisableIRQ(TIM5_IRQn);
 422:Core/Src/tim.c ****   /* USER CODE BEGIN TIM5_MspDeInit 1 */
 423:Core/Src/tim.c **** 
 424:Core/Src/tim.c ****   /* USER CODE END TIM5_MspDeInit 1 */
 425:Core/Src/tim.c ****   }
 426:Core/Src/tim.c **** }
 1175              		.loc 1 426 1 view .LVU346
 1176 000a 08BD     		pop	{r3, pc}
 1177              	.LVL57:
 1178              	.L89:
 418:Core/Src/tim.c **** 
 1179              		.loc 1 418 5 is_stmt 1 view .LVU347
 1180 000c 064A     		ldr	r2, .L90+4
 1181 000e D2F89C30 		ldr	r3, [r2, #156]
 1182 0012 23F00803 		bic	r3, r3, #8
 1183 0016 C2F89C30 		str	r3, [r2, #156]
 421:Core/Src/tim.c ****   /* USER CODE BEGIN TIM5_MspDeInit 1 */
 1184              		.loc 1 421 5 view .LVU348
 1185 001a 3020     		movs	r0, #48
 1186              	.LVL58:
 421:Core/Src/tim.c ****   /* USER CODE BEGIN TIM5_MspDeInit 1 */
 1187              		.loc 1 421 5 is_stmt 0 view .LVU349
 1188 001c FFF7FEFF 		bl	HAL_NVIC_DisableIRQ
 1189              	.LVL59:
 1190              		.loc 1 426 1 view .LVU350
 1191 0020 F3E7     		b	.L86
 1192              	.L91:
 1193 0022 00BF     		.align	2
 1194              	.L90:
ARM GAS  C:\Users\Xuleo\AppData\Local\Temp\cc8vUknT.s 			page 32


 1195 0024 000C0040 		.word	1073744896
 1196 0028 000C0244 		.word	1140984832
 1197              		.cfi_endproc
 1198              	.LFE366:
 1200              		.global	htim5
 1201              		.section	.bss.htim5,"aw",%nobits
 1202              		.align	2
 1205              	htim5:
 1206 0000 00000000 		.space	76
 1206      00000000 
 1206      00000000 
 1206      00000000 
 1206      00000000 
 1207              		.global	htim4
 1208              		.section	.bss.htim4,"aw",%nobits
 1209              		.align	2
 1212              	htim4:
 1213 0000 00000000 		.space	76
 1213      00000000 
 1213      00000000 
 1213      00000000 
 1213      00000000 
 1214              		.global	htim3
 1215              		.section	.bss.htim3,"aw",%nobits
 1216              		.align	2
 1219              	htim3:
 1220 0000 00000000 		.space	76
 1220      00000000 
 1220      00000000 
 1220      00000000 
 1220      00000000 
 1221              		.global	htim1
 1222              		.section	.bss.htim1,"aw",%nobits
 1223              		.align	2
 1226              	htim1:
 1227 0000 00000000 		.space	76
 1227      00000000 
 1227      00000000 
 1227      00000000 
 1227      00000000 
 1228              		.text
 1229              	.Letext0:
 1230              		.file 2 "C:/thirdpartyLibs/arm-gnu-toolchain-15.2/arm-none-eabi/include/machine/_default_types.h"
 1231              		.file 3 "Drivers/CMSIS/Device/ST/STM32H5xx/Include/stm32h523xx.h"
 1232              		.file 4 "C:/thirdpartyLibs/arm-gnu-toolchain-15.2/arm-none-eabi/include/sys/_stdint.h"
 1233              		.file 5 "Drivers/STM32H5xx_HAL_Driver/Inc/stm32h5xx_hal_def.h"
 1234              		.file 6 "Drivers/STM32H5xx_HAL_Driver/Inc/stm32h5xx_hal_gpio.h"
 1235              		.file 7 "Drivers/STM32H5xx_HAL_Driver/Inc/stm32h5xx_hal_dma.h"
 1236              		.file 8 "Drivers/STM32H5xx_HAL_Driver/Inc/stm32h5xx_hal_dma_ex.h"
 1237              		.file 9 "Drivers/STM32H5xx_HAL_Driver/Inc/stm32h5xx_hal_tim.h"
 1238              		.file 10 "Core/Inc/tim.h"
 1239              		.file 11 "Drivers/STM32H5xx_HAL_Driver/Inc/stm32h5xx_hal_cortex.h"
 1240              		.file 12 "Drivers/STM32H5xx_HAL_Driver/Inc/stm32h5xx_hal_tim_ex.h"
 1241              		.file 13 "Core/Inc/main.h"
 1242              		.file 14 "<built-in>"
ARM GAS  C:\Users\Xuleo\AppData\Local\Temp\cc8vUknT.s 			page 33


DEFINED SYMBOLS
                            *ABS*:00000000 tim.c
C:\Users\Xuleo\AppData\Local\Temp\cc8vUknT.s:22     .text.MX_TIM3_Init:00000000 $t
C:\Users\Xuleo\AppData\Local\Temp\cc8vUknT.s:28     .text.MX_TIM3_Init:00000000 MX_TIM3_Init
C:\Users\Xuleo\AppData\Local\Temp\cc8vUknT.s:140    .text.MX_TIM3_Init:0000005c $d
C:\Users\Xuleo\AppData\Local\Temp\cc8vUknT.s:1219   .bss.htim3:00000000 htim3
C:\Users\Xuleo\AppData\Local\Temp\cc8vUknT.s:146    .text.MX_TIM4_Init:00000000 $t
C:\Users\Xuleo\AppData\Local\Temp\cc8vUknT.s:152    .text.MX_TIM4_Init:00000000 MX_TIM4_Init
C:\Users\Xuleo\AppData\Local\Temp\cc8vUknT.s:264    .text.MX_TIM4_Init:0000005c $d
C:\Users\Xuleo\AppData\Local\Temp\cc8vUknT.s:1212   .bss.htim4:00000000 htim4
C:\Users\Xuleo\AppData\Local\Temp\cc8vUknT.s:270    .text.MX_TIM5_Init:00000000 $t
C:\Users\Xuleo\AppData\Local\Temp\cc8vUknT.s:276    .text.MX_TIM5_Init:00000000 MX_TIM5_Init
C:\Users\Xuleo\AppData\Local\Temp\cc8vUknT.s:387    .text.MX_TIM5_Init:00000068 $d
C:\Users\Xuleo\AppData\Local\Temp\cc8vUknT.s:1205   .bss.htim5:00000000 htim5
C:\Users\Xuleo\AppData\Local\Temp\cc8vUknT.s:393    .text.HAL_TIM_PWM_MspInit:00000000 $t
C:\Users\Xuleo\AppData\Local\Temp\cc8vUknT.s:399    .text.HAL_TIM_PWM_MspInit:00000000 HAL_TIM_PWM_MspInit
C:\Users\Xuleo\AppData\Local\Temp\cc8vUknT.s:445    .text.HAL_TIM_PWM_MspInit:0000002c $d
C:\Users\Xuleo\AppData\Local\Temp\cc8vUknT.s:451    .text.HAL_TIM_Encoder_MspInit:00000000 $t
C:\Users\Xuleo\AppData\Local\Temp\cc8vUknT.s:457    .text.HAL_TIM_Encoder_MspInit:00000000 HAL_TIM_Encoder_MspInit
C:\Users\Xuleo\AppData\Local\Temp\cc8vUknT.s:615    .text.HAL_TIM_Encoder_MspInit:000000b0 $d
C:\Users\Xuleo\AppData\Local\Temp\cc8vUknT.s:623    .text.HAL_TIM_Base_MspInit:00000000 $t
C:\Users\Xuleo\AppData\Local\Temp\cc8vUknT.s:629    .text.HAL_TIM_Base_MspInit:00000000 HAL_TIM_Base_MspInit
C:\Users\Xuleo\AppData\Local\Temp\cc8vUknT.s:690    .text.HAL_TIM_Base_MspInit:0000003c $d
C:\Users\Xuleo\AppData\Local\Temp\cc8vUknT.s:696    .text.HAL_TIM_MspPostInit:00000000 $t
C:\Users\Xuleo\AppData\Local\Temp\cc8vUknT.s:702    .text.HAL_TIM_MspPostInit:00000000 HAL_TIM_MspPostInit
C:\Users\Xuleo\AppData\Local\Temp\cc8vUknT.s:787    .text.HAL_TIM_MspPostInit:00000050 $d
C:\Users\Xuleo\AppData\Local\Temp\cc8vUknT.s:794    .text.MX_TIM1_Init:00000000 $t
C:\Users\Xuleo\AppData\Local\Temp\cc8vUknT.s:800    .text.MX_TIM1_Init:00000000 MX_TIM1_Init
C:\Users\Xuleo\AppData\Local\Temp\cc8vUknT.s:1023   .text.MX_TIM1_Init:000000d8 $d
C:\Users\Xuleo\AppData\Local\Temp\cc8vUknT.s:1226   .bss.htim1:00000000 htim1
C:\Users\Xuleo\AppData\Local\Temp\cc8vUknT.s:1029   .text.HAL_TIM_PWM_MspDeInit:00000000 $t
C:\Users\Xuleo\AppData\Local\Temp\cc8vUknT.s:1035   .text.HAL_TIM_PWM_MspDeInit:00000000 HAL_TIM_PWM_MspDeInit
C:\Users\Xuleo\AppData\Local\Temp\cc8vUknT.s:1064   .text.HAL_TIM_PWM_MspDeInit:0000001c $d
C:\Users\Xuleo\AppData\Local\Temp\cc8vUknT.s:1070   .text.HAL_TIM_Encoder_MspDeInit:00000000 $t
C:\Users\Xuleo\AppData\Local\Temp\cc8vUknT.s:1076   .text.HAL_TIM_Encoder_MspDeInit:00000000 HAL_TIM_Encoder_MspDeInit
C:\Users\Xuleo\AppData\Local\Temp\cc8vUknT.s:1139   .text.HAL_TIM_Encoder_MspDeInit:00000044 $d
C:\Users\Xuleo\AppData\Local\Temp\cc8vUknT.s:1147   .text.HAL_TIM_Base_MspDeInit:00000000 $t
C:\Users\Xuleo\AppData\Local\Temp\cc8vUknT.s:1153   .text.HAL_TIM_Base_MspDeInit:00000000 HAL_TIM_Base_MspDeInit
C:\Users\Xuleo\AppData\Local\Temp\cc8vUknT.s:1195   .text.HAL_TIM_Base_MspDeInit:00000024 $d
C:\Users\Xuleo\AppData\Local\Temp\cc8vUknT.s:1202   .bss.htim5:00000000 $d
C:\Users\Xuleo\AppData\Local\Temp\cc8vUknT.s:1209   .bss.htim4:00000000 $d
C:\Users\Xuleo\AppData\Local\Temp\cc8vUknT.s:1216   .bss.htim3:00000000 $d
C:\Users\Xuleo\AppData\Local\Temp\cc8vUknT.s:1223   .bss.htim1:00000000 $d

UNDEFINED SYMBOLS
memset
HAL_TIM_Encoder_Init
HAL_TIMEx_MasterConfigSynchronization
Error_Handler
HAL_TIM_Base_Init
HAL_TIM_ConfigClockSource
HAL_GPIO_Init
HAL_NVIC_SetPriority
HAL_NVIC_EnableIRQ
HAL_TIM_PWM_Init
HAL_TIM_PWM_ConfigChannel
HAL_TIMEx_ConfigBreakDeadTime
ARM GAS  C:\Users\Xuleo\AppData\Local\Temp\cc8vUknT.s 			page 34


HAL_GPIO_DeInit
HAL_NVIC_DisableIRQ
