ARM GAS  C:\Users\Xuleo\AppData\Local\Temp\cccy2SjC.s 			page 1


   1              		.cpu cortex-m33
   2              		.arch armv8-m.main
   3              		.fpu fpv4-sp-d16
   4              		.arch_extension dsp
   5              		.eabi_attribute 27, 1
   6              		.eabi_attribute 28, 1
   7              		.eabi_attribute 20, 1
   8              		.eabi_attribute 21, 1
   9              		.eabi_attribute 23, 3
  10              		.eabi_attribute 24, 1
  11              		.eabi_attribute 25, 1
  12              		.eabi_attribute 26, 1
  13              		.eabi_attribute 30, 1
  14              		.eabi_attribute 34, 1
  15              		.eabi_attribute 18, 4
  16              		.file	"tim.c"
  17              		.text
  18              	.Ltext0:
  19              		.cfi_sections	.debug_frame
  20              		.file 1 "Core/Src/tim.c"
  21              		.section	.text.MX_TIM2_Init,"ax",%progbits
  22              		.align	1
  23              		.global	MX_TIM2_Init
  24              		.syntax unified
  25              		.thumb
  26              		.thumb_func
  28              	MX_TIM2_Init:
  29              	.LFB160:
   1:Core/Src/tim.c **** /* USER CODE BEGIN Header */
   2:Core/Src/tim.c **** /**
   3:Core/Src/tim.c ****   ******************************************************************************
   4:Core/Src/tim.c ****   * @file    tim.c
   5:Core/Src/tim.c ****   * @brief   This file provides code for the configuration
   6:Core/Src/tim.c ****   *          of the TIM instances.
   7:Core/Src/tim.c ****   ******************************************************************************
   8:Core/Src/tim.c ****   * @attention
   9:Core/Src/tim.c ****   *
  10:Core/Src/tim.c ****   * Copyright (c) 2026 STMicroelectronics.
  11:Core/Src/tim.c ****   * All rights reserved.
  12:Core/Src/tim.c ****   *
  13:Core/Src/tim.c ****   * This software is licensed under terms that can be found in the LICENSE file
  14:Core/Src/tim.c ****   * in the root directory of this software component.
  15:Core/Src/tim.c ****   * If no LICENSE file comes with this software, it is provided AS-IS.
  16:Core/Src/tim.c ****   *
  17:Core/Src/tim.c ****   ******************************************************************************
  18:Core/Src/tim.c ****   */
  19:Core/Src/tim.c **** /* USER CODE END Header */
  20:Core/Src/tim.c **** /* Includes ------------------------------------------------------------------*/
  21:Core/Src/tim.c **** #include "tim.h"
  22:Core/Src/tim.c **** 
  23:Core/Src/tim.c **** /* USER CODE BEGIN 0 */
  24:Core/Src/tim.c **** 
  25:Core/Src/tim.c **** /* USER CODE END 0 */
  26:Core/Src/tim.c **** 
  27:Core/Src/tim.c **** TIM_HandleTypeDef htim2;
  28:Core/Src/tim.c **** TIM_HandleTypeDef htim3;
  29:Core/Src/tim.c **** TIM_HandleTypeDef htim8;
ARM GAS  C:\Users\Xuleo\AppData\Local\Temp\cccy2SjC.s 			page 2


  30:Core/Src/tim.c **** 
  31:Core/Src/tim.c **** /* TIM2 init function */
  32:Core/Src/tim.c **** void MX_TIM2_Init(void)
  33:Core/Src/tim.c **** {
  30              		.loc 1 33 1 view -0
  31              		.cfi_startproc
  32              		@ args = 0, pretend = 0, frame = 32
  33              		@ frame_needed = 0, uses_anonymous_args = 0
  34 0000 00B5     		push	{lr}
  35              	.LCFI0:
  36              		.cfi_def_cfa_offset 4
  37              		.cfi_offset 14, -4
  38 0002 89B0     		sub	sp, sp, #36
  39              	.LCFI1:
  40              		.cfi_def_cfa_offset 40
  34:Core/Src/tim.c **** 
  35:Core/Src/tim.c ****   /* USER CODE BEGIN TIM2_Init 0 */
  36:Core/Src/tim.c **** 
  37:Core/Src/tim.c ****   /* USER CODE END TIM2_Init 0 */
  38:Core/Src/tim.c **** 
  39:Core/Src/tim.c ****   TIM_ClockConfigTypeDef sClockSourceConfig = {0};
  41              		.loc 1 39 3 view .LVU1
  42              		.loc 1 39 26 is_stmt 0 view .LVU2
  43 0004 0023     		movs	r3, #0
  44 0006 0493     		str	r3, [sp, #16]
  45 0008 0593     		str	r3, [sp, #20]
  46 000a 0693     		str	r3, [sp, #24]
  47 000c 0793     		str	r3, [sp, #28]
  40:Core/Src/tim.c ****   TIM_MasterConfigTypeDef sMasterConfig = {0};
  48              		.loc 1 40 3 is_stmt 1 view .LVU3
  49              		.loc 1 40 27 is_stmt 0 view .LVU4
  50 000e 0193     		str	r3, [sp, #4]
  51 0010 0293     		str	r3, [sp, #8]
  52 0012 0393     		str	r3, [sp, #12]
  41:Core/Src/tim.c **** 
  42:Core/Src/tim.c ****   /* USER CODE BEGIN TIM2_Init 1 */
  43:Core/Src/tim.c **** 
  44:Core/Src/tim.c ****   /* USER CODE END TIM2_Init 1 */
  45:Core/Src/tim.c ****   htim2.Instance = TIM2;
  53              		.loc 1 45 3 is_stmt 1 view .LVU5
  54              		.loc 1 45 18 is_stmt 0 view .LVU6
  55 0014 1548     		ldr	r0, .L9
  56 0016 4FF08042 		mov	r2, #1073741824
  57 001a 0260     		str	r2, [r0]
  46:Core/Src/tim.c ****   htim2.Init.Prescaler = 249;
  58              		.loc 1 46 3 is_stmt 1 view .LVU7
  59              		.loc 1 46 24 is_stmt 0 view .LVU8
  60 001c F922     		movs	r2, #249
  61 001e 4260     		str	r2, [r0, #4]
  47:Core/Src/tim.c ****   htim2.Init.CounterMode = TIM_COUNTERMODE_UP;
  62              		.loc 1 47 3 is_stmt 1 view .LVU9
  63              		.loc 1 47 26 is_stmt 0 view .LVU10
  64 0020 8360     		str	r3, [r0, #8]
  48:Core/Src/tim.c ****   htim2.Init.Period = 999;
  65              		.loc 1 48 3 is_stmt 1 view .LVU11
  66              		.loc 1 48 21 is_stmt 0 view .LVU12
  67 0022 40F2E732 		movw	r2, #999
ARM GAS  C:\Users\Xuleo\AppData\Local\Temp\cccy2SjC.s 			page 3


  68 0026 C260     		str	r2, [r0, #12]
  49:Core/Src/tim.c ****   htim2.Init.ClockDivision = TIM_CLOCKDIVISION_DIV1;
  69              		.loc 1 49 3 is_stmt 1 view .LVU13
  70              		.loc 1 49 28 is_stmt 0 view .LVU14
  71 0028 0361     		str	r3, [r0, #16]
  50:Core/Src/tim.c ****   htim2.Init.AutoReloadPreload = TIM_AUTORELOAD_PRELOAD_ENABLE;
  72              		.loc 1 50 3 is_stmt 1 view .LVU15
  73              		.loc 1 50 32 is_stmt 0 view .LVU16
  74 002a 8023     		movs	r3, #128
  75 002c 8361     		str	r3, [r0, #24]
  51:Core/Src/tim.c ****   if (HAL_TIM_Base_Init(&htim2) != HAL_OK)
  76              		.loc 1 51 3 is_stmt 1 view .LVU17
  77              		.loc 1 51 7 is_stmt 0 view .LVU18
  78 002e FFF7FEFF 		bl	HAL_TIM_Base_Init
  79              	.LVL0:
  80              		.loc 1 51 6 discriminator 1 view .LVU19
  81 0032 88B9     		cbnz	r0, .L6
  82              	.L2:
  52:Core/Src/tim.c ****   {
  53:Core/Src/tim.c ****     Error_Handler();
  54:Core/Src/tim.c ****   }
  55:Core/Src/tim.c ****   sClockSourceConfig.ClockSource = TIM_CLOCKSOURCE_INTERNAL;
  83              		.loc 1 55 3 is_stmt 1 view .LVU20
  84              		.loc 1 55 34 is_stmt 0 view .LVU21
  85 0034 4FF48053 		mov	r3, #4096
  86 0038 0493     		str	r3, [sp, #16]
  56:Core/Src/tim.c ****   if (HAL_TIM_ConfigClockSource(&htim2, &sClockSourceConfig) != HAL_OK)
  87              		.loc 1 56 3 is_stmt 1 view .LVU22
  88              		.loc 1 56 7 is_stmt 0 view .LVU23
  89 003a 04A9     		add	r1, sp, #16
  90 003c 0B48     		ldr	r0, .L9
  91 003e FFF7FEFF 		bl	HAL_TIM_ConfigClockSource
  92              	.LVL1:
  93              		.loc 1 56 6 discriminator 1 view .LVU24
  94 0042 60B9     		cbnz	r0, .L7
  95              	.L3:
  57:Core/Src/tim.c ****   {
  58:Core/Src/tim.c ****     Error_Handler();
  59:Core/Src/tim.c ****   }
  60:Core/Src/tim.c ****   sMasterConfig.MasterOutputTrigger = TIM_TRGO_RESET;
  96              		.loc 1 60 3 is_stmt 1 view .LVU25
  97              		.loc 1 60 37 is_stmt 0 view .LVU26
  98 0044 0023     		movs	r3, #0
  99 0046 0193     		str	r3, [sp, #4]
  61:Core/Src/tim.c ****   sMasterConfig.MasterSlaveMode = TIM_MASTERSLAVEMODE_DISABLE;
 100              		.loc 1 61 3 is_stmt 1 view .LVU27
 101              		.loc 1 61 33 is_stmt 0 view .LVU28
 102 0048 0393     		str	r3, [sp, #12]
  62:Core/Src/tim.c ****   if (HAL_TIMEx_MasterConfigSynchronization(&htim2, &sMasterConfig) != HAL_OK)
 103              		.loc 1 62 3 is_stmt 1 view .LVU29
 104              		.loc 1 62 7 is_stmt 0 view .LVU30
 105 004a 01A9     		add	r1, sp, #4
 106 004c 0748     		ldr	r0, .L9
 107 004e FFF7FEFF 		bl	HAL_TIMEx_MasterConfigSynchronization
 108              	.LVL2:
 109              		.loc 1 62 6 discriminator 1 view .LVU31
 110 0052 38B9     		cbnz	r0, .L8
ARM GAS  C:\Users\Xuleo\AppData\Local\Temp\cccy2SjC.s 			page 4


 111              	.L1:
  63:Core/Src/tim.c ****   {
  64:Core/Src/tim.c ****     Error_Handler();
  65:Core/Src/tim.c ****   }
  66:Core/Src/tim.c ****   /* USER CODE BEGIN TIM2_Init 2 */
  67:Core/Src/tim.c **** 
  68:Core/Src/tim.c ****   /* USER CODE END TIM2_Init 2 */
  69:Core/Src/tim.c **** 
  70:Core/Src/tim.c **** }
 112              		.loc 1 70 1 view .LVU32
 113 0054 09B0     		add	sp, sp, #36
 114              	.LCFI2:
 115              		.cfi_remember_state
 116              		.cfi_def_cfa_offset 4
 117              		@ sp needed
 118 0056 00BD     		pop	{pc}
 119              	.L6:
 120              	.LCFI3:
 121              		.cfi_restore_state
  53:Core/Src/tim.c ****   }
 122              		.loc 1 53 5 is_stmt 1 view .LVU33
 123 0058 FFF7FEFF 		bl	Error_Handler
 124              	.LVL3:
 125 005c EAE7     		b	.L2
 126              	.L7:
  58:Core/Src/tim.c ****   }
 127              		.loc 1 58 5 view .LVU34
 128 005e FFF7FEFF 		bl	Error_Handler
 129              	.LVL4:
 130 0062 EFE7     		b	.L3
 131              	.L8:
  64:Core/Src/tim.c ****   }
 132              		.loc 1 64 5 view .LVU35
 133 0064 FFF7FEFF 		bl	Error_Handler
 134              	.LVL5:
 135              		.loc 1 70 1 is_stmt 0 view .LVU36
 136 0068 F4E7     		b	.L1
 137              	.L10:
 138 006a 00BF     		.align	2
 139              	.L9:
 140 006c 00000000 		.word	htim2
 141              		.cfi_endproc
 142              	.LFE160:
 144              		.section	.text.MX_TIM8_Init,"ax",%progbits
 145              		.align	1
 146              		.global	MX_TIM8_Init
 147              		.syntax unified
 148              		.thumb
 149              		.thumb_func
 151              	MX_TIM8_Init:
 152              	.LFB162:
  71:Core/Src/tim.c **** /* TIM3 init function */
  72:Core/Src/tim.c **** void MX_TIM3_Init(void)
  73:Core/Src/tim.c **** {
  74:Core/Src/tim.c **** 
  75:Core/Src/tim.c ****   /* USER CODE BEGIN TIM3_Init 0 */
  76:Core/Src/tim.c **** 
ARM GAS  C:\Users\Xuleo\AppData\Local\Temp\cccy2SjC.s 			page 5


  77:Core/Src/tim.c ****   /* USER CODE END TIM3_Init 0 */
  78:Core/Src/tim.c **** 
  79:Core/Src/tim.c ****   TIM_ClockConfigTypeDef sClockSourceConfig = {0};
  80:Core/Src/tim.c ****   TIM_MasterConfigTypeDef sMasterConfig = {0};
  81:Core/Src/tim.c ****   TIM_OC_InitTypeDef sConfigOC = {0};
  82:Core/Src/tim.c **** 
  83:Core/Src/tim.c ****   /* USER CODE BEGIN TIM3_Init 1 */
  84:Core/Src/tim.c **** 
  85:Core/Src/tim.c ****   /* USER CODE END TIM3_Init 1 */
  86:Core/Src/tim.c ****   htim3.Instance = TIM3;
  87:Core/Src/tim.c ****   htim3.Init.Prescaler = 249;
  88:Core/Src/tim.c ****   htim3.Init.CounterMode = TIM_COUNTERMODE_UP;
  89:Core/Src/tim.c ****   htim3.Init.Period = 99;
  90:Core/Src/tim.c ****   htim3.Init.ClockDivision = TIM_CLOCKDIVISION_DIV1;
  91:Core/Src/tim.c ****   htim3.Init.AutoReloadPreload = TIM_AUTORELOAD_PRELOAD_ENABLE;
  92:Core/Src/tim.c ****   if (HAL_TIM_Base_Init(&htim3) != HAL_OK)
  93:Core/Src/tim.c ****   {
  94:Core/Src/tim.c ****     Error_Handler();
  95:Core/Src/tim.c ****   }
  96:Core/Src/tim.c ****   sClockSourceConfig.ClockSource = TIM_CLOCKSOURCE_INTERNAL;
  97:Core/Src/tim.c ****   if (HAL_TIM_ConfigClockSource(&htim3, &sClockSourceConfig) != HAL_OK)
  98:Core/Src/tim.c ****   {
  99:Core/Src/tim.c ****     Error_Handler();
 100:Core/Src/tim.c ****   }
 101:Core/Src/tim.c ****   if (HAL_TIM_PWM_Init(&htim3) != HAL_OK)
 102:Core/Src/tim.c ****   {
 103:Core/Src/tim.c ****     Error_Handler();
 104:Core/Src/tim.c ****   }
 105:Core/Src/tim.c ****   sMasterConfig.MasterOutputTrigger = TIM_TRGO_RESET;
 106:Core/Src/tim.c ****   sMasterConfig.MasterSlaveMode = TIM_MASTERSLAVEMODE_DISABLE;
 107:Core/Src/tim.c ****   if (HAL_TIMEx_MasterConfigSynchronization(&htim3, &sMasterConfig) != HAL_OK)
 108:Core/Src/tim.c ****   {
 109:Core/Src/tim.c ****     Error_Handler();
 110:Core/Src/tim.c ****   }
 111:Core/Src/tim.c ****   sConfigOC.OCMode = TIM_OCMODE_PWM1;
 112:Core/Src/tim.c ****   sConfigOC.Pulse = 0;
 113:Core/Src/tim.c ****   sConfigOC.OCPolarity = TIM_OCPOLARITY_HIGH;
 114:Core/Src/tim.c ****   sConfigOC.OCFastMode = TIM_OCFAST_DISABLE;
 115:Core/Src/tim.c ****   if (HAL_TIM_PWM_ConfigChannel(&htim3, &sConfigOC, TIM_CHANNEL_1) != HAL_OK)
 116:Core/Src/tim.c ****   {
 117:Core/Src/tim.c ****     Error_Handler();
 118:Core/Src/tim.c ****   }
 119:Core/Src/tim.c ****   if (HAL_TIM_PWM_ConfigChannel(&htim3, &sConfigOC, TIM_CHANNEL_2) != HAL_OK)
 120:Core/Src/tim.c ****   {
 121:Core/Src/tim.c ****     Error_Handler();
 122:Core/Src/tim.c ****   }
 123:Core/Src/tim.c ****   /* USER CODE BEGIN TIM3_Init 2 */
 124:Core/Src/tim.c **** 
 125:Core/Src/tim.c ****   /* USER CODE END TIM3_Init 2 */
 126:Core/Src/tim.c ****   HAL_TIM_MspPostInit(&htim3);
 127:Core/Src/tim.c **** 
 128:Core/Src/tim.c **** }
 129:Core/Src/tim.c **** /* TIM8 init function */
 130:Core/Src/tim.c **** void MX_TIM8_Init(void)
 131:Core/Src/tim.c **** {
 153              		.loc 1 131 1 is_stmt 1 view -0
 154              		.cfi_startproc
ARM GAS  C:\Users\Xuleo\AppData\Local\Temp\cccy2SjC.s 			page 6


 155              		@ args = 0, pretend = 0, frame = 48
 156              		@ frame_needed = 0, uses_anonymous_args = 0
 157 0000 10B5     		push	{r4, lr}
 158              	.LCFI4:
 159              		.cfi_def_cfa_offset 8
 160              		.cfi_offset 4, -8
 161              		.cfi_offset 14, -4
 162 0002 8CB0     		sub	sp, sp, #48
 163              	.LCFI5:
 164              		.cfi_def_cfa_offset 56
 132:Core/Src/tim.c **** 
 133:Core/Src/tim.c ****   /* USER CODE BEGIN TIM8_Init 0 */
 134:Core/Src/tim.c **** 
 135:Core/Src/tim.c ****   /* USER CODE END TIM8_Init 0 */
 136:Core/Src/tim.c **** 
 137:Core/Src/tim.c ****   TIM_Encoder_InitTypeDef sConfig = {0};
 165              		.loc 1 137 3 view .LVU38
 166              		.loc 1 137 27 is_stmt 0 view .LVU39
 167 0004 03AC     		add	r4, sp, #12
 168 0006 2422     		movs	r2, #36
 169 0008 0021     		movs	r1, #0
 170 000a 2046     		mov	r0, r4
 171 000c FFF7FEFF 		bl	memset
 172              	.LVL6:
 138:Core/Src/tim.c ****   TIM_MasterConfigTypeDef sMasterConfig = {0};
 173              		.loc 1 138 3 is_stmt 1 view .LVU40
 174              		.loc 1 138 27 is_stmt 0 view .LVU41
 175 0010 0023     		movs	r3, #0
 176 0012 0093     		str	r3, [sp]
 177 0014 0193     		str	r3, [sp, #4]
 178 0016 0293     		str	r3, [sp, #8]
 139:Core/Src/tim.c **** 
 140:Core/Src/tim.c ****   /* USER CODE BEGIN TIM8_Init 1 */
 141:Core/Src/tim.c **** 
 142:Core/Src/tim.c ****   /* USER CODE END TIM8_Init 1 */
 143:Core/Src/tim.c ****   htim8.Instance = TIM8;
 179              		.loc 1 143 3 is_stmt 1 view .LVU42
 180              		.loc 1 143 18 is_stmt 0 view .LVU43
 181 0018 1248     		ldr	r0, .L17
 182 001a 134A     		ldr	r2, .L17+4
 183 001c 0260     		str	r2, [r0]
 144:Core/Src/tim.c ****   htim8.Init.Prescaler = 0;
 184              		.loc 1 144 3 is_stmt 1 view .LVU44
 185              		.loc 1 144 24 is_stmt 0 view .LVU45
 186 001e 4360     		str	r3, [r0, #4]
 145:Core/Src/tim.c ****   htim8.Init.CounterMode = TIM_COUNTERMODE_UP;
 187              		.loc 1 145 3 is_stmt 1 view .LVU46
 188              		.loc 1 145 26 is_stmt 0 view .LVU47
 189 0020 8360     		str	r3, [r0, #8]
 146:Core/Src/tim.c ****   htim8.Init.Period = 65535;
 190              		.loc 1 146 3 is_stmt 1 view .LVU48
 191              		.loc 1 146 21 is_stmt 0 view .LVU49
 192 0022 4FF6FF72 		movw	r2, #65535
 193 0026 C260     		str	r2, [r0, #12]
 147:Core/Src/tim.c ****   htim8.Init.ClockDivision = TIM_CLOCKDIVISION_DIV1;
 194              		.loc 1 147 3 is_stmt 1 view .LVU50
 195              		.loc 1 147 28 is_stmt 0 view .LVU51
ARM GAS  C:\Users\Xuleo\AppData\Local\Temp\cccy2SjC.s 			page 7


 196 0028 0361     		str	r3, [r0, #16]
 148:Core/Src/tim.c ****   htim8.Init.RepetitionCounter = 0;
 197              		.loc 1 148 3 is_stmt 1 view .LVU52
 198              		.loc 1 148 32 is_stmt 0 view .LVU53
 199 002a 4361     		str	r3, [r0, #20]
 149:Core/Src/tim.c ****   htim8.Init.AutoReloadPreload = TIM_AUTORELOAD_PRELOAD_DISABLE;
 200              		.loc 1 149 3 is_stmt 1 view .LVU54
 201              		.loc 1 149 32 is_stmt 0 view .LVU55
 202 002c 8361     		str	r3, [r0, #24]
 150:Core/Src/tim.c ****   sConfig.EncoderMode = TIM_ENCODERMODE_TI12;
 203              		.loc 1 150 3 is_stmt 1 view .LVU56
 204              		.loc 1 150 23 is_stmt 0 view .LVU57
 205 002e 0323     		movs	r3, #3
 206 0030 0393     		str	r3, [sp, #12]
 151:Core/Src/tim.c ****   sConfig.IC1Polarity = TIM_ICPOLARITY_RISING;
 207              		.loc 1 151 3 is_stmt 1 view .LVU58
 152:Core/Src/tim.c ****   sConfig.IC1Selection = TIM_ICSELECTION_DIRECTTI;
 208              		.loc 1 152 3 view .LVU59
 209              		.loc 1 152 24 is_stmt 0 view .LVU60
 210 0032 0123     		movs	r3, #1
 211 0034 0593     		str	r3, [sp, #20]
 153:Core/Src/tim.c ****   sConfig.IC1Prescaler = TIM_ICPSC_DIV1;
 212              		.loc 1 153 3 is_stmt 1 view .LVU61
 154:Core/Src/tim.c ****   sConfig.IC1Filter = 0;
 213              		.loc 1 154 3 view .LVU62
 155:Core/Src/tim.c ****   sConfig.IC2Polarity = TIM_ICPOLARITY_RISING;
 214              		.loc 1 155 3 view .LVU63
 156:Core/Src/tim.c ****   sConfig.IC2Selection = TIM_ICSELECTION_DIRECTTI;
 215              		.loc 1 156 3 view .LVU64
 216              		.loc 1 156 24 is_stmt 0 view .LVU65
 217 0036 0993     		str	r3, [sp, #36]
 157:Core/Src/tim.c ****   sConfig.IC2Prescaler = TIM_ICPSC_DIV1;
 218              		.loc 1 157 3 is_stmt 1 view .LVU66
 158:Core/Src/tim.c ****   sConfig.IC2Filter = 0;
 219              		.loc 1 158 3 view .LVU67
 159:Core/Src/tim.c ****   if (HAL_TIM_Encoder_Init(&htim8, &sConfig) != HAL_OK)
 220              		.loc 1 159 3 view .LVU68
 221              		.loc 1 159 7 is_stmt 0 view .LVU69
 222 0038 2146     		mov	r1, r4
 223 003a FFF7FEFF 		bl	HAL_TIM_Encoder_Init
 224              	.LVL7:
 225              		.loc 1 159 6 discriminator 1 view .LVU70
 226 003e 50B9     		cbnz	r0, .L15
 227              	.L12:
 160:Core/Src/tim.c ****   {
 161:Core/Src/tim.c ****     Error_Handler();
 162:Core/Src/tim.c ****   }
 163:Core/Src/tim.c ****   sMasterConfig.MasterOutputTrigger = TIM_TRGO_RESET;
 228              		.loc 1 163 3 is_stmt 1 view .LVU71
 229              		.loc 1 163 37 is_stmt 0 view .LVU72
 230 0040 0023     		movs	r3, #0
 231 0042 0093     		str	r3, [sp]
 164:Core/Src/tim.c ****   sMasterConfig.MasterOutputTrigger2 = TIM_TRGO2_RESET;
 232              		.loc 1 164 3 is_stmt 1 view .LVU73
 233              		.loc 1 164 38 is_stmt 0 view .LVU74
 234 0044 0193     		str	r3, [sp, #4]
 165:Core/Src/tim.c ****   sMasterConfig.MasterSlaveMode = TIM_MASTERSLAVEMODE_DISABLE;
ARM GAS  C:\Users\Xuleo\AppData\Local\Temp\cccy2SjC.s 			page 8


 235              		.loc 1 165 3 is_stmt 1 view .LVU75
 236              		.loc 1 165 33 is_stmt 0 view .LVU76
 237 0046 0293     		str	r3, [sp, #8]
 166:Core/Src/tim.c ****   if (HAL_TIMEx_MasterConfigSynchronization(&htim8, &sMasterConfig) != HAL_OK)
 238              		.loc 1 166 3 is_stmt 1 view .LVU77
 239              		.loc 1 166 7 is_stmt 0 view .LVU78
 240 0048 6946     		mov	r1, sp
 241 004a 0648     		ldr	r0, .L17
 242 004c FFF7FEFF 		bl	HAL_TIMEx_MasterConfigSynchronization
 243              	.LVL8:
 244              		.loc 1 166 6 discriminator 1 view .LVU79
 245 0050 20B9     		cbnz	r0, .L16
 246              	.L11:
 167:Core/Src/tim.c ****   {
 168:Core/Src/tim.c ****     Error_Handler();
 169:Core/Src/tim.c ****   }
 170:Core/Src/tim.c ****   /* USER CODE BEGIN TIM8_Init 2 */
 171:Core/Src/tim.c **** 
 172:Core/Src/tim.c ****   /* USER CODE END TIM8_Init 2 */
 173:Core/Src/tim.c **** 
 174:Core/Src/tim.c **** }
 247              		.loc 1 174 1 view .LVU80
 248 0052 0CB0     		add	sp, sp, #48
 249              	.LCFI6:
 250              		.cfi_remember_state
 251              		.cfi_def_cfa_offset 8
 252              		@ sp needed
 253 0054 10BD     		pop	{r4, pc}
 254              	.L15:
 255              	.LCFI7:
 256              		.cfi_restore_state
 161:Core/Src/tim.c ****   }
 257              		.loc 1 161 5 is_stmt 1 view .LVU81
 258 0056 FFF7FEFF 		bl	Error_Handler
 259              	.LVL9:
 260 005a F1E7     		b	.L12
 261              	.L16:
 168:Core/Src/tim.c ****   }
 262              		.loc 1 168 5 view .LVU82
 263 005c FFF7FEFF 		bl	Error_Handler
 264              	.LVL10:
 265              		.loc 1 174 1 is_stmt 0 view .LVU83
 266 0060 F7E7     		b	.L11
 267              	.L18:
 268 0062 00BF     		.align	2
 269              	.L17:
 270 0064 00000000 		.word	htim8
 271 0068 00340140 		.word	1073820672
 272              		.cfi_endproc
 273              	.LFE162:
 275              		.section	.text.HAL_TIM_Base_MspInit,"ax",%progbits
 276              		.align	1
 277              		.global	HAL_TIM_Base_MspInit
 278              		.syntax unified
 279              		.thumb
 280              		.thumb_func
 282              	HAL_TIM_Base_MspInit:
ARM GAS  C:\Users\Xuleo\AppData\Local\Temp\cccy2SjC.s 			page 9


 283              	.LVL11:
 284              	.LFB163:
 175:Core/Src/tim.c **** 
 176:Core/Src/tim.c **** void HAL_TIM_Base_MspInit(TIM_HandleTypeDef* tim_baseHandle)
 177:Core/Src/tim.c **** {
 285              		.loc 1 177 1 is_stmt 1 view -0
 286              		.cfi_startproc
 287              		@ args = 0, pretend = 0, frame = 8
 288              		@ frame_needed = 0, uses_anonymous_args = 0
 289              		.loc 1 177 1 is_stmt 0 view .LVU85
 290 0000 00B5     		push	{lr}
 291              	.LCFI8:
 292              		.cfi_def_cfa_offset 4
 293              		.cfi_offset 14, -4
 294 0002 83B0     		sub	sp, sp, #12
 295              	.LCFI9:
 296              		.cfi_def_cfa_offset 16
 178:Core/Src/tim.c **** 
 179:Core/Src/tim.c ****   if(tim_baseHandle->Instance==TIM2)
 297              		.loc 1 179 3 is_stmt 1 view .LVU86
 298              		.loc 1 179 20 is_stmt 0 view .LVU87
 299 0004 0368     		ldr	r3, [r0]
 300              		.loc 1 179 5 view .LVU88
 301 0006 B3F1804F 		cmp	r3, #1073741824
 302 000a 04D0     		beq	.L23
 180:Core/Src/tim.c ****   {
 181:Core/Src/tim.c ****   /* USER CODE BEGIN TIM2_MspInit 0 */
 182:Core/Src/tim.c **** 
 183:Core/Src/tim.c ****   /* USER CODE END TIM2_MspInit 0 */
 184:Core/Src/tim.c ****     /* TIM2 clock enable */
 185:Core/Src/tim.c ****     __HAL_RCC_TIM2_CLK_ENABLE();
 186:Core/Src/tim.c **** 
 187:Core/Src/tim.c ****     /* TIM2 interrupt Init */
 188:Core/Src/tim.c ****     HAL_NVIC_SetPriority(TIM2_IRQn, 0, 0);
 189:Core/Src/tim.c ****     HAL_NVIC_EnableIRQ(TIM2_IRQn);
 190:Core/Src/tim.c ****   /* USER CODE BEGIN TIM2_MspInit 1 */
 191:Core/Src/tim.c **** 
 192:Core/Src/tim.c ****   /* USER CODE END TIM2_MspInit 1 */
 193:Core/Src/tim.c ****   }
 194:Core/Src/tim.c ****   else if(tim_baseHandle->Instance==TIM3)
 303              		.loc 1 194 8 is_stmt 1 view .LVU89
 304              		.loc 1 194 10 is_stmt 0 view .LVU90
 305 000c 144A     		ldr	r2, .L25
 306 000e 9342     		cmp	r3, r2
 307 0010 17D0     		beq	.L24
 308              	.LVL12:
 309              	.L19:
 195:Core/Src/tim.c ****   {
 196:Core/Src/tim.c ****   /* USER CODE BEGIN TIM3_MspInit 0 */
 197:Core/Src/tim.c **** 
 198:Core/Src/tim.c ****   /* USER CODE END TIM3_MspInit 0 */
 199:Core/Src/tim.c ****     /* TIM3 clock enable */
 200:Core/Src/tim.c ****     __HAL_RCC_TIM3_CLK_ENABLE();
 201:Core/Src/tim.c ****   /* USER CODE BEGIN TIM3_MspInit 1 */
 202:Core/Src/tim.c **** 
 203:Core/Src/tim.c ****   /* USER CODE END TIM3_MspInit 1 */
 204:Core/Src/tim.c ****   }
ARM GAS  C:\Users\Xuleo\AppData\Local\Temp\cccy2SjC.s 			page 10


 205:Core/Src/tim.c **** }
 310              		.loc 1 205 1 view .LVU91
 311 0012 03B0     		add	sp, sp, #12
 312              	.LCFI10:
 313              		.cfi_remember_state
 314              		.cfi_def_cfa_offset 4
 315              		@ sp needed
 316 0014 00BD     		pop	{pc}
 317              	.LVL13:
 318              	.L23:
 319              	.LCFI11:
 320              		.cfi_restore_state
 185:Core/Src/tim.c **** 
 321              		.loc 1 185 5 is_stmt 1 view .LVU92
 322              	.LBB2:
 185:Core/Src/tim.c **** 
 323              		.loc 1 185 5 view .LVU93
 185:Core/Src/tim.c **** 
 324              		.loc 1 185 5 view .LVU94
 325 0016 134B     		ldr	r3, .L25+4
 326 0018 D3F89C20 		ldr	r2, [r3, #156]
 327 001c 42F00102 		orr	r2, r2, #1
 328 0020 C3F89C20 		str	r2, [r3, #156]
 185:Core/Src/tim.c **** 
 329              		.loc 1 185 5 view .LVU95
 330 0024 D3F89C30 		ldr	r3, [r3, #156]
 331 0028 03F00103 		and	r3, r3, #1
 332 002c 0093     		str	r3, [sp]
 185:Core/Src/tim.c **** 
 333              		.loc 1 185 5 view .LVU96
 334 002e 009B     		ldr	r3, [sp]
 335              	.LBE2:
 185:Core/Src/tim.c **** 
 336              		.loc 1 185 5 view .LVU97
 188:Core/Src/tim.c ****     HAL_NVIC_EnableIRQ(TIM2_IRQn);
 337              		.loc 1 188 5 view .LVU98
 338 0030 0022     		movs	r2, #0
 339 0032 1146     		mov	r1, r2
 340 0034 2D20     		movs	r0, #45
 341              	.LVL14:
 188:Core/Src/tim.c ****     HAL_NVIC_EnableIRQ(TIM2_IRQn);
 342              		.loc 1 188 5 is_stmt 0 view .LVU99
 343 0036 FFF7FEFF 		bl	HAL_NVIC_SetPriority
 344              	.LVL15:
 189:Core/Src/tim.c ****   /* USER CODE BEGIN TIM2_MspInit 1 */
 345              		.loc 1 189 5 is_stmt 1 view .LVU100
 346 003a 2D20     		movs	r0, #45
 347 003c FFF7FEFF 		bl	HAL_NVIC_EnableIRQ
 348              	.LVL16:
 349 0040 E7E7     		b	.L19
 350              	.LVL17:
 351              	.L24:
 200:Core/Src/tim.c ****   /* USER CODE BEGIN TIM3_MspInit 1 */
 352              		.loc 1 200 5 view .LVU101
 353              	.LBB3:
 200:Core/Src/tim.c ****   /* USER CODE BEGIN TIM3_MspInit 1 */
 354              		.loc 1 200 5 view .LVU102
ARM GAS  C:\Users\Xuleo\AppData\Local\Temp\cccy2SjC.s 			page 11


 200:Core/Src/tim.c ****   /* USER CODE BEGIN TIM3_MspInit 1 */
 355              		.loc 1 200 5 view .LVU103
 356 0042 084B     		ldr	r3, .L25+4
 357 0044 D3F89C20 		ldr	r2, [r3, #156]
 358 0048 42F00202 		orr	r2, r2, #2
 359 004c C3F89C20 		str	r2, [r3, #156]
 200:Core/Src/tim.c ****   /* USER CODE BEGIN TIM3_MspInit 1 */
 360              		.loc 1 200 5 view .LVU104
 361 0050 D3F89C30 		ldr	r3, [r3, #156]
 362 0054 03F00203 		and	r3, r3, #2
 363 0058 0193     		str	r3, [sp, #4]
 200:Core/Src/tim.c ****   /* USER CODE BEGIN TIM3_MspInit 1 */
 364              		.loc 1 200 5 view .LVU105
 365 005a 019B     		ldr	r3, [sp, #4]
 366              	.LBE3:
 200:Core/Src/tim.c ****   /* USER CODE BEGIN TIM3_MspInit 1 */
 367              		.loc 1 200 5 view .LVU106
 368              		.loc 1 205 1 is_stmt 0 view .LVU107
 369 005c D9E7     		b	.L19
 370              	.L26:
 371 005e 00BF     		.align	2
 372              	.L25:
 373 0060 00040040 		.word	1073742848
 374 0064 000C0244 		.word	1140984832
 375              		.cfi_endproc
 376              	.LFE163:
 378              		.section	.text.HAL_TIM_Encoder_MspInit,"ax",%progbits
 379              		.align	1
 380              		.global	HAL_TIM_Encoder_MspInit
 381              		.syntax unified
 382              		.thumb
 383              		.thumb_func
 385              	HAL_TIM_Encoder_MspInit:
 386              	.LVL18:
 387              	.LFB164:
 206:Core/Src/tim.c **** 
 207:Core/Src/tim.c **** void HAL_TIM_Encoder_MspInit(TIM_HandleTypeDef* tim_encoderHandle)
 208:Core/Src/tim.c **** {
 388              		.loc 1 208 1 is_stmt 1 view -0
 389              		.cfi_startproc
 390              		@ args = 0, pretend = 0, frame = 32
 391              		@ frame_needed = 0, uses_anonymous_args = 0
 392              		.loc 1 208 1 is_stmt 0 view .LVU109
 393 0000 10B5     		push	{r4, lr}
 394              	.LCFI12:
 395              		.cfi_def_cfa_offset 8
 396              		.cfi_offset 4, -8
 397              		.cfi_offset 14, -4
 398 0002 88B0     		sub	sp, sp, #32
 399              	.LCFI13:
 400              		.cfi_def_cfa_offset 40
 209:Core/Src/tim.c **** 
 210:Core/Src/tim.c ****   GPIO_InitTypeDef GPIO_InitStruct = {0};
 401              		.loc 1 210 3 is_stmt 1 view .LVU110
 402              		.loc 1 210 20 is_stmt 0 view .LVU111
 403 0004 0023     		movs	r3, #0
 404 0006 0393     		str	r3, [sp, #12]
ARM GAS  C:\Users\Xuleo\AppData\Local\Temp\cccy2SjC.s 			page 12


 405 0008 0493     		str	r3, [sp, #16]
 406 000a 0593     		str	r3, [sp, #20]
 407 000c 0693     		str	r3, [sp, #24]
 408 000e 0793     		str	r3, [sp, #28]
 211:Core/Src/tim.c ****   if(tim_encoderHandle->Instance==TIM8)
 409              		.loc 1 211 3 is_stmt 1 view .LVU112
 410              		.loc 1 211 23 is_stmt 0 view .LVU113
 411 0010 0268     		ldr	r2, [r0]
 412              		.loc 1 211 5 view .LVU114
 413 0012 204B     		ldr	r3, .L31
 414 0014 9A42     		cmp	r2, r3
 415 0016 01D0     		beq	.L30
 416              	.LVL19:
 417              	.L27:
 212:Core/Src/tim.c ****   {
 213:Core/Src/tim.c ****   /* USER CODE BEGIN TIM8_MspInit 0 */
 214:Core/Src/tim.c **** 
 215:Core/Src/tim.c ****   /* USER CODE END TIM8_MspInit 0 */
 216:Core/Src/tim.c ****     /* TIM8 clock enable */
 217:Core/Src/tim.c ****     __HAL_RCC_TIM8_CLK_ENABLE();
 218:Core/Src/tim.c **** 
 219:Core/Src/tim.c ****     __HAL_RCC_GPIOB_CLK_ENABLE();
 220:Core/Src/tim.c ****     __HAL_RCC_GPIOC_CLK_ENABLE();
 221:Core/Src/tim.c ****     /**TIM8 GPIO Configuration
 222:Core/Src/tim.c ****     PB10     ------> TIM8_CH1
 223:Core/Src/tim.c ****     PC7     ------> TIM8_CH2
 224:Core/Src/tim.c ****     */
 225:Core/Src/tim.c ****     GPIO_InitStruct.Pin = GPIO_PIN_10;
 226:Core/Src/tim.c ****     GPIO_InitStruct.Mode = GPIO_MODE_AF_PP;
 227:Core/Src/tim.c ****     GPIO_InitStruct.Pull = GPIO_NOPULL;
 228:Core/Src/tim.c ****     GPIO_InitStruct.Speed = GPIO_SPEED_FREQ_LOW;
 229:Core/Src/tim.c ****     GPIO_InitStruct.Alternate = GPIO_AF2_TIM8;
 230:Core/Src/tim.c ****     HAL_GPIO_Init(GPIOB, &GPIO_InitStruct);
 231:Core/Src/tim.c **** 
 232:Core/Src/tim.c ****     GPIO_InitStruct.Pin = GPIO_PIN_7;
 233:Core/Src/tim.c ****     GPIO_InitStruct.Mode = GPIO_MODE_AF_PP;
 234:Core/Src/tim.c ****     GPIO_InitStruct.Pull = GPIO_NOPULL;
 235:Core/Src/tim.c ****     GPIO_InitStruct.Speed = GPIO_SPEED_FREQ_LOW;
 236:Core/Src/tim.c ****     GPIO_InitStruct.Alternate = GPIO_AF3_TIM8;
 237:Core/Src/tim.c ****     HAL_GPIO_Init(GPIOC, &GPIO_InitStruct);
 238:Core/Src/tim.c **** 
 239:Core/Src/tim.c ****   /* USER CODE BEGIN TIM8_MspInit 1 */
 240:Core/Src/tim.c **** 
 241:Core/Src/tim.c ****   /* USER CODE END TIM8_MspInit 1 */
 242:Core/Src/tim.c ****   }
 243:Core/Src/tim.c **** }
 418              		.loc 1 243 1 view .LVU115
 419 0018 08B0     		add	sp, sp, #32
 420              	.LCFI14:
 421              		.cfi_remember_state
 422              		.cfi_def_cfa_offset 8
 423              		@ sp needed
 424 001a 10BD     		pop	{r4, pc}
 425              	.LVL20:
 426              	.L30:
 427              	.LCFI15:
 428              		.cfi_restore_state
ARM GAS  C:\Users\Xuleo\AppData\Local\Temp\cccy2SjC.s 			page 13


 217:Core/Src/tim.c **** 
 429              		.loc 1 217 5 is_stmt 1 view .LVU116
 430              	.LBB4:
 217:Core/Src/tim.c **** 
 431              		.loc 1 217 5 view .LVU117
 217:Core/Src/tim.c **** 
 432              		.loc 1 217 5 view .LVU118
 433 001c 1E4B     		ldr	r3, .L31+4
 434 001e D3F8A420 		ldr	r2, [r3, #164]
 435 0022 42F40052 		orr	r2, r2, #8192
 436 0026 C3F8A420 		str	r2, [r3, #164]
 217:Core/Src/tim.c **** 
 437              		.loc 1 217 5 view .LVU119
 438 002a D3F8A420 		ldr	r2, [r3, #164]
 439 002e 02F40052 		and	r2, r2, #8192
 440 0032 0092     		str	r2, [sp]
 217:Core/Src/tim.c **** 
 441              		.loc 1 217 5 view .LVU120
 442 0034 009A     		ldr	r2, [sp]
 443              	.LBE4:
 217:Core/Src/tim.c **** 
 444              		.loc 1 217 5 view .LVU121
 219:Core/Src/tim.c ****     __HAL_RCC_GPIOC_CLK_ENABLE();
 445              		.loc 1 219 5 view .LVU122
 446              	.LBB5:
 219:Core/Src/tim.c ****     __HAL_RCC_GPIOC_CLK_ENABLE();
 447              		.loc 1 219 5 view .LVU123
 219:Core/Src/tim.c ****     __HAL_RCC_GPIOC_CLK_ENABLE();
 448              		.loc 1 219 5 view .LVU124
 449 0036 D3F88C20 		ldr	r2, [r3, #140]
 450 003a 42F00202 		orr	r2, r2, #2
 451 003e C3F88C20 		str	r2, [r3, #140]
 219:Core/Src/tim.c ****     __HAL_RCC_GPIOC_CLK_ENABLE();
 452              		.loc 1 219 5 view .LVU125
 453 0042 D3F88C20 		ldr	r2, [r3, #140]
 454 0046 02F00202 		and	r2, r2, #2
 455 004a 0192     		str	r2, [sp, #4]
 219:Core/Src/tim.c ****     __HAL_RCC_GPIOC_CLK_ENABLE();
 456              		.loc 1 219 5 view .LVU126
 457 004c 019A     		ldr	r2, [sp, #4]
 458              	.LBE5:
 219:Core/Src/tim.c ****     __HAL_RCC_GPIOC_CLK_ENABLE();
 459              		.loc 1 219 5 view .LVU127
 220:Core/Src/tim.c ****     /**TIM8 GPIO Configuration
 460              		.loc 1 220 5 view .LVU128
 461              	.LBB6:
 220:Core/Src/tim.c ****     /**TIM8 GPIO Configuration
 462              		.loc 1 220 5 view .LVU129
 220:Core/Src/tim.c ****     /**TIM8 GPIO Configuration
 463              		.loc 1 220 5 view .LVU130
 464 004e D3F88C20 		ldr	r2, [r3, #140]
 465 0052 42F00402 		orr	r2, r2, #4
 466 0056 C3F88C20 		str	r2, [r3, #140]
 220:Core/Src/tim.c ****     /**TIM8 GPIO Configuration
 467              		.loc 1 220 5 view .LVU131
 468 005a D3F88C30 		ldr	r3, [r3, #140]
 469 005e 03F00403 		and	r3, r3, #4
ARM GAS  C:\Users\Xuleo\AppData\Local\Temp\cccy2SjC.s 			page 14


 470 0062 0293     		str	r3, [sp, #8]
 220:Core/Src/tim.c ****     /**TIM8 GPIO Configuration
 471              		.loc 1 220 5 view .LVU132
 472 0064 029B     		ldr	r3, [sp, #8]
 473              	.LBE6:
 220:Core/Src/tim.c ****     /**TIM8 GPIO Configuration
 474              		.loc 1 220 5 view .LVU133
 225:Core/Src/tim.c ****     GPIO_InitStruct.Mode = GPIO_MODE_AF_PP;
 475              		.loc 1 225 5 view .LVU134
 225:Core/Src/tim.c ****     GPIO_InitStruct.Mode = GPIO_MODE_AF_PP;
 476              		.loc 1 225 25 is_stmt 0 view .LVU135
 477 0066 4FF48063 		mov	r3, #1024
 478 006a 0393     		str	r3, [sp, #12]
 226:Core/Src/tim.c ****     GPIO_InitStruct.Pull = GPIO_NOPULL;
 479              		.loc 1 226 5 is_stmt 1 view .LVU136
 226:Core/Src/tim.c ****     GPIO_InitStruct.Pull = GPIO_NOPULL;
 480              		.loc 1 226 26 is_stmt 0 view .LVU137
 481 006c 0224     		movs	r4, #2
 482 006e 0494     		str	r4, [sp, #16]
 227:Core/Src/tim.c ****     GPIO_InitStruct.Speed = GPIO_SPEED_FREQ_LOW;
 483              		.loc 1 227 5 is_stmt 1 view .LVU138
 228:Core/Src/tim.c ****     GPIO_InitStruct.Alternate = GPIO_AF2_TIM8;
 484              		.loc 1 228 5 view .LVU139
 229:Core/Src/tim.c ****     HAL_GPIO_Init(GPIOB, &GPIO_InitStruct);
 485              		.loc 1 229 5 view .LVU140
 229:Core/Src/tim.c ****     HAL_GPIO_Init(GPIOB, &GPIO_InitStruct);
 486              		.loc 1 229 31 is_stmt 0 view .LVU141
 487 0070 0794     		str	r4, [sp, #28]
 230:Core/Src/tim.c **** 
 488              		.loc 1 230 5 is_stmt 1 view .LVU142
 489 0072 03A9     		add	r1, sp, #12
 490 0074 0948     		ldr	r0, .L31+8
 491              	.LVL21:
 230:Core/Src/tim.c **** 
 492              		.loc 1 230 5 is_stmt 0 view .LVU143
 493 0076 FFF7FEFF 		bl	HAL_GPIO_Init
 494              	.LVL22:
 232:Core/Src/tim.c ****     GPIO_InitStruct.Mode = GPIO_MODE_AF_PP;
 495              		.loc 1 232 5 is_stmt 1 view .LVU144
 232:Core/Src/tim.c ****     GPIO_InitStruct.Mode = GPIO_MODE_AF_PP;
 496              		.loc 1 232 25 is_stmt 0 view .LVU145
 497 007a 8023     		movs	r3, #128
 498 007c 0393     		str	r3, [sp, #12]
 233:Core/Src/tim.c ****     GPIO_InitStruct.Pull = GPIO_NOPULL;
 499              		.loc 1 233 5 is_stmt 1 view .LVU146
 233:Core/Src/tim.c ****     GPIO_InitStruct.Pull = GPIO_NOPULL;
 500              		.loc 1 233 26 is_stmt 0 view .LVU147
 501 007e 0494     		str	r4, [sp, #16]
 234:Core/Src/tim.c ****     GPIO_InitStruct.Speed = GPIO_SPEED_FREQ_LOW;
 502              		.loc 1 234 5 is_stmt 1 view .LVU148
 234:Core/Src/tim.c ****     GPIO_InitStruct.Speed = GPIO_SPEED_FREQ_LOW;
 503              		.loc 1 234 26 is_stmt 0 view .LVU149
 504 0080 0023     		movs	r3, #0
 505 0082 0593     		str	r3, [sp, #20]
 235:Core/Src/tim.c ****     GPIO_InitStruct.Alternate = GPIO_AF3_TIM8;
 506              		.loc 1 235 5 is_stmt 1 view .LVU150
 235:Core/Src/tim.c ****     GPIO_InitStruct.Alternate = GPIO_AF3_TIM8;
ARM GAS  C:\Users\Xuleo\AppData\Local\Temp\cccy2SjC.s 			page 15


 507              		.loc 1 235 27 is_stmt 0 view .LVU151
 508 0084 0693     		str	r3, [sp, #24]
 236:Core/Src/tim.c ****     HAL_GPIO_Init(GPIOC, &GPIO_InitStruct);
 509              		.loc 1 236 5 is_stmt 1 view .LVU152
 236:Core/Src/tim.c ****     HAL_GPIO_Init(GPIOC, &GPIO_InitStruct);
 510              		.loc 1 236 31 is_stmt 0 view .LVU153
 511 0086 0323     		movs	r3, #3
 512 0088 0793     		str	r3, [sp, #28]
 237:Core/Src/tim.c **** 
 513              		.loc 1 237 5 is_stmt 1 view .LVU154
 514 008a 03A9     		add	r1, sp, #12
 515 008c 0448     		ldr	r0, .L31+12
 516 008e FFF7FEFF 		bl	HAL_GPIO_Init
 517              	.LVL23:
 518              		.loc 1 243 1 is_stmt 0 view .LVU155
 519 0092 C1E7     		b	.L27
 520              	.L32:
 521              		.align	2
 522              	.L31:
 523 0094 00340140 		.word	1073820672
 524 0098 000C0244 		.word	1140984832
 525 009c 00040242 		.word	1107428352
 526 00a0 00080242 		.word	1107429376
 527              		.cfi_endproc
 528              	.LFE164:
 530              		.section	.text.HAL_TIM_MspPostInit,"ax",%progbits
 531              		.align	1
 532              		.global	HAL_TIM_MspPostInit
 533              		.syntax unified
 534              		.thumb
 535              		.thumb_func
 537              	HAL_TIM_MspPostInit:
 538              	.LVL24:
 539              	.LFB165:
 244:Core/Src/tim.c **** void HAL_TIM_MspPostInit(TIM_HandleTypeDef* timHandle)
 245:Core/Src/tim.c **** {
 540              		.loc 1 245 1 is_stmt 1 view -0
 541              		.cfi_startproc
 542              		@ args = 0, pretend = 0, frame = 24
 543              		@ frame_needed = 0, uses_anonymous_args = 0
 544              		.loc 1 245 1 is_stmt 0 view .LVU157
 545 0000 00B5     		push	{lr}
 546              	.LCFI16:
 547              		.cfi_def_cfa_offset 4
 548              		.cfi_offset 14, -4
 549 0002 87B0     		sub	sp, sp, #28
 550              	.LCFI17:
 551              		.cfi_def_cfa_offset 32
 246:Core/Src/tim.c **** 
 247:Core/Src/tim.c ****   GPIO_InitTypeDef GPIO_InitStruct = {0};
 552              		.loc 1 247 3 is_stmt 1 view .LVU158
 553              		.loc 1 247 20 is_stmt 0 view .LVU159
 554 0004 0023     		movs	r3, #0
 555 0006 0193     		str	r3, [sp, #4]
 556 0008 0293     		str	r3, [sp, #8]
 557 000a 0393     		str	r3, [sp, #12]
 558 000c 0493     		str	r3, [sp, #16]
ARM GAS  C:\Users\Xuleo\AppData\Local\Temp\cccy2SjC.s 			page 16


 559 000e 0593     		str	r3, [sp, #20]
 248:Core/Src/tim.c ****   if(timHandle->Instance==TIM3)
 560              		.loc 1 248 3 is_stmt 1 view .LVU160
 561              		.loc 1 248 15 is_stmt 0 view .LVU161
 562 0010 0268     		ldr	r2, [r0]
 563              		.loc 1 248 5 view .LVU162
 564 0012 0E4B     		ldr	r3, .L37
 565 0014 9A42     		cmp	r2, r3
 566 0016 01D0     		beq	.L36
 567              	.LVL25:
 568              	.L33:
 249:Core/Src/tim.c ****   {
 250:Core/Src/tim.c ****   /* USER CODE BEGIN TIM3_MspPostInit 0 */
 251:Core/Src/tim.c **** 
 252:Core/Src/tim.c ****   /* USER CODE END TIM3_MspPostInit 0 */
 253:Core/Src/tim.c **** 
 254:Core/Src/tim.c ****     __HAL_RCC_GPIOA_CLK_ENABLE();
 255:Core/Src/tim.c ****     /**TIM3 GPIO Configuration
 256:Core/Src/tim.c ****     PA6     ------> TIM3_CH1
 257:Core/Src/tim.c ****     PA7     ------> TIM3_CH2
 258:Core/Src/tim.c ****     */
 259:Core/Src/tim.c ****     GPIO_InitStruct.Pin = GPIO_PIN_6|GPIO_PIN_7;
 260:Core/Src/tim.c ****     GPIO_InitStruct.Mode = GPIO_MODE_AF_PP;
 261:Core/Src/tim.c ****     GPIO_InitStruct.Pull = GPIO_NOPULL;
 262:Core/Src/tim.c ****     GPIO_InitStruct.Speed = GPIO_SPEED_FREQ_LOW;
 263:Core/Src/tim.c ****     GPIO_InitStruct.Alternate = GPIO_AF2_TIM3;
 264:Core/Src/tim.c ****     HAL_GPIO_Init(GPIOA, &GPIO_InitStruct);
 265:Core/Src/tim.c **** 
 266:Core/Src/tim.c ****   /* USER CODE BEGIN TIM3_MspPostInit 1 */
 267:Core/Src/tim.c **** 
 268:Core/Src/tim.c ****   /* USER CODE END TIM3_MspPostInit 1 */
 269:Core/Src/tim.c ****   }
 270:Core/Src/tim.c **** 
 271:Core/Src/tim.c **** }
 569              		.loc 1 271 1 view .LVU163
 570 0018 07B0     		add	sp, sp, #28
 571              	.LCFI18:
 572              		.cfi_remember_state
 573              		.cfi_def_cfa_offset 4
 574              		@ sp needed
 575 001a 00BD     		pop	{pc}
 576              	.LVL26:
 577              	.L36:
 578              	.LCFI19:
 579              		.cfi_restore_state
 254:Core/Src/tim.c ****     /**TIM3 GPIO Configuration
 580              		.loc 1 254 5 is_stmt 1 view .LVU164
 581              	.LBB7:
 254:Core/Src/tim.c ****     /**TIM3 GPIO Configuration
 582              		.loc 1 254 5 view .LVU165
 254:Core/Src/tim.c ****     /**TIM3 GPIO Configuration
 583              		.loc 1 254 5 view .LVU166
 584 001c 0C4B     		ldr	r3, .L37+4
 585 001e D3F88C20 		ldr	r2, [r3, #140]
 586 0022 42F00102 		orr	r2, r2, #1
 587 0026 C3F88C20 		str	r2, [r3, #140]
 254:Core/Src/tim.c ****     /**TIM3 GPIO Configuration
ARM GAS  C:\Users\Xuleo\AppData\Local\Temp\cccy2SjC.s 			page 17


 588              		.loc 1 254 5 view .LVU167
 589 002a D3F88C30 		ldr	r3, [r3, #140]
 590 002e 03F00103 		and	r3, r3, #1
 591 0032 0093     		str	r3, [sp]
 254:Core/Src/tim.c ****     /**TIM3 GPIO Configuration
 592              		.loc 1 254 5 view .LVU168
 593 0034 009B     		ldr	r3, [sp]
 594              	.LBE7:
 254:Core/Src/tim.c ****     /**TIM3 GPIO Configuration
 595              		.loc 1 254 5 view .LVU169
 259:Core/Src/tim.c ****     GPIO_InitStruct.Mode = GPIO_MODE_AF_PP;
 596              		.loc 1 259 5 view .LVU170
 259:Core/Src/tim.c ****     GPIO_InitStruct.Mode = GPIO_MODE_AF_PP;
 597              		.loc 1 259 25 is_stmt 0 view .LVU171
 598 0036 C023     		movs	r3, #192
 599 0038 0193     		str	r3, [sp, #4]
 260:Core/Src/tim.c ****     GPIO_InitStruct.Pull = GPIO_NOPULL;
 600              		.loc 1 260 5 is_stmt 1 view .LVU172
 260:Core/Src/tim.c ****     GPIO_InitStruct.Pull = GPIO_NOPULL;
 601              		.loc 1 260 26 is_stmt 0 view .LVU173
 602 003a 0223     		movs	r3, #2
 603 003c 0293     		str	r3, [sp, #8]
 261:Core/Src/tim.c ****     GPIO_InitStruct.Speed = GPIO_SPEED_FREQ_LOW;
 604              		.loc 1 261 5 is_stmt 1 view .LVU174
 262:Core/Src/tim.c ****     GPIO_InitStruct.Alternate = GPIO_AF2_TIM3;
 605              		.loc 1 262 5 view .LVU175
 263:Core/Src/tim.c ****     HAL_GPIO_Init(GPIOA, &GPIO_InitStruct);
 606              		.loc 1 263 5 view .LVU176
 263:Core/Src/tim.c ****     HAL_GPIO_Init(GPIOA, &GPIO_InitStruct);
 607              		.loc 1 263 31 is_stmt 0 view .LVU177
 608 003e 0593     		str	r3, [sp, #20]
 264:Core/Src/tim.c **** 
 609              		.loc 1 264 5 is_stmt 1 view .LVU178
 610 0040 01A9     		add	r1, sp, #4
 611 0042 0448     		ldr	r0, .L37+8
 612              	.LVL27:
 264:Core/Src/tim.c **** 
 613              		.loc 1 264 5 is_stmt 0 view .LVU179
 614 0044 FFF7FEFF 		bl	HAL_GPIO_Init
 615              	.LVL28:
 616              		.loc 1 271 1 view .LVU180
 617 0048 E6E7     		b	.L33
 618              	.L38:
 619 004a 00BF     		.align	2
 620              	.L37:
 621 004c 00040040 		.word	1073742848
 622 0050 000C0244 		.word	1140984832
 623 0054 00000242 		.word	1107427328
 624              		.cfi_endproc
 625              	.LFE165:
 627              		.section	.text.MX_TIM3_Init,"ax",%progbits
 628              		.align	1
 629              		.global	MX_TIM3_Init
 630              		.syntax unified
 631              		.thumb
 632              		.thumb_func
 634              	MX_TIM3_Init:
ARM GAS  C:\Users\Xuleo\AppData\Local\Temp\cccy2SjC.s 			page 18


 635              	.LFB161:
  73:Core/Src/tim.c **** 
 636              		.loc 1 73 1 is_stmt 1 view -0
 637              		.cfi_startproc
 638              		@ args = 0, pretend = 0, frame = 56
 639              		@ frame_needed = 0, uses_anonymous_args = 0
 640 0000 00B5     		push	{lr}
 641              	.LCFI20:
 642              		.cfi_def_cfa_offset 4
 643              		.cfi_offset 14, -4
 644 0002 8FB0     		sub	sp, sp, #60
 645              	.LCFI21:
 646              		.cfi_def_cfa_offset 64
  79:Core/Src/tim.c ****   TIM_MasterConfigTypeDef sMasterConfig = {0};
 647              		.loc 1 79 3 view .LVU182
  79:Core/Src/tim.c ****   TIM_MasterConfigTypeDef sMasterConfig = {0};
 648              		.loc 1 79 26 is_stmt 0 view .LVU183
 649 0004 0023     		movs	r3, #0
 650 0006 0A93     		str	r3, [sp, #40]
 651 0008 0B93     		str	r3, [sp, #44]
 652 000a 0C93     		str	r3, [sp, #48]
 653 000c 0D93     		str	r3, [sp, #52]
  80:Core/Src/tim.c ****   TIM_OC_InitTypeDef sConfigOC = {0};
 654              		.loc 1 80 3 is_stmt 1 view .LVU184
  80:Core/Src/tim.c ****   TIM_OC_InitTypeDef sConfigOC = {0};
 655              		.loc 1 80 27 is_stmt 0 view .LVU185
 656 000e 0793     		str	r3, [sp, #28]
 657 0010 0893     		str	r3, [sp, #32]
 658 0012 0993     		str	r3, [sp, #36]
  81:Core/Src/tim.c **** 
 659              		.loc 1 81 3 is_stmt 1 view .LVU186
  81:Core/Src/tim.c **** 
 660              		.loc 1 81 22 is_stmt 0 view .LVU187
 661 0014 0093     		str	r3, [sp]
 662 0016 0193     		str	r3, [sp, #4]
 663 0018 0293     		str	r3, [sp, #8]
 664 001a 0393     		str	r3, [sp, #12]
 665 001c 0493     		str	r3, [sp, #16]
 666 001e 0593     		str	r3, [sp, #20]
 667 0020 0693     		str	r3, [sp, #24]
  86:Core/Src/tim.c ****   htim3.Init.Prescaler = 249;
 668              		.loc 1 86 3 is_stmt 1 view .LVU188
  86:Core/Src/tim.c ****   htim3.Init.Prescaler = 249;
 669              		.loc 1 86 18 is_stmt 0 view .LVU189
 670 0022 2548     		ldr	r0, .L53
 671 0024 254A     		ldr	r2, .L53+4
 672 0026 0260     		str	r2, [r0]
  87:Core/Src/tim.c ****   htim3.Init.CounterMode = TIM_COUNTERMODE_UP;
 673              		.loc 1 87 3 is_stmt 1 view .LVU190
  87:Core/Src/tim.c ****   htim3.Init.CounterMode = TIM_COUNTERMODE_UP;
 674              		.loc 1 87 24 is_stmt 0 view .LVU191
 675 0028 F922     		movs	r2, #249
 676 002a 4260     		str	r2, [r0, #4]
  88:Core/Src/tim.c ****   htim3.Init.Period = 99;
 677              		.loc 1 88 3 is_stmt 1 view .LVU192
  88:Core/Src/tim.c ****   htim3.Init.Period = 99;
 678              		.loc 1 88 26 is_stmt 0 view .LVU193
ARM GAS  C:\Users\Xuleo\AppData\Local\Temp\cccy2SjC.s 			page 19


 679 002c 8360     		str	r3, [r0, #8]
  89:Core/Src/tim.c ****   htim3.Init.ClockDivision = TIM_CLOCKDIVISION_DIV1;
 680              		.loc 1 89 3 is_stmt 1 view .LVU194
  89:Core/Src/tim.c ****   htim3.Init.ClockDivision = TIM_CLOCKDIVISION_DIV1;
 681              		.loc 1 89 21 is_stmt 0 view .LVU195
 682 002e 6322     		movs	r2, #99
 683 0030 C260     		str	r2, [r0, #12]
  90:Core/Src/tim.c ****   htim3.Init.AutoReloadPreload = TIM_AUTORELOAD_PRELOAD_ENABLE;
 684              		.loc 1 90 3 is_stmt 1 view .LVU196
  90:Core/Src/tim.c ****   htim3.Init.AutoReloadPreload = TIM_AUTORELOAD_PRELOAD_ENABLE;
 685              		.loc 1 90 28 is_stmt 0 view .LVU197
 686 0032 0361     		str	r3, [r0, #16]
  91:Core/Src/tim.c ****   if (HAL_TIM_Base_Init(&htim3) != HAL_OK)
 687              		.loc 1 91 3 is_stmt 1 view .LVU198
  91:Core/Src/tim.c ****   if (HAL_TIM_Base_Init(&htim3) != HAL_OK)
 688              		.loc 1 91 32 is_stmt 0 view .LVU199
 689 0034 8023     		movs	r3, #128
 690 0036 8361     		str	r3, [r0, #24]
  92:Core/Src/tim.c ****   {
 691              		.loc 1 92 3 is_stmt 1 view .LVU200
  92:Core/Src/tim.c ****   {
 692              		.loc 1 92 7 is_stmt 0 view .LVU201
 693 0038 FFF7FEFF 		bl	HAL_TIM_Base_Init
 694              	.LVL29:
  92:Core/Src/tim.c ****   {
 695              		.loc 1 92 6 discriminator 1 view .LVU202
 696 003c 48BB     		cbnz	r0, .L47
 697              	.L40:
  96:Core/Src/tim.c ****   if (HAL_TIM_ConfigClockSource(&htim3, &sClockSourceConfig) != HAL_OK)
 698              		.loc 1 96 3 is_stmt 1 view .LVU203
  96:Core/Src/tim.c ****   if (HAL_TIM_ConfigClockSource(&htim3, &sClockSourceConfig) != HAL_OK)
 699              		.loc 1 96 34 is_stmt 0 view .LVU204
 700 003e 4FF48053 		mov	r3, #4096
 701 0042 0A93     		str	r3, [sp, #40]
  97:Core/Src/tim.c ****   {
 702              		.loc 1 97 3 is_stmt 1 view .LVU205
  97:Core/Src/tim.c ****   {
 703              		.loc 1 97 7 is_stmt 0 view .LVU206
 704 0044 0AA9     		add	r1, sp, #40
 705 0046 1C48     		ldr	r0, .L53
 706 0048 FFF7FEFF 		bl	HAL_TIM_ConfigClockSource
 707              	.LVL30:
  97:Core/Src/tim.c ****   {
 708              		.loc 1 97 6 discriminator 1 view .LVU207
 709 004c 20BB     		cbnz	r0, .L48
 710              	.L41:
 101:Core/Src/tim.c ****   {
 711              		.loc 1 101 3 is_stmt 1 view .LVU208
 101:Core/Src/tim.c ****   {
 712              		.loc 1 101 7 is_stmt 0 view .LVU209
 713 004e 1A48     		ldr	r0, .L53
 714 0050 FFF7FEFF 		bl	HAL_TIM_PWM_Init
 715              	.LVL31:
 101:Core/Src/tim.c ****   {
 716              		.loc 1 101 6 discriminator 1 view .LVU210
 717 0054 18BB     		cbnz	r0, .L49
 718              	.L42:
ARM GAS  C:\Users\Xuleo\AppData\Local\Temp\cccy2SjC.s 			page 20


 105:Core/Src/tim.c ****   sMasterConfig.MasterSlaveMode = TIM_MASTERSLAVEMODE_DISABLE;
 719              		.loc 1 105 3 is_stmt 1 view .LVU211
 105:Core/Src/tim.c ****   sMasterConfig.MasterSlaveMode = TIM_MASTERSLAVEMODE_DISABLE;
 720              		.loc 1 105 37 is_stmt 0 view .LVU212
 721 0056 0023     		movs	r3, #0
 722 0058 0793     		str	r3, [sp, #28]
 106:Core/Src/tim.c ****   if (HAL_TIMEx_MasterConfigSynchronization(&htim3, &sMasterConfig) != HAL_OK)
 723              		.loc 1 106 3 is_stmt 1 view .LVU213
 106:Core/Src/tim.c ****   if (HAL_TIMEx_MasterConfigSynchronization(&htim3, &sMasterConfig) != HAL_OK)
 724              		.loc 1 106 33 is_stmt 0 view .LVU214
 725 005a 0993     		str	r3, [sp, #36]
 107:Core/Src/tim.c ****   {
 726              		.loc 1 107 3 is_stmt 1 view .LVU215
 107:Core/Src/tim.c ****   {
 727              		.loc 1 107 7 is_stmt 0 view .LVU216
 728 005c 07A9     		add	r1, sp, #28
 729 005e 1648     		ldr	r0, .L53
 730 0060 FFF7FEFF 		bl	HAL_TIMEx_MasterConfigSynchronization
 731              	.LVL32:
 107:Core/Src/tim.c ****   {
 732              		.loc 1 107 6 discriminator 1 view .LVU217
 733 0064 F0B9     		cbnz	r0, .L50
 734              	.L43:
 111:Core/Src/tim.c ****   sConfigOC.Pulse = 0;
 735              		.loc 1 111 3 is_stmt 1 view .LVU218
 111:Core/Src/tim.c ****   sConfigOC.Pulse = 0;
 736              		.loc 1 111 20 is_stmt 0 view .LVU219
 737 0066 6023     		movs	r3, #96
 738 0068 0093     		str	r3, [sp]
 112:Core/Src/tim.c ****   sConfigOC.OCPolarity = TIM_OCPOLARITY_HIGH;
 739              		.loc 1 112 3 is_stmt 1 view .LVU220
 112:Core/Src/tim.c ****   sConfigOC.OCPolarity = TIM_OCPOLARITY_HIGH;
 740              		.loc 1 112 19 is_stmt 0 view .LVU221
 741 006a 0022     		movs	r2, #0
 742 006c 0192     		str	r2, [sp, #4]
 113:Core/Src/tim.c ****   sConfigOC.OCFastMode = TIM_OCFAST_DISABLE;
 743              		.loc 1 113 3 is_stmt 1 view .LVU222
 113:Core/Src/tim.c ****   sConfigOC.OCFastMode = TIM_OCFAST_DISABLE;
 744              		.loc 1 113 24 is_stmt 0 view .LVU223
 745 006e 0292     		str	r2, [sp, #8]
 114:Core/Src/tim.c ****   if (HAL_TIM_PWM_ConfigChannel(&htim3, &sConfigOC, TIM_CHANNEL_1) != HAL_OK)
 746              		.loc 1 114 3 is_stmt 1 view .LVU224
 114:Core/Src/tim.c ****   if (HAL_TIM_PWM_ConfigChannel(&htim3, &sConfigOC, TIM_CHANNEL_1) != HAL_OK)
 747              		.loc 1 114 24 is_stmt 0 view .LVU225
 748 0070 0492     		str	r2, [sp, #16]
 115:Core/Src/tim.c ****   {
 749              		.loc 1 115 3 is_stmt 1 view .LVU226
 115:Core/Src/tim.c ****   {
 750              		.loc 1 115 7 is_stmt 0 view .LVU227
 751 0072 6946     		mov	r1, sp
 752 0074 1048     		ldr	r0, .L53
 753 0076 FFF7FEFF 		bl	HAL_TIM_PWM_ConfigChannel
 754              	.LVL33:
 115:Core/Src/tim.c ****   {
 755              		.loc 1 115 6 discriminator 1 view .LVU228
 756 007a B0B9     		cbnz	r0, .L51
 757              	.L44:
ARM GAS  C:\Users\Xuleo\AppData\Local\Temp\cccy2SjC.s 			page 21


 119:Core/Src/tim.c ****   {
 758              		.loc 1 119 3 is_stmt 1 view .LVU229
 119:Core/Src/tim.c ****   {
 759              		.loc 1 119 7 is_stmt 0 view .LVU230
 760 007c 0422     		movs	r2, #4
 761 007e 6946     		mov	r1, sp
 762 0080 0D48     		ldr	r0, .L53
 763 0082 FFF7FEFF 		bl	HAL_TIM_PWM_ConfigChannel
 764              	.LVL34:
 119:Core/Src/tim.c ****   {
 765              		.loc 1 119 6 discriminator 1 view .LVU231
 766 0086 98B9     		cbnz	r0, .L52
 767              	.L45:
 126:Core/Src/tim.c **** 
 768              		.loc 1 126 3 is_stmt 1 view .LVU232
 769 0088 0B48     		ldr	r0, .L53
 770 008a FFF7FEFF 		bl	HAL_TIM_MspPostInit
 771              	.LVL35:
 128:Core/Src/tim.c **** /* TIM8 init function */
 772              		.loc 1 128 1 is_stmt 0 view .LVU233
 773 008e 0FB0     		add	sp, sp, #60
 774              	.LCFI22:
 775              		.cfi_remember_state
 776              		.cfi_def_cfa_offset 4
 777              		@ sp needed
 778 0090 00BD     		pop	{pc}
 779              	.L47:
 780              	.LCFI23:
 781              		.cfi_restore_state
  94:Core/Src/tim.c ****   }
 782              		.loc 1 94 5 is_stmt 1 view .LVU234
 783 0092 FFF7FEFF 		bl	Error_Handler
 784              	.LVL36:
 785 0096 D2E7     		b	.L40
 786              	.L48:
  99:Core/Src/tim.c ****   }
 787              		.loc 1 99 5 view .LVU235
 788 0098 FFF7FEFF 		bl	Error_Handler
 789              	.LVL37:
 790 009c D7E7     		b	.L41
 791              	.L49:
 103:Core/Src/tim.c ****   }
 792              		.loc 1 103 5 view .LVU236
 793 009e FFF7FEFF 		bl	Error_Handler
 794              	.LVL38:
 795 00a2 D8E7     		b	.L42
 796              	.L50:
 109:Core/Src/tim.c ****   }
 797              		.loc 1 109 5 view .LVU237
 798 00a4 FFF7FEFF 		bl	Error_Handler
 799              	.LVL39:
 800 00a8 DDE7     		b	.L43
 801              	.L51:
 117:Core/Src/tim.c ****   }
 802              		.loc 1 117 5 view .LVU238
 803 00aa FFF7FEFF 		bl	Error_Handler
 804              	.LVL40:
ARM GAS  C:\Users\Xuleo\AppData\Local\Temp\cccy2SjC.s 			page 22


 805 00ae E5E7     		b	.L44
 806              	.L52:
 121:Core/Src/tim.c ****   }
 807              		.loc 1 121 5 view .LVU239
 808 00b0 FFF7FEFF 		bl	Error_Handler
 809              	.LVL41:
 810 00b4 E8E7     		b	.L45
 811              	.L54:
 812 00b6 00BF     		.align	2
 813              	.L53:
 814 00b8 00000000 		.word	htim3
 815 00bc 00040040 		.word	1073742848
 816              		.cfi_endproc
 817              	.LFE161:
 819              		.section	.text.HAL_TIM_Base_MspDeInit,"ax",%progbits
 820              		.align	1
 821              		.global	HAL_TIM_Base_MspDeInit
 822              		.syntax unified
 823              		.thumb
 824              		.thumb_func
 826              	HAL_TIM_Base_MspDeInit:
 827              	.LVL42:
 828              	.LFB166:
 272:Core/Src/tim.c **** 
 273:Core/Src/tim.c **** void HAL_TIM_Base_MspDeInit(TIM_HandleTypeDef* tim_baseHandle)
 274:Core/Src/tim.c **** {
 829              		.loc 1 274 1 view -0
 830              		.cfi_startproc
 831              		@ args = 0, pretend = 0, frame = 0
 832              		@ frame_needed = 0, uses_anonymous_args = 0
 833              		.loc 1 274 1 is_stmt 0 view .LVU241
 834 0000 08B5     		push	{r3, lr}
 835              	.LCFI24:
 836              		.cfi_def_cfa_offset 8
 837              		.cfi_offset 3, -8
 838              		.cfi_offset 14, -4
 275:Core/Src/tim.c **** 
 276:Core/Src/tim.c ****   if(tim_baseHandle->Instance==TIM2)
 839              		.loc 1 276 3 is_stmt 1 view .LVU242
 840              		.loc 1 276 20 is_stmt 0 view .LVU243
 841 0002 0368     		ldr	r3, [r0]
 842              		.loc 1 276 5 view .LVU244
 843 0004 B3F1804F 		cmp	r3, #1073741824
 844 0008 03D0     		beq	.L59
 277:Core/Src/tim.c ****   {
 278:Core/Src/tim.c ****   /* USER CODE BEGIN TIM2_MspDeInit 0 */
 279:Core/Src/tim.c **** 
 280:Core/Src/tim.c ****   /* USER CODE END TIM2_MspDeInit 0 */
 281:Core/Src/tim.c ****     /* Peripheral clock disable */
 282:Core/Src/tim.c ****     __HAL_RCC_TIM2_CLK_DISABLE();
 283:Core/Src/tim.c **** 
 284:Core/Src/tim.c ****     /* TIM2 interrupt Deinit */
 285:Core/Src/tim.c ****     HAL_NVIC_DisableIRQ(TIM2_IRQn);
 286:Core/Src/tim.c ****   /* USER CODE BEGIN TIM2_MspDeInit 1 */
 287:Core/Src/tim.c **** 
 288:Core/Src/tim.c ****   /* USER CODE END TIM2_MspDeInit 1 */
 289:Core/Src/tim.c ****   }
ARM GAS  C:\Users\Xuleo\AppData\Local\Temp\cccy2SjC.s 			page 23


 290:Core/Src/tim.c ****   else if(tim_baseHandle->Instance==TIM3)
 845              		.loc 1 290 8 is_stmt 1 view .LVU245
 846              		.loc 1 290 10 is_stmt 0 view .LVU246
 847 000a 0B4A     		ldr	r2, .L61
 848 000c 9342     		cmp	r3, r2
 849 000e 0BD0     		beq	.L60
 850              	.LVL43:
 851              	.L55:
 291:Core/Src/tim.c ****   {
 292:Core/Src/tim.c ****   /* USER CODE BEGIN TIM3_MspDeInit 0 */
 293:Core/Src/tim.c **** 
 294:Core/Src/tim.c ****   /* USER CODE END TIM3_MspDeInit 0 */
 295:Core/Src/tim.c ****     /* Peripheral clock disable */
 296:Core/Src/tim.c ****     __HAL_RCC_TIM3_CLK_DISABLE();
 297:Core/Src/tim.c ****   /* USER CODE BEGIN TIM3_MspDeInit 1 */
 298:Core/Src/tim.c **** 
 299:Core/Src/tim.c ****   /* USER CODE END TIM3_MspDeInit 1 */
 300:Core/Src/tim.c ****   }
 301:Core/Src/tim.c **** }
 852              		.loc 1 301 1 view .LVU247
 853 0010 08BD     		pop	{r3, pc}
 854              	.LVL44:
 855              	.L59:
 282:Core/Src/tim.c **** 
 856              		.loc 1 282 5 is_stmt 1 view .LVU248
 857 0012 0A4A     		ldr	r2, .L61+4
 858 0014 D2F89C30 		ldr	r3, [r2, #156]
 859 0018 23F00103 		bic	r3, r3, #1
 860 001c C2F89C30 		str	r3, [r2, #156]
 285:Core/Src/tim.c ****   /* USER CODE BEGIN TIM2_MspDeInit 1 */
 861              		.loc 1 285 5 view .LVU249
 862 0020 2D20     		movs	r0, #45
 863              	.LVL45:
 285:Core/Src/tim.c ****   /* USER CODE BEGIN TIM2_MspDeInit 1 */
 864              		.loc 1 285 5 is_stmt 0 view .LVU250
 865 0022 FFF7FEFF 		bl	HAL_NVIC_DisableIRQ
 866              	.LVL46:
 867 0026 F3E7     		b	.L55
 868              	.LVL47:
 869              	.L60:
 296:Core/Src/tim.c ****   /* USER CODE BEGIN TIM3_MspDeInit 1 */
 870              		.loc 1 296 5 is_stmt 1 view .LVU251
 871 0028 044A     		ldr	r2, .L61+4
 872 002a D2F89C30 		ldr	r3, [r2, #156]
 873 002e 23F00203 		bic	r3, r3, #2
 874 0032 C2F89C30 		str	r3, [r2, #156]
 875              		.loc 1 301 1 is_stmt 0 view .LVU252
 876 0036 EBE7     		b	.L55
 877              	.L62:
 878              		.align	2
 879              	.L61:
 880 0038 00040040 		.word	1073742848
 881 003c 000C0244 		.word	1140984832
 882              		.cfi_endproc
 883              	.LFE166:
 885              		.section	.text.HAL_TIM_Encoder_MspDeInit,"ax",%progbits
 886              		.align	1
ARM GAS  C:\Users\Xuleo\AppData\Local\Temp\cccy2SjC.s 			page 24


 887              		.global	HAL_TIM_Encoder_MspDeInit
 888              		.syntax unified
 889              		.thumb
 890              		.thumb_func
 892              	HAL_TIM_Encoder_MspDeInit:
 893              	.LVL48:
 894              	.LFB167:
 302:Core/Src/tim.c **** 
 303:Core/Src/tim.c **** void HAL_TIM_Encoder_MspDeInit(TIM_HandleTypeDef* tim_encoderHandle)
 304:Core/Src/tim.c **** {
 895              		.loc 1 304 1 is_stmt 1 view -0
 896              		.cfi_startproc
 897              		@ args = 0, pretend = 0, frame = 0
 898              		@ frame_needed = 0, uses_anonymous_args = 0
 899              		.loc 1 304 1 is_stmt 0 view .LVU254
 900 0000 08B5     		push	{r3, lr}
 901              	.LCFI25:
 902              		.cfi_def_cfa_offset 8
 903              		.cfi_offset 3, -8
 904              		.cfi_offset 14, -4
 305:Core/Src/tim.c **** 
 306:Core/Src/tim.c ****   if(tim_encoderHandle->Instance==TIM8)
 905              		.loc 1 306 3 is_stmt 1 view .LVU255
 906              		.loc 1 306 23 is_stmt 0 view .LVU256
 907 0002 0268     		ldr	r2, [r0]
 908              		.loc 1 306 5 view .LVU257
 909 0004 0A4B     		ldr	r3, .L67
 910 0006 9A42     		cmp	r2, r3
 911 0008 00D0     		beq	.L66
 912              	.LVL49:
 913              	.L63:
 307:Core/Src/tim.c ****   {
 308:Core/Src/tim.c ****   /* USER CODE BEGIN TIM8_MspDeInit 0 */
 309:Core/Src/tim.c **** 
 310:Core/Src/tim.c ****   /* USER CODE END TIM8_MspDeInit 0 */
 311:Core/Src/tim.c ****     /* Peripheral clock disable */
 312:Core/Src/tim.c ****     __HAL_RCC_TIM8_CLK_DISABLE();
 313:Core/Src/tim.c **** 
 314:Core/Src/tim.c ****     /**TIM8 GPIO Configuration
 315:Core/Src/tim.c ****     PB10     ------> TIM8_CH1
 316:Core/Src/tim.c ****     PC7     ------> TIM8_CH2
 317:Core/Src/tim.c ****     */
 318:Core/Src/tim.c ****     HAL_GPIO_DeInit(GPIOB, GPIO_PIN_10);
 319:Core/Src/tim.c **** 
 320:Core/Src/tim.c ****     HAL_GPIO_DeInit(GPIOC, GPIO_PIN_7);
 321:Core/Src/tim.c **** 
 322:Core/Src/tim.c ****   /* USER CODE BEGIN TIM8_MspDeInit 1 */
 323:Core/Src/tim.c **** 
 324:Core/Src/tim.c ****   /* USER CODE END TIM8_MspDeInit 1 */
 325:Core/Src/tim.c ****   }
 326:Core/Src/tim.c **** }
 914              		.loc 1 326 1 view .LVU258
 915 000a 08BD     		pop	{r3, pc}
 916              	.LVL50:
 917              	.L66:
 312:Core/Src/tim.c **** 
 918              		.loc 1 312 5 is_stmt 1 view .LVU259
ARM GAS  C:\Users\Xuleo\AppData\Local\Temp\cccy2SjC.s 			page 25


 919 000c 094A     		ldr	r2, .L67+4
 920 000e D2F8A430 		ldr	r3, [r2, #164]
 921 0012 23F40053 		bic	r3, r3, #8192
 922 0016 C2F8A430 		str	r3, [r2, #164]
 318:Core/Src/tim.c **** 
 923              		.loc 1 318 5 view .LVU260
 924 001a 4FF48061 		mov	r1, #1024
 925 001e 0648     		ldr	r0, .L67+8
 926              	.LVL51:
 318:Core/Src/tim.c **** 
 927              		.loc 1 318 5 is_stmt 0 view .LVU261
 928 0020 FFF7FEFF 		bl	HAL_GPIO_DeInit
 929              	.LVL52:
 320:Core/Src/tim.c **** 
 930              		.loc 1 320 5 is_stmt 1 view .LVU262
 931 0024 8021     		movs	r1, #128
 932 0026 0548     		ldr	r0, .L67+12
 933 0028 FFF7FEFF 		bl	HAL_GPIO_DeInit
 934              	.LVL53:
 935              		.loc 1 326 1 is_stmt 0 view .LVU263
 936 002c EDE7     		b	.L63
 937              	.L68:
 938 002e 00BF     		.align	2
 939              	.L67:
 940 0030 00340140 		.word	1073820672
 941 0034 000C0244 		.word	1140984832
 942 0038 00040242 		.word	1107428352
 943 003c 00080242 		.word	1107429376
 944              		.cfi_endproc
 945              	.LFE167:
 947              		.global	htim8
 948              		.section	.bss.htim8,"aw",%nobits
 949              		.align	2
 952              	htim8:
 953 0000 00000000 		.space	76
 953      00000000 
 953      00000000 
 953      00000000 
 953      00000000 
 954              		.global	htim3
 955              		.section	.bss.htim3,"aw",%nobits
 956              		.align	2
 959              	htim3:
 960 0000 00000000 		.space	76
 960      00000000 
 960      00000000 
 960      00000000 
 960      00000000 
 961              		.global	htim2
 962              		.section	.bss.htim2,"aw",%nobits
 963              		.align	2
 966              	htim2:
 967 0000 00000000 		.space	76
 967      00000000 
 967      00000000 
 967      00000000 
 967      00000000 
ARM GAS  C:\Users\Xuleo\AppData\Local\Temp\cccy2SjC.s 			page 26


 968              		.text
 969              	.Letext0:
 970              		.file 2 "C:/thirdpartyLibs/arm-gnu-toolchain-15.2/arm-none-eabi/include/machine/_default_types.h"
 971              		.file 3 "Drivers/CMSIS/Device/ST/STM32H5xx/Include/stm32h533xx.h"
 972              		.file 4 "C:/thirdpartyLibs/arm-gnu-toolchain-15.2/arm-none-eabi/include/sys/_stdint.h"
 973              		.file 5 "Drivers/STM32H5xx_HAL_Driver/Inc/stm32h5xx_hal_def.h"
 974              		.file 6 "Drivers/STM32H5xx_HAL_Driver/Inc/stm32h5xx_hal_gpio.h"
 975              		.file 7 "Drivers/STM32H5xx_HAL_Driver/Inc/stm32h5xx_hal_dma.h"
 976              		.file 8 "Drivers/STM32H5xx_HAL_Driver/Inc/stm32h5xx_hal_dma_ex.h"
 977              		.file 9 "Drivers/STM32H5xx_HAL_Driver/Inc/stm32h5xx_hal_tim.h"
 978              		.file 10 "Core/Inc/tim.h"
 979              		.file 11 "Drivers/STM32H5xx_HAL_Driver/Inc/stm32h5xx_hal_cortex.h"
 980              		.file 12 "Drivers/STM32H5xx_HAL_Driver/Inc/stm32h5xx_hal_tim_ex.h"
 981              		.file 13 "Core/Inc/main.h"
 982              		.file 14 "<built-in>"
ARM GAS  C:\Users\Xuleo\AppData\Local\Temp\cccy2SjC.s 			page 27


DEFINED SYMBOLS
                            *ABS*:00000000 tim.c
C:\Users\Xuleo\AppData\Local\Temp\cccy2SjC.s:22     .text.MX_TIM2_Init:00000000 $t
C:\Users\Xuleo\AppData\Local\Temp\cccy2SjC.s:28     .text.MX_TIM2_Init:00000000 MX_TIM2_Init
C:\Users\Xuleo\AppData\Local\Temp\cccy2SjC.s:140    .text.MX_TIM2_Init:0000006c $d
C:\Users\Xuleo\AppData\Local\Temp\cccy2SjC.s:966    .bss.htim2:00000000 htim2
C:\Users\Xuleo\AppData\Local\Temp\cccy2SjC.s:145    .text.MX_TIM8_Init:00000000 $t
C:\Users\Xuleo\AppData\Local\Temp\cccy2SjC.s:151    .text.MX_TIM8_Init:00000000 MX_TIM8_Init
C:\Users\Xuleo\AppData\Local\Temp\cccy2SjC.s:270    .text.MX_TIM8_Init:00000064 $d
C:\Users\Xuleo\AppData\Local\Temp\cccy2SjC.s:952    .bss.htim8:00000000 htim8
C:\Users\Xuleo\AppData\Local\Temp\cccy2SjC.s:276    .text.HAL_TIM_Base_MspInit:00000000 $t
C:\Users\Xuleo\AppData\Local\Temp\cccy2SjC.s:282    .text.HAL_TIM_Base_MspInit:00000000 HAL_TIM_Base_MspInit
C:\Users\Xuleo\AppData\Local\Temp\cccy2SjC.s:373    .text.HAL_TIM_Base_MspInit:00000060 $d
C:\Users\Xuleo\AppData\Local\Temp\cccy2SjC.s:379    .text.HAL_TIM_Encoder_MspInit:00000000 $t
C:\Users\Xuleo\AppData\Local\Temp\cccy2SjC.s:385    .text.HAL_TIM_Encoder_MspInit:00000000 HAL_TIM_Encoder_MspInit
C:\Users\Xuleo\AppData\Local\Temp\cccy2SjC.s:523    .text.HAL_TIM_Encoder_MspInit:00000094 $d
C:\Users\Xuleo\AppData\Local\Temp\cccy2SjC.s:531    .text.HAL_TIM_MspPostInit:00000000 $t
C:\Users\Xuleo\AppData\Local\Temp\cccy2SjC.s:537    .text.HAL_TIM_MspPostInit:00000000 HAL_TIM_MspPostInit
C:\Users\Xuleo\AppData\Local\Temp\cccy2SjC.s:621    .text.HAL_TIM_MspPostInit:0000004c $d
C:\Users\Xuleo\AppData\Local\Temp\cccy2SjC.s:628    .text.MX_TIM3_Init:00000000 $t
C:\Users\Xuleo\AppData\Local\Temp\cccy2SjC.s:634    .text.MX_TIM3_Init:00000000 MX_TIM3_Init
C:\Users\Xuleo\AppData\Local\Temp\cccy2SjC.s:814    .text.MX_TIM3_Init:000000b8 $d
C:\Users\Xuleo\AppData\Local\Temp\cccy2SjC.s:959    .bss.htim3:00000000 htim3
C:\Users\Xuleo\AppData\Local\Temp\cccy2SjC.s:820    .text.HAL_TIM_Base_MspDeInit:00000000 $t
C:\Users\Xuleo\AppData\Local\Temp\cccy2SjC.s:826    .text.HAL_TIM_Base_MspDeInit:00000000 HAL_TIM_Base_MspDeInit
C:\Users\Xuleo\AppData\Local\Temp\cccy2SjC.s:880    .text.HAL_TIM_Base_MspDeInit:00000038 $d
C:\Users\Xuleo\AppData\Local\Temp\cccy2SjC.s:886    .text.HAL_TIM_Encoder_MspDeInit:00000000 $t
C:\Users\Xuleo\AppData\Local\Temp\cccy2SjC.s:892    .text.HAL_TIM_Encoder_MspDeInit:00000000 HAL_TIM_Encoder_MspDeInit
C:\Users\Xuleo\AppData\Local\Temp\cccy2SjC.s:940    .text.HAL_TIM_Encoder_MspDeInit:00000030 $d
C:\Users\Xuleo\AppData\Local\Temp\cccy2SjC.s:949    .bss.htim8:00000000 $d
C:\Users\Xuleo\AppData\Local\Temp\cccy2SjC.s:956    .bss.htim3:00000000 $d
C:\Users\Xuleo\AppData\Local\Temp\cccy2SjC.s:963    .bss.htim2:00000000 $d

UNDEFINED SYMBOLS
HAL_TIM_Base_Init
HAL_TIM_ConfigClockSource
HAL_TIMEx_MasterConfigSynchronization
Error_Handler
memset
HAL_TIM_Encoder_Init
HAL_NVIC_SetPriority
HAL_NVIC_EnableIRQ
HAL_GPIO_Init
HAL_TIM_PWM_Init
HAL_TIM_PWM_ConfigChannel
HAL_NVIC_DisableIRQ
HAL_GPIO_DeInit
