ARM GAS  C:\Users\Xuleo\AppData\Local\Temp\ccErTM2j.s 			page 1


   1              		.cpu cortex-m33
   2              		.arch armv8-m.main
   3              		.fpu fpv5-sp-d16
   4              		.arch_extension dsp
   5              		.eabi_attribute 27, 1
   6              		.eabi_attribute 28, 1
   7              		.eabi_attribute 20, 1
   8              		.eabi_attribute 21, 1
   9              		.eabi_attribute 23, 3
  10              		.eabi_attribute 24, 1
  11              		.eabi_attribute 25, 1
  12              		.eabi_attribute 26, 1
  13              		.eabi_attribute 30, 1
  14              		.eabi_attribute 34, 1
  15              		.eabi_attribute 18, 4
  16              		.file	"user_timer.c"
  17              		.text
  18              	.Ltext0:
  19              		.cfi_sections	.debug_frame
  20              		.file 1 "./Application/Src/user_timer.c"
  21              		.section	.text.user_timer_tick_init,"ax",%progbits
  22              		.align	1
  23              		.global	user_timer_tick_init
  24              		.syntax unified
  25              		.thumb
  26              		.thumb_func
  28              	user_timer_tick_init:
  29              	.LFB359:
   1:./Application/Src/user_timer.c **** #include <user_timer.h>
   2:./Application/Src/user_timer.c **** #include <application.h>
   3:./Application/Src/user_timer.c **** #include <command.h>
   4:./Application/Src/user_timer.c **** 
   5:./Application/Src/user_timer.c **** uint8_t timer2_tick_MENU;
   6:./Application/Src/user_timer.c **** uint16_t timer2_tick_test;
   7:./Application/Src/user_timer.c **** uint8_t timer5_tick;
   8:./Application/Src/user_timer.c **** uint8_t menu_update_flag;
   9:./Application/Src/user_timer.c **** 
  10:./Application/Src/user_timer.c **** volatile uint16_t wait_timer = 0;
  11:./Application/Src/user_timer.c **** 
  12:./Application/Src/user_timer.c **** void user_timer_tick_init(){
  30              		.loc 1 12 28 view -0
  31              		.cfi_startproc
  32              		@ args = 0, pretend = 0, frame = 0
  33              		@ frame_needed = 0, uses_anonymous_args = 0
  34              		@ link register save eliminated.
  13:./Application/Src/user_timer.c ****     timer2_tick_MENU = 0;
  35              		.loc 1 13 5 view .LVU1
  36              		.loc 1 13 22 is_stmt 0 view .LVU2
  37 0000 0023     		movs	r3, #0
  38 0002 044A     		ldr	r2, .L2
  39 0004 1370     		strb	r3, [r2]
  14:./Application/Src/user_timer.c ****     timer2_tick_test = 0;
  40              		.loc 1 14 5 is_stmt 1 view .LVU3
  41              		.loc 1 14 22 is_stmt 0 view .LVU4
  42 0006 044A     		ldr	r2, .L2+4
  43 0008 1380     		strh	r3, [r2]	@ movhi
  15:./Application/Src/user_timer.c ****     timer5_tick = 0;
ARM GAS  C:\Users\Xuleo\AppData\Local\Temp\ccErTM2j.s 			page 2


  44              		.loc 1 15 5 is_stmt 1 view .LVU5
  45              		.loc 1 15 17 is_stmt 0 view .LVU6
  46 000a 044A     		ldr	r2, .L2+8
  47 000c 1370     		strb	r3, [r2]
  16:./Application/Src/user_timer.c ****     menu_update_flag = 0;
  48              		.loc 1 16 5 is_stmt 1 view .LVU7
  49              		.loc 1 16 22 is_stmt 0 view .LVU8
  50 000e 044A     		ldr	r2, .L2+12
  51 0010 1370     		strb	r3, [r2]
  17:./Application/Src/user_timer.c **** }
  52              		.loc 1 17 1 view .LVU9
  53 0012 7047     		bx	lr
  54              	.L3:
  55              		.align	2
  56              	.L2:
  57 0014 00000000 		.word	timer2_tick_MENU
  58 0018 00000000 		.word	timer2_tick_test
  59 001c 00000000 		.word	timer5_tick
  60 0020 00000000 		.word	menu_update_flag
  61              		.cfi_endproc
  62              	.LFE359:
  64              		.section	.text.user_timer2_ISR,"ax",%progbits
  65              		.align	1
  66              		.global	user_timer2_ISR
  67              		.syntax unified
  68              		.thumb
  69              		.thumb_func
  71              	user_timer2_ISR:
  72              	.LFB360:
  18:./Application/Src/user_timer.c **** 
  19:./Application/Src/user_timer.c **** void user_timer2_ISR(){
  73              		.loc 1 19 23 is_stmt 1 view -0
  74              		.cfi_startproc
  75              		@ args = 0, pretend = 0, frame = 0
  76              		@ frame_needed = 0, uses_anonymous_args = 0
  77 0000 08B5     		push	{r3, lr}
  78              	.LCFI0:
  79              		.cfi_def_cfa_offset 8
  80              		.cfi_offset 3, -8
  81              		.cfi_offset 14, -4
  20:./Application/Src/user_timer.c ****     
  21:./Application/Src/user_timer.c ****     timer2_tick_MENU++;
  82              		.loc 1 21 5 view .LVU11
  83              		.loc 1 21 21 is_stmt 0 view .LVU12
  84 0002 124B     		ldr	r3, .L9
  85 0004 1978     		ldrb	r1, [r3]	@ zero_extendqisi2
  86 0006 0131     		adds	r1, r1, #1
  87 0008 C9B2     		uxtb	r1, r1
  88 000a 1970     		strb	r1, [r3]
  22:./Application/Src/user_timer.c ****     timer2_tick_test++;
  89              		.loc 1 22 5 is_stmt 1 view .LVU13
  90              		.loc 1 22 21 is_stmt 0 view .LVU14
  91 000c 104B     		ldr	r3, .L9+4
  92 000e 1A88     		ldrh	r2, [r3]
  93 0010 0132     		adds	r2, r2, #1
  94 0012 92B2     		uxth	r2, r2
  95 0014 1A80     		strh	r2, [r3]	@ movhi
ARM GAS  C:\Users\Xuleo\AppData\Local\Temp\ccErTM2j.s 			page 3


  23:./Application/Src/user_timer.c ****     wait_timer++;
  96              		.loc 1 23 5 is_stmt 1 view .LVU15
  97              		.loc 1 23 15 is_stmt 0 view .LVU16
  98 0016 0F48     		ldr	r0, .L9+8
  99 0018 0388     		ldrh	r3, [r0]
 100 001a 9BB2     		uxth	r3, r3
 101 001c 0133     		adds	r3, r3, #1
 102 001e 9BB2     		uxth	r3, r3
 103 0020 0380     		strh	r3, [r0]	@ movhi
  24:./Application/Src/user_timer.c **** 
  25:./Application/Src/user_timer.c ****     if(timer2_tick_MENU >= MENU_FRAME_RATE){
 104              		.loc 1 25 5 is_stmt 1 view .LVU17
 105              		.loc 1 25 7 is_stmt 0 view .LVU18
 106 0022 3129     		cmp	r1, #49
 107 0024 05D9     		bls	.L5
  26:./Application/Src/user_timer.c ****         menu_update_flag = 1;
 108              		.loc 1 26 9 is_stmt 1 view .LVU19
 109              		.loc 1 26 26 is_stmt 0 view .LVU20
 110 0026 0C4B     		ldr	r3, .L9+12
 111 0028 0121     		movs	r1, #1
 112 002a 1970     		strb	r1, [r3]
  27:./Application/Src/user_timer.c ****         timer2_tick_MENU = 0;
 113              		.loc 1 27 9 is_stmt 1 view .LVU21
 114              		.loc 1 27 26 is_stmt 0 view .LVU22
 115 002c 074B     		ldr	r3, .L9
 116 002e 0021     		movs	r1, #0
 117 0030 1970     		strb	r1, [r3]
 118              	.L5:
  28:./Application/Src/user_timer.c ****     }
  29:./Application/Src/user_timer.c **** 
  30:./Application/Src/user_timer.c ****     if(timer2_tick_test >= 500){
 119              		.loc 1 30 5 is_stmt 1 view .LVU23
 120              		.loc 1 30 7 is_stmt 0 view .LVU24
 121 0032 B2F5FA7F 		cmp	r2, #500
 122 0036 00D2     		bcs	.L8
 123              	.L4:
  31:./Application/Src/user_timer.c ****         HAL_GPIO_TogglePin(LED_GPIO_Port, LED_Pin);
  32:./Application/Src/user_timer.c ****         timer2_tick_test = 0;
  33:./Application/Src/user_timer.c ****     }
  34:./Application/Src/user_timer.c **** }
 124              		.loc 1 34 1 view .LVU25
 125 0038 08BD     		pop	{r3, pc}
 126              	.L8:
  31:./Application/Src/user_timer.c ****         HAL_GPIO_TogglePin(LED_GPIO_Port, LED_Pin);
 127              		.loc 1 31 9 is_stmt 1 view .LVU26
 128 003a 4FF40061 		mov	r1, #2048
 129 003e 0748     		ldr	r0, .L9+16
 130 0040 FFF7FEFF 		bl	HAL_GPIO_TogglePin
 131              	.LVL0:
  32:./Application/Src/user_timer.c ****     }
 132              		.loc 1 32 9 view .LVU27
  32:./Application/Src/user_timer.c ****     }
 133              		.loc 1 32 26 is_stmt 0 view .LVU28
 134 0044 024B     		ldr	r3, .L9+4
 135 0046 0022     		movs	r2, #0
 136 0048 1A80     		strh	r2, [r3]	@ movhi
 137              		.loc 1 34 1 view .LVU29
ARM GAS  C:\Users\Xuleo\AppData\Local\Temp\ccErTM2j.s 			page 4


 138 004a F5E7     		b	.L4
 139              	.L10:
 140              		.align	2
 141              	.L9:
 142 004c 00000000 		.word	timer2_tick_MENU
 143 0050 00000000 		.word	timer2_tick_test
 144 0054 00000000 		.word	wait_timer
 145 0058 00000000 		.word	menu_update_flag
 146 005c 000C0242 		.word	1107430400
 147              		.cfi_endproc
 148              	.LFE360:
 150              		.section	.text.user_timer5_ISR,"ax",%progbits
 151              		.align	1
 152              		.global	user_timer5_ISR
 153              		.syntax unified
 154              		.thumb
 155              		.thumb_func
 157              	user_timer5_ISR:
 158              	.LFB361:
  35:./Application/Src/user_timer.c **** 
  36:./Application/Src/user_timer.c **** void user_timer5_ISR(){
 159              		.loc 1 36 23 is_stmt 1 view -0
 160              		.cfi_startproc
 161              		@ args = 0, pretend = 0, frame = 0
 162              		@ frame_needed = 0, uses_anonymous_args = 0
 163 0000 08B5     		push	{r3, lr}
 164              	.LCFI1:
 165              		.cfi_def_cfa_offset 8
 166              		.cfi_offset 3, -8
 167              		.cfi_offset 14, -4
  37:./Application/Src/user_timer.c **** 
  38:./Application/Src/user_timer.c ****     timer5_tick++;
 168              		.loc 1 38 5 view .LVU31
 169              		.loc 1 38 16 is_stmt 0 view .LVU32
 170 0002 264A     		ldr	r2, .L24
 171 0004 1378     		ldrb	r3, [r2]	@ zero_extendqisi2
 172 0006 0133     		adds	r3, r3, #1
 173 0008 1370     		strb	r3, [r2]
  39:./Application/Src/user_timer.c **** 
  40:./Application/Src/user_timer.c ****     if(pwm_mode == PWM_PID){
 174              		.loc 1 40 5 is_stmt 1 view .LVU33
 175              		.loc 1 40 17 is_stmt 0 view .LVU34
 176 000a 254B     		ldr	r3, .L24+4
 177 000c 1B78     		ldrb	r3, [r3]	@ zero_extendqisi2
 178              		.loc 1 40 7 view .LVU35
 179 000e E3B1     		cbz	r3, .L19
  41:./Application/Src/user_timer.c ****         controller_step(0.001f);
  42:./Application/Src/user_timer.c ****     }
  43:./Application/Src/user_timer.c **** 
  44:./Application/Src/user_timer.c ****     else if(pwm_mode == PWM_STOP){
 180              		.loc 1 44 10 is_stmt 1 view .LVU36
 181              		.loc 1 44 22 is_stmt 0 view .LVU37
 182 0010 234B     		ldr	r3, .L24+4
 183 0012 1B78     		ldrb	r3, [r3]	@ zero_extendqisi2
 184              		.loc 1 44 12 view .LVU38
 185 0014 012B     		cmp	r3, #1
 186 0016 20D0     		beq	.L20
ARM GAS  C:\Users\Xuleo\AppData\Local\Temp\ccErTM2j.s 			page 5


  45:./Application/Src/user_timer.c ****         __HAL_TIM_SET_COMPARE(&htim1, TIM_CHANNEL_2, 500);
  46:./Application/Src/user_timer.c ****         __HAL_TIM_SET_COMPARE(&htim1, TIM_CHANNEL_1, 500);
  47:./Application/Src/user_timer.c ****     }
  48:./Application/Src/user_timer.c **** 
  49:./Application/Src/user_timer.c ****     else if(pwm_mode == PWM_HOMING_LEFT_START){
 187              		.loc 1 49 10 is_stmt 1 view .LVU39
 188              		.loc 1 49 22 is_stmt 0 view .LVU40
 189 0018 214B     		ldr	r3, .L24+4
 190 001a 1B78     		ldrb	r3, [r3]	@ zero_extendqisi2
 191              		.loc 1 49 12 view .LVU41
 192 001c 022B     		cmp	r3, #2
 193 001e 23D0     		beq	.L21
  50:./Application/Src/user_timer.c ****         __HAL_TIM_SET_COMPARE(&htim1, TIM_CHANNEL_2, 500);
  51:./Application/Src/user_timer.c ****         __HAL_TIM_SET_COMPARE(&htim1, TIM_CHANNEL_1, 200);
  52:./Application/Src/user_timer.c ****     }
  53:./Application/Src/user_timer.c **** 
  54:./Application/Src/user_timer.c ****     else if(pwm_mode == PWM_HOMING_LEFT){
 194              		.loc 1 54 10 is_stmt 1 view .LVU42
 195              		.loc 1 54 22 is_stmt 0 view .LVU43
 196 0020 1F4B     		ldr	r3, .L24+4
 197 0022 1B78     		ldrb	r3, [r3]	@ zero_extendqisi2
 198              		.loc 1 54 12 view .LVU44
 199 0024 032B     		cmp	r3, #3
 200 0026 27D0     		beq	.L22
  55:./Application/Src/user_timer.c ****         __HAL_TIM_SET_COMPARE(&htim1, TIM_CHANNEL_2, 500);
  56:./Application/Src/user_timer.c ****         __HAL_TIM_SET_COMPARE(&htim1, TIM_CHANNEL_1, 270);
  57:./Application/Src/user_timer.c ****     }
  58:./Application/Src/user_timer.c **** 
  59:./Application/Src/user_timer.c ****     else if(pwm_mode == PWM_HOMING_RIGHT_START){
 201              		.loc 1 59 10 is_stmt 1 view .LVU45
 202              		.loc 1 59 22 is_stmt 0 view .LVU46
 203 0028 1D4B     		ldr	r3, .L24+4
 204 002a 1B78     		ldrb	r3, [r3]	@ zero_extendqisi2
 205              		.loc 1 59 12 view .LVU47
 206 002c 042B     		cmp	r3, #4
 207 002e 2CD0     		beq	.L23
  60:./Application/Src/user_timer.c ****         __HAL_TIM_SET_COMPARE(&htim1, TIM_CHANNEL_2, 200);
  61:./Application/Src/user_timer.c ****         __HAL_TIM_SET_COMPARE(&htim1, TIM_CHANNEL_1, 500);
  62:./Application/Src/user_timer.c ****     }
  63:./Application/Src/user_timer.c **** 
  64:./Application/Src/user_timer.c ****     else if(pwm_mode == PWM_HOMING_RIGHT){
 208              		.loc 1 64 10 is_stmt 1 view .LVU48
 209              		.loc 1 64 22 is_stmt 0 view .LVU49
 210 0030 1B4B     		ldr	r3, .L24+4
 211 0032 1B78     		ldrb	r3, [r3]	@ zero_extendqisi2
 212              		.loc 1 64 12 view .LVU50
 213 0034 052B     		cmp	r3, #5
 214 0036 0CD1     		bne	.L13
  65:./Application/Src/user_timer.c ****         __HAL_TIM_SET_COMPARE(&htim1, TIM_CHANNEL_2, 270);
 215              		.loc 1 65 9 is_stmt 1 view .LVU51
 216 0038 1A4B     		ldr	r3, .L24+8
 217 003a 1B68     		ldr	r3, [r3]
 218 003c 4FF48772 		mov	r2, #270
 219 0040 9A63     		str	r2, [r3, #56]
  66:./Application/Src/user_timer.c ****         __HAL_TIM_SET_COMPARE(&htim1, TIM_CHANNEL_1, 500);
 220              		.loc 1 66 9 view .LVU52
 221 0042 4FF4FA72 		mov	r2, #500
ARM GAS  C:\Users\Xuleo\AppData\Local\Temp\ccErTM2j.s 			page 6


 222 0046 5A63     		str	r2, [r3, #52]
 223 0048 03E0     		b	.L13
 224              	.L19:
  41:./Application/Src/user_timer.c ****     }
 225              		.loc 1 41 9 view .LVU53
 226 004a 9FED170A 		vldr.32	s0, .L24+12
 227 004e FFF7FEFF 		bl	controller_step
 228              	.LVL1:
 229              	.L13:
  67:./Application/Src/user_timer.c ****     }
  68:./Application/Src/user_timer.c **** 
  69:./Application/Src/user_timer.c ****     timer5_tick = 0;
 230              		.loc 1 69 5 view .LVU54
 231              		.loc 1 69 17 is_stmt 0 view .LVU55
 232 0052 124B     		ldr	r3, .L24
 233 0054 0022     		movs	r2, #0
 234 0056 1A70     		strb	r2, [r3]
  70:./Application/Src/user_timer.c **** }
 235              		.loc 1 70 1 view .LVU56
 236 0058 08BD     		pop	{r3, pc}
 237              	.L20:
  45:./Application/Src/user_timer.c ****         __HAL_TIM_SET_COMPARE(&htim1, TIM_CHANNEL_1, 500);
 238              		.loc 1 45 9 is_stmt 1 view .LVU57
 239 005a 124B     		ldr	r3, .L24+8
 240 005c 1B68     		ldr	r3, [r3]
 241 005e 4FF4FA72 		mov	r2, #500
 242 0062 9A63     		str	r2, [r3, #56]
  46:./Application/Src/user_timer.c ****     }
 243              		.loc 1 46 9 view .LVU58
 244 0064 5A63     		str	r2, [r3, #52]
 245 0066 F4E7     		b	.L13
 246              	.L21:
  50:./Application/Src/user_timer.c ****         __HAL_TIM_SET_COMPARE(&htim1, TIM_CHANNEL_1, 200);
 247              		.loc 1 50 9 view .LVU59
 248 0068 0E4B     		ldr	r3, .L24+8
 249 006a 1B68     		ldr	r3, [r3]
 250 006c 4FF4FA72 		mov	r2, #500
 251 0070 9A63     		str	r2, [r3, #56]
  51:./Application/Src/user_timer.c ****     }
 252              		.loc 1 51 9 view .LVU60
 253 0072 C822     		movs	r2, #200
 254 0074 5A63     		str	r2, [r3, #52]
 255 0076 ECE7     		b	.L13
 256              	.L22:
  55:./Application/Src/user_timer.c ****         __HAL_TIM_SET_COMPARE(&htim1, TIM_CHANNEL_1, 270);
 257              		.loc 1 55 9 view .LVU61
 258 0078 0A4B     		ldr	r3, .L24+8
 259 007a 1B68     		ldr	r3, [r3]
 260 007c 4FF4FA72 		mov	r2, #500
 261 0080 9A63     		str	r2, [r3, #56]
  56:./Application/Src/user_timer.c ****     }
 262              		.loc 1 56 9 view .LVU62
 263 0082 4FF48772 		mov	r2, #270
 264 0086 5A63     		str	r2, [r3, #52]
 265 0088 E3E7     		b	.L13
 266              	.L23:
  60:./Application/Src/user_timer.c ****         __HAL_TIM_SET_COMPARE(&htim1, TIM_CHANNEL_1, 500);
ARM GAS  C:\Users\Xuleo\AppData\Local\Temp\ccErTM2j.s 			page 7


 267              		.loc 1 60 9 view .LVU63
 268 008a 064B     		ldr	r3, .L24+8
 269 008c 1B68     		ldr	r3, [r3]
 270 008e C822     		movs	r2, #200
 271 0090 9A63     		str	r2, [r3, #56]
  61:./Application/Src/user_timer.c ****     }
 272              		.loc 1 61 9 view .LVU64
 273 0092 4FF4FA72 		mov	r2, #500
 274 0096 5A63     		str	r2, [r3, #52]
 275 0098 DBE7     		b	.L13
 276              	.L25:
 277 009a 00BF     		.align	2
 278              	.L24:
 279 009c 00000000 		.word	timer5_tick
 280 00a0 00000000 		.word	pwm_mode
 281 00a4 00000000 		.word	htim1
 282 00a8 6F12833A 		.word	981668463
 283              		.cfi_endproc
 284              	.LFE361:
 286              		.section	.text.wait_ms,"ax",%progbits
 287              		.align	1
 288              		.global	wait_ms
 289              		.syntax unified
 290              		.thumb
 291              		.thumb_func
 293              	wait_ms:
 294              	.LVL2:
 295              	.LFB362:
  71:./Application/Src/user_timer.c **** 
  72:./Application/Src/user_timer.c **** void wait_ms(uint16_t ms){
 296              		.loc 1 72 26 view -0
 297              		.cfi_startproc
 298              		@ args = 0, pretend = 0, frame = 0
 299              		@ frame_needed = 0, uses_anonymous_args = 0
 300              		@ link register save eliminated.
  73:./Application/Src/user_timer.c ****     // reset the wait counter first:
  74:./Application/Src/user_timer.c ****     wait_timer = 0;
 301              		.loc 1 74 5 view .LVU66
 302              		.loc 1 74 16 is_stmt 0 view .LVU67
 303 0000 044B     		ldr	r3, .L28
 304 0002 0022     		movs	r2, #0
 305 0004 1A80     		strh	r2, [r3]	@ movhi
  75:./Application/Src/user_timer.c ****     while(wait_timer < ms){
 306              		.loc 1 75 5 is_stmt 1 view .LVU68
 307              	.L27:
  76:./Application/Src/user_timer.c ****         // busy wait
  77:./Application/Src/user_timer.c ****     }
 308              		.loc 1 77 5 view .LVU69
  75:./Application/Src/user_timer.c ****     while(wait_timer < ms){
 309              		.loc 1 75 22 discriminator 1 view .LVU70
 310 0006 034B     		ldr	r3, .L28
 311 0008 1B88     		ldrh	r3, [r3]
 312 000a 9BB2     		uxth	r3, r3
 313 000c 8342     		cmp	r3, r0
 314 000e FAD3     		bcc	.L27
  78:./Application/Src/user_timer.c **** }...
 315              		.loc 1 78 1 is_stmt 0 view .LVU71
ARM GAS  C:\Users\Xuleo\AppData\Local\Temp\ccErTM2j.s 			page 8


 316 0010 7047     		bx	lr
 317              	.L29:
 318 0012 00BF     		.align	2
 319              	.L28:
 320 0014 00000000 		.word	wait_timer
 321              		.cfi_endproc
 322              	.LFE362:
 324              		.global	wait_timer
 325              		.section	.bss.wait_timer,"aw",%nobits
 326              		.align	1
 329              	wait_timer:
 330 0000 0000     		.space	2
 331              		.global	menu_update_flag
 332              		.section	.bss.menu_update_flag,"aw",%nobits
 335              	menu_update_flag:
 336 0000 00       		.space	1
 337              		.global	timer5_tick
 338              		.section	.bss.timer5_tick,"aw",%nobits
 341              	timer5_tick:
 342 0000 00       		.space	1
 343              		.global	timer2_tick_test
 344              		.section	.bss.timer2_tick_test,"aw",%nobits
 345              		.align	1
 348              	timer2_tick_test:
 349 0000 0000     		.space	2
 350              		.global	timer2_tick_MENU
 351              		.section	.bss.timer2_tick_MENU,"aw",%nobits
 354              	timer2_tick_MENU:
 355 0000 00       		.space	1
 356              		.text
 357              	.Letext0:
 358              		.file 2 "C:/thirdpartyLibs/arm-gnu-toolchain-15.2/arm-none-eabi/include/machine/_default_types.h"
 359              		.file 3 "C:/thirdpartyLibs/arm-gnu-toolchain-15.2/arm-none-eabi/include/sys/_stdint.h"
 360              		.file 4 "Drivers/CMSIS/Device/ST/STM32H5xx/Include/stm32h523xx.h"
 361              		.file 5 "Drivers/STM32H5xx_HAL_Driver/Inc/stm32h5xx_hal_def.h"
 362              		.file 6 "Drivers/STM32H5xx_HAL_Driver/Inc/stm32h5xx_hal_dma.h"
 363              		.file 7 "Drivers/STM32H5xx_HAL_Driver/Inc/stm32h5xx_hal_dma_ex.h"
 364              		.file 8 "Drivers/STM32H5xx_HAL_Driver/Inc/stm32h5xx_hal_tim.h"
 365              		.file 9 "Core/Inc/tim.h"
 366              		.file 10 "Application/Inc/application.h"
 367              		.file 11 "Drivers/STM32H5xx_HAL_Driver/Inc/stm32h5xx_hal_gpio.h"
ARM GAS  C:\Users\Xuleo\AppData\Local\Temp\ccErTM2j.s 			page 9

