ARM GAS  C:\Users\admin\AppData\Local\Temp\cczO68ZP.s 			page 1


   1              		.cpu cortex-m33
   2              		.arch armv8-m.main
   3              		.fpu fpv5-sp-d16
   4              		.arch_extension dsp
   5              		.eabi_attribute 27, 1
   6              		.eabi_attribute 28, 1
   7              		.eabi_attribute 20, 1
   8              		.eabi_attribute 21, 1
   9              		.eabi_attribute 23, 3
  10              		.eabi_attribute 24, 1
  11              		.eabi_attribute 25, 1
  12              		.eabi_attribute 26, 1
  13              		.eabi_attribute 30, 1
  14              		.eabi_attribute 34, 1
  15              		.eabi_attribute 18, 4
  16              		.file	"user_timer.c"
  17              		.text
  18              	.Ltext0:
  19              		.cfi_sections	.debug_frame
  20              		.file 1 "./Application/Src/user_timer.c"
  21              		.section	.text.user_timer_tick_init,"ax",%progbits
  22              		.align	1
  23              		.global	user_timer_tick_init
  24              		.syntax unified
  25              		.thumb
  26              		.thumb_func
  28              	user_timer_tick_init:
  29              	.LFB359:
   1:./Application/Src/user_timer.c **** #include <user_timer.h>
   2:./Application/Src/user_timer.c **** #include <application.h>
   3:./Application/Src/user_timer.c **** uint8_t timer2_tick_MENU;
   4:./Application/Src/user_timer.c **** uint16_t timer2_tick_test;
   5:./Application/Src/user_timer.c **** uint8_t timer5_tick;
   6:./Application/Src/user_timer.c **** uint8_t menu_update_flag;
   7:./Application/Src/user_timer.c **** 
   8:./Application/Src/user_timer.c **** volatile uint16_t wait_timer = 0;
   9:./Application/Src/user_timer.c **** 
  10:./Application/Src/user_timer.c **** extern uint8_t motor_off;
  11:./Application/Src/user_timer.c **** 
  12:./Application/Src/user_timer.c **** void user_timer_tick_init(){
  30              		.loc 1 12 28 view -0
  31              		.cfi_startproc
  32              		@ args = 0, pretend = 0, frame = 0
  33              		@ frame_needed = 0, uses_anonymous_args = 0
  34              		@ link register save eliminated.
  13:./Application/Src/user_timer.c ****     timer2_tick_MENU = 0;
  35              		.loc 1 13 5 view .LVU1
  36              		.loc 1 13 22 is_stmt 0 view .LVU2
  37 0000 0023     		movs	r3, #0
  38 0002 044A     		ldr	r2, .L2
  39 0004 1370     		strb	r3, [r2]
  14:./Application/Src/user_timer.c ****     timer2_tick_test = 0;
  40              		.loc 1 14 5 is_stmt 1 view .LVU3
  41              		.loc 1 14 22 is_stmt 0 view .LVU4
  42 0006 044A     		ldr	r2, .L2+4
  43 0008 1380     		strh	r3, [r2]	@ movhi
  15:./Application/Src/user_timer.c ****     timer5_tick = 0;
ARM GAS  C:\Users\admin\AppData\Local\Temp\cczO68ZP.s 			page 2


  44              		.loc 1 15 5 is_stmt 1 view .LVU5
  45              		.loc 1 15 17 is_stmt 0 view .LVU6
  46 000a 044A     		ldr	r2, .L2+8
  47 000c 1370     		strb	r3, [r2]
  16:./Application/Src/user_timer.c ****     menu_update_flag = 0;
  48              		.loc 1 16 5 is_stmt 1 view .LVU7
  49              		.loc 1 16 22 is_stmt 0 view .LVU8
  50 000e 044A     		ldr	r2, .L2+12
  51 0010 1370     		strb	r3, [r2]
  17:./Application/Src/user_timer.c **** }
  52              		.loc 1 17 1 view .LVU9
  53 0012 7047     		bx	lr
  54              	.L3:
  55              		.align	2
  56              	.L2:
  57 0014 00000000 		.word	timer2_tick_MENU
  58 0018 00000000 		.word	timer2_tick_test
  59 001c 00000000 		.word	timer5_tick
  60 0020 00000000 		.word	menu_update_flag
  61              		.cfi_endproc
  62              	.LFE359:
  64              		.section	.text.user_timer2_ISR,"ax",%progbits
  65              		.align	1
  66              		.global	user_timer2_ISR
  67              		.syntax unified
  68              		.thumb
  69              		.thumb_func
  71              	user_timer2_ISR:
  72              	.LFB360:
  18:./Application/Src/user_timer.c **** 
  19:./Application/Src/user_timer.c **** void user_timer2_ISR(){
  73              		.loc 1 19 23 is_stmt 1 view -0
  74              		.cfi_startproc
  75              		@ args = 0, pretend = 0, frame = 0
  76              		@ frame_needed = 0, uses_anonymous_args = 0
  77 0000 08B5     		push	{r3, lr}
  78              	.LCFI0:
  79              		.cfi_def_cfa_offset 8
  80              		.cfi_offset 3, -8
  81              		.cfi_offset 14, -4
  20:./Application/Src/user_timer.c ****     
  21:./Application/Src/user_timer.c ****     timer2_tick_MENU++;
  82              		.loc 1 21 5 view .LVU11
  83              		.loc 1 21 21 is_stmt 0 view .LVU12
  84 0002 124B     		ldr	r3, .L9
  85 0004 1978     		ldrb	r1, [r3]	@ zero_extendqisi2
  86 0006 0131     		adds	r1, r1, #1
  87 0008 C9B2     		uxtb	r1, r1
  88 000a 1970     		strb	r1, [r3]
  22:./Application/Src/user_timer.c ****     timer2_tick_test++;
  89              		.loc 1 22 5 is_stmt 1 view .LVU13
  90              		.loc 1 22 21 is_stmt 0 view .LVU14
  91 000c 104B     		ldr	r3, .L9+4
  92 000e 1A88     		ldrh	r2, [r3]
  93 0010 0132     		adds	r2, r2, #1
  94 0012 92B2     		uxth	r2, r2
  95 0014 1A80     		strh	r2, [r3]	@ movhi
ARM GAS  C:\Users\admin\AppData\Local\Temp\cczO68ZP.s 			page 3


  23:./Application/Src/user_timer.c ****     wait_timer++;
  96              		.loc 1 23 5 is_stmt 1 view .LVU15
  97              		.loc 1 23 15 is_stmt 0 view .LVU16
  98 0016 0F48     		ldr	r0, .L9+8
  99 0018 0388     		ldrh	r3, [r0]
 100 001a 9BB2     		uxth	r3, r3
 101 001c 0133     		adds	r3, r3, #1
 102 001e 9BB2     		uxth	r3, r3
 103 0020 0380     		strh	r3, [r0]	@ movhi
  24:./Application/Src/user_timer.c **** 
  25:./Application/Src/user_timer.c ****     if(timer2_tick_MENU >= MENU_FRAME_RATE){
 104              		.loc 1 25 5 is_stmt 1 view .LVU17
 105              		.loc 1 25 7 is_stmt 0 view .LVU18
 106 0022 3129     		cmp	r1, #49
 107 0024 05D9     		bls	.L5
  26:./Application/Src/user_timer.c ****         menu_update_flag = 1;
 108              		.loc 1 26 9 is_stmt 1 view .LVU19
 109              		.loc 1 26 26 is_stmt 0 view .LVU20
 110 0026 0C4B     		ldr	r3, .L9+12
 111 0028 0121     		movs	r1, #1
 112 002a 1970     		strb	r1, [r3]
  27:./Application/Src/user_timer.c ****         timer2_tick_MENU = 0;
 113              		.loc 1 27 9 is_stmt 1 view .LVU21
 114              		.loc 1 27 26 is_stmt 0 view .LVU22
 115 002c 074B     		ldr	r3, .L9
 116 002e 0021     		movs	r1, #0
 117 0030 1970     		strb	r1, [r3]
 118              	.L5:
  28:./Application/Src/user_timer.c ****     }
  29:./Application/Src/user_timer.c **** 
  30:./Application/Src/user_timer.c ****     if(timer2_tick_test >= 500){
 119              		.loc 1 30 5 is_stmt 1 view .LVU23
 120              		.loc 1 30 7 is_stmt 0 view .LVU24
 121 0032 B2F5FA7F 		cmp	r2, #500
 122 0036 00D2     		bcs	.L8
 123              	.L4:
  31:./Application/Src/user_timer.c ****         HAL_GPIO_TogglePin(LED_GPIO_Port, LED_Pin);
  32:./Application/Src/user_timer.c ****         timer2_tick_test = 0;
  33:./Application/Src/user_timer.c ****     }
  34:./Application/Src/user_timer.c **** }
 124              		.loc 1 34 1 view .LVU25
 125 0038 08BD     		pop	{r3, pc}
 126              	.L8:
  31:./Application/Src/user_timer.c ****         HAL_GPIO_TogglePin(LED_GPIO_Port, LED_Pin);
 127              		.loc 1 31 9 is_stmt 1 view .LVU26
 128 003a 4FF40061 		mov	r1, #2048
 129 003e 0748     		ldr	r0, .L9+16
 130 0040 FFF7FEFF 		bl	HAL_GPIO_TogglePin
 131              	.LVL0:
  32:./Application/Src/user_timer.c ****     }
 132              		.loc 1 32 9 view .LVU27
  32:./Application/Src/user_timer.c ****     }
 133              		.loc 1 32 26 is_stmt 0 view .LVU28
 134 0044 024B     		ldr	r3, .L9+4
 135 0046 0022     		movs	r2, #0
 136 0048 1A80     		strh	r2, [r3]	@ movhi
 137              		.loc 1 34 1 view .LVU29
ARM GAS  C:\Users\admin\AppData\Local\Temp\cczO68ZP.s 			page 4


 138 004a F5E7     		b	.L4
 139              	.L10:
 140              		.align	2
 141              	.L9:
 142 004c 00000000 		.word	timer2_tick_MENU
 143 0050 00000000 		.word	timer2_tick_test
 144 0054 00000000 		.word	wait_timer
 145 0058 00000000 		.word	menu_update_flag
 146 005c 000C0242 		.word	1107430400
 147              		.cfi_endproc
 148              	.LFE360:
 150              		.section	.text.user_timer5_ISR,"ax",%progbits
 151              		.align	1
 152              		.global	user_timer5_ISR
 153              		.syntax unified
 154              		.thumb
 155              		.thumb_func
 157              	user_timer5_ISR:
 158              	.LFB361:
  35:./Application/Src/user_timer.c **** 
  36:./Application/Src/user_timer.c **** void user_timer5_ISR(){
 159              		.loc 1 36 23 is_stmt 1 view -0
 160              		.cfi_startproc
 161              		@ args = 0, pretend = 0, frame = 0
 162              		@ frame_needed = 0, uses_anonymous_args = 0
 163 0000 10B5     		push	{r4, lr}
 164              	.LCFI1:
 165              		.cfi_def_cfa_offset 8
 166              		.cfi_offset 4, -8
 167              		.cfi_offset 14, -4
  37:./Application/Src/user_timer.c **** 
  38:./Application/Src/user_timer.c ****     timer5_tick++;
 168              		.loc 1 38 5 view .LVU31
 169              		.loc 1 38 16 is_stmt 0 view .LVU32
 170 0002 054C     		ldr	r4, .L13
 171 0004 2378     		ldrb	r3, [r4]	@ zero_extendqisi2
 172 0006 0133     		adds	r3, r3, #1
 173 0008 2370     		strb	r3, [r4]
  39:./Application/Src/user_timer.c **** 
  40:./Application/Src/user_timer.c ****     controller_step(0.001f);
 174              		.loc 1 40 5 is_stmt 1 view .LVU33
 175 000a 9FED040A 		vldr.32	s0, .L13+4
 176 000e FFF7FEFF 		bl	controller_step
 177              	.LVL1:
  41:./Application/Src/user_timer.c **** 
  42:./Application/Src/user_timer.c ****     timer5_tick = 0;
 178              		.loc 1 42 5 view .LVU34
 179              		.loc 1 42 17 is_stmt 0 view .LVU35
 180 0012 0023     		movs	r3, #0
 181 0014 2370     		strb	r3, [r4]
  43:./Application/Src/user_timer.c **** }
 182              		.loc 1 43 1 view .LVU36
 183 0016 10BD     		pop	{r4, pc}
 184              	.L14:
 185              		.align	2
 186              	.L13:
 187 0018 00000000 		.word	timer5_tick
ARM GAS  C:\Users\admin\AppData\Local\Temp\cczO68ZP.s 			page 5


 188 001c 6F12833A 		.word	981668463
 189              		.cfi_endproc
 190              	.LFE361:
 192              		.section	.text.wait_ms,"ax",%progbits
 193              		.align	1
 194              		.global	wait_ms
 195              		.syntax unified
 196              		.thumb
 197              		.thumb_func
 199              	wait_ms:
 200              	.LVL2:
 201              	.LFB362:
  44:./Application/Src/user_timer.c **** 
  45:./Application/Src/user_timer.c **** void wait_ms(uint16_t ms){
 202              		.loc 1 45 26 is_stmt 1 view -0
 203              		.cfi_startproc
 204              		@ args = 0, pretend = 0, frame = 0
 205              		@ frame_needed = 0, uses_anonymous_args = 0
 206              		@ link register save eliminated.
  46:./Application/Src/user_timer.c ****     // reset the wait counter first:
  47:./Application/Src/user_timer.c ****     wait_timer = 0;
 207              		.loc 1 47 5 view .LVU38
 208              		.loc 1 47 16 is_stmt 0 view .LVU39
 209 0000 044B     		ldr	r3, .L17
 210 0002 0022     		movs	r2, #0
 211 0004 1A80     		strh	r2, [r3]	@ movhi
  48:./Application/Src/user_timer.c ****     while(wait_timer < ms){
 212              		.loc 1 48 5 is_stmt 1 view .LVU40
 213              	.L16:
  49:./Application/Src/user_timer.c ****         // busy wait
  50:./Application/Src/user_timer.c ****     }
 214              		.loc 1 50 5 view .LVU41
  48:./Application/Src/user_timer.c ****     while(wait_timer < ms){
 215              		.loc 1 48 22 discriminator 1 view .LVU42
 216 0006 034B     		ldr	r3, .L17
 217 0008 1B88     		ldrh	r3, [r3]
 218 000a 9BB2     		uxth	r3, r3
 219 000c 8342     		cmp	r3, r0
 220 000e FAD3     		bcc	.L16
  51:./Application/Src/user_timer.c **** }...
 221              		.loc 1 51 1 is_stmt 0 view .LVU43
 222 0010 7047     		bx	lr
 223              	.L18:
 224 0012 00BF     		.align	2
 225              	.L17:
 226 0014 00000000 		.word	wait_timer
 227              		.cfi_endproc
 228              	.LFE362:
 230              		.global	wait_timer
 231              		.section	.bss.wait_timer,"aw",%nobits
 232              		.align	1
 235              	wait_timer:
 236 0000 0000     		.space	2
 237              		.global	menu_update_flag
 238              		.section	.bss.menu_update_flag,"aw",%nobits
 241              	menu_update_flag:
 242 0000 00       		.space	1
ARM GAS  C:\Users\admin\AppData\Local\Temp\cczO68ZP.s 			page 6


 243              		.global	timer5_tick
 244              		.section	.bss.timer5_tick,"aw",%nobits
 247              	timer5_tick:
 248 0000 00       		.space	1
 249              		.global	timer2_tick_test
 250              		.section	.bss.timer2_tick_test,"aw",%nobits
 251              		.align	1
 254              	timer2_tick_test:
 255 0000 0000     		.space	2
 256              		.global	timer2_tick_MENU
 257              		.section	.bss.timer2_tick_MENU,"aw",%nobits
 260              	timer2_tick_MENU:
 261 0000 00       		.space	1
 262              		.text
 263              	.Letext0:
 264              		.file 2 "C:/arm-bare-metal/arm-none-eabi/include/machine/_default_types.h"
 265              		.file 3 "C:/arm-bare-metal/arm-none-eabi/include/sys/_stdint.h"
 266              		.file 4 "Drivers/CMSIS/Device/ST/STM32H5xx/Include/stm32h523xx.h"
 267              		.file 5 "Application/Inc/application.h"
 268              		.file 6 "Drivers/STM32H5xx_HAL_Driver/Inc/stm32h5xx_hal_gpio.h"
ARM GAS  C:\Users\admin\AppData\Local\Temp\cczO68ZP.s 			page 7


DEFINED SYMBOLS
                            *ABS*:00000000 user_timer.c
C:\Users\admin\AppData\Local\Temp\cczO68ZP.s:22     .text.user_timer_tick_init:00000000 $t
C:\Users\admin\AppData\Local\Temp\cczO68ZP.s:28     .text.user_timer_tick_init:00000000 user_timer_tick_init
C:\Users\admin\AppData\Local\Temp\cczO68ZP.s:57     .text.user_timer_tick_init:00000014 $d
C:\Users\admin\AppData\Local\Temp\cczO68ZP.s:260    .bss.timer2_tick_MENU:00000000 timer2_tick_MENU
C:\Users\admin\AppData\Local\Temp\cczO68ZP.s:254    .bss.timer2_tick_test:00000000 timer2_tick_test
C:\Users\admin\AppData\Local\Temp\cczO68ZP.s:247    .bss.timer5_tick:00000000 timer5_tick
C:\Users\admin\AppData\Local\Temp\cczO68ZP.s:241    .bss.menu_update_flag:00000000 menu_update_flag
C:\Users\admin\AppData\Local\Temp\cczO68ZP.s:65     .text.user_timer2_ISR:00000000 $t
C:\Users\admin\AppData\Local\Temp\cczO68ZP.s:71     .text.user_timer2_ISR:00000000 user_timer2_ISR
C:\Users\admin\AppData\Local\Temp\cczO68ZP.s:142    .text.user_timer2_ISR:0000004c $d
C:\Users\admin\AppData\Local\Temp\cczO68ZP.s:235    .bss.wait_timer:00000000 wait_timer
C:\Users\admin\AppData\Local\Temp\cczO68ZP.s:151    .text.user_timer5_ISR:00000000 $t
C:\Users\admin\AppData\Local\Temp\cczO68ZP.s:157    .text.user_timer5_ISR:00000000 user_timer5_ISR
C:\Users\admin\AppData\Local\Temp\cczO68ZP.s:187    .text.user_timer5_ISR:00000018 $d
C:\Users\admin\AppData\Local\Temp\cczO68ZP.s:193    .text.wait_ms:00000000 $t
C:\Users\admin\AppData\Local\Temp\cczO68ZP.s:199    .text.wait_ms:00000000 wait_ms
C:\Users\admin\AppData\Local\Temp\cczO68ZP.s:226    .text.wait_ms:00000014 $d
C:\Users\admin\AppData\Local\Temp\cczO68ZP.s:232    .bss.wait_timer:00000000 $d
C:\Users\admin\AppData\Local\Temp\cczO68ZP.s:242    .bss.menu_update_flag:00000000 $d
C:\Users\admin\AppData\Local\Temp\cczO68ZP.s:248    .bss.timer5_tick:00000000 $d
C:\Users\admin\AppData\Local\Temp\cczO68ZP.s:251    .bss.timer2_tick_test:00000000 $d
C:\Users\admin\AppData\Local\Temp\cczO68ZP.s:261    .bss.timer2_tick_MENU:00000000 $d

UNDEFINED SYMBOLS
HAL_GPIO_TogglePin
controller_step
