ARM GAS  C:\Users\Xuleo\AppData\Local\Temp\ccnYbsPc.s 			page 1


   1              		.cpu cortex-m3
   2              		.arch armv7-m
   3              		.fpu softvfp
   4              		.eabi_attribute 20, 1
   5              		.eabi_attribute 21, 1
   6              		.eabi_attribute 23, 3
   7              		.eabi_attribute 24, 1
   8              		.eabi_attribute 25, 1
   9              		.eabi_attribute 26, 1
  10              		.eabi_attribute 30, 1
  11              		.eabi_attribute 34, 1
  12              		.eabi_attribute 18, 4
  13              		.file	"utils.c"
  14              		.text
  15              	.Ltext0:
  16              		.cfi_sections	.debug_frame
  17              		.file 1 "./Application/Src/utils.c"
  18              		.section	.text.clamp_f,"ax",%progbits
  19              		.align	1
  20              		.global	clamp_f
  21              		.syntax unified
  22              		.thumb
  23              		.thumb_func
  25              	clamp_f:
  26              	.LVL0:
  27              	.LFB0:
   1:./Application/Src/utils.c **** #include <utils.h>
   2:./Application/Src/utils.c **** 
   3:./Application/Src/utils.c **** float clamp_f(float val, float min, float max) {
  28              		.loc 1 3 48 view -0
  29              		.cfi_startproc
  30              		@ args = 0, pretend = 0, frame = 0
  31              		@ frame_needed = 0, uses_anonymous_args = 0
  32              		.loc 1 3 48 is_stmt 0 view .LVU1
  33 0000 70B5     		push	{r4, r5, r6, lr}
  34              	.LCFI0:
  35              		.cfi_def_cfa_offset 16
  36              		.cfi_offset 4, -16
  37              		.cfi_offset 5, -12
  38              		.cfi_offset 6, -8
  39              		.cfi_offset 14, -4
  40 0002 0546     		mov	r5, r0
  41 0004 0E46     		mov	r6, r1
  42 0006 1446     		mov	r4, r2
   4:./Application/Src/utils.c ****     if (val < min) return min;
  43              		.loc 1 4 5 is_stmt 1 view .LVU2
  44              		.loc 1 4 8 is_stmt 0 view .LVU3
  45 0008 FFF7FEFF 		bl	__aeabi_fcmplt
  46              	.LVL1:
  47              		.loc 1 4 8 view .LVU4
  48 000c 30B9     		cbnz	r0, .L3
   5:./Application/Src/utils.c ****     if (val > max) return max;
  49              		.loc 1 5 5 is_stmt 1 view .LVU5
  50              		.loc 1 5 8 is_stmt 0 view .LVU6
  51 000e 2146     		mov	r1, r4
  52 0010 2846     		mov	r0, r5
  53 0012 FFF7FEFF 		bl	__aeabi_fcmpgt
ARM GAS  C:\Users\Xuleo\AppData\Local\Temp\ccnYbsPc.s 			page 2


  54              	.LVL2:
  55 0016 18B9     		cbnz	r0, .L4
   6:./Application/Src/utils.c ****     return val;
  56              		.loc 1 6 12 view .LVU7
  57 0018 2846     		mov	r0, r5
  58              	.L1:
   7:./Application/Src/utils.c **** }
  59              		.loc 1 7 1 view .LVU8
  60 001a 70BD     		pop	{r4, r5, r6, pc}
  61              	.LVL3:
  62              	.L3:
   4:./Application/Src/utils.c ****     if (val > max) return max;
  63              		.loc 1 4 27 discriminator 1 view .LVU9
  64 001c 3046     		mov	r0, r6
  65 001e FCE7     		b	.L1
  66              	.L4:
   5:./Application/Src/utils.c ****     return val;
  67              		.loc 1 5 27 discriminator 1 view .LVU10
  68 0020 2046     		mov	r0, r4
  69 0022 FAE7     		b	.L1
  70              		.cfi_endproc
  71              	.LFE0:
  73              		.section	.text.pid_cycle,"ax",%progbits
  74              		.align	1
  75              		.global	pid_cycle
  76              		.syntax unified
  77              		.thumb
  78              		.thumb_func
  80              	pid_cycle:
  81              	.LVL4:
  82              	.LFB1:
   8:./Application/Src/utils.c **** 
   9:./Application/Src/utils.c **** inline float pid_cycle(PID_t *sys, float err, const float delta_t){
  83              		.loc 1 9 67 is_stmt 1 view -0
  84              		.cfi_startproc
  85              		@ args = 0, pretend = 0, frame = 0
  86              		@ frame_needed = 0, uses_anonymous_args = 0
  87              		.loc 1 9 67 is_stmt 0 view .LVU12
  88 0000 2DE9F041 		push	{r4, r5, r6, r7, r8, lr}
  89              	.LCFI1:
  90              		.cfi_def_cfa_offset 24
  91              		.cfi_offset 4, -24
  92              		.cfi_offset 5, -20
  93              		.cfi_offset 6, -16
  94              		.cfi_offset 7, -12
  95              		.cfi_offset 8, -8
  96              		.cfi_offset 14, -4
  97 0004 0446     		mov	r4, r0
  98 0006 0D46     		mov	r5, r1
  99 0008 1746     		mov	r7, r2
  10:./Application/Src/utils.c ****     sys->integral += err*delta_t;
 100              		.loc 1 10 5 is_stmt 1 view .LVU13
 101              		.loc 1 10 8 is_stmt 0 view .LVU14
 102 000a 0669     		ldr	r6, [r0, #16]	@ float
 103              		.loc 1 10 25 view .LVU15
 104 000c 1146     		mov	r1, r2
 105              	.LVL5:
ARM GAS  C:\Users\Xuleo\AppData\Local\Temp\ccnYbsPc.s 			page 3


 106              		.loc 1 10 25 view .LVU16
 107 000e 2846     		mov	r0, r5
 108              	.LVL6:
 109              		.loc 1 10 25 view .LVU17
 110 0010 FFF7FEFF 		bl	__aeabi_fmul
 111              	.LVL7:
 112              		.loc 1 10 25 view .LVU18
 113 0014 0146     		mov	r1, r0
 114              		.loc 1 10 19 view .LVU19
 115 0016 3046     		mov	r0, r6
 116 0018 FFF7FEFF 		bl	__aeabi_fadd
 117              	.LVL8:
 118 001c 8046     		mov	r8, r0
 119 001e 2061     		str	r0, [r4, #16]	@ float
  11:./Application/Src/utils.c ****     if(sys->integral > sys->integral_max){
 120              		.loc 1 11 5 is_stmt 1 view .LVU20
 121              		.loc 1 11 27 is_stmt 0 view .LVU21
 122 0020 E668     		ldr	r6, [r4, #12]	@ float
 123              		.loc 1 11 7 view .LVU22
 124 0022 3146     		mov	r1, r6
 125 0024 FFF7FEFF 		bl	__aeabi_fcmpgt
 126              	.LVL9:
 127 0028 08B3     		cbz	r0, .L13
  12:./Application/Src/utils.c ****         sys->integral = sys->integral_max;
 128              		.loc 1 12 9 is_stmt 1 view .LVU23
 129              		.loc 1 12 23 is_stmt 0 view .LVU24
 130 002a 2661     		str	r6, [r4, #16]	@ float
 131              	.L9:
  13:./Application/Src/utils.c ****     }else if(sys->integral < -sys->integral_max){
  14:./Application/Src/utils.c ****         sys->integral = -sys->integral_max;
  15:./Application/Src/utils.c ****     }
  16:./Application/Src/utils.c ****     
  17:./Application/Src/utils.c ****     float derivative = (err - sys->err_m1)/delta_t;
 132              		.loc 1 17 5 is_stmt 1 view .LVU25
 133              		.loc 1 17 29 is_stmt 0 view .LVU26
 134 002c 6169     		ldr	r1, [r4, #20]	@ float
 135 002e 2846     		mov	r0, r5
 136 0030 FFF7FEFF 		bl	__aeabi_fsub
 137              	.LVL10:
 138              		.loc 1 17 11 view .LVU27
 139 0034 3946     		mov	r1, r7
 140 0036 FFF7FEFF 		bl	__aeabi_fdiv
 141              	.LVL11:
 142 003a 0746     		mov	r7, r0
 143              	.LVL12:
  18:./Application/Src/utils.c ****     float output = sys->P * err + sys->I * sys->integral + sys->D * derivative;
 144              		.loc 1 18 5 is_stmt 1 view .LVU28
 145              		.loc 1 18 27 is_stmt 0 view .LVU29
 146 003c 2946     		mov	r1, r5
 147 003e 2068     		ldr	r0, [r4]	@ float
 148              	.LVL13:
 149              		.loc 1 18 27 view .LVU30
 150 0040 FFF7FEFF 		bl	__aeabi_fmul
 151              	.LVL14:
 152 0044 0646     		mov	r6, r0
 153              		.loc 1 18 42 view .LVU31
 154 0046 2169     		ldr	r1, [r4, #16]	@ float
ARM GAS  C:\Users\Xuleo\AppData\Local\Temp\ccnYbsPc.s 			page 4


 155 0048 6068     		ldr	r0, [r4, #4]	@ float
 156 004a FFF7FEFF 		bl	__aeabi_fmul
 157              	.LVL15:
 158 004e 0146     		mov	r1, r0
 159              		.loc 1 18 33 view .LVU32
 160 0050 3046     		mov	r0, r6
 161 0052 FFF7FEFF 		bl	__aeabi_fadd
 162              	.LVL16:
 163 0056 0646     		mov	r6, r0
 164              		.loc 1 18 67 view .LVU33
 165 0058 3946     		mov	r1, r7
 166 005a A068     		ldr	r0, [r4, #8]	@ float
 167 005c FFF7FEFF 		bl	__aeabi_fmul
 168              	.LVL17:
 169 0060 0146     		mov	r1, r0
 170              		.loc 1 18 11 view .LVU34
 171 0062 3046     		mov	r0, r6
 172 0064 FFF7FEFF 		bl	__aeabi_fadd
 173              	.LVL18:
  19:./Application/Src/utils.c **** 
  20:./Application/Src/utils.c ****     sys->err_m1 = err;
 174              		.loc 1 20 5 is_stmt 1 view .LVU35
 175              		.loc 1 20 17 is_stmt 0 view .LVU36
 176 0068 6561     		str	r5, [r4, #20]	@ float
  21:./Application/Src/utils.c ****     return output;
 177              		.loc 1 21 5 is_stmt 1 view .LVU37
  22:./Application/Src/utils.c **** }
 178              		.loc 1 22 1 is_stmt 0 view .LVU38
 179 006a BDE8F081 		pop	{r4, r5, r6, r7, r8, pc}
 180              	.LVL19:
 181              	.L13:
  13:./Application/Src/utils.c ****         sys->integral = -sys->integral_max;
 182              		.loc 1 13 11 is_stmt 1 view .LVU39
  13:./Application/Src/utils.c ****         sys->integral = -sys->integral_max;
 183              		.loc 1 13 30 is_stmt 0 view .LVU40
 184 006e 06F10046 		add	r6, r6, #-2147483648
  13:./Application/Src/utils.c ****         sys->integral = -sys->integral_max;
 185              		.loc 1 13 13 view .LVU41
 186 0072 3146     		mov	r1, r6
 187 0074 4046     		mov	r0, r8
 188 0076 FFF7FEFF 		bl	__aeabi_fcmplt
 189              	.LVL20:
 190 007a 0028     		cmp	r0, #0
 191 007c D6D0     		beq	.L9
  14:./Application/Src/utils.c ****     }
 192              		.loc 1 14 9 is_stmt 1 view .LVU42
  14:./Application/Src/utils.c ****     }
 193              		.loc 1 14 23 is_stmt 0 view .LVU43
 194 007e 2661     		str	r6, [r4, #16]	@ float
 195 0080 D4E7     		b	.L9
 196              		.cfi_endproc
 197              	.LFE1:
 199              		.text
 200              	.Letext0:
 201              		.file 2 "Application/Inc/utils.h"
ARM GAS  C:\Users\Xuleo\AppData\Local\Temp\ccnYbsPc.s 			page 5

